

Microchip MPLAB XC8 Assembler V2.31 build 20201012212115 
                                                                                               Sun Apr 11 06:29:57 2021

Microchip MPLAB XC8 C Compiler v2.31 (Free license) build 20201012212115 Og1 
     1                           	processor	16F1459
     2                           	pagewidth 120
     3                           	opt	flic
     4                           	psect	idataBIGRAM,global,class=CODE,delta=2,noexec
     5                           	psect	stringtext1,global,class=STRCODE,delta=2,noexec
     6                           	psect	stringtext2,global,class=STRCODE,delta=2,noexec
     7                           	psect	stringtext3,global,class=STRCODE,delta=2,noexec
     8                           	psect	stringtext4,global,class=STRCODE,delta=2,noexec
     9                           	psect	stringtext5,global,class=STRCODE,delta=2,noexec
    10                           	psect	stringtext6,global,class=STRCODE,delta=2,noexec
    11                           	psect	stringtext7,global,class=STRCODE,delta=2,noexec
    12                           	psect	stringtext8,global,class=STRCODE,delta=2,noexec
    13                           	psect	nvBANK4,global,class=BANK4,space=1,delta=1,noexec
    14                           	psect	stringtext9,global,class=STRCODE,delta=2,noexec
    15                           	psect	stringtext10,global,class=STRCODE,delta=2,noexec
    16                           	psect	cinit,global,class=CODE,merge=1,delta=2
    17                           	psect	bssBANK1,global,class=BANK1,space=1,delta=1,noexec
    18                           	psect	bssBANK3,global,class=BANK3,space=1,delta=1,noexec
    19                           	psect	bssBANK4,global,class=BANK4,space=1,delta=1,noexec
    20                           	psect	bssBANK5,global,class=BANK5,space=1,delta=1,noexec
    21                           	psect	bssBANK6,global,class=BANK6,space=1,delta=1,noexec
    22                           	psect	inittext,global,class=CODE,delta=2
    23                           	psect	clrtext,global,class=CODE,delta=2
    24                           	psect	cstackBANK4,global,class=BANK4,space=1,delta=1,noexec
    25                           	psect	cstackBANK1,global,class=BANK1,space=1,delta=1,noexec
    26                           	psect	cstackCOMMON,global,class=COMMON,space=1,delta=1,noexec
    27                           	psect	cstackBANK0,global,class=BANK0,space=1,delta=1,noexec
    28                           	psect	maintext,global,class=CODE,merge=1,split=1,delta=2
    29                           	psect	text1,local,class=CODE,merge=1,delta=2
    30                           	psect	text2,local,class=CODE,merge=1,delta=2
    31                           	psect	text3,local,class=CODE,merge=1,delta=2
    32                           	psect	text4,local,class=CODE,merge=1,delta=2
    33                           	psect	text5,local,class=CODE,merge=1,delta=2
    34                           	psect	text6,local,class=CODE,merge=1,delta=2
    35                           	psect	text7,local,class=CODE,merge=1,delta=2
    36                           	psect	text8,local,class=CODE,merge=1,delta=2
    37                           	psect	text9,local,class=CODE,merge=1,delta=2
    38                           	psect	text10,local,class=CODE,merge=1,delta=2
    39                           	psect	text11,local,class=CODE,merge=1,delta=2
    40                           	psect	text12,local,class=CODE,merge=1,delta=2
    41                           	psect	text13,local,class=CODE,merge=1,delta=2
    42                           	psect	text14,local,class=CODE,merge=1,delta=2
    43                           	psect	text15,local,class=CODE,merge=1,delta=2
    44                           	psect	text16,local,class=CODE,merge=1,delta=2
    45                           	psect	text17,local,class=CODE,merge=1,delta=2
    46                           	psect	text18,local,class=CODE,merge=1,delta=2
    47                           	psect	text19,local,class=CODE,merge=1,delta=2
    48                           	psect	text20,local,class=CODE,merge=1,delta=2
    49                           	psect	text21,local,class=CODE,merge=1,delta=2
    50                           	psect	text22,local,class=CODE,merge=1,delta=2
    51                           	psect	text23,local,class=CODE,merge=1,delta=2
    52                           	psect	text24,local,class=CODE,merge=1,delta=2
    53                           	psect	text25,local,class=CODE,merge=1,delta=2
    54                           	psect	text26,local,class=CODE,merge=1,delta=2
    55                           	psect	intentry,global,class=CODE,delta=2
    56                           	psect	text28,local,class=CODE,merge=1,delta=2
    57                           	psect	text29,local,class=CODE,merge=1,delta=2
    58                           	psect	text30,local,class=CODE,merge=1,delta=2
    59                           	psect	text31,local,class=CODE,merge=1,delta=2
    60                           	psect	text32,local,class=CODE,merge=1,delta=2
    61                           	psect	text33,local,class=CODE,merge=1,delta=2
    62                           	psect	text34,local,class=CODE,merge=1,delta=2
    63                           	psect	text35,local,class=CODE,merge=1,delta=2,group=2
    64                           	psect	text36,local,class=CODE,merge=1,delta=2
    65                           	psect	text37,local,class=CODE,merge=1,delta=2
    66                           	psect	text38,local,class=CODE,merge=1,delta=2
    67                           	psect	text39,local,class=CODE,merge=1,delta=2
    68                           	psect	text40,local,class=CODE,merge=1,delta=2
    69                           	psect	text41,local,class=CODE,merge=1,delta=2,group=2
    70                           	psect	text42,local,class=CODE,merge=1,delta=2
    71                           	psect	text43,local,class=CODE,merge=1,delta=2
    72                           	psect	text44,local,class=CODE,merge=1,delta=2
    73                           	psect	text45,local,class=CODE,merge=1,delta=2
    74                           	psect	text46,local,class=CODE,merge=1,delta=2
    75                           	psect	text47,local,class=CODE,merge=1,delta=2
    76                           	psect	text48,local,class=CODE,merge=1,delta=2
    77                           	psect	text49,local,class=CODE,merge=1,delta=2
    78                           	psect	text50,local,class=CODE,merge=1,delta=2
    79                           	psect	text51,local,class=CODE,merge=1,delta=2
    80                           	psect	text52,local,class=CODE,merge=1,delta=2
    81                           	psect	text53,local,class=CODE,merge=1,delta=2
    82                           	psect	text54,local,class=CODE,merge=1,delta=2
    83                           	psect	text55,local,class=CODE,merge=1,delta=2
    84                           	psect	text56,local,class=CODE,merge=1,delta=2
    85                           	psect	text57,local,class=CODE,merge=1,delta=2
    86                           	psect	config,global,abs,ovrld,class=CONFIG,space=4,delta=2,noexec
    87                           	dabs	1,0x1A0,16
    88                           	dabs	1,0x140,48
    89                           	dabs	1,0x120,32
    90                           	dabs	1,0xD0,32
    91                           	dabs	1,0x620,48
    92                           	dabs	1,0x5A0,80
    93                           	dabs	1,0x520,80
    94                           	dabs	1,0x4A0,80
    95                           	dabs	1,0x420,80
    96                           	dabs	1,0x3C0,48
    97                           	dabs	1,0x20,48,_BDT
    98                           	dabs	1,0x58,8,_CtrlTrfData
    99                           	dabs	1,0x50,8,_SetupPkt
   100                           	dabs	1,0x2250,0,_measarray
   101                           	dabs	1,0x7E,2
   102  0000                     
   103                           ; Version 2.20
   104                           ; Generated 12/02/2020 GMT
   105                           ; 
   106                           ; Copyright © 2020, Microchip Technology Inc. and its subsidiaries ("Microchip")
   107                           ; All rights reserved.
   108                           ; 
   109                           ; This software is developed by Microchip Technology Inc. and its subsidiaries ("Microch
      +                          ip").
   110                           ; 
   111                           ; Redistribution and use in source and binary forms, with or without modification, are
   112                           ; permitted provided that the following conditions are met:
   113                           ; 
   114                           ;     1. Redistributions of source code must retain the above copyright notice, this lis
      +                          t of
   115                           ;        conditions and the following disclaimer.
   116                           ; 
   117                           ;     2. Redistributions in binary form must reproduce the above copyright notice, this 
      +                          list
   118                           ;        of conditions and the following disclaimer in the documentation and/or other
   119                           ;        materials provided with the distribution.
   120                           ; 
   121                           ;     3. Microchip's name may not be used to endorse or promote products derived from th
      +                          is
   122                           ;        software without specific prior written permission.
   123                           ; 
   124                           ; THIS SOFTWARE IS PROVIDED BY MICROCHIP "AS IS" AND ANY EXPRESS OR IMPLIED WARRANTIES,
   125                           ; INCLUDING, BUT NOT LIMITED TO, THE IMPLIED WARRANTIES OF MERCHANTABILITY AND FITNESS F
      +                          OR
   126                           ; PURPOSE ARE DISCLAIMED.  IN NO EVENT SHALL MICROCHIP BE LIABLE FOR ANY DIRECT, INDIREC
      +                          T,
   127                           ; INCIDENTAL, SPECIAL, EXEMPLARY, OR CONSEQUENTIAL DAMAGES (INCLUDING BUT NOT LIMITED TO
   128                           ; PROCUREMENT OF SUBSTITUTE GOODS OR SERVICES; LOSS OF USE, DATA OR PROFITS; OR BUSINESS
   129                           ; INTERRUPTION) HOWSOEVER CAUSED AND ON ANY THEORY OF LIABILITY, WHETHER IN CONTRACT, ST
      +                          RICT
   130                           ; LIABILITY, OR TORT (INCLUDING NEGLIGENCE OR OTHERWISE) ARISING IN ANY WAY OUT OF THE U
      +                          SE OF
   131                           ; THIS SOFTWARE, EVEN IF ADVISED OF THE POSSIBILITY OF SUCH DAMAGE.
   132                           ; 
   133                           ; 
   134                           ; Code-generator required, PIC16F1459 Definitions
   135                           ; 
   136                           ; SFR Addresses
   137  0000                     	;# 
   138  0001                     	;# 
   139  0002                     	;# 
   140  0003                     	;# 
   141  0004                     	;# 
   142  0005                     	;# 
   143  0006                     	;# 
   144  0007                     	;# 
   145  0008                     	;# 
   146  0009                     	;# 
   147  000A                     	;# 
   148  000B                     	;# 
   149  000C                     	;# 
   150  000D                     	;# 
   151  000E                     	;# 
   152  0011                     	;# 
   153  0012                     	;# 
   154  0015                     	;# 
   155  0016                     	;# 
   156  0016                     	;# 
   157  0017                     	;# 
   158  0018                     	;# 
   159  0019                     	;# 
   160  001A                     	;# 
   161  001B                     	;# 
   162  001C                     	;# 
   163  008C                     	;# 
   164  008D                     	;# 
   165  008E                     	;# 
   166  0091                     	;# 
   167  0092                     	;# 
   168  0095                     	;# 
   169  0096                     	;# 
   170  0097                     	;# 
   171  0098                     	;# 
   172  0099                     	;# 
   173  009A                     	;# 
   174  009B                     	;# 
   175  009B                     	;# 
   176  009C                     	;# 
   177  009D                     	;# 
   178  009E                     	;# 
   179  009F                     	;# 
   180  010C                     	;# 
   181  010D                     	;# 
   182  010E                     	;# 
   183  0111                     	;# 
   184  0112                     	;# 
   185  0113                     	;# 
   186  0114                     	;# 
   187  0115                     	;# 
   188  0116                     	;# 
   189  0117                     	;# 
   190  0118                     	;# 
   191  0119                     	;# 
   192  011D                     	;# 
   193  018C                     	;# 
   194  018D                     	;# 
   195  018E                     	;# 
   196  0191                     	;# 
   197  0191                     	;# 
   198  0192                     	;# 
   199  0193                     	;# 
   200  0193                     	;# 
   201  0194                     	;# 
   202  0195                     	;# 
   203  0196                     	;# 
   204  0197                     	;# 
   205  0199                     	;# 
   206  019A                     	;# 
   207  019B                     	;# 
   208  019B                     	;# 
   209  019C                     	;# 
   210  019D                     	;# 
   211  019E                     	;# 
   212  019F                     	;# 
   213  020C                     	;# 
   214  020D                     	;# 
   215  0211                     	;# 
   216  0211                     	;# 
   217  0212                     	;# 
   218  0212                     	;# 
   219  0213                     	;# 
   220  0213                     	;# 
   221  0214                     	;# 
   222  0214                     	;# 
   223  0215                     	;# 
   224  0215                     	;# 
   225  0215                     	;# 
   226  0216                     	;# 
   227  0216                     	;# 
   228  0217                     	;# 
   229  0217                     	;# 
   230  0391                     	;# 
   231  0392                     	;# 
   232  0393                     	;# 
   233  0394                     	;# 
   234  0395                     	;# 
   235  0396                     	;# 
   236  039A                     	;# 
   237  039B                     	;# 
   238  0611                     	;# 
   239  0612                     	;# 
   240  0613                     	;# 
   241  0613                     	;# 
   242  0614                     	;# 
   243  0615                     	;# 
   244  0616                     	;# 
   245  0616                     	;# 
   246  0691                     	;# 
   247  0692                     	;# 
   248  0693                     	;# 
   249  0694                     	;# 
   250  0695                     	;# 
   251  0E8E                     	;# 
   252  0E8F                     	;# 
   253  0E90                     	;# 
   254  0E91                     	;# 
   255  0E92                     	;# 
   256  0E93                     	;# 
   257  0E94                     	;# 
   258  0E94                     	;# 
   259  0E95                     	;# 
   260  0E96                     	;# 
   261  0E97                     	;# 
   262  0E98                     	;# 
   263  0E99                     	;# 
   264  0E9A                     	;# 
   265  0E9B                     	;# 
   266  0E9C                     	;# 
   267  0E9D                     	;# 
   268  0E9E                     	;# 
   269  0E9F                     	;# 
   270  0FE4                     	;# 
   271  0FE5                     	;# 
   272  0FE6                     	;# 
   273  0FE7                     	;# 
   274  0FE8                     	;# 
   275  0FE9                     	;# 
   276  0FEA                     	;# 
   277  0FEB                     	;# 
   278  0FED                     	;# 
   279  0FEE                     	;# 
   280  0FEF                     	;# 
   281  0000                     	;# 
   282  0001                     	;# 
   283  0002                     	;# 
   284  0003                     	;# 
   285  0004                     	;# 
   286  0005                     	;# 
   287  0006                     	;# 
   288  0007                     	;# 
   289  0008                     	;# 
   290  0009                     	;# 
   291  000A                     	;# 
   292  000B                     	;# 
   293  000C                     	;# 
   294  000D                     	;# 
   295  000E                     	;# 
   296  0011                     	;# 
   297  0012                     	;# 
   298  0015                     	;# 
   299  0016                     	;# 
   300  0016                     	;# 
   301  0017                     	;# 
   302  0018                     	;# 
   303  0019                     	;# 
   304  001A                     	;# 
   305  001B                     	;# 
   306  001C                     	;# 
   307  008C                     	;# 
   308  008D                     	;# 
   309  008E                     	;# 
   310  0091                     	;# 
   311  0092                     	;# 
   312  0095                     	;# 
   313  0096                     	;# 
   314  0097                     	;# 
   315  0098                     	;# 
   316  0099                     	;# 
   317  009A                     	;# 
   318  009B                     	;# 
   319  009B                     	;# 
   320  009C                     	;# 
   321  009D                     	;# 
   322  009E                     	;# 
   323  009F                     	;# 
   324  010C                     	;# 
   325  010D                     	;# 
   326  010E                     	;# 
   327  0111                     	;# 
   328  0112                     	;# 
   329  0113                     	;# 
   330  0114                     	;# 
   331  0115                     	;# 
   332  0116                     	;# 
   333  0117                     	;# 
   334  0118                     	;# 
   335  0119                     	;# 
   336  011D                     	;# 
   337  018C                     	;# 
   338  018D                     	;# 
   339  018E                     	;# 
   340  0191                     	;# 
   341  0191                     	;# 
   342  0192                     	;# 
   343  0193                     	;# 
   344  0193                     	;# 
   345  0194                     	;# 
   346  0195                     	;# 
   347  0196                     	;# 
   348  0197                     	;# 
   349  0199                     	;# 
   350  019A                     	;# 
   351  019B                     	;# 
   352  019B                     	;# 
   353  019C                     	;# 
   354  019D                     	;# 
   355  019E                     	;# 
   356  019F                     	;# 
   357  020C                     	;# 
   358  020D                     	;# 
   359  0211                     	;# 
   360  0211                     	;# 
   361  0212                     	;# 
   362  0212                     	;# 
   363  0213                     	;# 
   364  0213                     	;# 
   365  0214                     	;# 
   366  0214                     	;# 
   367  0215                     	;# 
   368  0215                     	;# 
   369  0215                     	;# 
   370  0216                     	;# 
   371  0216                     	;# 
   372  0217                     	;# 
   373  0217                     	;# 
   374  0391                     	;# 
   375  0392                     	;# 
   376  0393                     	;# 
   377  0394                     	;# 
   378  0395                     	;# 
   379  0396                     	;# 
   380  039A                     	;# 
   381  039B                     	;# 
   382  0611                     	;# 
   383  0612                     	;# 
   384  0613                     	;# 
   385  0613                     	;# 
   386  0614                     	;# 
   387  0615                     	;# 
   388  0616                     	;# 
   389  0616                     	;# 
   390  0691                     	;# 
   391  0692                     	;# 
   392  0693                     	;# 
   393  0694                     	;# 
   394  0695                     	;# 
   395  0E8E                     	;# 
   396  0E8F                     	;# 
   397  0E90                     	;# 
   398  0E91                     	;# 
   399  0E92                     	;# 
   400  0E93                     	;# 
   401  0E94                     	;# 
   402  0E94                     	;# 
   403  0E95                     	;# 
   404  0E96                     	;# 
   405  0E97                     	;# 
   406  0E98                     	;# 
   407  0E99                     	;# 
   408  0E9A                     	;# 
   409  0E9B                     	;# 
   410  0E9C                     	;# 
   411  0E9D                     	;# 
   412  0E9E                     	;# 
   413  0E9F                     	;# 
   414  0FE4                     	;# 
   415  0FE5                     	;# 
   416  0FE6                     	;# 
   417  0FE7                     	;# 
   418  0FE8                     	;# 
   419  0FE9                     	;# 
   420  0FEA                     	;# 
   421  0FEB                     	;# 
   422  0FED                     	;# 
   423  0FEE                     	;# 
   424  0FEF                     	;# 
   425  0000                     	;# 
   426  0001                     	;# 
   427  0002                     	;# 
   428  0003                     	;# 
   429  0004                     	;# 
   430  0005                     	;# 
   431  0006                     	;# 
   432  0007                     	;# 
   433  0008                     	;# 
   434  0009                     	;# 
   435  000A                     	;# 
   436  000B                     	;# 
   437  000C                     	;# 
   438  000D                     	;# 
   439  000E                     	;# 
   440  0011                     	;# 
   441  0012                     	;# 
   442  0015                     	;# 
   443  0016                     	;# 
   444  0016                     	;# 
   445  0017                     	;# 
   446  0018                     	;# 
   447  0019                     	;# 
   448  001A                     	;# 
   449  001B                     	;# 
   450  001C                     	;# 
   451  008C                     	;# 
   452  008D                     	;# 
   453  008E                     	;# 
   454  0091                     	;# 
   455  0092                     	;# 
   456  0095                     	;# 
   457  0096                     	;# 
   458  0097                     	;# 
   459  0098                     	;# 
   460  0099                     	;# 
   461  009A                     	;# 
   462  009B                     	;# 
   463  009B                     	;# 
   464  009C                     	;# 
   465  009D                     	;# 
   466  009E                     	;# 
   467  009F                     	;# 
   468  010C                     	;# 
   469  010D                     	;# 
   470  010E                     	;# 
   471  0111                     	;# 
   472  0112                     	;# 
   473  0113                     	;# 
   474  0114                     	;# 
   475  0115                     	;# 
   476  0116                     	;# 
   477  0117                     	;# 
   478  0118                     	;# 
   479  0119                     	;# 
   480  011D                     	;# 
   481  018C                     	;# 
   482  018D                     	;# 
   483  018E                     	;# 
   484  0191                     	;# 
   485  0191                     	;# 
   486  0192                     	;# 
   487  0193                     	;# 
   488  0193                     	;# 
   489  0194                     	;# 
   490  0195                     	;# 
   491  0196                     	;# 
   492  0197                     	;# 
   493  0199                     	;# 
   494  019A                     	;# 
   495  019B                     	;# 
   496  019B                     	;# 
   497  019C                     	;# 
   498  019D                     	;# 
   499  019E                     	;# 
   500  019F                     	;# 
   501  020C                     	;# 
   502  020D                     	;# 
   503  0211                     	;# 
   504  0211                     	;# 
   505  0212                     	;# 
   506  0212                     	;# 
   507  0213                     	;# 
   508  0213                     	;# 
   509  0214                     	;# 
   510  0214                     	;# 
   511  0215                     	;# 
   512  0215                     	;# 
   513  0215                     	;# 
   514  0216                     	;# 
   515  0216                     	;# 
   516  0217                     	;# 
   517  0217                     	;# 
   518  0391                     	;# 
   519  0392                     	;# 
   520  0393                     	;# 
   521  0394                     	;# 
   522  0395                     	;# 
   523  0396                     	;# 
   524  039A                     	;# 
   525  039B                     	;# 
   526  0611                     	;# 
   527  0612                     	;# 
   528  0613                     	;# 
   529  0613                     	;# 
   530  0614                     	;# 
   531  0615                     	;# 
   532  0616                     	;# 
   533  0616                     	;# 
   534  0691                     	;# 
   535  0692                     	;# 
   536  0693                     	;# 
   537  0694                     	;# 
   538  0695                     	;# 
   539  0E8E                     	;# 
   540  0E8F                     	;# 
   541  0E90                     	;# 
   542  0E91                     	;# 
   543  0E92                     	;# 
   544  0E93                     	;# 
   545  0E94                     	;# 
   546  0E94                     	;# 
   547  0E95                     	;# 
   548  0E96                     	;# 
   549  0E97                     	;# 
   550  0E98                     	;# 
   551  0E99                     	;# 
   552  0E9A                     	;# 
   553  0E9B                     	;# 
   554  0E9C                     	;# 
   555  0E9D                     	;# 
   556  0E9E                     	;# 
   557  0E9F                     	;# 
   558  0FE4                     	;# 
   559  0FE5                     	;# 
   560  0FE6                     	;# 
   561  0FE7                     	;# 
   562  0FE8                     	;# 
   563  0FE9                     	;# 
   564  0FEA                     	;# 
   565  0FEB                     	;# 
   566  0FED                     	;# 
   567  0FEE                     	;# 
   568  0FEF                     	;# 
   569  0000                     	;# 
   570  0001                     	;# 
   571  0002                     	;# 
   572  0003                     	;# 
   573  0004                     	;# 
   574  0005                     	;# 
   575  0006                     	;# 
   576  0007                     	;# 
   577  0008                     	;# 
   578  0009                     	;# 
   579  000A                     	;# 
   580  000B                     	;# 
   581  000C                     	;# 
   582  000D                     	;# 
   583  000E                     	;# 
   584  0011                     	;# 
   585  0012                     	;# 
   586  0015                     	;# 
   587  0016                     	;# 
   588  0016                     	;# 
   589  0017                     	;# 
   590  0018                     	;# 
   591  0019                     	;# 
   592  001A                     	;# 
   593  001B                     	;# 
   594  001C                     	;# 
   595  008C                     	;# 
   596  008D                     	;# 
   597  008E                     	;# 
   598  0091                     	;# 
   599  0092                     	;# 
   600  0095                     	;# 
   601  0096                     	;# 
   602  0097                     	;# 
   603  0098                     	;# 
   604  0099                     	;# 
   605  009A                     	;# 
   606  009B                     	;# 
   607  009B                     	;# 
   608  009C                     	;# 
   609  009D                     	;# 
   610  009E                     	;# 
   611  009F                     	;# 
   612  010C                     	;# 
   613  010D                     	;# 
   614  010E                     	;# 
   615  0111                     	;# 
   616  0112                     	;# 
   617  0113                     	;# 
   618  0114                     	;# 
   619  0115                     	;# 
   620  0116                     	;# 
   621  0117                     	;# 
   622  0118                     	;# 
   623  0119                     	;# 
   624  011D                     	;# 
   625  018C                     	;# 
   626  018D                     	;# 
   627  018E                     	;# 
   628  0191                     	;# 
   629  0191                     	;# 
   630  0192                     	;# 
   631  0193                     	;# 
   632  0193                     	;# 
   633  0194                     	;# 
   634  0195                     	;# 
   635  0196                     	;# 
   636  0197                     	;# 
   637  0199                     	;# 
   638  019A                     	;# 
   639  019B                     	;# 
   640  019B                     	;# 
   641  019C                     	;# 
   642  019D                     	;# 
   643  019E                     	;# 
   644  019F                     	;# 
   645  020C                     	;# 
   646  020D                     	;# 
   647  0211                     	;# 
   648  0211                     	;# 
   649  0212                     	;# 
   650  0212                     	;# 
   651  0213                     	;# 
   652  0213                     	;# 
   653  0214                     	;# 
   654  0214                     	;# 
   655  0215                     	;# 
   656  0215                     	;# 
   657  0215                     	;# 
   658  0216                     	;# 
   659  0216                     	;# 
   660  0217                     	;# 
   661  0217                     	;# 
   662  0391                     	;# 
   663  0392                     	;# 
   664  0393                     	;# 
   665  0394                     	;# 
   666  0395                     	;# 
   667  0396                     	;# 
   668  039A                     	;# 
   669  039B                     	;# 
   670  0611                     	;# 
   671  0612                     	;# 
   672  0613                     	;# 
   673  0613                     	;# 
   674  0614                     	;# 
   675  0615                     	;# 
   676  0616                     	;# 
   677  0616                     	;# 
   678  0691                     	;# 
   679  0692                     	;# 
   680  0693                     	;# 
   681  0694                     	;# 
   682  0695                     	;# 
   683  0E8E                     	;# 
   684  0E8F                     	;# 
   685  0E90                     	;# 
   686  0E91                     	;# 
   687  0E92                     	;# 
   688  0E93                     	;# 
   689  0E94                     	;# 
   690  0E94                     	;# 
   691  0E95                     	;# 
   692  0E96                     	;# 
   693  0E97                     	;# 
   694  0E98                     	;# 
   695  0E99                     	;# 
   696  0E9A                     	;# 
   697  0E9B                     	;# 
   698  0E9C                     	;# 
   699  0E9D                     	;# 
   700  0E9E                     	;# 
   701  0E9F                     	;# 
   702  0FE4                     	;# 
   703  0FE5                     	;# 
   704  0FE6                     	;# 
   705  0FE7                     	;# 
   706  0FE8                     	;# 
   707  0FE9                     	;# 
   708  0FEA                     	;# 
   709  0FEB                     	;# 
   710  0FED                     	;# 
   711  0FEE                     	;# 
   712  0FEF                     	;# 
   713  0000                     	;# 
   714  0001                     	;# 
   715  0002                     	;# 
   716  0003                     	;# 
   717  0004                     	;# 
   718  0005                     	;# 
   719  0006                     	;# 
   720  0007                     	;# 
   721  0008                     	;# 
   722  0009                     	;# 
   723  000A                     	;# 
   724  000B                     	;# 
   725  000C                     	;# 
   726  000D                     	;# 
   727  000E                     	;# 
   728  0011                     	;# 
   729  0012                     	;# 
   730  0015                     	;# 
   731  0016                     	;# 
   732  0016                     	;# 
   733  0017                     	;# 
   734  0018                     	;# 
   735  0019                     	;# 
   736  001A                     	;# 
   737  001B                     	;# 
   738  001C                     	;# 
   739  008C                     	;# 
   740  008D                     	;# 
   741  008E                     	;# 
   742  0091                     	;# 
   743  0092                     	;# 
   744  0095                     	;# 
   745  0096                     	;# 
   746  0097                     	;# 
   747  0098                     	;# 
   748  0099                     	;# 
   749  009A                     	;# 
   750  009B                     	;# 
   751  009B                     	;# 
   752  009C                     	;# 
   753  009D                     	;# 
   754  009E                     	;# 
   755  009F                     	;# 
   756  010C                     	;# 
   757  010D                     	;# 
   758  010E                     	;# 
   759  0111                     	;# 
   760  0112                     	;# 
   761  0113                     	;# 
   762  0114                     	;# 
   763  0115                     	;# 
   764  0116                     	;# 
   765  0117                     	;# 
   766  0118                     	;# 
   767  0119                     	;# 
   768  011D                     	;# 
   769  018C                     	;# 
   770  018D                     	;# 
   771  018E                     	;# 
   772  0191                     	;# 
   773  0191                     	;# 
   774  0192                     	;# 
   775  0193                     	;# 
   776  0193                     	;# 
   777  0194                     	;# 
   778  0195                     	;# 
   779  0196                     	;# 
   780  0197                     	;# 
   781  0199                     	;# 
   782  019A                     	;# 
   783  019B                     	;# 
   784  019B                     	;# 
   785  019C                     	;# 
   786  019D                     	;# 
   787  019E                     	;# 
   788  019F                     	;# 
   789  020C                     	;# 
   790  020D                     	;# 
   791  0211                     	;# 
   792  0211                     	;# 
   793  0212                     	;# 
   794  0212                     	;# 
   795  0213                     	;# 
   796  0213                     	;# 
   797  0214                     	;# 
   798  0214                     	;# 
   799  0215                     	;# 
   800  0215                     	;# 
   801  0215                     	;# 
   802  0216                     	;# 
   803  0216                     	;# 
   804  0217                     	;# 
   805  0217                     	;# 
   806  0391                     	;# 
   807  0392                     	;# 
   808  0393                     	;# 
   809  0394                     	;# 
   810  0395                     	;# 
   811  0396                     	;# 
   812  039A                     	;# 
   813  039B                     	;# 
   814  0611                     	;# 
   815  0612                     	;# 
   816  0613                     	;# 
   817  0613                     	;# 
   818  0614                     	;# 
   819  0615                     	;# 
   820  0616                     	;# 
   821  0616                     	;# 
   822  0691                     	;# 
   823  0692                     	;# 
   824  0693                     	;# 
   825  0694                     	;# 
   826  0695                     	;# 
   827  0E8E                     	;# 
   828  0E8F                     	;# 
   829  0E90                     	;# 
   830  0E91                     	;# 
   831  0E92                     	;# 
   832  0E93                     	;# 
   833  0E94                     	;# 
   834  0E94                     	;# 
   835  0E95                     	;# 
   836  0E96                     	;# 
   837  0E97                     	;# 
   838  0E98                     	;# 
   839  0E99                     	;# 
   840  0E9A                     	;# 
   841  0E9B                     	;# 
   842  0E9C                     	;# 
   843  0E9D                     	;# 
   844  0E9E                     	;# 
   845  0E9F                     	;# 
   846  0FE4                     	;# 
   847  0FE5                     	;# 
   848  0FE6                     	;# 
   849  0FE7                     	;# 
   850  0FE8                     	;# 
   851  0FE9                     	;# 
   852  0FEA                     	;# 
   853  0FEB                     	;# 
   854  0FED                     	;# 
   855  0FEE                     	;# 
   856  0FEF                     	;# 
   857  0000                     	;# 
   858  0001                     	;# 
   859  0002                     	;# 
   860  0003                     	;# 
   861  0004                     	;# 
   862  0005                     	;# 
   863  0006                     	;# 
   864  0007                     	;# 
   865  0008                     	;# 
   866  0009                     	;# 
   867  000A                     	;# 
   868  000B                     	;# 
   869  000C                     	;# 
   870  000D                     	;# 
   871  000E                     	;# 
   872  0011                     	;# 
   873  0012                     	;# 
   874  0015                     	;# 
   875  0016                     	;# 
   876  0016                     	;# 
   877  0017                     	;# 
   878  0018                     	;# 
   879  0019                     	;# 
   880  001A                     	;# 
   881  001B                     	;# 
   882  001C                     	;# 
   883  008C                     	;# 
   884  008D                     	;# 
   885  008E                     	;# 
   886  0091                     	;# 
   887  0092                     	;# 
   888  0095                     	;# 
   889  0096                     	;# 
   890  0097                     	;# 
   891  0098                     	;# 
   892  0099                     	;# 
   893  009A                     	;# 
   894  009B                     	;# 
   895  009B                     	;# 
   896  009C                     	;# 
   897  009D                     	;# 
   898  009E                     	;# 
   899  009F                     	;# 
   900  010C                     	;# 
   901  010D                     	;# 
   902  010E                     	;# 
   903  0111                     	;# 
   904  0112                     	;# 
   905  0113                     	;# 
   906  0114                     	;# 
   907  0115                     	;# 
   908  0116                     	;# 
   909  0117                     	;# 
   910  0118                     	;# 
   911  0119                     	;# 
   912  011D                     	;# 
   913  018C                     	;# 
   914  018D                     	;# 
   915  018E                     	;# 
   916  0191                     	;# 
   917  0191                     	;# 
   918  0192                     	;# 
   919  0193                     	;# 
   920  0193                     	;# 
   921  0194                     	;# 
   922  0195                     	;# 
   923  0196                     	;# 
   924  0197                     	;# 
   925  0199                     	;# 
   926  019A                     	;# 
   927  019B                     	;# 
   928  019B                     	;# 
   929  019C                     	;# 
   930  019D                     	;# 
   931  019E                     	;# 
   932  019F                     	;# 
   933  020C                     	;# 
   934  020D                     	;# 
   935  0211                     	;# 
   936  0211                     	;# 
   937  0212                     	;# 
   938  0212                     	;# 
   939  0213                     	;# 
   940  0213                     	;# 
   941  0214                     	;# 
   942  0214                     	;# 
   943  0215                     	;# 
   944  0215                     	;# 
   945  0215                     	;# 
   946  0216                     	;# 
   947  0216                     	;# 
   948  0217                     	;# 
   949  0217                     	;# 
   950  0391                     	;# 
   951  0392                     	;# 
   952  0393                     	;# 
   953  0394                     	;# 
   954  0395                     	;# 
   955  0396                     	;# 
   956  039A                     	;# 
   957  039B                     	;# 
   958  0611                     	;# 
   959  0612                     	;# 
   960  0613                     	;# 
   961  0613                     	;# 
   962  0614                     	;# 
   963  0615                     	;# 
   964  0616                     	;# 
   965  0616                     	;# 
   966  0691                     	;# 
   967  0692                     	;# 
   968  0693                     	;# 
   969  0694                     	;# 
   970  0695                     	;# 
   971  0E8E                     	;# 
   972  0E8F                     	;# 
   973  0E90                     	;# 
   974  0E91                     	;# 
   975  0E92                     	;# 
   976  0E93                     	;# 
   977  0E94                     	;# 
   978  0E94                     	;# 
   979  0E95                     	;# 
   980  0E96                     	;# 
   981  0E97                     	;# 
   982  0E98                     	;# 
   983  0E99                     	;# 
   984  0E9A                     	;# 
   985  0E9B                     	;# 
   986  0E9C                     	;# 
   987  0E9D                     	;# 
   988  0E9E                     	;# 
   989  0E9F                     	;# 
   990  0FE4                     	;# 
   991  0FE5                     	;# 
   992  0FE6                     	;# 
   993  0FE7                     	;# 
   994  0FE8                     	;# 
   995  0FE9                     	;# 
   996  0FEA                     	;# 
   997  0FEB                     	;# 
   998  0FED                     	;# 
   999  0FEE                     	;# 
  1000  0FEF                     	;# 
  1001  0000                     	;# 
  1002  0001                     	;# 
  1003  0002                     	;# 
  1004  0003                     	;# 
  1005  0004                     	;# 
  1006  0005                     	;# 
  1007  0006                     	;# 
  1008  0007                     	;# 
  1009  0008                     	;# 
  1010  0009                     	;# 
  1011  000A                     	;# 
  1012  000B                     	;# 
  1013  000C                     	;# 
  1014  000D                     	;# 
  1015  000E                     	;# 
  1016  0011                     	;# 
  1017  0012                     	;# 
  1018  0015                     	;# 
  1019  0016                     	;# 
  1020  0016                     	;# 
  1021  0017                     	;# 
  1022  0018                     	;# 
  1023  0019                     	;# 
  1024  001A                     	;# 
  1025  001B                     	;# 
  1026  001C                     	;# 
  1027  008C                     	;# 
  1028  008D                     	;# 
  1029  008E                     	;# 
  1030  0091                     	;# 
  1031  0092                     	;# 
  1032  0095                     	;# 
  1033  0096                     	;# 
  1034  0097                     	;# 
  1035  0098                     	;# 
  1036  0099                     	;# 
  1037  009A                     	;# 
  1038  009B                     	;# 
  1039  009B                     	;# 
  1040  009C                     	;# 
  1041  009D                     	;# 
  1042  009E                     	;# 
  1043  009F                     	;# 
  1044  010C                     	;# 
  1045  010D                     	;# 
  1046  010E                     	;# 
  1047  0111                     	;# 
  1048  0112                     	;# 
  1049  0113                     	;# 
  1050  0114                     	;# 
  1051  0115                     	;# 
  1052  0116                     	;# 
  1053  0117                     	;# 
  1054  0118                     	;# 
  1055  0119                     	;# 
  1056  011D                     	;# 
  1057  018C                     	;# 
  1058  018D                     	;# 
  1059  018E                     	;# 
  1060  0191                     	;# 
  1061  0191                     	;# 
  1062  0192                     	;# 
  1063  0193                     	;# 
  1064  0193                     	;# 
  1065  0194                     	;# 
  1066  0195                     	;# 
  1067  0196                     	;# 
  1068  0197                     	;# 
  1069  0199                     	;# 
  1070  019A                     	;# 
  1071  019B                     	;# 
  1072  019B                     	;# 
  1073  019C                     	;# 
  1074  019D                     	;# 
  1075  019E                     	;# 
  1076  019F                     	;# 
  1077  020C                     	;# 
  1078  020D                     	;# 
  1079  0211                     	;# 
  1080  0211                     	;# 
  1081  0212                     	;# 
  1082  0212                     	;# 
  1083  0213                     	;# 
  1084  0213                     	;# 
  1085  0214                     	;# 
  1086  0214                     	;# 
  1087  0215                     	;# 
  1088  0215                     	;# 
  1089  0215                     	;# 
  1090  0216                     	;# 
  1091  0216                     	;# 
  1092  0217                     	;# 
  1093  0217                     	;# 
  1094  0391                     	;# 
  1095  0392                     	;# 
  1096  0393                     	;# 
  1097  0394                     	;# 
  1098  0395                     	;# 
  1099  0396                     	;# 
  1100  039A                     	;# 
  1101  039B                     	;# 
  1102  0611                     	;# 
  1103  0612                     	;# 
  1104  0613                     	;# 
  1105  0613                     	;# 
  1106  0614                     	;# 
  1107  0615                     	;# 
  1108  0616                     	;# 
  1109  0616                     	;# 
  1110  0691                     	;# 
  1111  0692                     	;# 
  1112  0693                     	;# 
  1113  0694                     	;# 
  1114  0695                     	;# 
  1115  0E8E                     	;# 
  1116  0E8F                     	;# 
  1117  0E90                     	;# 
  1118  0E91                     	;# 
  1119  0E92                     	;# 
  1120  0E93                     	;# 
  1121  0E94                     	;# 
  1122  0E94                     	;# 
  1123  0E95                     	;# 
  1124  0E96                     	;# 
  1125  0E97                     	;# 
  1126  0E98                     	;# 
  1127  0E99                     	;# 
  1128  0E9A                     	;# 
  1129  0E9B                     	;# 
  1130  0E9C                     	;# 
  1131  0E9D                     	;# 
  1132  0E9E                     	;# 
  1133  0E9F                     	;# 
  1134  0FE4                     	;# 
  1135  0FE5                     	;# 
  1136  0FE6                     	;# 
  1137  0FE7                     	;# 
  1138  0FE8                     	;# 
  1139  0FE9                     	;# 
  1140  0FEA                     	;# 
  1141  0FEB                     	;# 
  1142  0FED                     	;# 
  1143  0FEE                     	;# 
  1144  0FEF                     	;# 
  1145  0000                     	;# 
  1146  0001                     	;# 
  1147  0002                     	;# 
  1148  0003                     	;# 
  1149  0004                     	;# 
  1150  0005                     	;# 
  1151  0006                     	;# 
  1152  0007                     	;# 
  1153  0008                     	;# 
  1154  0009                     	;# 
  1155  000A                     	;# 
  1156  000B                     	;# 
  1157  000C                     	;# 
  1158  000D                     	;# 
  1159  000E                     	;# 
  1160  0011                     	;# 
  1161  0012                     	;# 
  1162  0015                     	;# 
  1163  0016                     	;# 
  1164  0016                     	;# 
  1165  0017                     	;# 
  1166  0018                     	;# 
  1167  0019                     	;# 
  1168  001A                     	;# 
  1169  001B                     	;# 
  1170  001C                     	;# 
  1171  008C                     	;# 
  1172  008D                     	;# 
  1173  008E                     	;# 
  1174  0091                     	;# 
  1175  0092                     	;# 
  1176  0095                     	;# 
  1177  0096                     	;# 
  1178  0097                     	;# 
  1179  0098                     	;# 
  1180  0099                     	;# 
  1181  009A                     	;# 
  1182  009B                     	;# 
  1183  009B                     	;# 
  1184  009C                     	;# 
  1185  009D                     	;# 
  1186  009E                     	;# 
  1187  009F                     	;# 
  1188  010C                     	;# 
  1189  010D                     	;# 
  1190  010E                     	;# 
  1191  0111                     	;# 
  1192  0112                     	;# 
  1193  0113                     	;# 
  1194  0114                     	;# 
  1195  0115                     	;# 
  1196  0116                     	;# 
  1197  0117                     	;# 
  1198  0118                     	;# 
  1199  0119                     	;# 
  1200  011D                     	;# 
  1201  018C                     	;# 
  1202  018D                     	;# 
  1203  018E                     	;# 
  1204  0191                     	;# 
  1205  0191                     	;# 
  1206  0192                     	;# 
  1207  0193                     	;# 
  1208  0193                     	;# 
  1209  0194                     	;# 
  1210  0195                     	;# 
  1211  0196                     	;# 
  1212  0197                     	;# 
  1213  0199                     	;# 
  1214  019A                     	;# 
  1215  019B                     	;# 
  1216  019B                     	;# 
  1217  019C                     	;# 
  1218  019D                     	;# 
  1219  019E                     	;# 
  1220  019F                     	;# 
  1221  020C                     	;# 
  1222  020D                     	;# 
  1223  0211                     	;# 
  1224  0211                     	;# 
  1225  0212                     	;# 
  1226  0212                     	;# 
  1227  0213                     	;# 
  1228  0213                     	;# 
  1229  0214                     	;# 
  1230  0214                     	;# 
  1231  0215                     	;# 
  1232  0215                     	;# 
  1233  0215                     	;# 
  1234  0216                     	;# 
  1235  0216                     	;# 
  1236  0217                     	;# 
  1237  0217                     	;# 
  1238  0391                     	;# 
  1239  0392                     	;# 
  1240  0393                     	;# 
  1241  0394                     	;# 
  1242  0395                     	;# 
  1243  0396                     	;# 
  1244  039A                     	;# 
  1245  039B                     	;# 
  1246  0611                     	;# 
  1247  0612                     	;# 
  1248  0613                     	;# 
  1249  0613                     	;# 
  1250  0614                     	;# 
  1251  0615                     	;# 
  1252  0616                     	;# 
  1253  0616                     	;# 
  1254  0691                     	;# 
  1255  0692                     	;# 
  1256  0693                     	;# 
  1257  0694                     	;# 
  1258  0695                     	;# 
  1259  0E8E                     	;# 
  1260  0E8F                     	;# 
  1261  0E90                     	;# 
  1262  0E91                     	;# 
  1263  0E92                     	;# 
  1264  0E93                     	;# 
  1265  0E94                     	;# 
  1266  0E94                     	;# 
  1267  0E95                     	;# 
  1268  0E96                     	;# 
  1269  0E97                     	;# 
  1270  0E98                     	;# 
  1271  0E99                     	;# 
  1272  0E9A                     	;# 
  1273  0E9B                     	;# 
  1274  0E9C                     	;# 
  1275  0E9D                     	;# 
  1276  0E9E                     	;# 
  1277  0E9F                     	;# 
  1278  0FE4                     	;# 
  1279  0FE5                     	;# 
  1280  0FE6                     	;# 
  1281  0FE7                     	;# 
  1282  0FE8                     	;# 
  1283  0FE9                     	;# 
  1284  0FEA                     	;# 
  1285  0FEB                     	;# 
  1286  0FED                     	;# 
  1287  0FEE                     	;# 
  1288  0FEF                     	;# 
  1289  0000                     	;# 
  1290  0001                     	;# 
  1291  0002                     	;# 
  1292  0003                     	;# 
  1293  0004                     	;# 
  1294  0005                     	;# 
  1295  0006                     	;# 
  1296  0007                     	;# 
  1297  0008                     	;# 
  1298  0009                     	;# 
  1299  000A                     	;# 
  1300  000B                     	;# 
  1301  000C                     	;# 
  1302  000D                     	;# 
  1303  000E                     	;# 
  1304  0011                     	;# 
  1305  0012                     	;# 
  1306  0015                     	;# 
  1307  0016                     	;# 
  1308  0016                     	;# 
  1309  0017                     	;# 
  1310  0018                     	;# 
  1311  0019                     	;# 
  1312  001A                     	;# 
  1313  001B                     	;# 
  1314  001C                     	;# 
  1315  008C                     	;# 
  1316  008D                     	;# 
  1317  008E                     	;# 
  1318  0091                     	;# 
  1319  0092                     	;# 
  1320  0095                     	;# 
  1321  0096                     	;# 
  1322  0097                     	;# 
  1323  0098                     	;# 
  1324  0099                     	;# 
  1325  009A                     	;# 
  1326  009B                     	;# 
  1327  009B                     	;# 
  1328  009C                     	;# 
  1329  009D                     	;# 
  1330  009E                     	;# 
  1331  009F                     	;# 
  1332  010C                     	;# 
  1333  010D                     	;# 
  1334  010E                     	;# 
  1335  0111                     	;# 
  1336  0112                     	;# 
  1337  0113                     	;# 
  1338  0114                     	;# 
  1339  0115                     	;# 
  1340  0116                     	;# 
  1341  0117                     	;# 
  1342  0118                     	;# 
  1343  0119                     	;# 
  1344  011D                     	;# 
  1345  018C                     	;# 
  1346  018D                     	;# 
  1347  018E                     	;# 
  1348  0191                     	;# 
  1349  0191                     	;# 
  1350  0192                     	;# 
  1351  0193                     	;# 
  1352  0193                     	;# 
  1353  0194                     	;# 
  1354  0195                     	;# 
  1355  0196                     	;# 
  1356  0197                     	;# 
  1357  0199                     	;# 
  1358  019A                     	;# 
  1359  019B                     	;# 
  1360  019B                     	;# 
  1361  019C                     	;# 
  1362  019D                     	;# 
  1363  019E                     	;# 
  1364  019F                     	;# 
  1365  020C                     	;# 
  1366  020D                     	;# 
  1367  0211                     	;# 
  1368  0211                     	;# 
  1369  0212                     	;# 
  1370  0212                     	;# 
  1371  0213                     	;# 
  1372  0213                     	;# 
  1373  0214                     	;# 
  1374  0214                     	;# 
  1375  0215                     	;# 
  1376  0215                     	;# 
  1377  0215                     	;# 
  1378  0216                     	;# 
  1379  0216                     	;# 
  1380  0217                     	;# 
  1381  0217                     	;# 
  1382  0391                     	;# 
  1383  0392                     	;# 
  1384  0393                     	;# 
  1385  0394                     	;# 
  1386  0395                     	;# 
  1387  0396                     	;# 
  1388  039A                     	;# 
  1389  039B                     	;# 
  1390  0611                     	;# 
  1391  0612                     	;# 
  1392  0613                     	;# 
  1393  0613                     	;# 
  1394  0614                     	;# 
  1395  0615                     	;# 
  1396  0616                     	;# 
  1397  0616                     	;# 
  1398  0691                     	;# 
  1399  0692                     	;# 
  1400  0693                     	;# 
  1401  0694                     	;# 
  1402  0695                     	;# 
  1403  0E8E                     	;# 
  1404  0E8F                     	;# 
  1405  0E90                     	;# 
  1406  0E91                     	;# 
  1407  0E92                     	;# 
  1408  0E93                     	;# 
  1409  0E94                     	;# 
  1410  0E94                     	;# 
  1411  0E95                     	;# 
  1412  0E96                     	;# 
  1413  0E97                     	;# 
  1414  0E98                     	;# 
  1415  0E99                     	;# 
  1416  0E9A                     	;# 
  1417  0E9B                     	;# 
  1418  0E9C                     	;# 
  1419  0E9D                     	;# 
  1420  0E9E                     	;# 
  1421  0E9F                     	;# 
  1422  0FE4                     	;# 
  1423  0FE5                     	;# 
  1424  0FE6                     	;# 
  1425  0FE7                     	;# 
  1426  0FE8                     	;# 
  1427  0FE9                     	;# 
  1428  0FEA                     	;# 
  1429  0FEB                     	;# 
  1430  0FED                     	;# 
  1431  0FEE                     	;# 
  1432  0FEF                     	;# 
  1433  0000                     	;# 
  1434  0001                     	;# 
  1435  0002                     	;# 
  1436  0003                     	;# 
  1437  0004                     	;# 
  1438  0005                     	;# 
  1439  0006                     	;# 
  1440  0007                     	;# 
  1441  0008                     	;# 
  1442  0009                     	;# 
  1443  000A                     	;# 
  1444  000B                     	;# 
  1445  000C                     	;# 
  1446  000D                     	;# 
  1447  000E                     	;# 
  1448  0011                     	;# 
  1449  0012                     	;# 
  1450  0015                     	;# 
  1451  0016                     	;# 
  1452  0016                     	;# 
  1453  0017                     	;# 
  1454  0018                     	;# 
  1455  0019                     	;# 
  1456  001A                     	;# 
  1457  001B                     	;# 
  1458  001C                     	;# 
  1459  008C                     	;# 
  1460  008D                     	;# 
  1461  008E                     	;# 
  1462  0091                     	;# 
  1463  0092                     	;# 
  1464  0095                     	;# 
  1465  0096                     	;# 
  1466  0097                     	;# 
  1467  0098                     	;# 
  1468  0099                     	;# 
  1469  009A                     	;# 
  1470  009B                     	;# 
  1471  009B                     	;# 
  1472  009C                     	;# 
  1473  009D                     	;# 
  1474  009E                     	;# 
  1475  009F                     	;# 
  1476  010C                     	;# 
  1477  010D                     	;# 
  1478  010E                     	;# 
  1479  0111                     	;# 
  1480  0112                     	;# 
  1481  0113                     	;# 
  1482  0114                     	;# 
  1483  0115                     	;# 
  1484  0116                     	;# 
  1485  0117                     	;# 
  1486  0118                     	;# 
  1487  0119                     	;# 
  1488  011D                     	;# 
  1489  018C                     	;# 
  1490  018D                     	;# 
  1491  018E                     	;# 
  1492  0191                     	;# 
  1493  0191                     	;# 
  1494  0192                     	;# 
  1495  0193                     	;# 
  1496  0193                     	;# 
  1497  0194                     	;# 
  1498  0195                     	;# 
  1499  0196                     	;# 
  1500  0197                     	;# 
  1501  0199                     	;# 
  1502  019A                     	;# 
  1503  019B                     	;# 
  1504  019B                     	;# 
  1505  019C                     	;# 
  1506  019D                     	;# 
  1507  019E                     	;# 
  1508  019F                     	;# 
  1509  020C                     	;# 
  1510  020D                     	;# 
  1511  0211                     	;# 
  1512  0211                     	;# 
  1513  0212                     	;# 
  1514  0212                     	;# 
  1515  0213                     	;# 
  1516  0213                     	;# 
  1517  0214                     	;# 
  1518  0214                     	;# 
  1519  0215                     	;# 
  1520  0215                     	;# 
  1521  0215                     	;# 
  1522  0216                     	;# 
  1523  0216                     	;# 
  1524  0217                     	;# 
  1525  0217                     	;# 
  1526  0391                     	;# 
  1527  0392                     	;# 
  1528  0393                     	;# 
  1529  0394                     	;# 
  1530  0395                     	;# 
  1531  0396                     	;# 
  1532  039A                     	;# 
  1533  039B                     	;# 
  1534  0611                     	;# 
  1535  0612                     	;# 
  1536  0613                     	;# 
  1537  0613                     	;# 
  1538  0614                     	;# 
  1539  0615                     	;# 
  1540  0616                     	;# 
  1541  0616                     	;# 
  1542  0691                     	;# 
  1543  0692                     	;# 
  1544  0693                     	;# 
  1545  0694                     	;# 
  1546  0695                     	;# 
  1547  0E8E                     	;# 
  1548  0E8F                     	;# 
  1549  0E90                     	;# 
  1550  0E91                     	;# 
  1551  0E92                     	;# 
  1552  0E93                     	;# 
  1553  0E94                     	;# 
  1554  0E94                     	;# 
  1555  0E95                     	;# 
  1556  0E96                     	;# 
  1557  0E97                     	;# 
  1558  0E98                     	;# 
  1559  0E99                     	;# 
  1560  0E9A                     	;# 
  1561  0E9B                     	;# 
  1562  0E9C                     	;# 
  1563  0E9D                     	;# 
  1564  0E9E                     	;# 
  1565  0E9F                     	;# 
  1566  0FE4                     	;# 
  1567  0FE5                     	;# 
  1568  0FE6                     	;# 
  1569  0FE7                     	;# 
  1570  0FE8                     	;# 
  1571  0FE9                     	;# 
  1572  0FEA                     	;# 
  1573  0FEB                     	;# 
  1574  0FED                     	;# 
  1575  0FEE                     	;# 
  1576  0FEF                     	;# 
  1577  0000                     	;# 
  1578  0001                     	;# 
  1579  0002                     	;# 
  1580  0003                     	;# 
  1581  0004                     	;# 
  1582  0005                     	;# 
  1583  0006                     	;# 
  1584  0007                     	;# 
  1585  0008                     	;# 
  1586  0009                     	;# 
  1587  000A                     	;# 
  1588  000B                     	;# 
  1589  000C                     	;# 
  1590  000D                     	;# 
  1591  000E                     	;# 
  1592  0011                     	;# 
  1593  0012                     	;# 
  1594  0015                     	;# 
  1595  0016                     	;# 
  1596  0016                     	;# 
  1597  0017                     	;# 
  1598  0018                     	;# 
  1599  0019                     	;# 
  1600  001A                     	;# 
  1601  001B                     	;# 
  1602  001C                     	;# 
  1603  008C                     	;# 
  1604  008D                     	;# 
  1605  008E                     	;# 
  1606  0091                     	;# 
  1607  0092                     	;# 
  1608  0095                     	;# 
  1609  0096                     	;# 
  1610  0097                     	;# 
  1611  0098                     	;# 
  1612  0099                     	;# 
  1613  009A                     	;# 
  1614  009B                     	;# 
  1615  009B                     	;# 
  1616  009C                     	;# 
  1617  009D                     	;# 
  1618  009E                     	;# 
  1619  009F                     	;# 
  1620  010C                     	;# 
  1621  010D                     	;# 
  1622  010E                     	;# 
  1623  0111                     	;# 
  1624  0112                     	;# 
  1625  0113                     	;# 
  1626  0114                     	;# 
  1627  0115                     	;# 
  1628  0116                     	;# 
  1629  0117                     	;# 
  1630  0118                     	;# 
  1631  0119                     	;# 
  1632  011D                     	;# 
  1633  018C                     	;# 
  1634  018D                     	;# 
  1635  018E                     	;# 
  1636  0191                     	;# 
  1637  0191                     	;# 
  1638  0192                     	;# 
  1639  0193                     	;# 
  1640  0193                     	;# 
  1641  0194                     	;# 
  1642  0195                     	;# 
  1643  0196                     	;# 
  1644  0197                     	;# 
  1645  0199                     	;# 
  1646  019A                     	;# 
  1647  019B                     	;# 
  1648  019B                     	;# 
  1649  019C                     	;# 
  1650  019D                     	;# 
  1651  019E                     	;# 
  1652  019F                     	;# 
  1653  020C                     	;# 
  1654  020D                     	;# 
  1655  0211                     	;# 
  1656  0211                     	;# 
  1657  0212                     	;# 
  1658  0212                     	;# 
  1659  0213                     	;# 
  1660  0213                     	;# 
  1661  0214                     	;# 
  1662  0214                     	;# 
  1663  0215                     	;# 
  1664  0215                     	;# 
  1665  0215                     	;# 
  1666  0216                     	;# 
  1667  0216                     	;# 
  1668  0217                     	;# 
  1669  0217                     	;# 
  1670  0391                     	;# 
  1671  0392                     	;# 
  1672  0393                     	;# 
  1673  0394                     	;# 
  1674  0395                     	;# 
  1675  0396                     	;# 
  1676  039A                     	;# 
  1677  039B                     	;# 
  1678  0611                     	;# 
  1679  0612                     	;# 
  1680  0613                     	;# 
  1681  0613                     	;# 
  1682  0614                     	;# 
  1683  0615                     	;# 
  1684  0616                     	;# 
  1685  0616                     	;# 
  1686  0691                     	;# 
  1687  0692                     	;# 
  1688  0693                     	;# 
  1689  0694                     	;# 
  1690  0695                     	;# 
  1691  0E8E                     	;# 
  1692  0E8F                     	;# 
  1693  0E90                     	;# 
  1694  0E91                     	;# 
  1695  0E92                     	;# 
  1696  0E93                     	;# 
  1697  0E94                     	;# 
  1698  0E94                     	;# 
  1699  0E95                     	;# 
  1700  0E96                     	;# 
  1701  0E97                     	;# 
  1702  0E98                     	;# 
  1703  0E99                     	;# 
  1704  0E9A                     	;# 
  1705  0E9B                     	;# 
  1706  0E9C                     	;# 
  1707  0E9D                     	;# 
  1708  0E9E                     	;# 
  1709  0E9F                     	;# 
  1710  0FE4                     	;# 
  1711  0FE5                     	;# 
  1712  0FE6                     	;# 
  1713  0FE7                     	;# 
  1714  0FE8                     	;# 
  1715  0FE9                     	;# 
  1716  0FEA                     	;# 
  1717  0FEB                     	;# 
  1718  0FED                     	;# 
  1719  0FEE                     	;# 
  1720  0FEF                     	;# 
  1721  0000                     	;# 
  1722  0001                     	;# 
  1723  0002                     	;# 
  1724  0003                     	;# 
  1725  0004                     	;# 
  1726  0005                     	;# 
  1727  0006                     	;# 
  1728  0007                     	;# 
  1729  0008                     	;# 
  1730  0009                     	;# 
  1731  000A                     	;# 
  1732  000B                     	;# 
  1733  000C                     	;# 
  1734  000D                     	;# 
  1735  000E                     	;# 
  1736  0011                     	;# 
  1737  0012                     	;# 
  1738  0015                     	;# 
  1739  0016                     	;# 
  1740  0016                     	;# 
  1741  0017                     	;# 
  1742  0018                     	;# 
  1743  0019                     	;# 
  1744  001A                     	;# 
  1745  001B                     	;# 
  1746  001C                     	;# 
  1747  008C                     	;# 
  1748  008D                     	;# 
  1749  008E                     	;# 
  1750  0091                     	;# 
  1751  0092                     	;# 
  1752  0095                     	;# 
  1753  0096                     	;# 
  1754  0097                     	;# 
  1755  0098                     	;# 
  1756  0099                     	;# 
  1757  009A                     	;# 
  1758  009B                     	;# 
  1759  009B                     	;# 
  1760  009C                     	;# 
  1761  009D                     	;# 
  1762  009E                     	;# 
  1763  009F                     	;# 
  1764  010C                     	;# 
  1765  010D                     	;# 
  1766  010E                     	;# 
  1767  0111                     	;# 
  1768  0112                     	;# 
  1769  0113                     	;# 
  1770  0114                     	;# 
  1771  0115                     	;# 
  1772  0116                     	;# 
  1773  0117                     	;# 
  1774  0118                     	;# 
  1775  0119                     	;# 
  1776  011D                     	;# 
  1777  018C                     	;# 
  1778  018D                     	;# 
  1779  018E                     	;# 
  1780  0191                     	;# 
  1781  0191                     	;# 
  1782  0192                     	;# 
  1783  0193                     	;# 
  1784  0193                     	;# 
  1785  0194                     	;# 
  1786  0195                     	;# 
  1787  0196                     	;# 
  1788  0197                     	;# 
  1789  0199                     	;# 
  1790  019A                     	;# 
  1791  019B                     	;# 
  1792  019B                     	;# 
  1793  019C                     	;# 
  1794  019D                     	;# 
  1795  019E                     	;# 
  1796  019F                     	;# 
  1797  020C                     	;# 
  1798  020D                     	;# 
  1799  0211                     	;# 
  1800  0211                     	;# 
  1801  0212                     	;# 
  1802  0212                     	;# 
  1803  0213                     	;# 
  1804  0213                     	;# 
  1805  0214                     	;# 
  1806  0214                     	;# 
  1807  0215                     	;# 
  1808  0215                     	;# 
  1809  0215                     	;# 
  1810  0216                     	;# 
  1811  0216                     	;# 
  1812  0217                     	;# 
  1813  0217                     	;# 
  1814  0391                     	;# 
  1815  0392                     	;# 
  1816  0393                     	;# 
  1817  0394                     	;# 
  1818  0395                     	;# 
  1819  0396                     	;# 
  1820  039A                     	;# 
  1821  039B                     	;# 
  1822  0611                     	;# 
  1823  0612                     	;# 
  1824  0613                     	;# 
  1825  0613                     	;# 
  1826  0614                     	;# 
  1827  0615                     	;# 
  1828  0616                     	;# 
  1829  0616                     	;# 
  1830  0691                     	;# 
  1831  0692                     	;# 
  1832  0693                     	;# 
  1833  0694                     	;# 
  1834  0695                     	;# 
  1835  0E8E                     	;# 
  1836  0E8F                     	;# 
  1837  0E90                     	;# 
  1838  0E91                     	;# 
  1839  0E92                     	;# 
  1840  0E93                     	;# 
  1841  0E94                     	;# 
  1842  0E94                     	;# 
  1843  0E95                     	;# 
  1844  0E96                     	;# 
  1845  0E97                     	;# 
  1846  0E98                     	;# 
  1847  0E99                     	;# 
  1848  0E9A                     	;# 
  1849  0E9B                     	;# 
  1850  0E9C                     	;# 
  1851  0E9D                     	;# 
  1852  0E9E                     	;# 
  1853  0E9F                     	;# 
  1854  0FE4                     	;# 
  1855  0FE5                     	;# 
  1856  0FE6                     	;# 
  1857  0FE7                     	;# 
  1858  0FE8                     	;# 
  1859  0FE9                     	;# 
  1860  0FEA                     	;# 
  1861  0FEB                     	;# 
  1862  0FED                     	;# 
  1863  0FEE                     	;# 
  1864  0FEF                     	;_measarray
  1865                           
  1866 ;; Function _IOCAF5_DefaultInterruptHandler is unused but had its address taken
  1867  0000                     
  1868                           	psect	idataBIGRAM
  1869  006C                     __pidataBIGRAM:
  1870                           
  1871                           ;initializer for _measarray
  1872  006C  3400               	retlw	0
  1873  006D  3400               	retlw	0
  1874  006E  3401               	retlw	1
  1875  006F  3400               	retlw	0
  1876  0070  3402               	retlw	2
  1877  0071  3400               	retlw	0
  1878  0072  3403               	retlw	3
  1879  0073  3400               	retlw	0
  1880  0074  3404               	retlw	4
  1881  0075  3400               	retlw	0
  1882  0076  3405               	retlw	5
  1883  0077  3400               	retlw	0
  1884  0078  3406               	retlw	6
  1885  0079  3400               	retlw	0
  1886  007A  3407               	retlw	7
  1887  007B  3400               	retlw	0
  1888  007C  3408               	retlw	8
  1889  007D  3400               	retlw	0
  1890  007E  3409               	retlw	9
  1891  007F  3400               	retlw	0
  1892  0080  340A               	retlw	10
  1893  0081  3400               	retlw	0
  1894  0082  340B               	retlw	11
  1895  0083  3400               	retlw	0
  1896  0084  340C               	retlw	12
  1897  0085  3400               	retlw	0
  1898  0086  340D               	retlw	13
  1899  0087  3400               	retlw	0
  1900  0088  340E               	retlw	14
  1901  0089  3400               	retlw	0
  1902  008A  340F               	retlw	15
  1903  008B  3400               	retlw	0
  1904  008C  3410               	retlw	16
  1905  008D  3400               	retlw	0
  1906  008E  3411               	retlw	17
  1907  008F  3400               	retlw	0
  1908  0090  3412               	retlw	18
  1909  0091  3400               	retlw	0
  1910  0092  3413               	retlw	19
  1911  0093  3400               	retlw	0
  1912  0094  3414               	retlw	20
  1913  0095  3400               	retlw	0
  1914  0096  3415               	retlw	21
  1915  0097  3400               	retlw	0
  1916  0098  3416               	retlw	22
  1917  0099  3400               	retlw	0
  1918  009A  3417               	retlw	23
  1919  009B  3400               	retlw	0
  1920  009C  3418               	retlw	24
  1921  009D  3400               	retlw	0
  1922  009E  3419               	retlw	25
  1923  009F  3400               	retlw	0
  1924  00A0  341A               	retlw	26
  1925  00A1  3400               	retlw	0
  1926  00A2  341B               	retlw	27
  1927  00A3  3400               	retlw	0
  1928  00A4  341C               	retlw	28
  1929  00A5  3400               	retlw	0
  1930  00A6  341D               	retlw	29
  1931  00A7  3400               	retlw	0
  1932  00A8  341E               	retlw	30
  1933  00A9  3400               	retlw	0
  1934  00AA  341F               	retlw	31
  1935  00AB  3400               	retlw	0
  1936  00AC  3420               	retlw	32
  1937  00AD  3400               	retlw	0
  1938  00AE  3421               	retlw	33
  1939  00AF  3400               	retlw	0
  1940  00B0  3422               	retlw	34
  1941  00B1  3400               	retlw	0
  1942  00B2  3423               	retlw	35
  1943  00B3  3400               	retlw	0
  1944  00B4  3424               	retlw	36
  1945  00B5  3400               	retlw	0
  1946  00B6  3425               	retlw	37
  1947  00B7  3400               	retlw	0
  1948  00B8  3426               	retlw	38
  1949  00B9  3400               	retlw	0
  1950  00BA  3427               	retlw	39
  1951  00BB  3400               	retlw	0
  1952  00BC  3428               	retlw	40
  1953  00BD  3400               	retlw	0
  1954  00BE  3429               	retlw	41
  1955  00BF  3400               	retlw	0
  1956  00C0  342A               	retlw	42
  1957  00C1  3400               	retlw	0
  1958  00C2  342B               	retlw	43
  1959  00C3  3400               	retlw	0
  1960  00C4  342C               	retlw	44
  1961  00C5  3400               	retlw	0
  1962  00C6  342D               	retlw	45
  1963  00C7  3400               	retlw	0
  1964  00C8  342E               	retlw	46
  1965  00C9  3400               	retlw	0
  1966  00CA  342F               	retlw	47
  1967  00CB  3400               	retlw	0
  1968  00CC  3430               	retlw	48
  1969  00CD  3400               	retlw	0
  1970  00CE  3431               	retlw	49
  1971  00CF  3400               	retlw	0
  1972  00D0  3432               	retlw	50
  1973  00D1  3400               	retlw	0
  1974  00D2  3433               	retlw	51
  1975  00D3  3400               	retlw	0
  1976  00D4  3434               	retlw	52
  1977  00D5  3400               	retlw	0
  1978  00D6  3435               	retlw	53
  1979  00D7  3400               	retlw	0
  1980  00D8  3436               	retlw	54
  1981  00D9  3400               	retlw	0
  1982  00DA  3437               	retlw	55
  1983  00DB  3400               	retlw	0
  1984  00DC  3438               	retlw	56
  1985  00DD  3400               	retlw	0
  1986  00DE  3439               	retlw	57
  1987  00DF  3400               	retlw	0
  1988  00E0  343A               	retlw	58
  1989  00E1  3400               	retlw	0
  1990  00E2  343B               	retlw	59
  1991  00E3  3400               	retlw	0
  1992  00E4  343C               	retlw	60
  1993  00E5  3400               	retlw	0
  1994  00E6  343D               	retlw	61
  1995  00E7  3400               	retlw	0
  1996  00E8  343E               	retlw	62
  1997  00E9  3400               	retlw	0
  1998  00EA  343F               	retlw	63
  1999  00EB  3400               	retlw	0
  2000  00EC  3440               	retlw	64
  2001  00ED  3400               	retlw	0
  2002  00EE  3441               	retlw	65
  2003  00EF  3400               	retlw	0
  2004  00F0  3442               	retlw	66
  2005  00F1  3400               	retlw	0
  2006  00F2  3443               	retlw	67
  2007  00F3  3400               	retlw	0
  2008  00F4  3444               	retlw	68
  2009  00F5  3400               	retlw	0
  2010  00F6  3445               	retlw	69
  2011  00F7  3400               	retlw	0
  2012  00F8  3446               	retlw	70
  2013  00F9  3400               	retlw	0
  2014  00FA  3447               	retlw	71
  2015  00FB  3400               	retlw	0
  2016  00FC  3448               	retlw	72
  2017  00FD  3400               	retlw	0
  2018  00FE  3449               	retlw	73
  2019  00FF  3400               	retlw	0
  2020  0100  344A               	retlw	74
  2021  0101  3400               	retlw	0
  2022  0102  344B               	retlw	75
  2023  0103  3400               	retlw	0
  2024  0104  344C               	retlw	76
  2025  0105  3400               	retlw	0
  2026  0106  344D               	retlw	77
  2027  0107  3400               	retlw	0
  2028  0108  344E               	retlw	78
  2029  0109  3400               	retlw	0
  2030  010A  344F               	retlw	79
  2031  010B  3400               	retlw	0
  2032  010C  3450               	retlw	80
  2033  010D  3400               	retlw	0
  2034  010E  3451               	retlw	81
  2035  010F  3400               	retlw	0
  2036  0110  3452               	retlw	82
  2037  0111  3400               	retlw	0
  2038  0112  3453               	retlw	83
  2039  0113  3400               	retlw	0
  2040  0114  3454               	retlw	84
  2041  0115  3400               	retlw	0
  2042  0116  3455               	retlw	85
  2043  0117  3400               	retlw	0
  2044  0118  3456               	retlw	86
  2045  0119  3400               	retlw	0
  2046  011A  3457               	retlw	87
  2047  011B  3400               	retlw	0
  2048  011C  3458               	retlw	88
  2049  011D  3400               	retlw	0
  2050  011E  3459               	retlw	89
  2051  011F  3400               	retlw	0
  2052  0120  345A               	retlw	90
  2053  0121  3400               	retlw	0
  2054  0122  345B               	retlw	91
  2055  0123  3400               	retlw	0
  2056  0124  345C               	retlw	92
  2057  0125  3400               	retlw	0
  2058  0126  345D               	retlw	93
  2059  0127  3400               	retlw	0
  2060  0128  345E               	retlw	94
  2061  0129  3400               	retlw	0
  2062  012A  345F               	retlw	95
  2063  012B  3400               	retlw	0
  2064  012C  3460               	retlw	96
  2065  012D  3400               	retlw	0
  2066  012E  3461               	retlw	97
  2067  012F  3400               	retlw	0
  2068  0130  3462               	retlw	98
  2069  0131  3400               	retlw	0
  2070  0132  3463               	retlw	99
  2071  0133  3400               	retlw	0
  2072  0134  3464               	retlw	100
  2073  0135  3400               	retlw	0
  2074  0136  3465               	retlw	101
  2075  0137  3400               	retlw	0
  2076  0138  3466               	retlw	102
  2077  0139  3400               	retlw	0
  2078  013A  3467               	retlw	103
  2079  013B  3400               	retlw	0
  2080  013C  3468               	retlw	104
  2081  013D  3400               	retlw	0
  2082  013E  3469               	retlw	105
  2083  013F  3400               	retlw	0
  2084  0140  346A               	retlw	106
  2085  0141  3400               	retlw	0
  2086  0142  346B               	retlw	107
  2087  0143  3400               	retlw	0
  2088  0144  346C               	retlw	108
  2089  0145  3400               	retlw	0
  2090  0146  346D               	retlw	109
  2091  0147  3400               	retlw	0
  2092  0148  346E               	retlw	110
  2093  0149  3400               	retlw	0
  2094  014A  346F               	retlw	111
  2095  014B  3400               	retlw	0
  2096  014C  3470               	retlw	112
  2097  014D  3400               	retlw	0
  2098  014E  3471               	retlw	113
  2099  014F  3400               	retlw	0
  2100  0150  3472               	retlw	114
  2101  0151  3400               	retlw	0
  2102  0152  3473               	retlw	115
  2103  0153  3400               	retlw	0
  2104  0154  3474               	retlw	116
  2105  0155  3400               	retlw	0
  2106  0156  3475               	retlw	117
  2107  0157  3400               	retlw	0
  2108  0158  3476               	retlw	118
  2109  0159  3400               	retlw	0
  2110  015A  3477               	retlw	119
  2111  015B  3400               	retlw	0
  2112  015C  3478               	retlw	120
  2113  015D  3400               	retlw	0
  2114  015E  3479               	retlw	121
  2115  015F  3400               	retlw	0
  2116  0160  347A               	retlw	122
  2117  0161  3400               	retlw	0
  2118  0162  347B               	retlw	123
  2119  0163  3400               	retlw	0
  2120  0164  347C               	retlw	124
  2121  0165  3400               	retlw	0
  2122  0166  347D               	retlw	125
  2123  0167  3400               	retlw	0
  2124  0168  347E               	retlw	126
  2125  0169  3400               	retlw	0
  2126  016A  347F               	retlw	127
  2127  016B  3400               	retlw	0
  2128  016C  3480               	retlw	128
  2129  016D  3400               	retlw	0
  2130  016E  3481               	retlw	129
  2131  016F  3400               	retlw	0
  2132  0170  3482               	retlw	130
  2133  0171  3400               	retlw	0
  2134  0172  3483               	retlw	131
  2135  0173  3400               	retlw	0
  2136  0174  3484               	retlw	132
  2137  0175  3400               	retlw	0
  2138  0176  3485               	retlw	133
  2139  0177  3400               	retlw	0
  2140  0178  3486               	retlw	134
  2141  0179  3400               	retlw	0
  2142  017A  3487               	retlw	135
  2143  017B  3400               	retlw	0
  2144  017C  3488               	retlw	136
  2145  017D  3400               	retlw	0
  2146  017E  3489               	retlw	137
  2147  017F  3400               	retlw	0
  2148  0180  348A               	retlw	138
  2149  0181  3400               	retlw	0
  2150  0182  348B               	retlw	139
  2151  0183  3400               	retlw	0
  2152  0184  348C               	retlw	140
  2153  0185  3400               	retlw	0
  2154  0186  348D               	retlw	141
  2155  0187  3400               	retlw	0
  2156  0188  348E               	retlw	142
  2157  0189  3400               	retlw	0
  2158  018A  348F               	retlw	143
  2159  018B  3400               	retlw	0
  2160  018C  3490               	retlw	144
  2161  018D  3400               	retlw	0
  2162  018E  3491               	retlw	145
  2163  018F  3400               	retlw	0
  2164  0190  3492               	retlw	146
  2165  0191  3400               	retlw	0
  2166  0192  3493               	retlw	147
  2167  0193  3400               	retlw	0
  2168  0194  3494               	retlw	148
  2169  0195  3400               	retlw	0
  2170  0196  3495               	retlw	149
  2171  0197  3400               	retlw	0
  2172  0198  3496               	retlw	150
  2173  0199  3400               	retlw	0
  2174  019A  3497               	retlw	151
  2175  019B  3400               	retlw	0
  2176  019C  3498               	retlw	152
  2177  019D  3400               	retlw	0
  2178  019E  3499               	retlw	153
  2179  019F  3400               	retlw	0
  2180  01A0  349A               	retlw	154
  2181  01A1  3400               	retlw	0
  2182  01A2  349B               	retlw	155
  2183  01A3  3400               	retlw	0
  2184  01A4  349C               	retlw	156
  2185  01A5  3400               	retlw	0
  2186  01A6  349D               	retlw	157
  2187  01A7  3400               	retlw	0
  2188  01A8  349E               	retlw	158
  2189  01A9  3400               	retlw	0
  2190  01AA  349F               	retlw	159
  2191  01AB  3400               	retlw	0
  2192  01AC  34A0               	retlw	160
  2193  01AD  3400               	retlw	0
  2194  01AE  34A1               	retlw	161
  2195  01AF  3400               	retlw	0
  2196  01B0  34A2               	retlw	162
  2197  01B1  3400               	retlw	0
  2198  01B2  34A3               	retlw	163
  2199  01B3  3400               	retlw	0
  2200  01B4  34A4               	retlw	164
  2201  01B5  3400               	retlw	0
  2202  01B6  34A5               	retlw	165
  2203  01B7  3400               	retlw	0
  2204  01B8  34A6               	retlw	166
  2205  01B9  3400               	retlw	0
  2206  01BA  34A7               	retlw	167
  2207  01BB  3400               	retlw	0
  2208  01BC  34A8               	retlw	168
  2209  01BD  3400               	retlw	0
  2210  01BE  34A9               	retlw	169
  2211  01BF  3400               	retlw	0
  2212  01C0  34AA               	retlw	170
  2213  01C1  3400               	retlw	0
  2214  01C2  34AB               	retlw	171
  2215  01C3  3400               	retlw	0
  2216  01C4  34AC               	retlw	172
  2217  01C5  3400               	retlw	0
  2218  01C6  34AD               	retlw	173
  2219  01C7  3400               	retlw	0
  2220  01C8  34AE               	retlw	174
  2221  01C9  3400               	retlw	0
  2222  01CA  34AF               	retlw	175
  2223  01CB  3400               	retlw	0
  2224  01CC  34B0               	retlw	176
  2225  01CD  3400               	retlw	0
  2226  01CE  34B1               	retlw	177
  2227  01CF  3400               	retlw	0
  2228  01D0  34B2               	retlw	178
  2229  01D1  3400               	retlw	0
  2230  01D2  34B3               	retlw	179
  2231  01D3  3400               	retlw	0
  2232  01D4  34B4               	retlw	180
  2233  01D5  3400               	retlw	0
  2234  01D6  34B5               	retlw	181
  2235  01D7  3400               	retlw	0
  2236  01D8  34B6               	retlw	182
  2237  01D9  3400               	retlw	0
  2238  01DA  34B7               	retlw	183
  2239  01DB  3400               	retlw	0
  2240  01DC  34B8               	retlw	184
  2241  01DD  3400               	retlw	0
  2242  01DE  34B9               	retlw	185
  2243  01DF  3400               	retlw	0
  2244  01E0  34BA               	retlw	186
  2245  01E1  3400               	retlw	0
  2246  01E2  34BB               	retlw	187
  2247  01E3  3400               	retlw	0
  2248  01E4  34BC               	retlw	188
  2249  01E5  3400               	retlw	0
  2250  01E6  34BD               	retlw	189
  2251  01E7  3400               	retlw	0
  2252  01E8  34BE               	retlw	190
  2253  01E9  3400               	retlw	0
  2254  01EA  34BF               	retlw	191
  2255  01EB  3400               	retlw	0
  2256  01EC  34C0               	retlw	192
  2257  01ED  3400               	retlw	0
  2258  01EE  34C1               	retlw	193
  2259  01EF  3400               	retlw	0
  2260  01F0  34C2               	retlw	194
  2261  01F1  3400               	retlw	0
  2262  01F2  34C3               	retlw	195
  2263  01F3  3400               	retlw	0
  2264  01F4  34C4               	retlw	196
  2265  01F5  3400               	retlw	0
  2266  01F6  34C5               	retlw	197
  2267  01F7  3400               	retlw	0
  2268  01F8  34C6               	retlw	198
  2269  01F9  3400               	retlw	0
  2270  01FA  34C7               	retlw	199
  2271  01FB  3400               	retlw	0
  2272  01FC  34C8               	retlw	200
  2273  01FD  3400               	retlw	0
  2274  01FE  34C9               	retlw	201
  2275  01FF  3400               	retlw	0
  2276  0200  34CA               	retlw	202
  2277  0201  3400               	retlw	0
  2278  0202  34CB               	retlw	203
  2279  0203  3400               	retlw	0
  2280  0204  34CC               	retlw	204
  2281  0205  3400               	retlw	0
  2282  0206  34CD               	retlw	205
  2283  0207  3400               	retlw	0
  2284  0208  34CE               	retlw	206
  2285  0209  3400               	retlw	0
  2286  020A  34CF               	retlw	207
  2287  020B  3400               	retlw	0
  2288                           
  2289                           	psect	stringtext1
  2290  189F                     __pstringtext1:
  2291  189F                     _USB_SD_Ptr:
  2292  189F  34B5               	retlw	low (_sd000| (0+32768))
  2293  18A0  3498               	retlw	high (_sd000| (0+32768))
  2294  18A1  3443               	retlw	low (_sd001| (0+32768))
  2295  18A2  3498               	retlw	high (_sd001| (0+32768))
  2296  18A3  3477               	retlw	low (_sd002| (0+32768))
  2297  18A4  3498               	retlw	high (_sd002| (0+32768))
  2298  18A5  34A7               	retlw	low (_sd003| (0+32768))
  2299  18A6  3498               	retlw	high (_sd003| (0+32768))
  2300  18A7                     __end_of_USB_SD_Ptr:
  2301                           
  2302                           	psect	stringtext2
  2303  18B9                     __pstringtext2:
  2304  18B9                     _USB_CD_Ptr:
  2305  18B9  3400               	retlw	low (_configDescriptor1| (0+32768))
  2306  18BA  3498               	retlw	high (_configDescriptor1| (0+32768))
  2307  18BB                     __end_of_USB_CD_Ptr:
  2308                           
  2309                           	psect	stringtext3
  2310  1800                     __pstringtext3:
  2311  1800                     _configDescriptor1:
  2312  1800  3409               	retlw	9
  2313  1801  3402               	retlw	2
  2314  1802  3443               	retlw	67
  2315  1803  3400               	retlw	0
  2316  1804  3402               	retlw	2
  2317  1805  3401               	retlw	1
  2318  1806  3400               	retlw	0
  2319  1807  34C0               	retlw	192
  2320  1808  3432               	retlw	50
  2321  1809  3409               	retlw	9
  2322  180A  3404               	retlw	4
  2323  180B  3400               	retlw	0
  2324  180C  3400               	retlw	0
  2325  180D  3401               	retlw	1
  2326  180E  3402               	retlw	2
  2327  180F  3402               	retlw	2
  2328  1810  3401               	retlw	1
  2329  1811  3400               	retlw	0
  2330  1812  3405               	retlw	5
  2331  1813  3424               	retlw	36
  2332  1814  3400               	retlw	0
  2333  1815  3410               	retlw	16
  2334  1816  3401               	retlw	1
  2335  1817  3404               	retlw	4
  2336  1818  3424               	retlw	36
  2337  1819  3402               	retlw	2
  2338  181A  3402               	retlw	2
  2339  181B  3405               	retlw	5
  2340  181C  3424               	retlw	36
  2341  181D  3406               	retlw	6
  2342  181E  3400               	retlw	0
  2343  181F  3401               	retlw	1
  2344  1820  3405               	retlw	5
  2345  1821  3424               	retlw	36
  2346  1822  3401               	retlw	1
  2347  1823  3400               	retlw	0
  2348  1824  3401               	retlw	1
  2349  1825  3407               	retlw	7
  2350  1826  3405               	retlw	5
  2351  1827  3481               	retlw	129
  2352  1828  3403               	retlw	3
  2353  1829  340A               	retlw	10
  2354  182A  3400               	retlw	0
  2355  182B  3402               	retlw	2
  2356  182C  3409               	retlw	9
  2357  182D  3404               	retlw	4
  2358  182E  3401               	retlw	1
  2359  182F  3400               	retlw	0
  2360  1830  3402               	retlw	2
  2361  1831  340A               	retlw	10
  2362  1832  3400               	retlw	0
  2363  1833  3400               	retlw	0
  2364  1834  3400               	retlw	0
  2365  1835  3407               	retlw	7
  2366  1836  3405               	retlw	5
  2367  1837  3402               	retlw	2
  2368  1838  3402               	retlw	2
  2369  1839  3440               	retlw	64
  2370  183A  3400               	retlw	0
  2371  183B  3400               	retlw	0
  2372  183C  3407               	retlw	7
  2373  183D  3405               	retlw	5
  2374  183E  3482               	retlw	130
  2375  183F  3402               	retlw	2
  2376  1840  3440               	retlw	64
  2377  1841  3400               	retlw	0
  2378  1842  3400               	retlw	0
  2379  1843                     __end_of_configDescriptor1:
  2380                           
  2381                           	psect	stringtext4
  2382  1843                     __pstringtext4:
  2383  1843                     _sd001:
  2384  1843  3434               	retlw	52
  2385  1844  3403               	retlw	3
  2386  1845  344D               	retlw	77
  2387  1846  3400               	retlw	0
  2388  1847  3469               	retlw	105
  2389  1848  3400               	retlw	0
  2390  1849  3463               	retlw	99
  2391  184A  3400               	retlw	0
  2392  184B  3472               	retlw	114
  2393  184C  3400               	retlw	0
  2394  184D  346F               	retlw	111
  2395  184E  3400               	retlw	0
  2396  184F  3463               	retlw	99
  2397  1850  3400               	retlw	0
  2398  1851  3468               	retlw	104
  2399  1852  3400               	retlw	0
  2400  1853  3469               	retlw	105
  2401  1854  3400               	retlw	0
  2402  1855  3470               	retlw	112
  2403  1856  3400               	retlw	0
  2404  1857  3420               	retlw	32
  2405  1858  3400               	retlw	0
  2406  1859  3454               	retlw	84
  2407  185A  3400               	retlw	0
  2408  185B  3465               	retlw	101
  2409  185C  3400               	retlw	0
  2410  185D  3463               	retlw	99
  2411  185E  3400               	retlw	0
  2412  185F  3468               	retlw	104
  2413  1860  3400               	retlw	0
  2414  1861  346E               	retlw	110
  2415  1862  3400               	retlw	0
  2416  1863  346F               	retlw	111
  2417  1864  3400               	retlw	0
  2418  1865  346C               	retlw	108
  2419  1866  3400               	retlw	0
  2420  1867  346F               	retlw	111
  2421  1868  3400               	retlw	0
  2422  1869  3467               	retlw	103
  2423  186A  3400               	retlw	0
  2424  186B  3479               	retlw	121
  2425  186C  3400               	retlw	0
  2426  186D  3420               	retlw	32
  2427  186E  3400               	retlw	0
  2428  186F  3449               	retlw	73
  2429  1870  3400               	retlw	0
  2430  1871  346E               	retlw	110
  2431  1872  3400               	retlw	0
  2432  1873  3463               	retlw	99
  2433  1874  3400               	retlw	0
  2434  1875  342E               	retlw	46
  2435  1876  3400               	retlw	0
  2436  1877                     __end_of_sd001:
  2437                           
  2438                           	psect	stringtext5
  2439  1877                     __pstringtext5:
  2440  1877                     _sd002:
  2441  1877  3416               	retlw	22
  2442  1878  3403               	retlw	3
  2443  1879  3453               	retlw	83
  2444  187A  3400               	retlw	0
  2445  187B  346D               	retlw	109
  2446  187C  3400               	retlw	0
  2447  187D  3461               	retlw	97
  2448  187E  3400               	retlw	0
  2449  187F  3472               	retlw	114
  2450  1880  3400               	retlw	0
  2451  1881  3474               	retlw	116
  2452  1882  3400               	retlw	0
  2453  1883  3420               	retlw	32
  2454  1884  3400               	retlw	0
  2455  1885  3453               	retlw	83
  2456  1886  3400               	retlw	0
  2457  1887  3468               	retlw	104
  2458  1888  3400               	retlw	0
  2459  1889  346F               	retlw	111
  2460  188A  3400               	retlw	0
  2461  188B  3465               	retlw	101
  2462  188C  3400               	retlw	0
  2463  188D                     __end_of_sd002:
  2464                           
  2465                           	psect	stringtext6
  2466  188D                     __pstringtext6:
  2467  188D                     _device_dsc:
  2468  188D  3412               	retlw	18
  2469  188E  3401               	retlw	1
  2470  188F  3400               	retlw	0
  2471  1890  3402               	retlw	2
  2472  1891  3402               	retlw	2
  2473  1892  3400               	retlw	0
  2474  1893  3400               	retlw	0
  2475  1894  3408               	retlw	8
  2476  1895  34D8               	retlw	216
  2477  1896  3404               	retlw	4
  2478  1897  340A               	retlw	10
  2479  1898  3400               	retlw	0
  2480  1899  3400               	retlw	0
  2481  189A  3401               	retlw	1
  2482  189B  3401               	retlw	1
  2483  189C  3402               	retlw	2
  2484  189D  3403               	retlw	3
  2485  189E  3401               	retlw	1
  2486  189F                     __end_of_device_dsc:
  2487                           
  2488                           	psect	stringtext7
  2489  18A7                     __pstringtext7:
  2490  18A7                     _sd003:
  2491  18A7  3408               	retlw	8
  2492  18A8  3403               	retlw	3
  2493  18A9  3431               	retlw	49
  2494  18AA  3400               	retlw	0
  2495  18AB  3432               	retlw	50
  2496  18AC  3400               	retlw	0
  2497  18AD  3434               	retlw	52
  2498  18AE  3400               	retlw	0
  2499  18AF                     __end_of_sd003:
  2500                           
  2501                           	psect	stringtext8
  2502  18B5                     __pstringtext8:
  2503  18B5                     _sd000:
  2504  18B5  3404               	retlw	4
  2505  18B6  3403               	retlw	3
  2506  18B7  3409               	retlw	9
  2507  18B8  3404               	retlw	4
  2508  18B9                     __end_of_sd000:
  2509                           
  2510                           	psect	nvBANK4
  2511  025F                     __pnvBANK4:
  2512  025F                     _IOCAF5_InterruptHandler:
  2513  025F                     	ds	2
  2514  20C0                     _cdc_data_rx	set	8384
  2515  2080                     _cdc_data_tx	set	8320
  2516  0011                     _PIR1bits	set	17
  2517  000B                     _INTCONbits	set	11
  2518  0015                     _TMR0	set	21
  2519  0012                     _PIR2bits	set	18
  2520  009D                     _ADCON0bits	set	157
  2521  008E                     _TRISCbits	set	142
  2522  0095                     _OPTION_REG	set	149
  2523  0095                     _OPTION_REGbits	set	149
  2524  008E                     _TRISC	set	142
  2525  008D                     _TRISB	set	141
  2526  008C                     _TRISA	set	140
  2527  009D                     _ADCON0	set	157
  2528  009C                     _ADRESH	set	156
  2529  009B                     _ADRESL	set	155
  2530  009F                     _ADCON2	set	159
  2531  009E                     _ADCON1	set	158
  2532  0097                     _WDTCON	set	151
  2533  0098                     _OSCTUNE	set	152
  2534  0099                     _OSCCON	set	153
  2535  0092                     _PIE2bits	set	146
  2536  04D6                     _PLLRDY	set	1238
  2537  011D                     _APFCON	set	285
  2538  010E                     _LATC	set	270
  2539  010D                     _LATB	set	269
  2540  010C                     _LATA	set	268
  2541  0116                     _BORCON	set	278
  2542  018C                     _ANSELA	set	396
  2543  018D                     _ANSELB	set	397
  2544  018E                     _ANSELC	set	398
  2545  0211                     _SSPBUF	set	529
  2546  0216                     _SSPCON2bits	set	534
  2547  0211                     _SSP1BUF	set	529
  2548  0216                     _SSP1CON2bits	set	534
  2549  0215                     _SSP1CON1bits	set	533
  2550  0212                     _SSP1ADD	set	530
  2551  0216                     _SSP1CON2	set	534
  2552  0215                     _SSP1CON1	set	533
  2553  0214                     _SSP1STAT	set	532
  2554  020C                     _WPUA	set	524
  2555  020D                     _WPUB	set	525
  2556  0391                     _IOCAPbits	set	913
  2557  0392                     _IOCANbits	set	914
  2558  0393                     _IOCAFbits	set	915
  2559  039B                     _ACTCON	set	923
  2560  0E98                     _UEP0bits	set	3736
  2561  0E8E                     _UCON	set	3726
  2562  0E8F                     _USTAT	set	3727
  2563  0E92                     _UIEbits	set	3730
  2564  0E90                     _UIRbits	set	3728
  2565  0E96                     _UADDR	set	3734
  2566  0E8E                     _UCONbits	set	3726
  2567  0E92                     _UIE	set	3730
  2568  0E97                     _UEIE	set	3735
  2569  0E91                     _UCFG	set	3729
  2570  0E90                     _UIR	set	3728
  2571  0E93                     _UEIR	set	3731
  2572  0E99                     _UEP1	set	3737
  2573  0E98                     _UEP0	set	3736
  2574                           
  2575                           	psect	stringtext9
  2576  18AF                     __pstringtext9:
  2577  18AF                     STR_1:
  2578  18AF  3453               	retlw	83	;'S'
  2579  18B0  3474               	retlw	116	;'t'
  2580  18B1  346F               	retlw	111	;'o'
  2581  18B2  3470               	retlw	112	;'p'
  2582  18B3  3421               	retlw	33	;'!'
  2583  18B4  3400               	retlw	0
  2584                           
  2585                           	psect	stringtext10
  2586  0000                     __pstringtext10:
  2587                           
  2588                           	psect	cinit
  2589  0028                     start_initialization:	
  2590                           ; #config settings
  2591                           
  2592  0028                     __initialization:	;BIGRAM
  2593                           
  2594                           ; Initialize objects allocated to BIGRAM
  2595  0028  306C               	movlw	low __pidataBIGRAM
  2596  0029  0084               	movwf	4
  2597  002A  3080               	movlw	(high __pidataBIGRAM)| (0+128)
  2598  002B  0085               	movwf	5
  2599  002C  3050               	movlw	low (0+8784)
  2600  002D  0086               	movwf	6
  2601  002E  3022               	movlw	high (0+8784)
  2602  002F  0087               	movwf	7
  2603  0030  3001               	movlw	1
  2604  0031  00FF               	movwf	btemp+1
  2605  0032  30A0               	movlw	160
  2606  0033  3192  22D9  3180   	fcall	init_ram
  2607                           
  2608                           ; Clear objects allocated to BANK1
  2609  0036  0021               	movlb	1	; select bank1
  2610  0037  01C1               	clrf	__pbssBANK1& (0+127)
  2611  0038  01C2               	clrf	(__pbssBANK1+1)& (0+127)
  2612  0039  01C3               	clrf	(__pbssBANK1+2)& (0+127)
  2613  003A  01C4               	clrf	(__pbssBANK1+3)& (0+127)
  2614  003B  01C5               	clrf	(__pbssBANK1+4)& (0+127)
  2615                           
  2616                           ; Clear objects allocated to BANK3
  2617  003C  30B0               	movlw	low __pbssBANK3
  2618  003D  0084               	movwf	4
  2619  003E  3001               	movlw	high __pbssBANK3
  2620  003F  0085               	movwf	5
  2621  0040  3040               	movlw	64
  2622  0041  00FE               	movwf	btemp
  2623  0042  3000               	movlw	0
  2624  0043  00FF               	movwf	btemp+1
  2625  0044  3192  22CD  3180   	fcall	clear_ram0
  2626                           
  2627                           ; Clear objects allocated to BANK4
  2628  0047  3020               	movlw	low __pbssBANK4
  2629  0048  0084               	movwf	4
  2630  0049  3002               	movlw	high __pbssBANK4
  2631  004A  0085               	movwf	5
  2632  004B  3035               	movlw	53
  2633  004C  00FE               	movwf	btemp
  2634  004D  3000               	movlw	0
  2635  004E  00FF               	movwf	btemp+1
  2636  004F  3192  22CD  3180   	fcall	clear_ram0
  2637                           
  2638                           ; Clear objects allocated to BANK5
  2639  0052  30A0               	movlw	low __pbssBANK5
  2640  0053  0084               	movwf	4
  2641  0054  3002               	movlw	high __pbssBANK5
  2642  0055  0085               	movwf	5
  2643  0056  3040               	movlw	64
  2644  0057  00FE               	movwf	btemp
  2645  0058  3000               	movlw	0
  2646  0059  00FF               	movwf	btemp+1
  2647  005A  3192  22CD  3180   	fcall	clear_ram0
  2648                           
  2649                           ; Clear objects allocated to BANK6
  2650  005D  3020               	movlw	low __pbssBANK6
  2651  005E  0084               	movwf	4
  2652  005F  3003               	movlw	high __pbssBANK6
  2653  0060  0085               	movwf	5
  2654  0061  3040               	movlw	64
  2655  0062  00FE               	movwf	btemp
  2656  0063  3000               	movlw	0
  2657  0064  00FF               	movwf	btemp+1
  2658  0065  3192  22CD  3180   	fcall	clear_ram0
  2659  0068                     end_of_initialization:	
  2660                           ;End of C runtime variable initialization code
  2661                           
  2662  0068                     __end_of__initialization:
  2663  0068  107E               	bcf	int$flags,0	;clear compiler interrupt flag (level 1)
  2664  0069  0020               	movlb	0
  2665  006A  3182  2A0C         	ljmp	_main	;jump to C main() function
  2666                           
  2667                           	psect	bssBANK1
  2668  00C1                     __pbssBANK1:
  2669  00C1                     _pBDTEntryEP0OutNext:
  2670  00C1                     	ds	2
  2671  00C3                     measurementBurst@meascolumn:
  2672  00C3                     	ds	1
  2673  00C4                     measurementBurst@measrow:
  2674  00C4                     	ds	1
  2675  00C5                     _pBDTEntryEP0OutCurrent:
  2676  00C5                     	ds	1
  2677                           
  2678                           	psect	bssBANK3
  2679  01B0                     __pbssBANK3:
  2680  01B0                     _outPipes:
  2681  01B0                     	ds	7
  2682  01B7                     _pBDTEntryIn:
  2683  01B7                     	ds	6
  2684  01BD                     _inPipes:
  2685  01BD                     	ds	5
  2686  01C2                     _ep_data_out:
  2687  01C2                     	ds	3
  2688  01C5                     _ep_data_in:
  2689  01C5                     	ds	3
  2690  01C8                     main@currentEepromAddress:
  2691  01C8                     	ds	2
  2692  01CA                     _waitforsleep_count:
  2693  01CA                     	ds	2
  2694  01CC                     _CDCDataInHandle:
  2695  01CC                     	ds	2
  2696  01CE                     _CDCDataOutHandle:
  2697  01CE                     	ds	2
  2698  01D0                     main@transferComplete_flag:
  2699  01D0                     	ds	1
  2700  01D1                     main@write_complete:
  2701  01D1                     	ds	1
  2702  01D2                     main@burst_count:
  2703  01D2                     	ds	1
  2704  01D3                     _timer0ReloadVal:
  2705  01D3                     	ds	1
  2706  01D4                     _usbInit_flag:
  2707  01D4                     	ds	1
  2708  01D5                     _measurement_flag:
  2709  01D5                     	ds	1
  2710  01D6                     _writeout_flag:
  2711  01D6                     	ds	1
  2712  01D7                     _sleep_flag:
  2713  01D7                     	ds	1
  2714  01D8                     _control_signal_bitmap:
  2715  01D8                     	ds	1
  2716  01D9                     _cdc_mem_type:
  2717  01D9                     	ds	1
  2718  01DA                     _cdc_tx_len:
  2719  01DA                     	ds	1
  2720  01DB                     _cdc_trf_state:
  2721  01DB                     	ds	1
  2722  01DC                     _cdc_rx_len:
  2723  01DC                     	ds	1
  2724  01DD                     _USBTicksSinceSuspendEnd:
  2725  01DD                     	ds	1
  2726  01DE                     _USBDeferOUTDataStagePackets:
  2727  01DE                     	ds	1
  2728  01DF                     _USBDeferINDataStagePackets:
  2729  01DF                     	ds	1
  2730  01E0                     _USBStatusStageEnabledFlag2:
  2731  01E0                     	ds	1
  2732  01E1                     _USBStatusStageEnabledFlag1:
  2733  01E1                     	ds	1
  2734  01E2                     _USBDeferStatusStagePacket:
  2735  01E2                     	ds	1
  2736  01E3                     _USBStatusStageTimeoutCounter:
  2737  01E3                     	ds	1
  2738  01E4                     _BothEP0OutUOWNsSet:
  2739  01E4                     	ds	1
  2740  01E5                     _endpoint_number:
  2741  01E5                     	ds	1
  2742  01E6                     _USBBusIsSuspended:
  2743  01E6                     	ds	1
  2744  01E7                     _RemoteWakeup:
  2745  01E7                     	ds	1
  2746  01E8                     _pDst:
  2747  01E8                     	ds	1
  2748  01E9                     _controlTransferState:
  2749  01E9                     	ds	1
  2750  01EA                     _shortPacketStatus:
  2751  01EA                     	ds	1
  2752  01EB                     _USBDeviceState:
  2753  01EB                     	ds	1
  2754  01EC                     _USBAlternateInterface:
  2755  01EC                     	ds	2
  2756  01EE                     _USTATcopy:
  2757  01EE                     	ds	1
  2758  01EF                     _USBActiveConfiguration:
  2759  01EF                     	ds	1
  2760                           
  2761                           	psect	bssBANK4
  2762  0220                     __pbssBANK4:
  2763  0220                     _cdc_notice:
  2764  0220                     	ds	10
  2765  022A                     _pBDTEntryOut:
  2766  022A                     	ds	6
  2767  0230                     _BaudRateGen:
  2768  0230                     	ds	4
  2769  0234                     _USB1msTickCount:
  2770  0234                     	ds	4
  2771  0238                     _TMR0_InterruptHandler:
  2772  0238                     	ds	2
  2773  023A                     _measurementburst_count:
  2774  023A                     	ds	2
  2775  023C                     _heartbeat_counter:
  2776  023C                     	ds	2
  2777  023E                     _counter:
  2778  023E                     	ds	2
  2779  0240                     _ADC_InterruptHandler:
  2780  0240                     	ds	2
  2781  0242                     _pCDCDst:
  2782  0242                     	ds	2
  2783  0244                     _pCDCSrc:
  2784  0244                     	ds	2
  2785  0246                     _dummy_encapsulated_cmd_response:
  2786  0246                     	ds	8
  2787  024E                     _line_coding:
  2788  024E                     	ds	7
  2789                           
  2790                           	psect	bssBANK5
  2791  02A0                     __pbssBANK5:
  2792  02A0                     _readBuffer:
  2793  02A0                     	ds	64
  2794                           
  2795                           	psect	bssBANK6
  2796  0320                     __pbssBANK6:
  2797  0320                     _writeBuffer:
  2798  0320                     	ds	64
  2799                           
  2800                           	psect	inittext
  2801  12D9                     init_ram:
  2802  12D9  00FE               	movwf	btemp
  2803  12DA                     initloop:
  2804  12DA  0012               	moviw fsr0++
  2805  12DB  001E               	movwi fsr1++
  2806  12DC  3001               	movlw	1
  2807  12DD  02FE               	subwf	btemp,f
  2808  12DE  3000               	movlw	0
  2809  12DF  3BFF               	subwfb	btemp+1,f
  2810  12E0  087F               	movf	btemp+1,w
  2811  12E1  047E               	iorwf	btemp,w
  2812  12E2  1D03               	skipz
  2813  12E3  2ADA               	goto	initloop
  2814  12E4  3400               	retlw	0
  2815                           
  2816                           	psect	clrtext
  2817  12CD                     clear_ram0:	
  2818                           ;	Called with FSR0 containing the base address, and
  2819                           ;	btemp/btemp+1 has the size to clear
  2820                           
  2821  12CD  0064               	clrwdt	;clear the watchdog before getting into this loop
  2822  12CE                     clrloop0:
  2823  12CE  0180               	clrf	0	;clear RAM location pointed to by FSR
  2824  12CF  3101               	addfsr 0,1
  2825  12D0  3001               	movlw	1
  2826  12D1  02FE               	subwf	btemp,f
  2827  12D2  3000               	movlw	0
  2828  12D3  3BFF               	subwfb	btemp+1,f
  2829  12D4  087F               	movf	btemp+1,w
  2830  12D5  047E               	iorwf	btemp,w
  2831  12D6  1D03               	skipz
  2832  12D7  2ACE               	goto	clrloop0	;have we reached the end yet?
  2833  12D8  3400               	retlw	0	;all done for this memory range, return
  2834                           
  2835                           	psect	cstackBANK4
  2836  0255                     __pcstackBANK4:
  2837  0255                     	ds	1
  2838  0256                     main@testvar1:
  2839                           
  2840                           ; 2 bytes @ 0x1
  2841  0256                     	ds	2
  2842  0258                     main@testvar2:
  2843                           
  2844                           ; 2 bytes @ 0x3
  2845  0258                     	ds	2
  2846  025A                     main@PUTUSBUSART_ROW_K:
  2847                           
  2848                           ; 1 bytes @ 0x5
  2849  025A                     	ds	1
  2850  025B                     main@PUTUSBUSART_COL_K:
  2851                           
  2852                           ; 1 bytes @ 0x6
  2853  025B                     	ds	1
  2854  025C                     main@PUTUSBUSART_ROW_C:
  2855                           
  2856                           ; 1 bytes @ 0x7
  2857  025C                     	ds	1
  2858  025D                     main@PUTUSBUSART_COL_C:
  2859                           
  2860                           ; 1 bytes @ 0x8
  2861  025D                     	ds	1
  2862  025E                     main@buffer:
  2863                           
  2864                           ; 1 bytes @ 0x9
  2865  025E                     	ds	1
  2866                           
  2867                           	psect	cstackBANK1
  2868  00A0                     __pcstackBANK1:
  2869  00A0                     ??_USBCtrlEPService:
  2870                           
  2871                           ; 1 bytes @ 0x0
  2872  00A0                     	ds	2
  2873  00A2                     ??_USBDeviceTasks:
  2874                           
  2875                           ; 1 bytes @ 0x2
  2876  00A2                     	ds	2
  2877  00A4                     USBDeviceTasks@i:
  2878                           
  2879                           ; 1 bytes @ 0x4
  2880  00A4                     	ds	1
  2881  00A5                     ??_OSCILLATOR_Initialize:
  2882  00A5                     ??_WDT_Initialize:	
  2883                           ; 1 bytes @ 0x5
  2884                           
  2885  00A5                     ??_ADC_Initialize:	
  2886                           ; 1 bytes @ 0x5
  2887                           
  2888  00A5                     ?_IOCAF5_SetInterruptHandler:	
  2889                           ; 1 bytes @ 0x5
  2890                           
  2891  00A5                     ?_TMR0_SetInterruptHandler:	
  2892                           ; 1 bytes @ 0x5
  2893                           
  2894  00A5                     ??_I2C_Initialize:	
  2895                           ; 1 bytes @ 0x5
  2896                           
  2897  00A5                     ??_I2C_MasterStart:	
  2898                           ; 1 bytes @ 0x5
  2899                           
  2900  00A5                     ??_I2C_MasterWrite:	
  2901                           ; 1 bytes @ 0x5
  2902                           
  2903  00A5                     ??_I2C_MasterStop:	
  2904                           ; 1 bytes @ 0x5
  2905                           
  2906  00A5                     ??_USBDeviceInit:	
  2907                           ; 1 bytes @ 0x5
  2908                           
  2909  00A5                     ??_USBDeviceAttach:	
  2910                           ; 1 bytes @ 0x5
  2911                           
  2912  00A5                     ?_putUSBUSART:	
  2913                           ; 1 bytes @ 0x5
  2914                           
  2915  00A5                     ?_putrsUSBUSART:	
  2916                           ; 1 bytes @ 0x5
  2917                           
  2918  00A5                     ??_I2C_WaitForCompletion:	
  2919                           ; 1 bytes @ 0x5
  2920                           
  2921  00A5                     ??_I2C_MasterSetReceive:	
  2922                           ; 1 bytes @ 0x5
  2923                           
  2924  00A5                     ??_I2C_MasterSendAck:	
  2925                           ; 1 bytes @ 0x5
  2926                           
  2927  00A5                     ??_I2C_MasterSendNack:	
  2928                           ; 1 bytes @ 0x5
  2929                           
  2930  00A5                     ?_USBTransferOnePacket:	
  2931                           ; 1 bytes @ 0x5
  2932                           
  2933  00A5                     USBTransferOnePacket@dir:	
  2934                           ; 2 bytes @ 0x5
  2935                           
  2936  00A5                     I2C_MasterWrite@data:	
  2937                           ; 1 bytes @ 0x5
  2938                           
  2939  00A5                     putUSBUSART@data:	
  2940                           ; 1 bytes @ 0x5
  2941                           
  2942  00A5                     putrsUSBUSART@data:	
  2943                           ; 2 bytes @ 0x5
  2944                           
  2945  00A5                     IOCAF5_SetInterruptHandler@InterruptHandler:	
  2946                           ; 2 bytes @ 0x5
  2947                           
  2948  00A5                     TMR0_SetInterruptHandler@InterruptHandler:	
  2949                           ; 2 bytes @ 0x5
  2950                           
  2951                           
  2952                           ; 2 bytes @ 0x5
  2953  00A5                     	ds	1
  2954  00A6                     ?_eeprom_storeBurstGroup:
  2955  00A6                     ?_eeprom_readPage:	
  2956                           ; 1 bytes @ 0x6
  2957                           
  2958  00A6                     ??_ACK_Poll:	
  2959                           ; 1 bytes @ 0x6
  2960                           
  2961  00A6                     USBDeviceInit@p:	
  2962                           ; 1 bytes @ 0x6
  2963                           
  2964  00A6                     USBTransferOnePacket@data:	
  2965                           ; 2 bytes @ 0x6
  2966                           
  2967  00A6                     eeprom_storeBurstGroup@burstgroup_address:	
  2968                           ; 2 bytes @ 0x6
  2969                           
  2970  00A6                     eeprom_readPage@readpage_address:	
  2971                           ; 2 bytes @ 0x6
  2972                           
  2973                           
  2974                           ; 2 bytes @ 0x6
  2975  00A6                     	ds	1
  2976  00A7                     ??_PIN_MANAGER_Initialize:
  2977  00A7                     ??_TMR0_Initialize:	
  2978                           ; 1 bytes @ 0x7
  2979                           
  2980  00A7                     ??_IOCAF5_SetInterruptHandler:	
  2981                           ; 1 bytes @ 0x7
  2982                           
  2983  00A7                     ??_TMR0_SetInterruptHandler:	
  2984                           ; 1 bytes @ 0x7
  2985                           
  2986  00A7                     ??_putrsUSBUSART:	
  2987                           ; 1 bytes @ 0x7
  2988                           
  2989  00A7                     putUSBUSART@length:	
  2990                           ; 1 bytes @ 0x7
  2991                           
  2992                           
  2993                           ; 1 bytes @ 0x7
  2994  00A7                     	ds	1
  2995  00A8                     ??_putUSBUSART:
  2996  00A8                     USBDeviceInit@i_665:	
  2997                           ; 1 bytes @ 0x8
  2998                           
  2999  00A8                     USBTransferOnePacket@len:	
  3000                           ; 1 bytes @ 0x8
  3001                           
  3002  00A8                     eeprom_storeBurstGroup@data:	
  3003                           ; 1 bytes @ 0x8
  3004                           
  3005  00A8                     eeprom_readPage@measarrayptr:	
  3006                           ; 2 bytes @ 0x8
  3007                           
  3008                           
  3009                           ; 2 bytes @ 0x8
  3010  00A8                     	ds	1
  3011  00A9                     ??_USBTransferOnePacket:
  3012  00A9                     USBDeviceInit@i:	
  3013                           ; 1 bytes @ 0x9
  3014                           
  3015                           
  3016                           ; 1 bytes @ 0x9
  3017  00A9                     	ds	1
  3018  00AA                     ??_eeprom_storeBurstGroup:
  3019  00AA                     ??_eeprom_readPage:	
  3020                           ; 1 bytes @ 0xA
  3021                           
  3022  00AA                     ??_SYSTEM_Initialize:	
  3023                           ; 1 bytes @ 0xA
  3024                           
  3025  00AA                     putrsUSBUSART@pData:	
  3026                           ; 1 bytes @ 0xA
  3027                           
  3028                           
  3029                           ; 2 bytes @ 0xA
  3030  00AA                     	ds	2
  3031  00AC                     putrsUSBUSART@len:
  3032                           
  3033                           ; 1 bytes @ 0xC
  3034  00AC                     	ds	1
  3035  00AD                     USBTransferOnePacket@ep:
  3036                           
  3037                           ; 1 bytes @ 0xD
  3038  00AD                     	ds	1
  3039  00AE                     USBTransferOnePacket@handle:
  3040                           
  3041                           ; 2 bytes @ 0xE
  3042  00AE                     	ds	2
  3043  00B0                     ?_getsUSBUSART:
  3044  00B0                     ??_CDCTxService:	
  3045                           ; 1 bytes @ 0x10
  3046                           
  3047  00B0                     getsUSBUSART@len:	
  3048                           ; 1 bytes @ 0x10
  3049                           
  3050  00B0                     eeprom_readPage@addresslsb:	
  3051                           ; 1 bytes @ 0x10
  3052                           
  3053                           
  3054                           ; 1 bytes @ 0x10
  3055  00B0                     	ds	1
  3056  00B1                     ??_getsUSBUSART:
  3057  00B1                     CDCTxService@i:	
  3058                           ; 1 bytes @ 0x11
  3059                           
  3060  00B1                     eeprom_readPage@addressmsb:	
  3061                           ; 1 bytes @ 0x11
  3062                           
  3063                           
  3064                           ; 1 bytes @ 0x11
  3065  00B1                     	ds	1
  3066  00B2                     CDCTxService@byte_to_send:
  3067  00B2                     eeprom_readPage@eeprom_readpage_tempcol:	
  3068                           ; 1 bytes @ 0x12
  3069                           
  3070                           
  3071                           ; 1 bytes @ 0x12
  3072  00B2                     	ds	1
  3073  00B3                     getsUSBUSART@buffer:
  3074  00B3                     eeprom_readPage@readpage_temprow:	
  3075                           ; 1 bytes @ 0x13
  3076                           
  3077                           
  3078                           ; 1 bytes @ 0x13
  3079  00B3                     	ds	1
  3080  00B4                     eeprom_storeBurstGroup@addressmsb:
  3081                           
  3082                           ; 1 bytes @ 0x14
  3083  00B4                     	ds	1
  3084  00B5                     eeprom_storeBurstGroup@addresslsb:
  3085                           
  3086                           ; 1 bytes @ 0x15
  3087  00B5                     	ds	1
  3088  00B6                     eeprom_storeBurstGroup@pagewritten:
  3089                           
  3090                           ; 1 bytes @ 0x16
  3091  00B6                     	ds	1
  3092  00B7                     eeprom_storeBurstGroup@storeburst_temprow:
  3093                           
  3094                           ; 1 bytes @ 0x17
  3095  00B7                     	ds	1
  3096  00B8                     eeprom_storeBurstGroup@storeburst_tempcol:
  3097                           
  3098                           ; 1 bytes @ 0x18
  3099  00B8                     	ds	1
  3100  00B9                     ??_main:
  3101                           
  3102                           ; 1 bytes @ 0x19
  3103  00B9                     	ds	8
  3104                           
  3105                           	psect	cstackCOMMON
  3106  0070                     __pcstackCOMMON:
  3107  0070                     ?_USBWakeFromSuspend:
  3108  0070                     ?_USBSuspend:	
  3109                           ; 1 bytes @ 0x0
  3110                           
  3111  0070                     ?_USBIncrement1msInternalTimers:	
  3112                           ; 1 bytes @ 0x0
  3113                           
  3114  0070                     ??_USBIncrement1msInternalTimers:	
  3115                           ; 1 bytes @ 0x0
  3116                           
  3117  0070                     ?_USBCtrlEPAllowStatusStage:	
  3118                           ; 1 bytes @ 0x0
  3119                           
  3120  0070                     ??_USBCtrlEPAllowStatusStage:	
  3121                           ; 1 bytes @ 0x0
  3122                           
  3123  0070                     ?_USBStallHandler:	
  3124                           ; 1 bytes @ 0x0
  3125                           
  3126  0070                     ??_USBStallHandler:	
  3127                           ; 1 bytes @ 0x0
  3128                           
  3129  0070                     ?_USBCtrlEPService:	
  3130                           ; 1 bytes @ 0x0
  3131                           
  3132  0070                     ?_USBConfigureEndpoint:	
  3133                           ; 1 bytes @ 0x0
  3134                           
  3135  0070                     ?_USBCtrlTrfTxService:	
  3136                           ; 1 bytes @ 0x0
  3137                           
  3138  0070                     ??_USBCtrlTrfTxService:	
  3139                           ; 1 bytes @ 0x0
  3140                           
  3141  0070                     ?_memcpy:	
  3142                           ; 1 bytes @ 0x0
  3143                           
  3144  0070                     ?_USBCtrlTrfSetupHandler:	
  3145                           ; 1 bytes @ 0x0
  3146                           
  3147  0070                     ?_USBCtrlTrfOutHandler:	
  3148                           ; 1 bytes @ 0x0
  3149                           
  3150  0070                     ?_USBCtrlTrfInHandler:	
  3151                           ; 1 bytes @ 0x0
  3152                           
  3153  0070                     ?_USBCheckStdRequest:	
  3154                           ; 1 bytes @ 0x0
  3155                           
  3156  0070                     ?_USBStdFeatureReqHandler:	
  3157                           ; 1 bytes @ 0x0
  3158                           
  3159  0070                     ?_PIN_MANAGER_Initialize:	
  3160                           ; 1 bytes @ 0x0
  3161                           
  3162  0070                     ?_OSCILLATOR_Initialize:	
  3163                           ; 1 bytes @ 0x0
  3164                           
  3165  0070                     ?_WDT_Initialize:	
  3166                           ; 1 bytes @ 0x0
  3167                           
  3168  0070                     ?_ADC_Initialize:	
  3169                           ; 1 bytes @ 0x0
  3170                           
  3171  0070                     ?_TMR0_Initialize:	
  3172                           ; 1 bytes @ 0x0
  3173                           
  3174  0070                     ?_TMR0_DefaultInterruptHandler:	
  3175                           ; 1 bytes @ 0x0
  3176                           
  3177  0070                     ??_TMR0_DefaultInterruptHandler:	
  3178                           ; 1 bytes @ 0x0
  3179                           
  3180  0070                     ?_I2C_Initialize:	
  3181                           ; 1 bytes @ 0x0
  3182                           
  3183  0070                     ?_I2C_MasterStart:	
  3184                           ; 1 bytes @ 0x0
  3185                           
  3186  0070                     ?_I2C_MasterWrite:	
  3187                           ; 1 bytes @ 0x0
  3188                           
  3189  0070                     ?_I2C_MasterStop:	
  3190                           ; 1 bytes @ 0x0
  3191                           
  3192  0070                     ?_USBDeviceInit:	
  3193                           ; 1 bytes @ 0x0
  3194                           
  3195  0070                     ?_USBDeviceTasks:	
  3196                           ; 1 bytes @ 0x0
  3197                           
  3198  0070                     ?_USBDeviceAttach:	
  3199                           ; 1 bytes @ 0x0
  3200                           
  3201  0070                     ?_USBCtrlEPAllowDataStage:	
  3202                           ; 1 bytes @ 0x0
  3203                           
  3204  0070                     ?_USBCtrlEPServiceComplete:	
  3205                           ; 1 bytes @ 0x0
  3206                           
  3207  0070                     ?_USBCtrlTrfRxService:	
  3208                           ; 1 bytes @ 0x0
  3209                           
  3210  0070                     ?_USBStdSetCfgHandler:	
  3211                           ; 1 bytes @ 0x0
  3212                           
  3213  0070                     ?_USBStdGetDscHandler:	
  3214                           ; 1 bytes @ 0x0
  3215                           
  3216  0070                     ??_USBStdGetDscHandler:	
  3217                           ; 1 bytes @ 0x0
  3218                           
  3219  0070                     ?_USBStdGetStatusHandler:	
  3220                           ; 1 bytes @ 0x0
  3221                           
  3222  0070                     ??_USBStdGetStatusHandler:	
  3223                           ; 1 bytes @ 0x0
  3224                           
  3225  0070                     ?_USBCheckCDCRequest:	
  3226                           ; 1 bytes @ 0x0
  3227                           
  3228  0070                     ??_USBCheckCDCRequest:	
  3229                           ; 1 bytes @ 0x0
  3230                           
  3231  0070                     ?_CDCInitEP:	
  3232                           ; 1 bytes @ 0x0
  3233                           
  3234  0070                     ?_CDCTxService:	
  3235                           ; 1 bytes @ 0x0
  3236                           
  3237  0070                     ?_SYSTEM_Initialize:	
  3238                           ; 1 bytes @ 0x0
  3239                           
  3240  0070                     ?_TMR0_ISR:	
  3241                           ; 1 bytes @ 0x0
  3242                           
  3243  0070                     ??_TMR0_ISR:	
  3244                           ; 1 bytes @ 0x0
  3245                           
  3246  0070                     ?_INTERRUPT_InterruptManager:	
  3247                           ; 1 bytes @ 0x0
  3248                           
  3249  0070                     ?_main:	
  3250                           ; 1 bytes @ 0x0
  3251                           
  3252  0070                     ?_ACK_Poll:	
  3253                           ; 1 bytes @ 0x0
  3254                           
  3255  0070                     ?_I2C_WaitForCompletion:	
  3256                           ; 1 bytes @ 0x0
  3257                           
  3258  0070                     ?_I2C_MasterSetReceive:	
  3259                           ; 1 bytes @ 0x0
  3260                           
  3261  0070                     ?_I2C_MasterSendAck:	
  3262                           ; 1 bytes @ 0x0
  3263                           
  3264  0070                     ?_I2C_MasterSendNack:	
  3265                           ; 1 bytes @ 0x0
  3266                           
  3267  0070                     ?i1_USBDeviceInit:	
  3268                           ; 1 bytes @ 0x0
  3269                           
  3270  0070                     ??i1_USBDeviceInit:	
  3271                           ; 1 bytes @ 0x0
  3272                           
  3273  0070                     ?_memset:	
  3274                           ; 1 bytes @ 0x0
  3275                           
  3276  0070                     ?i1_USBTransferOnePacket:	
  3277                           ; 2 bytes @ 0x0
  3278                           
  3279  0070                     USBConfigureEndpoint@direction:	
  3280                           ; 2 bytes @ 0x0
  3281                           
  3282  0070                     i1USBTransferOnePacket@dir:	
  3283                           ; 1 bytes @ 0x0
  3284                           
  3285  0070                     memcpy@s1:	
  3286                           ; 1 bytes @ 0x0
  3287                           
  3288  0070                     memset@dest:	
  3289                           ; 2 bytes @ 0x0
  3290                           
  3291                           
  3292                           ; 2 bytes @ 0x0
  3293  0070                     	ds	1
  3294  0071                     ??_USBConfigureEndpoint:
  3295  0071                     i1USBDeviceInit@p:	
  3296                           ; 1 bytes @ 0x1
  3297                           
  3298  0071                     i1USBTransferOnePacket@data:	
  3299                           ; 2 bytes @ 0x1
  3300                           
  3301                           
  3302                           ; 2 bytes @ 0x1
  3303  0071                     	ds	1
  3304  0072                     ??_USBCtrlTrfRxService:
  3305  0072                     USBCtrlTrfTxService@byteToSend:	
  3306                           ; 1 bytes @ 0x2
  3307                           
  3308  0072                     USBStdGetStatusHandler@p:	
  3309                           ; 1 bytes @ 0x2
  3310                           
  3311  0072                     memcpy@n:	
  3312                           ; 2 bytes @ 0x2
  3313                           
  3314  0072                     memset@c:	
  3315                           ; 2 bytes @ 0x2
  3316                           
  3317                           
  3318                           ; 2 bytes @ 0x2
  3319  0072                     	ds	1
  3320  0073                     ??_USBCtrlTrfInHandler:
  3321  0073                     ??_USBCtrlEPAllowDataStage:	
  3322                           ; 1 bytes @ 0x3
  3323                           
  3324  0073                     i1USBDeviceInit@i_665:	
  3325                           ; 1 bytes @ 0x3
  3326                           
  3327  0073                     i1USBTransferOnePacket@len:	
  3328                           ; 1 bytes @ 0x3
  3329                           
  3330                           
  3331                           ; 1 bytes @ 0x3
  3332  0073                     	ds	1
  3333  0074                     ??_memcpy:
  3334  0074                     ??i1_USBTransferOnePacket:	
  3335                           ; 1 bytes @ 0x4
  3336                           
  3337  0074                     USBCtrlTrfRxService@i:	
  3338                           ; 1 bytes @ 0x4
  3339                           
  3340  0074                     i1USBDeviceInit@i:	
  3341                           ; 1 bytes @ 0x4
  3342                           
  3343  0074                     memset@n:	
  3344                           ; 1 bytes @ 0x4
  3345                           
  3346                           
  3347                           ; 2 bytes @ 0x4
  3348  0074                     	ds	1
  3349  0075                     ??_USBCtrlEPServiceComplete:
  3350  0075                     USBConfigureEndpoint@EPNum:	
  3351                           ; 1 bytes @ 0x5
  3352                           
  3353  0075                     USBCtrlTrfRxService@byteToRead:	
  3354                           ; 1 bytes @ 0x5
  3355                           
  3356  0075                     USBCtrlTrfInHandler@lastDTS:	
  3357                           ; 1 bytes @ 0x5
  3358                           
  3359  0075                     memcpy@s:	
  3360                           ; 1 bytes @ 0x5
  3361                           
  3362                           
  3363                           ; 2 bytes @ 0x5
  3364  0075                     	ds	1
  3365  0076                     ??_memset:
  3366  0076                     ??_USBCtrlTrfOutHandler:	
  3367                           ; 1 bytes @ 0x6
  3368                           
  3369  0076                     USBConfigureEndpoint@handle:	
  3370                           ; 1 bytes @ 0x6
  3371                           
  3372                           
  3373                           ; 1 bytes @ 0x6
  3374  0076                     	ds	1
  3375  0077                     ?_USBEnableEndpoint:
  3376  0077                     USBEnableEndpoint@options:	
  3377                           ; 1 bytes @ 0x7
  3378                           
  3379  0077                     memcpy@tmp:	
  3380                           ; 1 bytes @ 0x7
  3381                           
  3382                           
  3383                           ; 1 bytes @ 0x7
  3384  0077                     	ds	1
  3385  0078                     ??_USBEnableEndpoint:
  3386  0078                     memcpy@d1:	
  3387                           ; 1 bytes @ 0x8
  3388                           
  3389  0078                     i1USBTransferOnePacket@ep:	
  3390                           ; 1 bytes @ 0x8
  3391                           
  3392                           
  3393                           ; 1 bytes @ 0x8
  3394  0078                     	ds	1
  3395  0079                     memcpy@d:
  3396  0079                     i1USBTransferOnePacket@handle:	
  3397                           ; 1 bytes @ 0x9
  3398                           
  3399                           
  3400                           ; 2 bytes @ 0x9
  3401  0079                     	ds	1
  3402  007A                     USBEnableEndpoint@p:
  3403  007A                     memset@k:	
  3404                           ; 2 bytes @ 0xA
  3405                           
  3406                           
  3407                           ; 2 bytes @ 0xA
  3408  007A                     	ds	2
  3409  007C                     USBEnableEndpoint@ep:
  3410  007C                     memset@s:	
  3411                           ; 1 bytes @ 0xC
  3412                           
  3413                           
  3414                           ; 2 bytes @ 0xC
  3415  007C                     	ds	1
  3416  007D                     ??_CDCInitEP:
  3417                           
  3418                           ; 1 bytes @ 0xD
  3419  007D                     	ds	1
  3420  007E                     ??_USER_USB_CALLBACK_EVENT_HANDLER:
  3421  007E                     ??_INTERRUPT_InterruptManager:	
  3422                           ; 1 bytes @ 0xE
  3423                           
  3424                           
  3425                           	psect	cstackBANK0
  3426  0060                     __pcstackBANK0:	
  3427                           ; 1 bytes @ 0xE
  3428                           
  3429  0060                     ?_USER_USB_CALLBACK_EVENT_HANDLER:
  3430  0060                     USER_USB_CALLBACK_EVENT_HANDLER@event:	
  3431                           ; 1 bytes @ 0x0
  3432                           
  3433                           
  3434                           ; 2 bytes @ 0x0
  3435  0060                     	ds	2
  3436  0062                     USER_USB_CALLBACK_EVENT_HANDLER@pdata:
  3437                           
  3438                           ; 2 bytes @ 0x2
  3439  0062                     	ds	2
  3440  0064                     USER_USB_CALLBACK_EVENT_HANDLER@size:
  3441                           
  3442                           ; 2 bytes @ 0x4
  3443  0064                     	ds	2
  3444  0066                     ??_USBWakeFromSuspend:
  3445  0066                     ??_USBSuspend:	
  3446                           ; 1 bytes @ 0x6
  3447                           
  3448  0066                     ??_USBStdFeatureReqHandler:	
  3449                           ; 1 bytes @ 0x6
  3450                           
  3451  0066                     ??_USBStdSetCfgHandler:	
  3452                           ; 1 bytes @ 0x6
  3453                           
  3454                           
  3455                           ; 1 bytes @ 0x6
  3456  0066                     	ds	1
  3457  0067                     USBStdSetCfgHandler@p:
  3458                           
  3459                           ; 2 bytes @ 0x7
  3460  0067                     	ds	1
  3461  0068                     USBStdFeatureReqHandler@pUEP:
  3462                           
  3463                           ; 2 bytes @ 0x8
  3464  0068                     	ds	1
  3465  0069                     USBStdSetCfgHandler@i_1402:
  3466                           
  3467                           ; 1 bytes @ 0x9
  3468  0069                     	ds	1
  3469  006A                     USBStdSetCfgHandler@i:
  3470  006A                     USBStdFeatureReqHandler@current_ep_data:	
  3471                           ; 1 bytes @ 0xA
  3472                           
  3473                           
  3474                           ; 1 bytes @ 0xA
  3475  006A                     	ds	1
  3476  006B                     USBStdFeatureReqHandler@p:
  3477                           
  3478                           ; 2 bytes @ 0xB
  3479  006B                     	ds	2
  3480  006D                     ??_USBCheckStdRequest:
  3481                           
  3482                           ; 1 bytes @ 0xD
  3483  006D                     	ds	2
  3484  006F                     ??_USBCtrlTrfSetupHandler:
  3485                           
  3486                           ; 1 bytes @ 0xF
  3487  006F                     	ds	1
  3488                           
  3489                           	psect	maintext
  3490  020C                     __pmaintext:	
  3491 ;;
  3492 ;;Main: autosize = 0, tempsize = 8, incstack = 0, save=0
  3493 ;;
  3494 ;; *************** function _main *****************
  3495 ;; Defined at:
  3496 ;;		line 152 in file "main.c"
  3497 ;; Parameters:    Size  Location     Type
  3498 ;;		None
  3499 ;; Auto vars:     Size  Location     Type
  3500 ;;  testvar2        2    3[BANK4 ] unsigned short 
  3501 ;;  testvar1        2    1[BANK4 ] unsigned short 
  3502 ;;  PUTUSBUSART_    1    8[BANK4 ] unsigned char 
  3503 ;;  PUTUSBUSART_    1    6[BANK4 ] unsigned char 
  3504 ;;  PUTUSBUSART_    1    7[BANK4 ] unsigned char 
  3505 ;;  PUTUSBUSART_    1    5[BANK4 ] unsigned char 
  3506 ;;  buffer          1    9[BANK4 ] unsigned char [1]
  3507 ;;  numBytes        1    0        unsigned char 
  3508 ;; Return value:  Size  Location     Type
  3509 ;;                  1    wreg      void 
  3510 ;; Registers used:
  3511 ;;		wreg, fsr0l, fsr0h, fsr1l, fsr1h, status,2, status,0, pclath, cstack
  3512 ;; Tracked objects:
  3513 ;;		On entry : B1F/0
  3514 ;;		On exit  : 0/0
  3515 ;;		Unchanged: 0/0
  3516 ;; Data sizes:     COMMON   BANK0   BANK1   BANK2   BANK3   BANK4   BANK5   BANK6   BANK7   BANK8   BANK9  BANK10  BANK1
      +1  BANK12
  3517 ;;      Params:         0       0       0       0       0       0       0       0       0       0       0       0       
      +0       0
  3518 ;;      Locals:         0       0       0       0       0      10       0       0       0       0       0       0       
      +0       0
  3519 ;;      Temps:          0       0       8       0       0       0       0       0       0       0       0       0       
      +0       0
  3520 ;;      Totals:         0       0       8       0       0      10       0       0       0       0       0       0       
      +0       0
  3521 ;;Total ram usage:       18 bytes
  3522 ;; Hardware stack levels required when called:   14
  3523 ;; This function calls:
  3524 ;;		_CDCTxService
  3525 ;;		_I2C_Initialize
  3526 ;;		_SYSTEM_Initialize
  3527 ;;		_eeprom_readPage
  3528 ;;		_eeprom_storeBurstGroup
  3529 ;;		_getsUSBUSART
  3530 ;;		_putUSBUSART
  3531 ;;		_putrsUSBUSART
  3532 ;; This function is called by:
  3533 ;;		Startup code after reset
  3534 ;; This function uses a non-reentrant model
  3535 ;;
  3536                           
  3537                           
  3538                           ;psect for function _main
  3539  020C                     _main:
  3540  020C                     l6959:	
  3541                           ;incstack = 0
  3542                           ; Regs used in _main: [wreg-fsr1h+status,2+status,0+pclath+cstack]
  3543                           
  3544                           
  3545                           ;main.c: 153:     static unsigned char burst_count = 0;;main.c: 154:     static unsigned
      +                           char write_complete = 0;;main.c: 155:     static unsigned short currentEepromAddress = 
      +                          0;;main.c: 156:     static unsigned char transferComplete_flag = 0;;main.c: 157:     SYS
      +                          TEM_Initialize();
  3546  020C  3193  2303  3182   	fcall	_SYSTEM_Initialize
  3547  020F                     l6961:
  3548                           
  3549                           ;main.c: 158:     I2C_Initialize();
  3550  020F  3192  22C1  3182   	fcall	_I2C_Initialize
  3551  0212                     l6963:
  3552                           
  3553                           ;main.c: 159:     (INTCONbits.GIE = 1);
  3554  0212  178B               	bsf	11,7	;volatile
  3555  0213                     l6965:
  3556                           
  3557                           ;main.c: 160:     (INTCONbits.PEIE = 1);
  3558  0213  170B               	bsf	11,6	;volatile
  3559  0214                     l6967:
  3560                           
  3561                           ;main.c: 164:     {;main.c: 165:         if (measurement_flag) {
  3562  0214  0023               	movlb	3	; select bank3
  3563  0215  0855               	movf	_measurement_flag^(0+384),w	;volatile
  3564  0216  1903               	btfsc	3,2
  3565  0217  2A19               	goto	u5821
  3566  0218  2A1A               	goto	u5820
  3567  0219                     u5821:
  3568  0219  2A1B               	goto	l6971
  3569  021A                     u5820:
  3570  021A                     l6969:
  3571                           
  3572                           ;main.c: 166:             measurement_flag = 0;
  3573  021A  01D5               	clrf	_measurement_flag^(0+384)	;volatile
  3574  021B                     l6971:
  3575                           
  3576                           ;main.c: 181:         if (sleep_flag)
  3577  021B  0857               	movf	_sleep_flag^(0+384),w	;volatile
  3578  021C  1903               	btfsc	3,2
  3579  021D  2A1F               	goto	u5831
  3580  021E  2A20               	goto	u5830
  3581  021F                     u5831:
  3582  021F  2A24               	goto	l6975
  3583  0220                     u5830:
  3584  0220                     l6973:
  3585                           
  3586                           ;main.c: 182:         {;main.c: 192:             writeout_flag = 0;
  3587  0220  01D6               	clrf	_writeout_flag^(0+384)	;volatile
  3588                           
  3589                           ;main.c: 193:             measurementburst_count = 0;
  3590  0221  0024               	movlb	4	; select bank4
  3591  0222  01BA               	clrf	_measurementburst_count^(0+512)	;volatile
  3592  0223  01BB               	clrf	(_measurementburst_count+1)^(0+512)	;volatile
  3593  0224                     l6975:
  3594                           
  3595                           ;main.c: 195:         if (writeout_flag && !write_complete)
  3596  0224  0023               	movlb	3	; select bank3
  3597  0225  0856               	movf	_writeout_flag^(0+384),w	;volatile
  3598  0226  1903               	btfsc	3,2
  3599  0227  2A29               	goto	u5841
  3600  0228  2A2A               	goto	u5840
  3601  0229                     u5841:
  3602  0229  2A50               	goto	l6991
  3603  022A                     u5840:
  3604  022A                     l6977:
  3605  022A  0851               	movf	main@write_complete^(0+384),w
  3606  022B  1D03               	btfss	3,2
  3607  022C  2A2E               	goto	u5851
  3608  022D  2A2F               	goto	u5850
  3609  022E                     u5851:
  3610  022E  2A50               	goto	l6991
  3611  022F                     u5850:
  3612  022F                     l6979:
  3613                           
  3614                           ;main.c: 196:         {;main.c: 198:             writeout_flag = 0;
  3615  022F  01D6               	clrf	_writeout_flag^(0+384)	;volatile
  3616  0230                     l6981:
  3617                           
  3618                           ;main.c: 199:             if (currentEepromAddress >= 0xFFF) currentEepromAddress = 0;
  3619  0230  300F               	movlw	15
  3620  0231  0249               	subwf	(main@currentEepromAddress+1)^(0+384),w
  3621  0232  30FF               	movlw	255
  3622  0233  1903               	skipnz
  3623  0234  0248               	subwf	main@currentEepromAddress^(0+384),w
  3624  0235  1C03               	skipc
  3625  0236  2A38               	goto	u5861
  3626  0237  2A39               	goto	u5860
  3627  0238                     u5861:
  3628  0238  2A3B               	goto	l6985
  3629  0239                     u5860:
  3630  0239                     l6983:
  3631  0239  01C8               	clrf	main@currentEepromAddress^(0+384)
  3632  023A  01C9               	clrf	(main@currentEepromAddress+1)^(0+384)
  3633  023B                     l6985:
  3634                           
  3635                           ;main.c: 201:             eeprom_storeBurstGroup(currentEepromAddress, measarray);
  3636  023B  0849               	movf	(main@currentEepromAddress+1)^(0+384),w
  3637  023C  0021               	movlb	1	; select bank1
  3638  023D  00A7               	movwf	(eeprom_storeBurstGroup@burstgroup_address+1)^(0+128)
  3639  023E  0023               	movlb	3	; select bank3
  3640  023F  0848               	movf	main@currentEepromAddress^(0+384),w
  3641  0240  0021               	movlb	1	; select bank1
  3642  0241  00A6               	movwf	eeprom_storeBurstGroup@burstgroup_address^(0+128)
  3643  0242  3050               	movlw	80
  3644  0243  00A8               	movwf	eeprom_storeBurstGroup@data^(0+128)
  3645  0244  3022               	movlw	34
  3646  0245  00A9               	movwf	(eeprom_storeBurstGroup@data^(0+128)+1)
  3647  0246  318D  25F6  3182   	fcall	_eeprom_storeBurstGroup
  3648  0249                     l6987:
  3649                           
  3650                           ;main.c: 202:             currentEepromAddress += 0x1A0;
  3651  0249  30A0               	movlw	160
  3652  024A  0023               	movlb	3	; select bank3
  3653  024B  07C8               	addwf	main@currentEepromAddress^(0+384),f
  3654  024C  3001               	movlw	1
  3655  024D  3DC9               	addwfc	(main@currentEepromAddress+1)^(0+384),f
  3656  024E                     l6989:
  3657                           
  3658                           ;main.c: 204:             write_complete = 1;
  3659  024E  01D1               	clrf	main@write_complete^(0+384)
  3660  024F  0AD1               	incf	main@write_complete^(0+384),f
  3661  0250                     l6991:
  3662  0250  0021               	movlb	1	; select bank1
  3663  0251  01B0               	clrf	getsUSBUSART@len^(0+128)
  3664  0252  0AB0               	incf	getsUSBUSART@len^(0+128),f
  3665  0253  305E               	movlw	(low (main@buffer| (0+512)))& (0+255)
  3666  0254  3196  263F  3182   	fcall	_getsUSBUSART
  3667  0257                     l6993:
  3668                           
  3669                           ;main.c: 207:         if(buffer[0] == 'k')
  3670  0257  306B               	movlw	107
  3671  0258  0024               	movlb	4	; select bank4
  3672  0259  065E               	xorwf	main@buffer^(0+512),w
  3673  025A  1D03               	btfss	3,2
  3674  025B  2A5D               	goto	u5871
  3675  025C  2A5E               	goto	u5870
  3676  025D                     u5871:
  3677  025D  2AD4               	goto	l7031
  3678  025E                     u5870:
  3679  025E                     l6995:
  3680                           
  3681                           ;main.c: 208:         {;main.c: 209:             buffer[0] = 'n';
  3682  025E  306E               	movlw	110
  3683  025F  0021               	movlb	1	; select bank1
  3684  0260  00B9               	movwf	??_main^(0+128)
  3685  0261  0839               	movf	??_main^(0+128),w
  3686  0262  0024               	movlb	4	; select bank4
  3687  0263  00DE               	movwf	main@buffer^(0+512)
  3688  0264                     l6997:
  3689                           
  3690                           ;main.c: 210:             currentEepromAddress = 0;
  3691  0264  0023               	movlb	3	; select bank3
  3692  0265  01C8               	clrf	main@currentEepromAddress^(0+384)
  3693  0266  01C9               	clrf	(main@currentEepromAddress+1)^(0+384)
  3694  0267                     l6999:
  3695                           
  3696                           ;main.c: 211:             usbInit_flag = 1;
  3697  0267  3001               	movlw	1
  3698  0268  0021               	movlb	1	; select bank1
  3699  0269  00B9               	movwf	??_main^(0+128)
  3700  026A  0839               	movf	??_main^(0+128),w
  3701  026B  0023               	movlb	3	; select bank3
  3702  026C  00D4               	movwf	_usbInit_flag^(0+384)	;volatile
  3703                           
  3704                           ;main.c: 212:             transferComplete_flag = 0;
  3705  026D  01D0               	clrf	main@transferComplete_flag^(0+384)
  3706  026E                     l7001:
  3707                           
  3708                           ;main.c: 213:             if((cdc_trf_state == 0))
  3709  026E  085B               	movf	_cdc_trf_state^(0+384),w
  3710  026F  1D03               	btfss	3,2
  3711  0270  2A72               	goto	u5881
  3712  0271  2A73               	goto	u5880
  3713  0272                     u5881:
  3714  0272  2B61               	goto	l7073
  3715  0273                     u5880:
  3716  0273                     l7003:
  3717                           
  3718                           ;main.c: 214:             {;main.c: 215:                 eeprom_readPage(currentEepromAd
      +                          dress, measarray);
  3719  0273  3000               	movlw	0
  3720  0274  0021               	movlb	1	; select bank1
  3721  0275  00A6               	movwf	eeprom_readPage@readpage_address^(0+128)
  3722  0276  00A7               	movwf	(eeprom_readPage@readpage_address+1)^(0+128)
  3723  0277  3050               	movlw	80
  3724  0278  00A8               	movwf	eeprom_readPage@measarrayptr^(0+128)
  3725  0279  3022               	movlw	34
  3726  027A  00A9               	movwf	(eeprom_readPage@measarrayptr^(0+128)+1)
  3727  027B  3188  20DA  3182   	fcall	_eeprom_readPage
  3728  027E                     l7005:
  3729                           
  3730                           ;main.c: 216:                 currentEepromAddress += 0x20;
  3731  027E  3020               	movlw	32
  3732  027F  0023               	movlb	3	; select bank3
  3733  0280  07C8               	addwf	main@currentEepromAddress^(0+384),f
  3734  0281  3000               	movlw	0
  3735  0282  3DC9               	addwfc	(main@currentEepromAddress+1)^(0+384),f
  3736  0283                     l7007:
  3737                           
  3738                           ;main.c: 217:                 for(unsigned char PUTUSBUSART_ROW_K = 0; PUTUSBUSART_ROW_K
      +                           < 2; PUTUSBUSART_ROW_K++)
  3739  0283  0024               	movlb	4	; select bank4
  3740  0284  01DA               	clrf	main@PUTUSBUSART_ROW_K^(0+512)
  3741  0285                     l7013:
  3742                           
  3743                           ;main.c: 218:                 {;main.c: 219:                     for(unsigned char PUTUS
      +                          BUSART_COL_K = 0; PUTUSBUSART_COL_K < 8; PUTUSBUSART_COL_K++)
  3744  0285  01DB               	clrf	main@PUTUSBUSART_COL_K^(0+512)
  3745  0286                     l7019:
  3746                           
  3747                           ;main.c: 220:                     {;main.c: 221:                         unsigned short 
      +                          testvar1 = measarray[PUTUSBUSART_ROW_K][PUTUSBUSART_COL_K];
  3748  0286  085B               	movf	main@PUTUSBUSART_COL_K^(0+512),w
  3749  0287  0021               	movlb	1	; select bank1
  3750  0288  00B9               	movwf	??_main^(0+128)
  3751  0289  01BA               	clrf	(??_main^(0+128)+1)
  3752  028A  35B9               	lslf	??_main^(0+128),f
  3753  028B  0DBA               	rlf	(??_main^(0+128)+1),f
  3754  028C  0024               	movlb	4	; select bank4
  3755  028D  085A               	movf	main@PUTUSBUSART_ROW_K^(0+512),w
  3756  028E  0021               	movlb	1	; select bank1
  3757  028F  00BB               	movwf	(??_main+2)^(0+128)
  3758  0290  01BC               	clrf	((??_main+2)^(0+128)+1)
  3759  0291  0EBB               	swapf	(??_main+2)^(0+128),f
  3760  0292  0EBC               	swapf	((??_main+2)^(0+128)+1),f
  3761  0293  30F0               	movlw	240
  3762  0294  05BC               	andwf	((??_main+2)^(0+128)+1),f
  3763  0295  083B               	movf	(??_main+2)^(0+128),w
  3764  0296  390F               	andlw	15
  3765  0297  04BC               	iorwf	((??_main+2)^(0+128)+1),f
  3766  0298  30F0               	movlw	240
  3767  0299  05BB               	andwf	(??_main+2)^(0+128),f
  3768  029A  3050               	movlw	80
  3769  029B  00BD               	movwf	(??_main+4)^(0+128)
  3770  029C  3022               	movlw	34
  3771  029D  00BE               	movwf	((??_main+4)^(0+128)+1)
  3772  029E  083B               	movf	(??_main+2)^(0+128),w
  3773  029F  073D               	addwf	(??_main+4)^(0+128),w
  3774  02A0  00BF               	movwf	(??_main+6)^(0+128)
  3775  02A1  083C               	movf	(??_main+3)^(0+128),w
  3776  02A2  3D3E               	addwfc	(??_main+5)^(0+128),w
  3777  02A3  00C0               	movwf	(??_main+7)^(0+128)
  3778  02A4  0839               	movf	??_main^(0+128),w
  3779  02A5  073F               	addwf	(??_main+6)^(0+128),w
  3780  02A6  0086               	movwf	6
  3781  02A7  083A               	movf	(??_main+1)^(0+128),w
  3782  02A8  3D40               	addwfc	(??_main+7)^(0+128),w
  3783  02A9  0087               	movwf	7
  3784  02AA  3F40               	moviw [0]fsr1
  3785  02AB  0024               	movlb	4	; select bank4
  3786  02AC  00D6               	movwf	main@testvar1^(0+512)
  3787  02AD  3F41               	moviw [1]fsr1
  3788  02AE  00D7               	movwf	(main@testvar1+1)^(0+512)
  3789  02AF                     l7021:
  3790                           
  3791                           ;main.c: 222:                         putUSBUSART(&testvar1,2);
  3792  02AF  3056               	movlw	low main@testvar1
  3793  02B0  0021               	movlb	1	; select bank1
  3794  02B1  00A5               	movwf	putUSBUSART@data^(0+128)
  3795  02B2  3002               	movlw	high main@testvar1
  3796  02B3  00A6               	movwf	(putUSBUSART@data+1)^(0+128)
  3797  02B4  3002               	movlw	2
  3798  02B5  00B9               	movwf	??_main^(0+128)
  3799  02B6  0839               	movf	??_main^(0+128),w
  3800  02B7  00A7               	movwf	putUSBUSART@length^(0+128)
  3801  02B8  3193  234F  3182   	fcall	_putUSBUSART
  3802  02BB                     l7023:
  3803                           
  3804                           ;main.c: 223:                     }
  3805  02BB  3001               	movlw	1
  3806  02BC  0021               	movlb	1	; select bank1
  3807  02BD  00B9               	movwf	??_main^(0+128)
  3808  02BE  0839               	movf	??_main^(0+128),w
  3809  02BF  0024               	movlb	4	; select bank4
  3810  02C0  07DB               	addwf	main@PUTUSBUSART_COL_K^(0+512),f
  3811  02C1                     l7025:
  3812  02C1  3008               	movlw	8
  3813  02C2  025B               	subwf	main@PUTUSBUSART_COL_K^(0+512),w
  3814  02C3  1C03               	skipc
  3815  02C4  2AC6               	goto	u5891
  3816  02C5  2AC7               	goto	u5890
  3817  02C6                     u5891:
  3818  02C6  2A86               	goto	l7019
  3819  02C7                     u5890:
  3820  02C7                     l7027:
  3821                           
  3822                           ;main.c: 224:                 }
  3823  02C7  3001               	movlw	1
  3824  02C8  0021               	movlb	1	; select bank1
  3825  02C9  00B9               	movwf	??_main^(0+128)
  3826  02CA  0839               	movf	??_main^(0+128),w
  3827  02CB  0024               	movlb	4	; select bank4
  3828  02CC  07DA               	addwf	main@PUTUSBUSART_ROW_K^(0+512),f
  3829  02CD                     l7029:
  3830  02CD  3002               	movlw	2
  3831  02CE  025A               	subwf	main@PUTUSBUSART_ROW_K^(0+512),w
  3832  02CF  1C03               	skipc
  3833  02D0  2AD2               	goto	u5901
  3834  02D1  2AD3               	goto	u5900
  3835  02D2                     u5901:
  3836  02D2  2A85               	goto	l7013
  3837  02D3                     u5900:
  3838  02D3  2B61               	goto	l7073
  3839  02D4                     l7031:
  3840  02D4  3063               	movlw	99
  3841  02D5  065E               	xorwf	main@buffer^(0+512),w
  3842  02D6  1D03               	btfss	3,2
  3843  02D7  2AD9               	goto	u5911
  3844  02D8  2ADA               	goto	u5910
  3845  02D9                     u5911:
  3846  02D9  2B61               	goto	l7073
  3847  02DA                     u5910:
  3848  02DA                     l7033:
  3849                           
  3850                           ;main.c: 228:         {;main.c: 229:             buffer[0] = 'n';
  3851  02DA  306E               	movlw	110
  3852  02DB  0021               	movlb	1	; select bank1
  3853  02DC  00B9               	movwf	??_main^(0+128)
  3854  02DD  0839               	movf	??_main^(0+128),w
  3855  02DE  0024               	movlb	4	; select bank4
  3856  02DF  00DE               	movwf	main@buffer^(0+512)
  3857  02E0                     l7035:
  3858                           
  3859                           ;main.c: 230:             if (transferComplete_flag)
  3860  02E0  0023               	movlb	3	; select bank3
  3861  02E1  0850               	movf	main@transferComplete_flag^(0+384),w
  3862  02E2  1903               	btfsc	3,2
  3863  02E3  2AE5               	goto	u5921
  3864  02E4  2AE6               	goto	u5920
  3865  02E5                     u5921:
  3866  02E5  2AF1               	goto	l7041
  3867  02E6                     u5920:
  3868  02E6                     l7037:
  3869                           
  3870                           ;main.c: 231:             {;main.c: 232:                 putrsUSBUSART("Stop!");
  3871  02E6  30AF               	movlw	low (STR_1| (0+32768))
  3872  02E7  0021               	movlb	1	; select bank1
  3873  02E8  00A5               	movwf	putrsUSBUSART@data^(0+128)
  3874  02E9  3098               	movlw	high (STR_1| (0+32768))
  3875  02EA  00A6               	movwf	(putrsUSBUSART@data^(0+128)+1)
  3876  02EB  3195  2513  3182   	fcall	_putrsUSBUSART
  3877  02EE                     l7039:
  3878                           
  3879                           ;main.c: 233:                 usbInit_flag = 0;
  3880  02EE  0023               	movlb	3	; select bank3
  3881  02EF  01D4               	clrf	_usbInit_flag^(0+384)	;volatile
  3882                           
  3883                           ;main.c: 234:             }
  3884  02F0  2B61               	goto	l7073
  3885  02F1                     l7041:
  3886                           
  3887                           ;main.c: 236:             {;main.c: 237:                 eeprom_readPage(currentEepromAd
      +                          dress, measarray);
  3888  02F1  0849               	movf	(main@currentEepromAddress+1)^(0+384),w
  3889  02F2  0021               	movlb	1	; select bank1
  3890  02F3  00A7               	movwf	(eeprom_readPage@readpage_address+1)^(0+128)
  3891  02F4  0023               	movlb	3	; select bank3
  3892  02F5  0848               	movf	main@currentEepromAddress^(0+384),w
  3893  02F6  0021               	movlb	1	; select bank1
  3894  02F7  00A6               	movwf	eeprom_readPage@readpage_address^(0+128)
  3895  02F8  3050               	movlw	80
  3896  02F9  00A8               	movwf	eeprom_readPage@measarrayptr^(0+128)
  3897  02FA  3022               	movlw	34
  3898  02FB  00A9               	movwf	(eeprom_readPage@measarrayptr^(0+128)+1)
  3899  02FC  3188  20DA  3182   	fcall	_eeprom_readPage
  3900  02FF                     l7043:
  3901                           
  3902                           ;main.c: 238:                 currentEepromAddress += 0x20;
  3903  02FF  3020               	movlw	32
  3904  0300  0023               	movlb	3	; select bank3
  3905  0301  07C8               	addwf	main@currentEepromAddress^(0+384),f
  3906  0302  3000               	movlw	0
  3907  0303  3DC9               	addwfc	(main@currentEepromAddress+1)^(0+384),f
  3908  0304                     l7045:
  3909                           
  3910                           ;main.c: 239:                 if(currentEepromAddress >= 0xFFF)
  3911  0304  300F               	movlw	15
  3912  0305  0249               	subwf	(main@currentEepromAddress+1)^(0+384),w
  3913  0306  30FF               	movlw	255
  3914  0307  1903               	skipnz
  3915  0308  0248               	subwf	main@currentEepromAddress^(0+384),w
  3916  0309  1C03               	skipc
  3917  030A  2B0C               	goto	u5931
  3918  030B  2B0D               	goto	u5930
  3919  030C                     u5931:
  3920  030C  2B11               	goto	l856
  3921  030D                     u5930:
  3922  030D                     l7047:
  3923                           
  3924                           ;main.c: 240:                 {;main.c: 241:                     transferComplete_flag =
      +                           1;
  3925  030D  01D0               	clrf	main@transferComplete_flag^(0+384)
  3926  030E  0AD0               	incf	main@transferComplete_flag^(0+384),f
  3927  030F                     l7049:
  3928                           
  3929                           ;main.c: 242:                     currentEepromAddress = 0;
  3930  030F  01C8               	clrf	main@currentEepromAddress^(0+384)
  3931  0310  01C9               	clrf	(main@currentEepromAddress+1)^(0+384)
  3932  0311                     l856:	
  3933                           ;main.c: 243:                 }
  3934                           
  3935                           
  3936                           ;main.c: 244:                 for(unsigned char PUTUSBUSART_ROW_C = 0; PUTUSBUSART_ROW_C
      +                           < 2; PUTUSBUSART_ROW_C++)
  3937  0311  0024               	movlb	4	; select bank4
  3938  0312  01DC               	clrf	main@PUTUSBUSART_ROW_C^(0+512)
  3939  0313                     l7055:
  3940                           
  3941                           ;main.c: 245:                 {;main.c: 246:                     for(unsigned char PUTUS
      +                          BUSART_COL_C = 0; PUTUSBUSART_COL_C < 8; PUTUSBUSART_COL_C++)
  3942  0313  01DD               	clrf	main@PUTUSBUSART_COL_C^(0+512)
  3943  0314                     l7061:
  3944                           
  3945                           ;main.c: 247:                     {;main.c: 248:                         unsigned short 
      +                          testvar2 = measarray[PUTUSBUSART_ROW_C][PUTUSBUSART_COL_C];
  3946  0314  085D               	movf	main@PUTUSBUSART_COL_C^(0+512),w
  3947  0315  0021               	movlb	1	; select bank1
  3948  0316  00B9               	movwf	??_main^(0+128)
  3949  0317  01BA               	clrf	(??_main^(0+128)+1)
  3950  0318  35B9               	lslf	??_main^(0+128),f
  3951  0319  0DBA               	rlf	(??_main^(0+128)+1),f
  3952  031A  0024               	movlb	4	; select bank4
  3953  031B  085C               	movf	main@PUTUSBUSART_ROW_C^(0+512),w
  3954  031C  0021               	movlb	1	; select bank1
  3955  031D  00BB               	movwf	(??_main+2)^(0+128)
  3956  031E  01BC               	clrf	((??_main+2)^(0+128)+1)
  3957  031F  0EBB               	swapf	(??_main+2)^(0+128),f
  3958  0320  0EBC               	swapf	((??_main+2)^(0+128)+1),f
  3959  0321  30F0               	movlw	240
  3960  0322  05BC               	andwf	((??_main+2)^(0+128)+1),f
  3961  0323  083B               	movf	(??_main+2)^(0+128),w
  3962  0324  390F               	andlw	15
  3963  0325  04BC               	iorwf	((??_main+2)^(0+128)+1),f
  3964  0326  30F0               	movlw	240
  3965  0327  05BB               	andwf	(??_main+2)^(0+128),f
  3966  0328  3050               	movlw	80
  3967  0329  00BD               	movwf	(??_main+4)^(0+128)
  3968  032A  3022               	movlw	34
  3969  032B  00BE               	movwf	((??_main+4)^(0+128)+1)
  3970  032C  083B               	movf	(??_main+2)^(0+128),w
  3971  032D  073D               	addwf	(??_main+4)^(0+128),w
  3972  032E  00BF               	movwf	(??_main+6)^(0+128)
  3973  032F  083C               	movf	(??_main+3)^(0+128),w
  3974  0330  3D3E               	addwfc	(??_main+5)^(0+128),w
  3975  0331  00C0               	movwf	(??_main+7)^(0+128)
  3976  0332  0839               	movf	??_main^(0+128),w
  3977  0333  073F               	addwf	(??_main+6)^(0+128),w
  3978  0334  0086               	movwf	6
  3979  0335  083A               	movf	(??_main+1)^(0+128),w
  3980  0336  3D40               	addwfc	(??_main+7)^(0+128),w
  3981  0337  0087               	movwf	7
  3982  0338  3F40               	moviw [0]fsr1
  3983  0339  0024               	movlb	4	; select bank4
  3984  033A  00D8               	movwf	main@testvar2^(0+512)
  3985  033B  3F41               	moviw [1]fsr1
  3986  033C  00D9               	movwf	(main@testvar2+1)^(0+512)
  3987  033D                     l7063:
  3988                           
  3989                           ;main.c: 249:                         putUSBUSART(&testvar2,2);
  3990  033D  3058               	movlw	low main@testvar2
  3991  033E  0021               	movlb	1	; select bank1
  3992  033F  00A5               	movwf	putUSBUSART@data^(0+128)
  3993  0340  3002               	movlw	high main@testvar2
  3994  0341  00A6               	movwf	(putUSBUSART@data+1)^(0+128)
  3995  0342  3002               	movlw	2
  3996  0343  00B9               	movwf	??_main^(0+128)
  3997  0344  0839               	movf	??_main^(0+128),w
  3998  0345  00A7               	movwf	putUSBUSART@length^(0+128)
  3999  0346  3193  234F  3182   	fcall	_putUSBUSART
  4000  0349                     l7065:
  4001                           
  4002                           ;main.c: 250:                     }
  4003  0349  3001               	movlw	1
  4004  034A  0021               	movlb	1	; select bank1
  4005  034B  00B9               	movwf	??_main^(0+128)
  4006  034C  0839               	movf	??_main^(0+128),w
  4007  034D  0024               	movlb	4	; select bank4
  4008  034E  07DD               	addwf	main@PUTUSBUSART_COL_C^(0+512),f
  4009  034F                     l7067:
  4010  034F  3008               	movlw	8
  4011  0350  025D               	subwf	main@PUTUSBUSART_COL_C^(0+512),w
  4012  0351  1C03               	skipc
  4013  0352  2B54               	goto	u5941
  4014  0353  2B55               	goto	u5940
  4015  0354                     u5941:
  4016  0354  2B14               	goto	l7061
  4017  0355                     u5940:
  4018  0355                     l7069:
  4019                           
  4020                           ;main.c: 251:                 }
  4021  0355  3001               	movlw	1
  4022  0356  0021               	movlb	1	; select bank1
  4023  0357  00B9               	movwf	??_main^(0+128)
  4024  0358  0839               	movf	??_main^(0+128),w
  4025  0359  0024               	movlb	4	; select bank4
  4026  035A  07DC               	addwf	main@PUTUSBUSART_ROW_C^(0+512),f
  4027  035B                     l7071:
  4028  035B  3002               	movlw	2
  4029  035C  025C               	subwf	main@PUTUSBUSART_ROW_C^(0+512),w
  4030  035D  1C03               	skipc
  4031  035E  2B60               	goto	u5951
  4032  035F  2B61               	goto	u5950
  4033  0360                     u5951:
  4034  0360  2B13               	goto	l7055
  4035  0361                     u5950:
  4036  0361                     l7073:
  4037                           
  4038                           ;main.c: 254:         CDCTxService();
  4039  0361  3185  25E4  3182   	fcall	_CDCTxService
  4040  0364  2A14               	goto	l6967
  4041  0365  3180  2826         	ljmp	start
  4042  0367                     __end_of_main:
  4043                           
  4044                           	psect	text1
  4045  1513                     __ptext1:	
  4046 ;; *************** function _putrsUSBUSART *****************
  4047 ;; Defined at:
  4048 ;;		line 744 in file "mcc_generated_files/usb/usb_device_cdc.c"
  4049 ;; Parameters:    Size  Location     Type
  4050 ;;  data            2    5[BANK1 ] PTR const unsigned char 
  4051 ;;		 -> STR_1(6), 
  4052 ;; Auto vars:     Size  Location     Type
  4053 ;;  pData           2   10[BANK1 ] PTR const unsigned char 
  4054 ;;		 -> STR_1(6), 
  4055 ;;  len             1   12[BANK1 ] unsigned char 
  4056 ;; Return value:  Size  Location     Type
  4057 ;;                  1    wreg      void 
  4058 ;; Registers used:
  4059 ;;		wreg, fsr0l, fsr0h, status,2, status,0
  4060 ;; Tracked objects:
  4061 ;;		On entry : 0/0
  4062 ;;		On exit  : 0/0
  4063 ;;		Unchanged: 0/0
  4064 ;; Data sizes:     COMMON   BANK0   BANK1   BANK2   BANK3   BANK4   BANK5   BANK6   BANK7   BANK8   BANK9  BANK10  BANK1
      +1  BANK12
  4065 ;;      Params:         0       0       2       0       0       0       0       0       0       0       0       0       
      +0       0
  4066 ;;      Locals:         0       0       3       0       0       0       0       0       0       0       0       0       
      +0       0
  4067 ;;      Temps:          0       0       3       0       0       0       0       0       0       0       0       0       
      +0       0
  4068 ;;      Totals:         0       0       8       0       0       0       0       0       0       0       0       0       
      +0       0
  4069 ;;Total ram usage:        8 bytes
  4070 ;; Hardware stack levels used:    1
  4071 ;; Hardware stack levels required when called:   10
  4072 ;; This function calls:
  4073 ;;		Nothing
  4074 ;; This function is called by:
  4075 ;;		_main
  4076 ;; This function uses a non-reentrant model
  4077 ;;
  4078                           
  4079                           
  4080                           ;psect for function _putrsUSBUSART
  4081  1513                     _putrsUSBUSART:
  4082  1513                     l6253:	
  4083                           ;incstack = 0
  4084                           ; Regs used in _putrsUSBUSART: [wreg-fsr0h+status,2+status,0]
  4085                           
  4086                           
  4087                           ;mcc_generated_files/usb/usb_device_cdc.c: 744: void putrsUSBUSART(const char *data);mcc
      +                          _generated_files/usb/usb_device_cdc.c: 745: {;mcc_generated_files/usb/usb_device_cdc.c: 
      +                          746:     uint8_t len;;mcc_generated_files/usb/usb_device_cdc.c: 747:     const char *pDa
      +                          ta;;mcc_generated_files/usb/usb_device_cdc.c: 772:     {PIE2bits.USBIE = 0;};
  4088  1513  0021               	movlb	1	; select bank1
  4089  1514  1112               	bcf	18,2	;volatile
  4090  1515                     l6255:
  4091                           
  4092                           ;mcc_generated_files/usb/usb_device_cdc.c: 773:     if(cdc_trf_state != 0)
  4093  1515  0023               	movlb	3	; select bank3
  4094  1516  085B               	movf	_cdc_trf_state^(0+384),w
  4095  1517  1903               	btfsc	3,2
  4096  1518  2D1A               	goto	u5191
  4097  1519  2D1B               	goto	u5190
  4098  151A                     u5191:
  4099  151A  2D1E               	goto	l6259
  4100  151B                     u5190:
  4101  151B                     l6257:
  4102                           
  4103                           ;mcc_generated_files/usb/usb_device_cdc.c: 774:     {;mcc_generated_files/usb/usb_device
      +                          _cdc.c: 775:         {PIE2bits.USBIE = 1;};
  4104  151B  0021               	movlb	1	; select bank1
  4105  151C  1512               	bsf	18,2	;volatile
  4106                           
  4107                           ;mcc_generated_files/usb/usb_device_cdc.c: 776:         return;
  4108  151D  2D50               	goto	l489
  4109  151E                     l6259:
  4110                           
  4111                           ;mcc_generated_files/usb/usb_device_cdc.c: 783:     len = 0;
  4112  151E  0021               	movlb	1	; select bank1
  4113  151F  01AC               	clrf	putrsUSBUSART@len^(0+128)
  4114  1520                     l6261:
  4115                           
  4116                           ;mcc_generated_files/usb/usb_device_cdc.c: 784:     pData = data;
  4117  1520  0826               	movf	(putrsUSBUSART@data+1)^(0+128),w
  4118  1521  00AB               	movwf	(putrsUSBUSART@pData+1)^(0+128)
  4119  1522  0825               	movf	putrsUSBUSART@data^(0+128),w
  4120  1523  00AA               	movwf	putrsUSBUSART@pData^(0+128)
  4121  1524                     l6263:
  4122                           
  4123                           ;mcc_generated_files/usb/usb_device_cdc.c: 786:     {;mcc_generated_files/usb/usb_device
      +                          _cdc.c: 787:         len++;
  4124  1524  3001               	movlw	1
  4125  1525  00A7               	movwf	??_putrsUSBUSART^(0+128)
  4126  1526  0827               	movf	??_putrsUSBUSART^(0+128),w
  4127  1527  07AC               	addwf	putrsUSBUSART@len^(0+128),f
  4128  1528                     l6265:
  4129                           
  4130                           ;mcc_generated_files/usb/usb_device_cdc.c: 788:         if(len == 255) break;
  4131  1528  0A2C               	incf	putrsUSBUSART@len^(0+128),w
  4132  1529  1D03               	btfss	3,2
  4133  152A  2D2C               	goto	u5201
  4134  152B  2D2D               	goto	u5200
  4135  152C                     u5201:
  4136  152C  2D2E               	goto	l6269
  4137  152D                     u5200:
  4138  152D  2D3E               	goto	l6271
  4139  152E                     l6269:
  4140                           
  4141                           ;mcc_generated_files/usb/usb_device_cdc.c: 789:     }while(*pData++);
  4142  152E  082B               	movf	(putrsUSBUSART@pData+1)^(0+128),w
  4143  152F  00A8               	movwf	(??_putrsUSBUSART^(0+128)+1)
  4144  1530  082A               	movf	putrsUSBUSART@pData^(0+128),w
  4145  1531  00A7               	movwf	??_putrsUSBUSART^(0+128)
  4146  1532  0AAA               	incf	putrsUSBUSART@pData^(0+128),f
  4147  1533  1903               	skipnz
  4148  1534  0AAB               	incf	(putrsUSBUSART@pData+1)^(0+128),f
  4149  1535  0827               	movf	??_putrsUSBUSART^(0+128),w
  4150  1536  0084               	movwf	4
  4151  1537  0828               	movf	(??_putrsUSBUSART+1)^(0+128),w
  4152  1538  0085               	movwf	5
  4153  1539  0012               	moviw fsr0++
  4154  153A  1D03               	btfss	3,2
  4155  153B  2D3D               	goto	u5211
  4156  153C  2D3E               	goto	u5210
  4157  153D                     u5211:
  4158  153D  2D24               	goto	l6263
  4159  153E                     u5210:
  4160  153E                     l6271:
  4161                           
  4162                           ;mcc_generated_files/usb/usb_device_cdc.c: 798:     { pCDCSrc.bRom = (const uint8_t*)dat
      +                          a; cdc_tx_len = len; cdc_mem_type = 0x00; cdc_trf_state = 1; };
  4163  153E  0826               	movf	(putrsUSBUSART@data+1)^(0+128),w
  4164  153F  0024               	movlb	4	; select bank4
  4165  1540  00C5               	movwf	(_pCDCSrc+1)^(0+512)
  4166  1541  0021               	movlb	1	; select bank1
  4167  1542  0825               	movf	putrsUSBUSART@data^(0+128),w
  4168  1543  0024               	movlb	4	; select bank4
  4169  1544  00C4               	movwf	_pCDCSrc^(0+512)
  4170  1545  0021               	movlb	1	; select bank1
  4171  1546  082C               	movf	putrsUSBUSART@len^(0+128),w
  4172  1547  00A7               	movwf	??_putrsUSBUSART^(0+128)
  4173  1548  0827               	movf	??_putrsUSBUSART^(0+128),w
  4174  1549  0023               	movlb	3	; select bank3
  4175  154A  00DA               	movwf	_cdc_tx_len^(0+384)
  4176  154B                     l6273:
  4177  154B  01D9               	clrf	_cdc_mem_type^(0+384)
  4178  154C                     l6275:
  4179  154C  01DB               	clrf	_cdc_trf_state^(0+384)
  4180  154D  0ADB               	incf	_cdc_trf_state^(0+384),f
  4181  154E                     l6277:
  4182                           
  4183                           ;mcc_generated_files/usb/usb_device_cdc.c: 799:     {PIE2bits.USBIE = 1;};
  4184  154E  0021               	movlb	1	; select bank1
  4185  154F  1512               	bsf	18,2	;volatile
  4186  1550                     l489:
  4187  1550  0008               	return
  4188  1551                     __end_of_putrsUSBUSART:
  4189                           
  4190                           	psect	text2
  4191  134F                     __ptext2:	
  4192 ;; *************** function _putUSBUSART *****************
  4193 ;; Defined at:
  4194 ;;		line 574 in file "mcc_generated_files/usb/usb_device_cdc.c"
  4195 ;; Parameters:    Size  Location     Type
  4196 ;;  data            2    5[BANK1 ] PTR unsigned char 
  4197 ;;		 -> main@testvar2(2), main@testvar1(2), writeBuffer(64), 
  4198 ;;  length          1    7[BANK1 ] unsigned char 
  4199 ;; Auto vars:     Size  Location     Type
  4200 ;;		None
  4201 ;; Return value:  Size  Location     Type
  4202 ;;                  1    wreg      void 
  4203 ;; Registers used:
  4204 ;;		wreg, status,2, status,0
  4205 ;; Tracked objects:
  4206 ;;		On entry : 0/0
  4207 ;;		On exit  : 0/0
  4208 ;;		Unchanged: 0/0
  4209 ;; Data sizes:     COMMON   BANK0   BANK1   BANK2   BANK3   BANK4   BANK5   BANK6   BANK7   BANK8   BANK9  BANK10  BANK1
      +1  BANK12
  4210 ;;      Params:         0       0       3       0       0       0       0       0       0       0       0       0       
      +0       0
  4211 ;;      Locals:         0       0       0       0       0       0       0       0       0       0       0       0       
      +0       0
  4212 ;;      Temps:          0       0       1       0       0       0       0       0       0       0       0       0       
      +0       0
  4213 ;;      Totals:         0       0       4       0       0       0       0       0       0       0       0       0       
      +0       0
  4214 ;;Total ram usage:        4 bytes
  4215 ;; Hardware stack levels used:    1
  4216 ;; Hardware stack levels required when called:   10
  4217 ;; This function calls:
  4218 ;;		Nothing
  4219 ;; This function is called by:
  4220 ;;		_main
  4221 ;;		_MCC_USB_CDC_DemoTasks
  4222 ;; This function uses a non-reentrant model
  4223 ;;
  4224                           
  4225                           
  4226                           ;psect for function _putUSBUSART
  4227  134F                     _putUSBUSART:
  4228  134F                     l6241:	
  4229                           ;incstack = 0
  4230                           ; Regs used in _putUSBUSART: [wreg+status,2+status,0]
  4231                           
  4232                           
  4233                           ;mcc_generated_files/usb/usb_device_cdc.c: 574: void putUSBUSART(uint8_t *data, uint8_t 
      +                          length);mcc_generated_files/usb/usb_device_cdc.c: 575: {;mcc_generated_files/usb/usb_dev
      +                          ice_cdc.c: 599:     {PIE2bits.USBIE = 0;};
  4234  134F  0021               	movlb	1	; select bank1
  4235  1350  1112               	bcf	18,2	;volatile
  4236  1351                     l6243:
  4237                           
  4238                           ;mcc_generated_files/usb/usb_device_cdc.c: 600:     if(cdc_trf_state == 0)
  4239  1351  0023               	movlb	3	; select bank3
  4240  1352  085B               	movf	_cdc_trf_state^(0+384),w
  4241  1353  1D03               	btfss	3,2
  4242  1354  2B56               	goto	u5181
  4243  1355  2B57               	goto	u5180
  4244  1356                     u5181:
  4245  1356  2B69               	goto	l6251
  4246  1357                     u5180:
  4247  1357                     l6245:
  4248                           
  4249                           ;mcc_generated_files/usb/usb_device_cdc.c: 601:     {;mcc_generated_files/usb/usb_device
      +                          _cdc.c: 602:         { pCDCSrc.bRam = (uint8_t*)data; cdc_tx_len = length; cdc_mem_type 
      +                          = 0x01; cdc_trf_state = 1; };
  4250  1357  0021               	movlb	1	; select bank1
  4251  1358  0826               	movf	(putUSBUSART@data+1)^(0+128),w
  4252  1359  0024               	movlb	4	; select bank4
  4253  135A  00C5               	movwf	(_pCDCSrc+1)^(0+512)
  4254  135B  0021               	movlb	1	; select bank1
  4255  135C  0825               	movf	putUSBUSART@data^(0+128),w
  4256  135D  0024               	movlb	4	; select bank4
  4257  135E  00C4               	movwf	_pCDCSrc^(0+512)
  4258  135F  0021               	movlb	1	; select bank1
  4259  1360  0827               	movf	putUSBUSART@length^(0+128),w
  4260  1361  00A8               	movwf	??_putUSBUSART^(0+128)
  4261  1362  0828               	movf	??_putUSBUSART^(0+128),w
  4262  1363  0023               	movlb	3	; select bank3
  4263  1364  00DA               	movwf	_cdc_tx_len^(0+384)
  4264  1365                     l6247:
  4265  1365  01D9               	clrf	_cdc_mem_type^(0+384)
  4266  1366  0AD9               	incf	_cdc_mem_type^(0+384),f
  4267  1367                     l6249:
  4268  1367  01DB               	clrf	_cdc_trf_state^(0+384)
  4269  1368  0ADB               	incf	_cdc_trf_state^(0+384),f
  4270  1369                     l6251:
  4271                           
  4272                           ;mcc_generated_files/usb/usb_device_cdc.c: 604:     {PIE2bits.USBIE = 1;};
  4273  1369  0021               	movlb	1	; select bank1
  4274  136A  1512               	bsf	18,2	;volatile
  4275  136B                     l478:
  4276  136B  0008               	return
  4277  136C                     __end_of_putUSBUSART:
  4278                           
  4279                           	psect	text3
  4280  163F                     __ptext3:	
  4281 ;; *************** function _getsUSBUSART *****************
  4282 ;; Defined at:
  4283 ;;		line 503 in file "mcc_generated_files/usb/usb_device_cdc.c"
  4284 ;; Parameters:    Size  Location     Type
  4285 ;;  buffer          1    wreg     PTR unsigned char 
  4286 ;;		 -> main@buffer(1), readBuffer(64), 
  4287 ;;  len             1   16[BANK1 ] unsigned char 
  4288 ;; Auto vars:     Size  Location     Type
  4289 ;;  buffer          1   19[BANK1 ] PTR unsigned char 
  4290 ;;		 -> main@buffer(1), readBuffer(64), 
  4291 ;; Return value:  Size  Location     Type
  4292 ;;                  1    wreg      unsigned char 
  4293 ;; Registers used:
  4294 ;;		wreg, fsr1l, fsr1h, status,2, status,0, pclath, cstack
  4295 ;; Tracked objects:
  4296 ;;		On entry : 0/0
  4297 ;;		On exit  : 0/0
  4298 ;;		Unchanged: 0/0
  4299 ;; Data sizes:     COMMON   BANK0   BANK1   BANK2   BANK3   BANK4   BANK5   BANK6   BANK7   BANK8   BANK9  BANK10  BANK1
      +1  BANK12
  4300 ;;      Params:         0       0       1       0       0       0       0       0       0       0       0       0       
      +0       0
  4301 ;;      Locals:         0       0       1       0       0       0       0       0       0       0       0       0       
      +0       0
  4302 ;;      Temps:          0       0       2       0       0       0       0       0       0       0       0       0       
      +0       0
  4303 ;;      Totals:         0       0       4       0       0       0       0       0       0       0       0       0       
      +0       0
  4304 ;;Total ram usage:        4 bytes
  4305 ;; Hardware stack levels used:    1
  4306 ;; Hardware stack levels required when called:   11
  4307 ;; This function calls:
  4308 ;;		_USBTransferOnePacket
  4309 ;; This function is called by:
  4310 ;;		_main
  4311 ;;		_MCC_USB_CDC_DemoTasks
  4312 ;; This function uses a non-reentrant model
  4313 ;;
  4314                           
  4315                           
  4316                           ;psect for function _getsUSBUSART
  4317  163F                     _getsUSBUSART:
  4318                           
  4319                           ;incstack = 0
  4320                           ; Regs used in _getsUSBUSART: [wreg+fsr1l+fsr1h+status,2+status,0+pclath+cstack]
  4321                           ;getsUSBUSART@buffer stored from wreg
  4322  163F  0021               	movlb	1	; select bank1
  4323  1640  00B3               	movwf	getsUSBUSART@buffer^(0+128)
  4324  1641                     l6897:
  4325                           
  4326                           ;mcc_generated_files/usb/usb_device_cdc.c: 503: uint8_t getsUSBUSART(uint8_t *buffer, ui
      +                          nt8_t len);mcc_generated_files/usb/usb_device_cdc.c: 504: {;mcc_generated_files/usb/usb_
      +                          device_cdc.c: 505:     cdc_rx_len = 0;
  4327  1641  0023               	movlb	3	; select bank3
  4328  1642  01DC               	clrf	_cdc_rx_len^(0+384)
  4329  1643                     l6899:
  4330                           
  4331                           ;mcc_generated_files/usb/usb_device_cdc.c: 507:     if(!((CDCDataOutHandle != 0x0000) &&
      +                           ((*(volatile uint8_t*)CDCDataOutHandle & 0x80) != 0x00)))
  4332  1643  084E               	movf	_CDCDataOutHandle^(0+384),w
  4333  1644  044F               	iorwf	(_CDCDataOutHandle+1)^(0+384),w
  4334  1645  1903               	btfsc	3,2
  4335  1646  2E48               	goto	u5731
  4336  1647  2E49               	goto	u5730
  4337  1648                     u5731:
  4338  1648  2E51               	goto	l6903
  4339  1649                     u5730:
  4340  1649                     l6901:
  4341  1649  084E               	movf	_CDCDataOutHandle^(0+384),w
  4342  164A  0086               	movwf	6
  4343  164B  084F               	movf	(_CDCDataOutHandle+1)^(0+384),w
  4344  164C  0087               	movwf	7
  4345  164D  1B81               	btfsc	1,7
  4346  164E  2E50               	goto	u5741
  4347  164F  2E51               	goto	u5740
  4348  1650                     u5741:
  4349  1650  2EA2               	goto	l6917
  4350  1651                     u5740:
  4351  1651                     l6903:
  4352                           
  4353                           ;mcc_generated_files/usb/usb_device_cdc.c: 508:     {;mcc_generated_files/usb/usb_device
      +                          _cdc.c: 513:         if(len > (((volatile BDT_ENTRY*)CDCDataOutHandle)->CNT))
  4354  1651  084E               	movf	_CDCDataOutHandle^(0+384),w
  4355  1652  0086               	movwf	6
  4356  1653  084F               	movf	(_CDCDataOutHandle+1)^(0+384),w
  4357  1654  0087               	movwf	7
  4358  1655  3141               	addfsr 1,1
  4359  1656  0021               	movlb	1	; select bank1
  4360  1657  0830               	movf	getsUSBUSART@len^(0+128),w
  4361  1658  0201               	subwf	1,w
  4362  1659  1803               	skipnc
  4363  165A  2E5C               	goto	u5751
  4364  165B  2E5D               	goto	u5750
  4365  165C                     u5751:
  4366  165C  2E68               	goto	l6907
  4367  165D                     u5750:
  4368  165D                     l6905:
  4369                           
  4370                           ;mcc_generated_files/usb/usb_device_cdc.c: 514:             len = (((volatile BDT_ENTRY*
      +                          )CDCDataOutHandle)->CNT);
  4371  165D  0023               	movlb	3	; select bank3
  4372  165E  084E               	movf	_CDCDataOutHandle^(0+384),w
  4373  165F  0086               	movwf	6
  4374  1660  084F               	movf	(_CDCDataOutHandle+1)^(0+384),w
  4375  1661  0087               	movwf	7
  4376  1662  3141               	addfsr 1,1
  4377  1663  0801               	movf	1,w
  4378  1664  0021               	movlb	1	; select bank1
  4379  1665  00B1               	movwf	??_getsUSBUSART^(0+128)
  4380  1666  0831               	movf	??_getsUSBUSART^(0+128),w
  4381  1667  00B0               	movwf	getsUSBUSART@len^(0+128)
  4382  1668                     l6907:
  4383                           
  4384                           ;mcc_generated_files/usb/usb_device_cdc.c: 519:         for(cdc_rx_len = 0; cdc_rx_len <
      +                           len; cdc_rx_len++)
  4385  1668  0023               	movlb	3	; select bank3
  4386  1669  01DC               	clrf	_cdc_rx_len^(0+384)
  4387  166A  2E84               	goto	l6913
  4388  166B                     l6909:
  4389                           
  4390                           ;mcc_generated_files/usb/usb_device_cdc.c: 520:             buffer[cdc_rx_len] = cdc_dat
      +                          a_rx[cdc_rx_len];
  4391  166B  085C               	movf	_cdc_rx_len^(0+384),w
  4392  166C  3EC0               	addlw	192
  4393  166D  0086               	movwf	6
  4394  166E  0187               	clrf	7
  4395  166F  3020               	movlw	32
  4396  1670  3D87               	addwfc	7,f
  4397  1671  0801               	movf	1,w
  4398  1672  0021               	movlb	1	; select bank1
  4399  1673  00B1               	movwf	??_getsUSBUSART^(0+128)
  4400  1674  0023               	movlb	3	; select bank3
  4401  1675  085C               	movf	_cdc_rx_len^(0+384),w
  4402  1676  0021               	movlb	1	; select bank1
  4403  1677  0733               	addwf	getsUSBUSART@buffer^(0+128),w
  4404  1678  00B2               	movwf	(??_getsUSBUSART+1)^(0+128)
  4405  1679  0832               	movf	(??_getsUSBUSART+1)^(0+128),w
  4406  167A  0086               	movwf	6
  4407  167B  3002               	movlw	2	; select bank4/5
  4408  167C  0087               	movwf	7
  4409  167D  0831               	movf	??_getsUSBUSART^(0+128),w
  4410  167E  0081               	movwf	1
  4411  167F                     l6911:
  4412  167F  3001               	movlw	1
  4413  1680  00B1               	movwf	??_getsUSBUSART^(0+128)
  4414  1681  0831               	movf	??_getsUSBUSART^(0+128),w
  4415  1682  0023               	movlb	3	; select bank3
  4416  1683  07DC               	addwf	_cdc_rx_len^(0+384),f
  4417  1684                     l6913:
  4418  1684  0021               	movlb	1	; select bank1
  4419  1685  0830               	movf	getsUSBUSART@len^(0+128),w
  4420  1686  0023               	movlb	3	; select bank3
  4421  1687  025C               	subwf	_cdc_rx_len^(0+384),w
  4422  1688  1C03               	skipc
  4423  1689  2E8B               	goto	u5761
  4424  168A  2E8C               	goto	u5760
  4425  168B                     u5761:
  4426  168B  2E6B               	goto	l6909
  4427  168C                     u5760:
  4428  168C                     l6915:
  4429                           
  4430                           ;mcc_generated_files/usb/usb_device_cdc.c: 526:         CDCDataOutHandle = USBTransferOn
      +                          ePacket(2,0,(uint8_t*)&cdc_data_rx,sizeof(cdc_data_rx));
  4431  168C  0021               	movlb	1	; select bank1
  4432  168D  01A5               	clrf	USBTransferOnePacket@dir^(0+128)
  4433  168E  30C0               	movlw	192
  4434  168F  00A6               	movwf	USBTransferOnePacket@data^(0+128)
  4435  1690  3020               	movlw	32
  4436  1691  00A7               	movwf	(USBTransferOnePacket@data^(0+128)+1)
  4437  1692  3040               	movlw	64
  4438  1693  00B1               	movwf	??_getsUSBUSART^(0+128)
  4439  1694  0831               	movf	??_getsUSBUSART^(0+128),w
  4440  1695  00A8               	movwf	USBTransferOnePacket@len^(0+128)
  4441  1696  3002               	movlw	2
  4442  1697  318A  22FA  3196   	fcall	_USBTransferOnePacket
  4443  169A  0021               	movlb	1	; select bank1
  4444  169B  0826               	movf	(?_USBTransferOnePacket+1)^(0+128),w
  4445  169C  0023               	movlb	3	; select bank3
  4446  169D  00CF               	movwf	(_CDCDataOutHandle+1)^(0+384)
  4447  169E  0021               	movlb	1	; select bank1
  4448  169F  0825               	movf	?_USBTransferOnePacket^(0+128),w
  4449  16A0  0023               	movlb	3	; select bank3
  4450  16A1  00CE               	movwf	_CDCDataOutHandle^(0+384)
  4451  16A2                     l6917:
  4452                           
  4453                           ;mcc_generated_files/usb/usb_device_cdc.c: 530:     return cdc_rx_len;
  4454  16A2  085C               	movf	_cdc_rx_len^(0+384),w
  4455  16A3                     l474:
  4456  16A3  0008               	return
  4457  16A4                     __end_of_getsUSBUSART:
  4458                           
  4459                           	psect	text4
  4460  0DF6                     __ptext4:	
  4461 ;; *************** function _eeprom_storeBurstGroup *****************
  4462 ;; Defined at:
  4463 ;;		line 134 in file "24aa32a.c"
  4464 ;; Parameters:    Size  Location     Type
  4465 ;;  burstgroup_a    2    6[BANK1 ] unsigned short 
  4466 ;;  data            2    8[BANK1 ] PTR unsigned short [8]
  4467 ;;		 -> measarray(416), 
  4468 ;; Auto vars:     Size  Location     Type
  4469 ;;  storeburst_t    1   24[BANK1 ] unsigned char 
  4470 ;;  storeburst_t    1   23[BANK1 ] unsigned char 
  4471 ;;  addresslsb      1   21[BANK1 ] unsigned char 
  4472 ;;  addressmsb      1   20[BANK1 ] unsigned char 
  4473 ;;  pagewritten     1   22[BANK1 ] unsigned char 
  4474 ;; Return value:  Size  Location     Type
  4475 ;;                  1    wreg      void 
  4476 ;; Registers used:
  4477 ;;		wreg, fsr1l, fsr1h, status,2, status,0, pclath, cstack
  4478 ;; Tracked objects:
  4479 ;;		On entry : 0/0
  4480 ;;		On exit  : 0/0
  4481 ;;		Unchanged: 0/0
  4482 ;; Data sizes:     COMMON   BANK0   BANK1   BANK2   BANK3   BANK4   BANK5   BANK6   BANK7   BANK8   BANK9  BANK10  BANK1
      +1  BANK12
  4483 ;;      Params:         0       0       4       0       0       0       0       0       0       0       0       0       
      +0       0
  4484 ;;      Locals:         0       0       5       0       0       0       0       0       0       0       0       0       
      +0       0
  4485 ;;      Temps:          0       0      10       0       0       0       0       0       0       0       0       0       
      +0       0
  4486 ;;      Totals:         0       0      19       0       0       0       0       0       0       0       0       0       
      +0       0
  4487 ;;Total ram usage:       19 bytes
  4488 ;; Hardware stack levels used:    1
  4489 ;; Hardware stack levels required when called:   13
  4490 ;; This function calls:
  4491 ;;		_ACK_Poll
  4492 ;;		_I2C_MasterStart
  4493 ;;		_I2C_MasterStop
  4494 ;;		_I2C_MasterWrite
  4495 ;; This function is called by:
  4496 ;;		_main
  4497 ;; This function uses a non-reentrant model
  4498 ;;
  4499                           
  4500                           
  4501                           ;psect for function _eeprom_storeBurstGroup
  4502  0DF6                     _eeprom_storeBurstGroup:
  4503  0DF6                     l6369:	
  4504                           ;incstack = 0
  4505                           ; Regs used in _eeprom_storeBurstGroup: [wreg+fsr1l+fsr1h+status,2+status,0+pclath+cstac
      +                          k]
  4506                           
  4507  0DF6  301F               	movlw	31
  4508  0DF7  0021               	movlb	1	; select bank1
  4509  0DF8  0526               	andwf	eeprom_storeBurstGroup@burstgroup_address^(0+128),w
  4510  0DF9  00AA               	movwf	??_eeprom_storeBurstGroup^(0+128)
  4511  0DFA  3000               	movlw	0
  4512  0DFB  0527               	andwf	(eeprom_storeBurstGroup@burstgroup_address+1)^(0+128),w
  4513  0DFC  00AB               	movwf	(??_eeprom_storeBurstGroup+1)^(0+128)
  4514  0DFD  082A               	movf	??_eeprom_storeBurstGroup^(0+128),w
  4515  0DFE  042B               	iorwf	(??_eeprom_storeBurstGroup^(0+128)+1),w
  4516  0DFF  1903               	btfsc	3,2
  4517  0E00  2E02               	goto	u5341
  4518  0E01  2E03               	goto	u5340
  4519  0E02                     u5341:
  4520  0E02  2E04               	goto	l6373
  4521  0E03                     u5340:
  4522  0E03  2E9F               	goto	l936
  4523  0E04                     l6373:
  4524  0E04  01B6               	clrf	eeprom_storeBurstGroup@pagewritten^(0+128)
  4525  0E05                     l6379:
  4526  0E05  0827               	movf	(eeprom_storeBurstGroup@burstgroup_address+1)^(0+128),w
  4527  0E06  00AA               	movwf	??_eeprom_storeBurstGroup^(0+128)
  4528  0E07  082A               	movf	??_eeprom_storeBurstGroup^(0+128),w
  4529  0E08  00B4               	movwf	eeprom_storeBurstGroup@addressmsb^(0+128)
  4530  0E09                     l6381:
  4531  0E09  0826               	movf	eeprom_storeBurstGroup@burstgroup_address^(0+128),w
  4532  0E0A  00AA               	movwf	??_eeprom_storeBurstGroup^(0+128)
  4533  0E0B  082A               	movf	??_eeprom_storeBurstGroup^(0+128),w
  4534  0E0C  00B5               	movwf	eeprom_storeBurstGroup@addresslsb^(0+128)
  4535  0E0D                     l6383:
  4536  0E0D  3192  227C  318D   	fcall	_I2C_MasterStart
  4537  0E10                     l6385:
  4538  0E10  30A0               	movlw	160
  4539  0E11  3192  22B8  318D   	fcall	_I2C_MasterWrite
  4540  0E14                     l6387:
  4541  0E14  0021               	movlb	1	; select bank1
  4542  0E15  0834               	movf	eeprom_storeBurstGroup@addressmsb^(0+128),w
  4543  0E16  3192  22B8  318D   	fcall	_I2C_MasterWrite
  4544  0E19                     l6389:
  4545  0E19  0021               	movlb	1	; select bank1
  4546  0E1A  0835               	movf	eeprom_storeBurstGroup@addresslsb^(0+128),w
  4547  0E1B  3192  22B8  318D   	fcall	_I2C_MasterWrite
  4548  0E1E                     l6391:
  4549  0E1E  0021               	movlb	1	; select bank1
  4550  0E1F  01B7               	clrf	eeprom_storeBurstGroup@storeburst_temprow^(0+128)
  4551  0E20                     l6395:
  4552  0E20  01B8               	clrf	eeprom_storeBurstGroup@storeburst_tempcol^(0+128)
  4553  0E21                     l6401:
  4554  0E21  0838               	movf	eeprom_storeBurstGroup@storeburst_tempcol^(0+128),w
  4555  0E22  00AA               	movwf	??_eeprom_storeBurstGroup^(0+128)
  4556  0E23  01AB               	clrf	(??_eeprom_storeBurstGroup^(0+128)+1)
  4557  0E24  35AA               	lslf	??_eeprom_storeBurstGroup^(0+128),f
  4558  0E25  0DAB               	rlf	(??_eeprom_storeBurstGroup^(0+128)+1),f
  4559  0E26  0836               	movf	eeprom_storeBurstGroup@pagewritten^(0+128),w
  4560  0E27  00AC               	movwf	(??_eeprom_storeBurstGroup+2)^(0+128)
  4561  0E28  01AD               	clrf	((??_eeprom_storeBurstGroup+2)^(0+128)+1)
  4562  0E29  35AC               	lslf	(??_eeprom_storeBurstGroup+2)^(0+128),f
  4563  0E2A  0DAD               	rlf	((??_eeprom_storeBurstGroup+2)^(0+128)+1),f
  4564  0E2B  0837               	movf	eeprom_storeBurstGroup@storeburst_temprow^(0+128),w
  4565  0E2C  072C               	addwf	(??_eeprom_storeBurstGroup+2)^(0+128),w
  4566  0E2D  00AE               	movwf	(??_eeprom_storeBurstGroup+4)^(0+128)
  4567  0E2E  082D               	movf	(??_eeprom_storeBurstGroup+3)^(0+128),w
  4568  0E2F  1803               	skipnc
  4569  0E30  0A2D               	incf	(??_eeprom_storeBurstGroup+3)^(0+128),w
  4570  0E31  00AF               	movwf	((??_eeprom_storeBurstGroup+4)^(0+128)+1)
  4571  0E32  0EAE               	swapf	(??_eeprom_storeBurstGroup+4)^(0+128),f
  4572  0E33  0EAF               	swapf	((??_eeprom_storeBurstGroup+4)^(0+128)+1),f
  4573  0E34  30F0               	movlw	240
  4574  0E35  05AF               	andwf	((??_eeprom_storeBurstGroup+4)^(0+128)+1),f
  4575  0E36  082E               	movf	(??_eeprom_storeBurstGroup+4)^(0+128),w
  4576  0E37  390F               	andlw	15
  4577  0E38  04AF               	iorwf	((??_eeprom_storeBurstGroup+4)^(0+128)+1),f
  4578  0E39  30F0               	movlw	240
  4579  0E3A  05AE               	andwf	(??_eeprom_storeBurstGroup+4)^(0+128),f
  4580  0E3B  082E               	movf	(??_eeprom_storeBurstGroup+4)^(0+128),w
  4581  0E3C  0728               	addwf	eeprom_storeBurstGroup@data^(0+128),w
  4582  0E3D  00B0               	movwf	(??_eeprom_storeBurstGroup+6)^(0+128)
  4583  0E3E  082F               	movf	(??_eeprom_storeBurstGroup+5)^(0+128),w
  4584  0E3F  3D29               	addwfc	(eeprom_storeBurstGroup@data+1)^(0+128),w
  4585  0E40  00B1               	movwf	(??_eeprom_storeBurstGroup+7)^(0+128)
  4586  0E41  082A               	movf	??_eeprom_storeBurstGroup^(0+128),w
  4587  0E42  0730               	addwf	(??_eeprom_storeBurstGroup+6)^(0+128),w
  4588  0E43  0086               	movwf	6
  4589  0E44  082B               	movf	(??_eeprom_storeBurstGroup+1)^(0+128),w
  4590  0E45  3D31               	addwfc	(??_eeprom_storeBurstGroup+7)^(0+128),w
  4591  0E46  0087               	movwf	7
  4592  0E47  3F40               	moviw [0]fsr1
  4593  0E48  00B2               	movwf	(??_eeprom_storeBurstGroup+8)^(0+128)
  4594  0E49  3F41               	moviw [1]fsr1
  4595  0E4A  00B3               	movwf	((??_eeprom_storeBurstGroup+8)^(0+128)+1)
  4596  0E4B  0833               	movf	(??_eeprom_storeBurstGroup+9)^(0+128),w
  4597  0E4C  3192  22B8  318D   	fcall	_I2C_MasterWrite
  4598  0E4F  0021               	movlb	1	; select bank1
  4599  0E50  0838               	movf	eeprom_storeBurstGroup@storeburst_tempcol^(0+128),w
  4600  0E51  00AA               	movwf	??_eeprom_storeBurstGroup^(0+128)
  4601  0E52  01AB               	clrf	(??_eeprom_storeBurstGroup^(0+128)+1)
  4602  0E53  35AA               	lslf	??_eeprom_storeBurstGroup^(0+128),f
  4603  0E54  0DAB               	rlf	(??_eeprom_storeBurstGroup^(0+128)+1),f
  4604  0E55  0836               	movf	eeprom_storeBurstGroup@pagewritten^(0+128),w
  4605  0E56  00AC               	movwf	(??_eeprom_storeBurstGroup+2)^(0+128)
  4606  0E57  01AD               	clrf	((??_eeprom_storeBurstGroup+2)^(0+128)+1)
  4607  0E58  35AC               	lslf	(??_eeprom_storeBurstGroup+2)^(0+128),f
  4608  0E59  0DAD               	rlf	((??_eeprom_storeBurstGroup+2)^(0+128)+1),f
  4609  0E5A  0837               	movf	eeprom_storeBurstGroup@storeburst_temprow^(0+128),w
  4610  0E5B  072C               	addwf	(??_eeprom_storeBurstGroup+2)^(0+128),w
  4611  0E5C  00AE               	movwf	(??_eeprom_storeBurstGroup+4)^(0+128)
  4612  0E5D  082D               	movf	(??_eeprom_storeBurstGroup+3)^(0+128),w
  4613  0E5E  1803               	skipnc
  4614  0E5F  0A2D               	incf	(??_eeprom_storeBurstGroup+3)^(0+128),w
  4615  0E60  00AF               	movwf	((??_eeprom_storeBurstGroup+4)^(0+128)+1)
  4616  0E61  0EAE               	swapf	(??_eeprom_storeBurstGroup+4)^(0+128),f
  4617  0E62  0EAF               	swapf	((??_eeprom_storeBurstGroup+4)^(0+128)+1),f
  4618  0E63  30F0               	movlw	240
  4619  0E64  05AF               	andwf	((??_eeprom_storeBurstGroup+4)^(0+128)+1),f
  4620  0E65  082E               	movf	(??_eeprom_storeBurstGroup+4)^(0+128),w
  4621  0E66  390F               	andlw	15
  4622  0E67  04AF               	iorwf	((??_eeprom_storeBurstGroup+4)^(0+128)+1),f
  4623  0E68  30F0               	movlw	240
  4624  0E69  05AE               	andwf	(??_eeprom_storeBurstGroup+4)^(0+128),f
  4625  0E6A  082E               	movf	(??_eeprom_storeBurstGroup+4)^(0+128),w
  4626  0E6B  0728               	addwf	eeprom_storeBurstGroup@data^(0+128),w
  4627  0E6C  00B0               	movwf	(??_eeprom_storeBurstGroup+6)^(0+128)
  4628  0E6D  082F               	movf	(??_eeprom_storeBurstGroup+5)^(0+128),w
  4629  0E6E  3D29               	addwfc	(eeprom_storeBurstGroup@data+1)^(0+128),w
  4630  0E6F  00B1               	movwf	(??_eeprom_storeBurstGroup+7)^(0+128)
  4631  0E70  082A               	movf	??_eeprom_storeBurstGroup^(0+128),w
  4632  0E71  0730               	addwf	(??_eeprom_storeBurstGroup+6)^(0+128),w
  4633  0E72  0086               	movwf	6
  4634  0E73  082B               	movf	(??_eeprom_storeBurstGroup+1)^(0+128),w
  4635  0E74  3D31               	addwfc	(??_eeprom_storeBurstGroup+7)^(0+128),w
  4636  0E75  0087               	movwf	7
  4637  0E76  0801               	movf	1,w
  4638  0E77  3192  22B8  318D   	fcall	_I2C_MasterWrite
  4639  0E7A                     l6403:
  4640  0E7A  3001               	movlw	1
  4641  0E7B  0021               	movlb	1	; select bank1
  4642  0E7C  00AA               	movwf	??_eeprom_storeBurstGroup^(0+128)
  4643  0E7D  082A               	movf	??_eeprom_storeBurstGroup^(0+128),w
  4644  0E7E  07B8               	addwf	eeprom_storeBurstGroup@storeburst_tempcol^(0+128),f
  4645  0E7F                     l6405:
  4646  0E7F  3008               	movlw	8
  4647  0E80  0238               	subwf	eeprom_storeBurstGroup@storeburst_tempcol^(0+128),w
  4648  0E81  1C03               	skipc
  4649  0E82  2E84               	goto	u5351
  4650  0E83  2E85               	goto	u5350
  4651  0E84                     u5351:
  4652  0E84  2E21               	goto	l6401
  4653  0E85                     u5350:
  4654  0E85                     l6407:
  4655  0E85  3001               	movlw	1
  4656  0E86  00AA               	movwf	??_eeprom_storeBurstGroup^(0+128)
  4657  0E87  082A               	movf	??_eeprom_storeBurstGroup^(0+128),w
  4658  0E88  07B7               	addwf	eeprom_storeBurstGroup@storeburst_temprow^(0+128),f
  4659  0E89                     l6409:
  4660  0E89  3002               	movlw	2
  4661  0E8A  0237               	subwf	eeprom_storeBurstGroup@storeburst_temprow^(0+128),w
  4662  0E8B  1C03               	skipc
  4663  0E8C  2E8E               	goto	u5361
  4664  0E8D  2E8F               	goto	u5360
  4665  0E8E                     u5361:
  4666  0E8E  2E20               	goto	l6395
  4667  0E8F                     u5360:
  4668  0E8F                     l6411:
  4669  0E8F  3192  2282  318D   	fcall	_I2C_MasterStop
  4670  0E92                     l6413:
  4671  0E92  3192  22F3  318D   	fcall	_ACK_Poll
  4672  0E95                     l6415:
  4673  0E95  3001               	movlw	1
  4674  0E96  0021               	movlb	1	; select bank1
  4675  0E97  00AA               	movwf	??_eeprom_storeBurstGroup^(0+128)
  4676  0E98  082A               	movf	??_eeprom_storeBurstGroup^(0+128),w
  4677  0E99  07B6               	addwf	eeprom_storeBurstGroup@pagewritten^(0+128),f
  4678  0E9A                     l6417:
  4679  0E9A  0836               	movf	eeprom_storeBurstGroup@pagewritten^(0+128),w
  4680  0E9B  1903               	btfsc	3,2
  4681  0E9C  2E9E               	goto	u5371
  4682  0E9D  2E9F               	goto	u5370
  4683  0E9E                     u5371:
  4684  0E9E  2E05               	goto	l6379
  4685  0E9F                     u5370:
  4686  0E9F                     l936:
  4687  0E9F  0008               	return
  4688  0EA0                     __end_of_eeprom_storeBurstGroup:
  4689                           
  4690                           	psect	text5
  4691  12F3                     __ptext5:	
  4692 ;; *************** function _ACK_Poll *****************
  4693 ;; Defined at:
  4694 ;;		line 15 in file "24aa32a.c"
  4695 ;; Parameters:    Size  Location     Type
  4696 ;;		None
  4697 ;; Auto vars:     Size  Location     Type
  4698 ;;		None
  4699 ;; Return value:  Size  Location     Type
  4700 ;;                  1    wreg      void 
  4701 ;; Registers used:
  4702 ;;		wreg, status,2, status,0, pclath, cstack
  4703 ;; Tracked objects:
  4704 ;;		On entry : 0/0
  4705 ;;		On exit  : 0/0
  4706 ;;		Unchanged: 0/0
  4707 ;; Data sizes:     COMMON   BANK0   BANK1   BANK2   BANK3   BANK4   BANK5   BANK6   BANK7   BANK8   BANK9  BANK10  BANK1
      +1  BANK12
  4708 ;;      Params:         0       0       0       0       0       0       0       0       0       0       0       0       
      +0       0
  4709 ;;      Locals:         0       0       0       0       0       0       0       0       0       0       0       0       
      +0       0
  4710 ;;      Temps:          0       0       0       0       0       0       0       0       0       0       0       0       
      +0       0
  4711 ;;      Totals:         0       0       0       0       0       0       0       0       0       0       0       0       
      +0       0
  4712 ;;Total ram usage:        0 bytes
  4713 ;; Hardware stack levels used:    1
  4714 ;; Hardware stack levels required when called:   12
  4715 ;; This function calls:
  4716 ;;		_I2C_MasterStart
  4717 ;;		_I2C_MasterStop
  4718 ;;		_I2C_MasterWrite
  4719 ;; This function is called by:
  4720 ;;		_eeprom_storeBurstGroup
  4721 ;;		_eeprom_writeByte
  4722 ;;		_eeprom_writePage
  4723 ;; This function uses a non-reentrant model
  4724 ;;
  4725                           
  4726                           
  4727                           ;psect for function _ACK_Poll
  4728  12F3                     _ACK_Poll:
  4729  12F3                     l895:	
  4730                           ;incstack = 0
  4731                           ; Regs used in _ACK_Poll: [wreg+status,2+status,0+pclath+cstack]
  4732                           
  4733  12F3                     l6095:
  4734  12F3  3192  227C  3192   	fcall	_I2C_MasterStart
  4735  12F6                     l6097:
  4736  12F6  30A0               	movlw	160
  4737  12F7  3192  22B8  3192   	fcall	_I2C_MasterWrite
  4738  12FA                     l6099:
  4739  12FA  0024               	movlb	4	; select bank4
  4740  12FB  1B16               	btfsc	22,6	;volatile
  4741  12FC  2AFE               	goto	u4901
  4742  12FD  2AFF               	goto	u4900
  4743  12FE                     u4901:
  4744  12FE  2AF3               	goto	l895
  4745  12FF                     u4900:
  4746  12FF                     l6101:
  4747  12FF  3192  2282  3192   	fcall	_I2C_MasterStop
  4748  1302                     l897:
  4749  1302  0008               	return
  4750  1303                     __end_of_ACK_Poll:
  4751                           
  4752                           	psect	text6
  4753  08DA                     __ptext6:	
  4754 ;; *************** function _eeprom_readPage *****************
  4755 ;; Defined at:
  4756 ;;		line 184 in file "24aa32a.c"
  4757 ;; Parameters:    Size  Location     Type
  4758 ;;  readpage_add    2    6[BANK1 ] unsigned short 
  4759 ;;  measarrayptr    2    8[BANK1 ] PTR unsigned short [8]
  4760 ;;		 -> measarray(416), 
  4761 ;; Auto vars:     Size  Location     Type
  4762 ;;  readpage_tem    1   19[BANK1 ] unsigned char 
  4763 ;;  eeprom_readp    1   18[BANK1 ] unsigned char 
  4764 ;;  addressmsb      1   17[BANK1 ] unsigned char 
  4765 ;;  addresslsb      1   16[BANK1 ] unsigned char 
  4766 ;; Return value:  Size  Location     Type
  4767 ;;                  1    wreg      void 
  4768 ;; Registers used:
  4769 ;;		wreg, fsr1l, fsr1h, status,2, status,0, pclath, cstack
  4770 ;; Tracked objects:
  4771 ;;		On entry : 0/0
  4772 ;;		On exit  : 0/0
  4773 ;;		Unchanged: 0/0
  4774 ;; Data sizes:     COMMON   BANK0   BANK1   BANK2   BANK3   BANK4   BANK5   BANK6   BANK7   BANK8   BANK9  BANK10  BANK1
      +1  BANK12
  4775 ;;      Params:         0       0       4       0       0       0       0       0       0       0       0       0       
      +0       0
  4776 ;;      Locals:         0       0       4       0       0       0       0       0       0       0       0       0       
      +0       0
  4777 ;;      Temps:          0       0       6       0       0       0       0       0       0       0       0       0       
      +0       0
  4778 ;;      Totals:         0       0      14       0       0       0       0       0       0       0       0       0       
      +0       0
  4779 ;;Total ram usage:       14 bytes
  4780 ;; Hardware stack levels used:    1
  4781 ;; Hardware stack levels required when called:   12
  4782 ;; This function calls:
  4783 ;;		_I2C_MasterSendAck
  4784 ;;		_I2C_MasterSendNack
  4785 ;;		_I2C_MasterSetReceive
  4786 ;;		_I2C_MasterStart
  4787 ;;		_I2C_MasterStop
  4788 ;;		_I2C_MasterWrite
  4789 ;; This function is called by:
  4790 ;;		_main
  4791 ;; This function uses a non-reentrant model
  4792 ;;
  4793                           
  4794                           
  4795                           ;psect for function _eeprom_readPage
  4796  08DA                     _eeprom_readPage:
  4797  08DA                     l6419:	
  4798                           ;incstack = 0
  4799                           ; Regs used in _eeprom_readPage: [wreg+fsr1l+fsr1h+status,2+status,0+pclath+cstack]
  4800                           
  4801  08DA  0021               	movlb	1	; select bank1
  4802  08DB  0827               	movf	(eeprom_readPage@readpage_address+1)^(0+128),w
  4803  08DC  00AA               	movwf	??_eeprom_readPage^(0+128)
  4804  08DD  082A               	movf	??_eeprom_readPage^(0+128),w
  4805  08DE  00B1               	movwf	eeprom_readPage@addressmsb^(0+128)
  4806  08DF                     l6421:
  4807  08DF  0826               	movf	eeprom_readPage@readpage_address^(0+128),w
  4808  08E0  00AA               	movwf	??_eeprom_readPage^(0+128)
  4809  08E1  082A               	movf	??_eeprom_readPage^(0+128),w
  4810  08E2  00B0               	movwf	eeprom_readPage@addresslsb^(0+128)
  4811  08E3                     l6423:
  4812  08E3  3192  227C  3188   	fcall	_I2C_MasterStart
  4813  08E6                     l6425:
  4814  08E6  30A0               	movlw	160
  4815  08E7  3192  22B8  3188   	fcall	_I2C_MasterWrite
  4816  08EA                     l6427:
  4817  08EA  0021               	movlb	1	; select bank1
  4818  08EB  0831               	movf	eeprom_readPage@addressmsb^(0+128),w
  4819  08EC  3192  22B8  3188   	fcall	_I2C_MasterWrite
  4820  08EF                     l6429:
  4821  08EF  0021               	movlb	1	; select bank1
  4822  08F0  0830               	movf	eeprom_readPage@addresslsb^(0+128),w
  4823  08F1  3192  22B8  3188   	fcall	_I2C_MasterWrite
  4824  08F4                     l6431:
  4825  08F4  3192  227C  3188   	fcall	_I2C_MasterStart
  4826  08F7                     l6433:
  4827  08F7  30A1               	movlw	161
  4828  08F8  3192  22B8  3188   	fcall	_I2C_MasterWrite
  4829  08FB  0021               	movlb	1	; select bank1
  4830  08FC  01B2               	clrf	eeprom_readPage@eeprom_readpage_tempcol^(0+128)
  4831  08FD                     l6439:
  4832  08FD  01B3               	clrf	eeprom_readPage@readpage_temprow^(0+128)
  4833  08FE                     l6445:
  4834  08FE  3192  2276  3188   	fcall	_I2C_MasterSetReceive
  4835  0901                     l6447:
  4836  0901  0024               	movlb	4	; select bank4
  4837  0902  0811               	movf	17,w	;volatile
  4838  0903  0021               	movlb	1	; select bank1
  4839  0904  00AA               	movwf	??_eeprom_readPage^(0+128)
  4840  0905  082A               	movf	??_eeprom_readPage^(0+128),w
  4841  0906  00B1               	movwf	eeprom_readPage@addressmsb^(0+128)
  4842  0907                     l6449:
  4843  0907  3192  228F  3188   	fcall	_I2C_MasterSendAck
  4844  090A                     l6451:
  4845  090A  3192  2276  3188   	fcall	_I2C_MasterSetReceive
  4846  090D                     l6453:
  4847  090D  0021               	movlb	1	; select bank1
  4848  090E  0833               	movf	eeprom_readPage@readpage_temprow^(0+128),w
  4849  090F  00AA               	movwf	??_eeprom_readPage^(0+128)
  4850  0910  01AB               	clrf	(??_eeprom_readPage^(0+128)+1)
  4851  0911  35AA               	lslf	??_eeprom_readPage^(0+128),f
  4852  0912  0DAB               	rlf	(??_eeprom_readPage^(0+128)+1),f
  4853  0913  0832               	movf	eeprom_readPage@eeprom_readpage_tempcol^(0+128),w
  4854  0914  00AC               	movwf	(??_eeprom_readPage+2)^(0+128)
  4855  0915  01AD               	clrf	((??_eeprom_readPage+2)^(0+128)+1)
  4856  0916  0EAC               	swapf	(??_eeprom_readPage+2)^(0+128),f
  4857  0917  0EAD               	swapf	((??_eeprom_readPage+2)^(0+128)+1),f
  4858  0918  30F0               	movlw	240
  4859  0919  05AD               	andwf	((??_eeprom_readPage+2)^(0+128)+1),f
  4860  091A  082C               	movf	(??_eeprom_readPage+2)^(0+128),w
  4861  091B  390F               	andlw	15
  4862  091C  04AD               	iorwf	((??_eeprom_readPage+2)^(0+128)+1),f
  4863  091D  30F0               	movlw	240
  4864  091E  05AC               	andwf	(??_eeprom_readPage+2)^(0+128),f
  4865  091F  082C               	movf	(??_eeprom_readPage+2)^(0+128),w
  4866  0920  0728               	addwf	eeprom_readPage@measarrayptr^(0+128),w
  4867  0921  00AE               	movwf	(??_eeprom_readPage+4)^(0+128)
  4868  0922  082D               	movf	(??_eeprom_readPage+3)^(0+128),w
  4869  0923  3D29               	addwfc	(eeprom_readPage@measarrayptr+1)^(0+128),w
  4870  0924  00AF               	movwf	(??_eeprom_readPage+5)^(0+128)
  4871  0925  082A               	movf	??_eeprom_readPage^(0+128),w
  4872  0926  072E               	addwf	(??_eeprom_readPage+4)^(0+128),w
  4873  0927  0086               	movwf	6
  4874  0928  082B               	movf	(??_eeprom_readPage+1)^(0+128),w
  4875  0929  3D2F               	addwfc	(??_eeprom_readPage+5)^(0+128),w
  4876  092A  0087               	movwf	7
  4877  092B  0024               	movlb	4	; select bank4
  4878  092C  0811               	movf	17,w	;volatile
  4879  092D  3FC0               	movwi [0]fsr1
  4880  092E  0021               	movlb	1	; select bank1
  4881  092F  0831               	movf	eeprom_readPage@addressmsb^(0+128),w
  4882  0930  3FC1               	movwi [1]fsr1
  4883  0931                     l6455:
  4884  0931  0832               	movf	eeprom_readPage@eeprom_readpage_tempcol^(0+128),w
  4885  0932  1D03               	btfss	3,2
  4886  0933  2935               	goto	u5381
  4887  0934  2936               	goto	u5380
  4888  0935                     u5381:
  4889  0935  293A               	goto	l6459
  4890  0936                     u5380:
  4891  0936                     l6457:
  4892  0936  3192  228F  3188   	fcall	_I2C_MasterSendAck
  4893  0939  2944               	goto	l6465
  4894  093A                     l6459:
  4895  093A  3007               	movlw	7
  4896  093B  0233               	subwf	eeprom_readPage@readpage_temprow^(0+128),w
  4897  093C  1803               	skipnc
  4898  093D  293F               	goto	u5391
  4899  093E  2940               	goto	u5390
  4900  093F                     u5391:
  4901  093F  2941               	goto	l6463
  4902  0940                     u5390:
  4903  0940  2936               	goto	l6457
  4904  0941                     l6463:
  4905  0941  3192  2296  3188   	fcall	_I2C_MasterSendNack
  4906  0944                     l6465:
  4907  0944  3001               	movlw	1
  4908  0945  0021               	movlb	1	; select bank1
  4909  0946  00AA               	movwf	??_eeprom_readPage^(0+128)
  4910  0947  082A               	movf	??_eeprom_readPage^(0+128),w
  4911  0948  07B3               	addwf	eeprom_readPage@readpage_temprow^(0+128),f
  4912  0949                     l6467:
  4913  0949  3008               	movlw	8
  4914  094A  0233               	subwf	eeprom_readPage@readpage_temprow^(0+128),w
  4915  094B  1C03               	skipc
  4916  094C  294E               	goto	u5401
  4917  094D  294F               	goto	u5400
  4918  094E                     u5401:
  4919  094E  28FE               	goto	l6445
  4920  094F                     u5400:
  4921  094F                     l6469:
  4922  094F  3001               	movlw	1
  4923  0950  00AA               	movwf	??_eeprom_readPage^(0+128)
  4924  0951  082A               	movf	??_eeprom_readPage^(0+128),w
  4925  0952  07B2               	addwf	eeprom_readPage@eeprom_readpage_tempcol^(0+128),f
  4926  0953                     l6471:
  4927  0953  3002               	movlw	2
  4928  0954  0232               	subwf	eeprom_readPage@eeprom_readpage_tempcol^(0+128),w
  4929  0955  1C03               	skipc
  4930  0956  2958               	goto	u5411
  4931  0957  2959               	goto	u5410
  4932  0958                     u5411:
  4933  0958  28FD               	goto	l6439
  4934  0959                     u5410:
  4935  0959                     l6473:
  4936  0959  3192  2282  3188   	fcall	_I2C_MasterStop
  4937  095C                     l956:
  4938  095C  0008               	return
  4939  095D                     __end_of_eeprom_readPage:
  4940                           
  4941                           	psect	text7
  4942  12B8                     __ptext7:	
  4943 ;; *************** function _I2C_MasterWrite *****************
  4944 ;; Defined at:
  4945 ;;		line 53 in file "24aa32a.c"
  4946 ;; Parameters:    Size  Location     Type
  4947 ;;  data            1    wreg     unsigned char 
  4948 ;; Auto vars:     Size  Location     Type
  4949 ;;  data            1    5[BANK1 ] unsigned char 
  4950 ;; Return value:  Size  Location     Type
  4951 ;;                  1    wreg      void 
  4952 ;; Registers used:
  4953 ;;		wreg, status,2, status,0, pclath, cstack
  4954 ;; Tracked objects:
  4955 ;;		On entry : 0/0
  4956 ;;		On exit  : 0/0
  4957 ;;		Unchanged: 0/0
  4958 ;; Data sizes:     COMMON   BANK0   BANK1   BANK2   BANK3   BANK4   BANK5   BANK6   BANK7   BANK8   BANK9  BANK10  BANK1
      +1  BANK12
  4959 ;;      Params:         0       0       0       0       0       0       0       0       0       0       0       0       
      +0       0
  4960 ;;      Locals:         0       0       1       0       0       0       0       0       0       0       0       0       
      +0       0
  4961 ;;      Temps:          0       0       0       0       0       0       0       0       0       0       0       0       
      +0       0
  4962 ;;      Totals:         0       0       1       0       0       0       0       0       0       0       0       0       
      +0       0
  4963 ;;Total ram usage:        1 bytes
  4964 ;; Hardware stack levels used:    1
  4965 ;; Hardware stack levels required when called:   11
  4966 ;; This function calls:
  4967 ;;		_I2C_WaitForCompletion
  4968 ;; This function is called by:
  4969 ;;		_ACK_Poll
  4970 ;;		_eeprom_storeBurstGroup
  4971 ;;		_eeprom_readPage
  4972 ;;		_eeprom_writeByte
  4973 ;;		_eeprom_writePage
  4974 ;;		_eeprom_readByte
  4975 ;;		_eeprom_readMem
  4976 ;; This function uses a non-reentrant model
  4977 ;;
  4978                           
  4979                           
  4980                           ;psect for function _I2C_MasterWrite
  4981  12B8                     _I2C_MasterWrite:
  4982                           
  4983                           ;incstack = 0
  4984                           ; Regs used in _I2C_MasterWrite: [wreg+status,2+status,0+pclath+cstack]
  4985                           ;I2C_MasterWrite@data stored from wreg
  4986  12B8  0021               	movlb	1	; select bank1
  4987  12B9  00A5               	movwf	I2C_MasterWrite@data^(0+128)
  4988  12BA                     l5885:
  4989  12BA  0825               	movf	I2C_MasterWrite@data^(0+128),w
  4990  12BB  0024               	movlb	4	; select bank4
  4991  12BC  0091               	movwf	17	;volatile
  4992  12BD                     l5887:
  4993  12BD  3192  2288  3192   	fcall	_I2C_WaitForCompletion
  4994  12C0                     l912:
  4995  12C0  0008               	return
  4996  12C1                     __end_of_I2C_MasterWrite:
  4997                           
  4998                           	psect	text8
  4999  1282                     __ptext8:	
  5000 ;; *************** function _I2C_MasterStop *****************
  5001 ;; Defined at:
  5002 ;;		line 47 in file "24aa32a.c"
  5003 ;; Parameters:    Size  Location     Type
  5004 ;;		None
  5005 ;; Auto vars:     Size  Location     Type
  5006 ;;		None
  5007 ;; Return value:  Size  Location     Type
  5008 ;;                  1    wreg      void 
  5009 ;; Registers used:
  5010 ;;		status,2, status,0, pclath, cstack
  5011 ;; Tracked objects:
  5012 ;;		On entry : 0/0
  5013 ;;		On exit  : 0/0
  5014 ;;		Unchanged: 0/0
  5015 ;; Data sizes:     COMMON   BANK0   BANK1   BANK2   BANK3   BANK4   BANK5   BANK6   BANK7   BANK8   BANK9  BANK10  BANK1
      +1  BANK12
  5016 ;;      Params:         0       0       0       0       0       0       0       0       0       0       0       0       
      +0       0
  5017 ;;      Locals:         0       0       0       0       0       0       0       0       0       0       0       0       
      +0       0
  5018 ;;      Temps:          0       0       0       0       0       0       0       0       0       0       0       0       
      +0       0
  5019 ;;      Totals:         0       0       0       0       0       0       0       0       0       0       0       0       
      +0       0
  5020 ;;Total ram usage:        0 bytes
  5021 ;; Hardware stack levels used:    1
  5022 ;; Hardware stack levels required when called:   11
  5023 ;; This function calls:
  5024 ;;		_I2C_WaitForCompletion
  5025 ;; This function is called by:
  5026 ;;		_ACK_Poll
  5027 ;;		_eeprom_storeBurstGroup
  5028 ;;		_eeprom_readPage
  5029 ;;		_eeprom_writeByte
  5030 ;;		_eeprom_writePage
  5031 ;;		_eeprom_readByte
  5032 ;;		_eeprom_readMem
  5033 ;; This function uses a non-reentrant model
  5034 ;;
  5035                           
  5036                           
  5037                           ;psect for function _I2C_MasterStop
  5038  1282                     _I2C_MasterStop:
  5039  1282                     l5889:	
  5040                           ;incstack = 0
  5041                           ; Regs used in _I2C_MasterStop: [status,2+status,0+pclath+cstack]
  5042                           
  5043  1282  0024               	movlb	4	; select bank4
  5044  1283  1516               	bsf	22,2	;volatile
  5045  1284                     l5891:
  5046  1284  3192  2288  3192   	fcall	_I2C_WaitForCompletion
  5047  1287                     l909:
  5048  1287  0008               	return
  5049  1288                     __end_of_I2C_MasterStop:
  5050                           
  5051                           	psect	text9
  5052  127C                     __ptext9:	
  5053 ;; *************** function _I2C_MasterStart *****************
  5054 ;; Defined at:
  5055 ;;		line 41 in file "24aa32a.c"
  5056 ;; Parameters:    Size  Location     Type
  5057 ;;		None
  5058 ;; Auto vars:     Size  Location     Type
  5059 ;;		None
  5060 ;; Return value:  Size  Location     Type
  5061 ;;                  1    wreg      void 
  5062 ;; Registers used:
  5063 ;;		status,2, status,0, pclath, cstack
  5064 ;; Tracked objects:
  5065 ;;		On entry : 0/0
  5066 ;;		On exit  : 0/0
  5067 ;;		Unchanged: 0/0
  5068 ;; Data sizes:     COMMON   BANK0   BANK1   BANK2   BANK3   BANK4   BANK5   BANK6   BANK7   BANK8   BANK9  BANK10  BANK1
      +1  BANK12
  5069 ;;      Params:         0       0       0       0       0       0       0       0       0       0       0       0       
      +0       0
  5070 ;;      Locals:         0       0       0       0       0       0       0       0       0       0       0       0       
      +0       0
  5071 ;;      Temps:          0       0       0       0       0       0       0       0       0       0       0       0       
      +0       0
  5072 ;;      Totals:         0       0       0       0       0       0       0       0       0       0       0       0       
      +0       0
  5073 ;;Total ram usage:        0 bytes
  5074 ;; Hardware stack levels used:    1
  5075 ;; Hardware stack levels required when called:   11
  5076 ;; This function calls:
  5077 ;;		_I2C_WaitForCompletion
  5078 ;; This function is called by:
  5079 ;;		_ACK_Poll
  5080 ;;		_eeprom_storeBurstGroup
  5081 ;;		_eeprom_readPage
  5082 ;;		_eeprom_writeByte
  5083 ;;		_eeprom_writePage
  5084 ;;		_eeprom_readByte
  5085 ;;		_eeprom_readMem
  5086 ;; This function uses a non-reentrant model
  5087 ;;
  5088                           
  5089                           
  5090                           ;psect for function _I2C_MasterStart
  5091  127C                     _I2C_MasterStart:
  5092  127C                     l5881:	
  5093                           ;incstack = 0
  5094                           ; Regs used in _I2C_MasterStart: [status,2+status,0+pclath+cstack]
  5095                           
  5096  127C  0024               	movlb	4	; select bank4
  5097  127D  1416               	bsf	22,0	;volatile
  5098  127E                     l5883:
  5099  127E  3192  2288  3192   	fcall	_I2C_WaitForCompletion
  5100  1281                     l906:
  5101  1281  0008               	return
  5102  1282                     __end_of_I2C_MasterStart:
  5103                           
  5104                           	psect	text10
  5105  1276                     __ptext10:	
  5106 ;; *************** function _I2C_MasterSetReceive *****************
  5107 ;; Defined at:
  5108 ;;		line 59 in file "24aa32a.c"
  5109 ;; Parameters:    Size  Location     Type
  5110 ;;		None
  5111 ;; Auto vars:     Size  Location     Type
  5112 ;;		None
  5113 ;; Return value:  Size  Location     Type
  5114 ;;                  1    wreg      void 
  5115 ;; Registers used:
  5116 ;;		status,2, status,0, pclath, cstack
  5117 ;; Tracked objects:
  5118 ;;		On entry : 0/0
  5119 ;;		On exit  : 0/0
  5120 ;;		Unchanged: 0/0
  5121 ;; Data sizes:     COMMON   BANK0   BANK1   BANK2   BANK3   BANK4   BANK5   BANK6   BANK7   BANK8   BANK9  BANK10  BANK1
      +1  BANK12
  5122 ;;      Params:         0       0       0       0       0       0       0       0       0       0       0       0       
      +0       0
  5123 ;;      Locals:         0       0       0       0       0       0       0       0       0       0       0       0       
      +0       0
  5124 ;;      Temps:          0       0       0       0       0       0       0       0       0       0       0       0       
      +0       0
  5125 ;;      Totals:         0       0       0       0       0       0       0       0       0       0       0       0       
      +0       0
  5126 ;;Total ram usage:        0 bytes
  5127 ;; Hardware stack levels used:    1
  5128 ;; Hardware stack levels required when called:   11
  5129 ;; This function calls:
  5130 ;;		_I2C_WaitForCompletion
  5131 ;; This function is called by:
  5132 ;;		_eeprom_readPage
  5133 ;;		_eeprom_readByte
  5134 ;;		_eeprom_readMem
  5135 ;; This function uses a non-reentrant model
  5136 ;;
  5137                           
  5138                           
  5139                           ;psect for function _I2C_MasterSetReceive
  5140  1276                     _I2C_MasterSetReceive:
  5141  1276                     l6103:	
  5142                           ;incstack = 0
  5143                           ; Regs used in _I2C_MasterSetReceive: [status,2+status,0+pclath+cstack]
  5144                           
  5145  1276  0024               	movlb	4	; select bank4
  5146  1277  1596               	bsf	22,3	;volatile
  5147  1278                     l6105:
  5148  1278  3192  2288  3192   	fcall	_I2C_WaitForCompletion
  5149  127B                     l915:
  5150  127B  0008               	return
  5151  127C                     __end_of_I2C_MasterSetReceive:
  5152                           
  5153                           	psect	text11
  5154  1296                     __ptext11:	
  5155 ;; *************** function _I2C_MasterSendNack *****************
  5156 ;; Defined at:
  5157 ;;		line 72 in file "24aa32a.c"
  5158 ;; Parameters:    Size  Location     Type
  5159 ;;		None
  5160 ;; Auto vars:     Size  Location     Type
  5161 ;;		None
  5162 ;; Return value:  Size  Location     Type
  5163 ;;                  1    wreg      void 
  5164 ;; Registers used:
  5165 ;;		status,2, status,0, pclath, cstack
  5166 ;; Tracked objects:
  5167 ;;		On entry : 0/0
  5168 ;;		On exit  : 0/0
  5169 ;;		Unchanged: 0/0
  5170 ;; Data sizes:     COMMON   BANK0   BANK1   BANK2   BANK3   BANK4   BANK5   BANK6   BANK7   BANK8   BANK9  BANK10  BANK1
      +1  BANK12
  5171 ;;      Params:         0       0       0       0       0       0       0       0       0       0       0       0       
      +0       0
  5172 ;;      Locals:         0       0       0       0       0       0       0       0       0       0       0       0       
      +0       0
  5173 ;;      Temps:          0       0       0       0       0       0       0       0       0       0       0       0       
      +0       0
  5174 ;;      Totals:         0       0       0       0       0       0       0       0       0       0       0       0       
      +0       0
  5175 ;;Total ram usage:        0 bytes
  5176 ;; Hardware stack levels used:    1
  5177 ;; Hardware stack levels required when called:   11
  5178 ;; This function calls:
  5179 ;;		_I2C_WaitForCompletion
  5180 ;; This function is called by:
  5181 ;;		_eeprom_readPage
  5182 ;;		_eeprom_readByte
  5183 ;;		_eeprom_readMem
  5184 ;; This function uses a non-reentrant model
  5185 ;;
  5186                           
  5187                           
  5188                           ;psect for function _I2C_MasterSendNack
  5189  1296                     _I2C_MasterSendNack:
  5190  1296                     l6111:	
  5191                           ;incstack = 0
  5192                           ; Regs used in _I2C_MasterSendNack: [status,2+status,0+pclath+cstack]
  5193                           
  5194  1296  0024               	movlb	4	; select bank4
  5195  1297  1696               	bsf	22,5	;volatile
  5196  1298  1616               	bsf	22,4	;volatile
  5197  1299                     l6113:
  5198  1299  3192  2288  3192   	fcall	_I2C_WaitForCompletion
  5199  129C                     l921:
  5200  129C  0008               	return
  5201  129D                     __end_of_I2C_MasterSendNack:
  5202                           
  5203                           	psect	text12
  5204  128F                     __ptext12:	
  5205 ;; *************** function _I2C_MasterSendAck *****************
  5206 ;; Defined at:
  5207 ;;		line 65 in file "24aa32a.c"
  5208 ;; Parameters:    Size  Location     Type
  5209 ;;		None
  5210 ;; Auto vars:     Size  Location     Type
  5211 ;;		None
  5212 ;; Return value:  Size  Location     Type
  5213 ;;                  1    wreg      void 
  5214 ;; Registers used:
  5215 ;;		status,2, status,0, pclath, cstack
  5216 ;; Tracked objects:
  5217 ;;		On entry : 0/0
  5218 ;;		On exit  : 0/0
  5219 ;;		Unchanged: 0/0
  5220 ;; Data sizes:     COMMON   BANK0   BANK1   BANK2   BANK3   BANK4   BANK5   BANK6   BANK7   BANK8   BANK9  BANK10  BANK1
      +1  BANK12
  5221 ;;      Params:         0       0       0       0       0       0       0       0       0       0       0       0       
      +0       0
  5222 ;;      Locals:         0       0       0       0       0       0       0       0       0       0       0       0       
      +0       0
  5223 ;;      Temps:          0       0       0       0       0       0       0       0       0       0       0       0       
      +0       0
  5224 ;;      Totals:         0       0       0       0       0       0       0       0       0       0       0       0       
      +0       0
  5225 ;;Total ram usage:        0 bytes
  5226 ;; Hardware stack levels used:    1
  5227 ;; Hardware stack levels required when called:   11
  5228 ;; This function calls:
  5229 ;;		_I2C_WaitForCompletion
  5230 ;; This function is called by:
  5231 ;;		_eeprom_readPage
  5232 ;;		_eeprom_readMem
  5233 ;; This function uses a non-reentrant model
  5234 ;;
  5235                           
  5236                           
  5237                           ;psect for function _I2C_MasterSendAck
  5238  128F                     _I2C_MasterSendAck:
  5239  128F                     l6107:	
  5240                           ;incstack = 0
  5241                           ; Regs used in _I2C_MasterSendAck: [status,2+status,0+pclath+cstack]
  5242                           
  5243  128F  0024               	movlb	4	; select bank4
  5244  1290  1296               	bcf	22,5	;volatile
  5245  1291  1616               	bsf	22,4	;volatile
  5246  1292                     l6109:
  5247  1292  3192  2288  3192   	fcall	_I2C_WaitForCompletion
  5248  1295                     l918:
  5249  1295  0008               	return
  5250  1296                     __end_of_I2C_MasterSendAck:
  5251                           
  5252                           	psect	text13
  5253  1288                     __ptext13:	
  5254 ;; *************** function _I2C_WaitForCompletion *****************
  5255 ;; Defined at:
  5256 ;;		line 35 in file "24aa32a.c"
  5257 ;; Parameters:    Size  Location     Type
  5258 ;;		None
  5259 ;; Auto vars:     Size  Location     Type
  5260 ;;		None
  5261 ;; Return value:  Size  Location     Type
  5262 ;;                  1    wreg      void 
  5263 ;; Registers used:
  5264 ;;		None
  5265 ;; Tracked objects:
  5266 ;;		On entry : 0/0
  5267 ;;		On exit  : 0/0
  5268 ;;		Unchanged: 0/0
  5269 ;; Data sizes:     COMMON   BANK0   BANK1   BANK2   BANK3   BANK4   BANK5   BANK6   BANK7   BANK8   BANK9  BANK10  BANK1
      +1  BANK12
  5270 ;;      Params:         0       0       0       0       0       0       0       0       0       0       0       0       
      +0       0
  5271 ;;      Locals:         0       0       0       0       0       0       0       0       0       0       0       0       
      +0       0
  5272 ;;      Temps:          0       0       0       0       0       0       0       0       0       0       0       0       
      +0       0
  5273 ;;      Totals:         0       0       0       0       0       0       0       0       0       0       0       0       
      +0       0
  5274 ;;Total ram usage:        0 bytes
  5275 ;; Hardware stack levels used:    1
  5276 ;; Hardware stack levels required when called:   10
  5277 ;; This function calls:
  5278 ;;		Nothing
  5279 ;; This function is called by:
  5280 ;;		_I2C_MasterStart
  5281 ;;		_I2C_MasterStop
  5282 ;;		_I2C_MasterWrite
  5283 ;;		_I2C_MasterSetReceive
  5284 ;;		_I2C_MasterSendAck
  5285 ;;		_I2C_MasterSendNack
  5286 ;; This function uses a non-reentrant model
  5287 ;;
  5288                           
  5289                           
  5290                           ;psect for function _I2C_WaitForCompletion
  5291  1288                     _I2C_WaitForCompletion:
  5292  1288                     l5849:	
  5293                           ;incstack = 0
  5294                           ; Regs used in _I2C_WaitForCompletion: []
  5295                           
  5296  1288                     l900:
  5297  1288  0020               	movlb	0	; select bank0
  5298  1289  1D91               	btfss	17,3	;volatile
  5299  128A  2A8C               	goto	u4741
  5300  128B  2A8D               	goto	u4740
  5301  128C                     u4741:
  5302  128C  2A88               	goto	l900
  5303  128D                     u4740:
  5304  128D                     l902:
  5305  128D  1191               	bcf	17,3	;volatile
  5306  128E                     l903:
  5307  128E  0008               	return
  5308  128F                     __end_of_I2C_WaitForCompletion:
  5309                           
  5310                           	psect	text14
  5311  1303                     __ptext14:	
  5312 ;; *************** function _SYSTEM_Initialize *****************
  5313 ;; Defined at:
  5314 ;;		line 50 in file "mcc_generated_files/mcc.c"
  5315 ;; Parameters:    Size  Location     Type
  5316 ;;		None
  5317 ;; Auto vars:     Size  Location     Type
  5318 ;;		None
  5319 ;; Return value:  Size  Location     Type
  5320 ;;                  1    wreg      void 
  5321 ;; Registers used:
  5322 ;;		wreg, fsr1l, fsr1h, status,2, status,0, pclath, cstack
  5323 ;; Tracked objects:
  5324 ;;		On entry : 0/0
  5325 ;;		On exit  : 0/0
  5326 ;;		Unchanged: 0/0
  5327 ;; Data sizes:     COMMON   BANK0   BANK1   BANK2   BANK3   BANK4   BANK5   BANK6   BANK7   BANK8   BANK9  BANK10  BANK1
      +1  BANK12
  5328 ;;      Params:         0       0       0       0       0       0       0       0       0       0       0       0       
      +0       0
  5329 ;;      Locals:         0       0       0       0       0       0       0       0       0       0       0       0       
      +0       0
  5330 ;;      Temps:          0       0       0       0       0       0       0       0       0       0       0       0       
      +0       0
  5331 ;;      Totals:         0       0       0       0       0       0       0       0       0       0       0       0       
      +0       0
  5332 ;;Total ram usage:        0 bytes
  5333 ;; Hardware stack levels used:    1
  5334 ;; Hardware stack levels required when called:   12
  5335 ;; This function calls:
  5336 ;;		_ADC_Initialize
  5337 ;;		_OSCILLATOR_Initialize
  5338 ;;		_PIN_MANAGER_Initialize
  5339 ;;		_TMR0_Initialize
  5340 ;;		_USBDeviceAttach
  5341 ;;		_USBDeviceInit
  5342 ;;		_WDT_Initialize
  5343 ;; This function is called by:
  5344 ;;		_main
  5345 ;; This function uses a non-reentrant model
  5346 ;;
  5347                           
  5348                           
  5349                           ;psect for function _SYSTEM_Initialize
  5350  1303                     _SYSTEM_Initialize:
  5351  1303                     l6349:	
  5352                           ;incstack = 0
  5353                           ; Regs used in _SYSTEM_Initialize: [wreg+fsr1l+fsr1h+status,2+status,0+pclath+cstack]
  5354                           
  5355                           
  5356                           ;mcc_generated_files/mcc.c: 53:     PIN_MANAGER_Initialize();
  5357  1303  3193  23CD  3193   	fcall	_PIN_MANAGER_Initialize
  5358                           
  5359                           ;mcc_generated_files/mcc.c: 54:     OSCILLATOR_Initialize();
  5360  1306  3192  22E5  3193   	fcall	_OSCILLATOR_Initialize
  5361                           
  5362                           ;mcc_generated_files/mcc.c: 55:     WDT_Initialize();
  5363  1309  3192  2272  3193   	fcall	_WDT_Initialize
  5364  130C                     l6351:
  5365                           
  5366                           ;mcc_generated_files/mcc.c: 56:     USBDeviceInit();
  5367  130C  318F  274C  3193   	fcall	_USBDeviceInit
  5368  130F                     l6353:
  5369                           
  5370                           ;mcc_generated_files/mcc.c: 57:     ADC_Initialize();
  5371  130F  3192  229D  3193   	fcall	_ADC_Initialize
  5372  1312                     l6355:
  5373                           
  5374                           ;mcc_generated_files/mcc.c: 58:     TMR0_Initialize();
  5375  1312  3193  2319  3193   	fcall	_TMR0_Initialize
  5376  1315                     l6357:
  5377                           
  5378                           ;mcc_generated_files/mcc.c: 59:     USBDeviceAttach();
  5379  1315  3193  236C  3193   	fcall	_USBDeviceAttach
  5380  1318                     l609:
  5381  1318  0008               	return
  5382  1319                     __end_of_SYSTEM_Initialize:
  5383                           
  5384                           	psect	text15
  5385  1272                     __ptext15:	
  5386 ;; *************** function _WDT_Initialize *****************
  5387 ;; Defined at:
  5388 ;;		line 78 in file "mcc_generated_files/mcc.c"
  5389 ;; Parameters:    Size  Location     Type
  5390 ;;		None
  5391 ;; Auto vars:     Size  Location     Type
  5392 ;;		None
  5393 ;; Return value:  Size  Location     Type
  5394 ;;                  1    wreg      void 
  5395 ;; Registers used:
  5396 ;;		wreg
  5397 ;; Tracked objects:
  5398 ;;		On entry : 0/0
  5399 ;;		On exit  : 0/0
  5400 ;;		Unchanged: 0/0
  5401 ;; Data sizes:     COMMON   BANK0   BANK1   BANK2   BANK3   BANK4   BANK5   BANK6   BANK7   BANK8   BANK9  BANK10  BANK1
      +1  BANK12
  5402 ;;      Params:         0       0       0       0       0       0       0       0       0       0       0       0       
      +0       0
  5403 ;;      Locals:         0       0       0       0       0       0       0       0       0       0       0       0       
      +0       0
  5404 ;;      Temps:          0       0       0       0       0       0       0       0       0       0       0       0       
      +0       0
  5405 ;;      Totals:         0       0       0       0       0       0       0       0       0       0       0       0       
      +0       0
  5406 ;;Total ram usage:        0 bytes
  5407 ;; Hardware stack levels used:    1
  5408 ;; Hardware stack levels required when called:   10
  5409 ;; This function calls:
  5410 ;;		Nothing
  5411 ;; This function is called by:
  5412 ;;		_SYSTEM_Initialize
  5413 ;; This function uses a non-reentrant model
  5414 ;;
  5415                           
  5416                           
  5417                           ;psect for function _WDT_Initialize
  5418  1272                     _WDT_Initialize:
  5419  1272                     l6071:	
  5420                           ;incstack = 0
  5421                           ; Regs used in _WDT_Initialize: [wreg]
  5422                           
  5423                           
  5424                           ;mcc_generated_files/mcc.c: 81:     WDTCON = 0x16;
  5425  1272  3016               	movlw	22
  5426  1273  0021               	movlb	1	; select bank1
  5427  1274  0097               	movwf	23	;volatile
  5428  1275                     l618:
  5429  1275  0008               	return
  5430  1276                     __end_of_WDT_Initialize:
  5431                           
  5432                           	psect	text16
  5433  0F4C                     __ptext16:	
  5434 ;; *************** function _USBDeviceInit *****************
  5435 ;; Defined at:
  5436 ;;		line 281 in file "mcc_generated_files/usb/usb_device.c"
  5437 ;; Parameters:    Size  Location     Type
  5438 ;;		None
  5439 ;; Auto vars:     Size  Location     Type
  5440 ;;  p               2    6[BANK1 ] PTR unsigned char 
  5441 ;;		 -> UEP1(1), 
  5442 ;;  i               1    8[BANK1 ] unsigned char 
  5443 ;;  i               1    9[BANK1 ] unsigned char 
  5444 ;; Return value:  Size  Location     Type
  5445 ;;                  1    wreg      void 
  5446 ;; Registers used:
  5447 ;;		wreg, fsr1l, fsr1h, status,2, status,0
  5448 ;; Tracked objects:
  5449 ;;		On entry : 0/0
  5450 ;;		On exit  : 0/0
  5451 ;;		Unchanged: 0/0
  5452 ;; Data sizes:     COMMON   BANK0   BANK1   BANK2   BANK3   BANK4   BANK5   BANK6   BANK7   BANK8   BANK9  BANK10  BANK1
      +1  BANK12
  5453 ;;      Params:         0       0       0       0       0       0       0       0       0       0       0       0       
      +0       0
  5454 ;;      Locals:         0       0       4       0       0       0       0       0       0       0       0       0       
      +0       0
  5455 ;;      Temps:          0       0       1       0       0       0       0       0       0       0       0       0       
      +0       0
  5456 ;;      Totals:         0       0       5       0       0       0       0       0       0       0       0       0       
      +0       0
  5457 ;;Total ram usage:        5 bytes
  5458 ;; Hardware stack levels used:    1
  5459 ;; Hardware stack levels required when called:   10
  5460 ;; This function calls:
  5461 ;;		Nothing
  5462 ;; This function is called by:
  5463 ;;		_SYSTEM_Initialize
  5464 ;; This function uses a non-reentrant model
  5465 ;;
  5466                           
  5467                           
  5468                           ;psect for function _USBDeviceInit
  5469  0F4C                     _USBDeviceInit:
  5470  0F4C                     l5893:	
  5471                           ;incstack = 0
  5472                           ; Regs used in _USBDeviceInit: [wreg+fsr1l+fsr1h+status,2+status,0]
  5473                           
  5474                           
  5475                           ;mcc_generated_files/usb/usb_device.c: 283:     uint8_t i;;mcc_generated_files/usb/usb_d
      +                          evice.c: 285:     {PIE2bits.USBIE = 0;};
  5476  0F4C  0021               	movlb	1	; select bank1
  5477  0F4D  1112               	bcf	18,2	;volatile
  5478  0F4E                     l5895:
  5479                           
  5480                           ;mcc_generated_files/usb/usb_device.c: 292:     {UEIR = 0;};
  5481  0F4E  003D               	movlb	29	; select bank29
  5482  0F4F  0193               	clrf	19	;volatile
  5483                           
  5484                           ;mcc_generated_files/usb/usb_device.c: 295:     {UIR = 0;};
  5485  0F50  0190               	clrf	16	;volatile
  5486                           
  5487                           ;mcc_generated_files/usb/usb_device.c: 298:     UEP0 = 0;
  5488  0F51  0198               	clrf	24	;volatile
  5489  0F52                     l5897:
  5490                           
  5491                           ;mcc_generated_files/usb/usb_device.c: 300:     { uint8_t i; uint8_t* p = (uint8_t*)&UEP
      +                          1; for(i=0;i<2;i++) *p++ = 0; };
  5492  0F52  300E               	movlw	14
  5493  0F53  0021               	movlb	1	; select bank1
  5494  0F54  00A7               	movwf	(USBDeviceInit@p+1)^(0+128)
  5495  0F55  3099               	movlw	153
  5496  0F56  00A6               	movwf	USBDeviceInit@p^(0+128)
  5497  0F57  01A8               	clrf	USBDeviceInit@i_665^(0+128)
  5498  0F58                     l5903:
  5499  0F58  0826               	movf	USBDeviceInit@p^(0+128),w
  5500  0F59  0086               	movwf	6
  5501  0F5A  0827               	movf	(USBDeviceInit@p+1)^(0+128),w
  5502  0F5B  0087               	movwf	7
  5503  0F5C  0181               	clrf	1
  5504  0F5D                     l5905:
  5505  0F5D  3001               	movlw	1
  5506  0F5E  07A6               	addwf	USBDeviceInit@p^(0+128),f
  5507  0F5F  3000               	movlw	0
  5508  0F60  3DA7               	addwfc	(USBDeviceInit@p+1)^(0+128),f
  5509  0F61                     l5907:
  5510  0F61  3001               	movlw	1
  5511  0F62  00A5               	movwf	??_USBDeviceInit^(0+128)
  5512  0F63  0825               	movf	??_USBDeviceInit^(0+128),w
  5513  0F64  07A8               	addwf	USBDeviceInit@i_665^(0+128),f
  5514  0F65                     l5909:
  5515  0F65  3002               	movlw	2
  5516  0F66  0228               	subwf	USBDeviceInit@i_665^(0+128),w
  5517  0F67  1C03               	skipc
  5518  0F68  2F6A               	goto	u4751
  5519  0F69  2F6B               	goto	u4750
  5520  0F6A                     u4751:
  5521  0F6A  2F58               	goto	l5903
  5522  0F6B                     u4750:
  5523  0F6B                     l5911:
  5524                           
  5525                           ;mcc_generated_files/usb/usb_device.c: 302:     { UCFG = 0x10 | 0x00 | 0x04 | 0x02; UEIE
      +                           = 0x9F; UIE = 0x39 | 0x40 | 0x02; };
  5526  0F6B  3016               	movlw	22
  5527  0F6C  003D               	movlb	29	; select bank29
  5528  0F6D  0091               	movwf	17	;volatile
  5529  0F6E  309F               	movlw	159
  5530  0F6F  0097               	movwf	23	;volatile
  5531  0F70  307B               	movlw	123
  5532  0F71  0092               	movwf	18	;volatile
  5533  0F72                     l5913:
  5534                           
  5535                           ;mcc_generated_files/usb/usb_device.c: 311:     for(i = 0; i < (sizeof(BDT)/sizeof(BDT_E
      +                          NTRY)); i++)
  5536  0F72  0021               	movlb	1	; select bank1
  5537  0F73  01A9               	clrf	USBDeviceInit@i^(0+128)
  5538  0F74                     l5919:
  5539                           
  5540                           ;mcc_generated_files/usb/usb_device.c: 312:     {;mcc_generated_files/usb/usb_device.c: 
      +                          313:         BDT[i].Val = 0x00;
  5541  0F74  0829               	movf	USBDeviceInit@i^(0+128),w
  5542  0F75  00A5               	movwf	??_USBDeviceInit^(0+128)
  5543  0F76  3001               	movlw	1
  5544  0F77                     u4765:
  5545  0F77  35A5               	lslf	??_USBDeviceInit^(0+128),f
  5546  0F78  3EFF               	addlw	-1
  5547  0F79  1D03               	skipz
  5548  0F7A  2F77               	goto	u4765
  5549  0F7B  3525               	lslf	??_USBDeviceInit^(0+128),w
  5550  0F7C  3E20               	addlw	32
  5551  0F7D  0086               	movwf	6
  5552  0F7E  0187               	clrf	7
  5553  0F7F  3000               	movlw	0
  5554  0F80  3FC0               	movwi [0]fsr1
  5555  0F81  3000               	movlw	0
  5556  0F82  3FC1               	movwi [1]fsr1
  5557  0F83  3FC2               	movwi [2]fsr1
  5558  0F84  3FC3               	movwi [3]fsr1
  5559  0F85                     l5921:
  5560                           
  5561                           ;mcc_generated_files/usb/usb_device.c: 314:     }
  5562  0F85  3001               	movlw	1
  5563  0F86  00A5               	movwf	??_USBDeviceInit^(0+128)
  5564  0F87  0825               	movf	??_USBDeviceInit^(0+128),w
  5565  0F88  07A9               	addwf	USBDeviceInit@i^(0+128),f
  5566  0F89                     l5923:
  5567  0F89  300C               	movlw	12
  5568  0F8A  0229               	subwf	USBDeviceInit@i^(0+128),w
  5569  0F8B  1C03               	skipc
  5570  0F8C  2F8E               	goto	u4771
  5571  0F8D  2F8F               	goto	u4770
  5572  0F8E                     u4771:
  5573  0F8E  2F74               	goto	l5919
  5574  0F8F                     u4770:
  5575  0F8F                     l136:
  5576                           
  5577                           ;mcc_generated_files/usb/usb_device.c: 317:     UCONbits.PPBRST = 1;
  5578  0F8F  003D               	movlb	29	; select bank29
  5579  0F90  170E               	bsf	14,6	;volatile
  5580  0F91                     l5925:
  5581                           
  5582                           ;mcc_generated_files/usb/usb_device.c: 320:     UADDR = 0x00;
  5583  0F91  0196               	clrf	22	;volatile
  5584  0F92                     l5927:
  5585                           
  5586                           ;mcc_generated_files/usb/usb_device.c: 323:     UCONbits.PKTDIS = 0;
  5587  0F92  120E               	bcf	14,4	;volatile
  5588  0F93                     l5929:
  5589                           
  5590                           ;mcc_generated_files/usb/usb_device.c: 326:     UCONbits.PPBRST = 0;
  5591  0F93  130E               	bcf	14,6	;volatile
  5592  0F94                     l5931:
  5593                           
  5594                           ;mcc_generated_files/usb/usb_device.c: 330:     {;mcc_generated_files/usb/usb_device.c: 
      +                          331:         (UIR &= 0xF7);
  5595  0F94  30F7               	movlw	247
  5596  0F95  0021               	movlb	1	; select bank1
  5597  0F96  00A5               	movwf	??_USBDeviceInit^(0+128)
  5598  0F97  0825               	movf	??_USBDeviceInit^(0+128),w
  5599  0F98  003D               	movlb	29	; select bank29
  5600  0F99  0590               	andwf	16,f	;volatile
  5601  0F9A                     l5933:
  5602                           
  5603                           ;mcc_generated_files/usb/usb_device.c: 333:         inPipes[0].info.Val = 0;
  5604  0F9A  0023               	movlb	3	; select bank3
  5605  0F9B  01BF               	clrf	(_inPipes^(0+384)+2)	;volatile
  5606  0F9C                     l5935:
  5607                           
  5608                           ;mcc_generated_files/usb/usb_device.c: 334:         outPipes[0].info.Val = 0;
  5609  0F9C  01B2               	clrf	(_outPipes^(0+384)+2)	;volatile
  5610  0F9D                     l5937:
  5611                           
  5612                           ;mcc_generated_files/usb/usb_device.c: 335:         outPipes[0].wCount.Val = 0;
  5613  0F9D  01B3               	clrf	(_outPipes^(0+384)+3)	;volatile
  5614  0F9E  01B4               	clrf	((_outPipes+1)^(0+384)+3)	;volatile
  5615  0F9F                     l5939:
  5616                           
  5617                           ;mcc_generated_files/usb/usb_device.c: 336:     }while(UIRbits.TRNIF == 1);
  5618  0F9F  003D               	movlb	29	; select bank29
  5619  0FA0  1990               	btfsc	16,3	;volatile
  5620  0FA1  2FA3               	goto	u4781
  5621  0FA2  2FA4               	goto	u4780
  5622  0FA3                     u4781:
  5623  0FA3  2F94               	goto	l5931
  5624  0FA4                     u4780:
  5625  0FA4                     l5941:
  5626                           
  5627                           ;mcc_generated_files/usb/usb_device.c: 340:     USBStatusStageEnabledFlag1 = 1;
  5628  0FA4  3001               	movlw	1
  5629  0FA5  0021               	movlb	1	; select bank1
  5630  0FA6  00A5               	movwf	??_USBDeviceInit^(0+128)
  5631  0FA7  0825               	movf	??_USBDeviceInit^(0+128),w
  5632  0FA8  0023               	movlb	3	; select bank3
  5633  0FA9  00E1               	movwf	_USBStatusStageEnabledFlag1^(0+384)	;volatile
  5634                           
  5635                           ;mcc_generated_files/usb/usb_device.c: 341:     USBStatusStageEnabledFlag2 = 1;
  5636  0FAA  3001               	movlw	1
  5637  0FAB  0021               	movlb	1	; select bank1
  5638  0FAC  00A5               	movwf	??_USBDeviceInit^(0+128)
  5639  0FAD  0825               	movf	??_USBDeviceInit^(0+128),w
  5640  0FAE  0023               	movlb	3	; select bank3
  5641  0FAF  00E0               	movwf	_USBStatusStageEnabledFlag2^(0+384)	;volatile
  5642  0FB0                     l5943:
  5643                           
  5644                           ;mcc_generated_files/usb/usb_device.c: 343:     USBDeferINDataStagePackets = 0;
  5645  0FB0  01DF               	clrf	_USBDeferINDataStagePackets^(0+384)	;volatile
  5646  0FB1                     l5945:
  5647                           
  5648                           ;mcc_generated_files/usb/usb_device.c: 344:     USBDeferOUTDataStagePackets = 0;
  5649  0FB1  01DE               	clrf	_USBDeferOUTDataStagePackets^(0+384)	;volatile
  5650  0FB2                     l5947:
  5651                           
  5652                           ;mcc_generated_files/usb/usb_device.c: 345:     USBBusIsSuspended = 0;
  5653  0FB2  01E6               	clrf	_USBBusIsSuspended^(0+384)	;volatile
  5654  0FB3                     l5949:
  5655                           
  5656                           ;mcc_generated_files/usb/usb_device.c: 349:     for(i = 0; i < (uint8_t)(2 +1u); i++)
  5657  0FB3  0021               	movlb	1	; select bank1
  5658  0FB4  01A9               	clrf	USBDeviceInit@i^(0+128)
  5659  0FB5                     l5953:
  5660                           
  5661                           ;mcc_generated_files/usb/usb_device.c: 350:     {;mcc_generated_files/usb/usb_device.c: 
      +                          351:         pBDTEntryIn[i] = 0u;
  5662  0FB5  3529               	lslf	USBDeviceInit@i^(0+128),w
  5663  0FB6  3EB7               	addlw	(low (_pBDTEntryIn| (0+256)))& (0+255)
  5664  0FB7  0086               	movwf	6
  5665  0FB8  3001               	movlw	1	; select bank3/4
  5666  0FB9  0087               	movwf	7
  5667  0FBA  3000               	movlw	0
  5668  0FBB  3FC0               	movwi [0]fsr1
  5669  0FBC  3FC1               	movwi [1]fsr1
  5670                           
  5671                           ;mcc_generated_files/usb/usb_device.c: 352:         pBDTEntryOut[i] = 0u;
  5672  0FBD  3529               	lslf	USBDeviceInit@i^(0+128),w
  5673  0FBE  3E2A               	addlw	(low (_pBDTEntryOut| (0+512)))& (0+255)
  5674  0FBF  0086               	movwf	6
  5675  0FC0  3002               	movlw	2	; select bank4/5
  5676  0FC1  0087               	movwf	7
  5677  0FC2  3000               	movlw	0
  5678  0FC3  3FC0               	movwi [0]fsr1
  5679  0FC4  3FC1               	movwi [1]fsr1
  5680                           
  5681                           ;mcc_generated_files/usb/usb_device.c: 353:         ep_data_in[i].Val = 0u;
  5682  0FC5  0829               	movf	USBDeviceInit@i^(0+128),w
  5683  0FC6  3EC5               	addlw	(low (_ep_data_in| (0+256)))& (0+255)
  5684  0FC7  0086               	movwf	6
  5685  0FC8  3001               	movlw	1	; select bank3/4
  5686  0FC9  0087               	movwf	7
  5687  0FCA  0181               	clrf	1
  5688                           
  5689                           ;mcc_generated_files/usb/usb_device.c: 354:         ep_data_out[i].Val = 0u;
  5690  0FCB  0829               	movf	USBDeviceInit@i^(0+128),w
  5691  0FCC  3EC2               	addlw	(low (_ep_data_out| (0+256)))& (0+255)
  5692  0FCD  0086               	movwf	6
  5693  0FCE  3001               	movlw	1	; select bank3/4
  5694  0FCF  0087               	movwf	7
  5695  0FD0  0181               	clrf	1
  5696  0FD1                     l5955:
  5697                           
  5698                           ;mcc_generated_files/usb/usb_device.c: 355:     }
  5699  0FD1  3001               	movlw	1
  5700  0FD2  00A5               	movwf	??_USBDeviceInit^(0+128)
  5701  0FD3  0825               	movf	??_USBDeviceInit^(0+128),w
  5702  0FD4  07A9               	addwf	USBDeviceInit@i^(0+128),f
  5703  0FD5                     l5957:
  5704  0FD5  3003               	movlw	3
  5705  0FD6  0229               	subwf	USBDeviceInit@i^(0+128),w
  5706  0FD7  1C03               	skipc
  5707  0FD8  2FDA               	goto	u4791
  5708  0FD9  2FDB               	goto	u4790
  5709  0FDA                     u4791:
  5710  0FDA  2FB5               	goto	l5953
  5711  0FDB                     u4790:
  5712  0FDB                     l5959:
  5713                           
  5714                           ;mcc_generated_files/usb/usb_device.c: 358:     pBDTEntryIn[0] = (volatile BDT_ENTRY*)&B
      +                          DT[2];
  5715  0FDB  3028               	movlw	40
  5716  0FDC  0023               	movlb	3	; select bank3
  5717  0FDD  00B7               	movwf	_pBDTEntryIn^(0+384)
  5718  0FDE  3000               	movlw	0
  5719  0FDF  00B8               	movwf	(_pBDTEntryIn+1)^(0+384)
  5720  0FE0                     l5961:
  5721                           
  5722                           ;mcc_generated_files/usb/usb_device.c: 360:     UEP0 = 0x06|0x10;
  5723  0FE0  3016               	movlw	22
  5724  0FE1  003D               	movlb	29	; select bank29
  5725  0FE2  0098               	movwf	24	;volatile
  5726  0FE3                     l5963:
  5727                           
  5728                           ;mcc_generated_files/usb/usb_device.c: 362:     BDT[0].ADR = (((uint16_t)(&SetupPkt)) & 
      +                          0x7FFF);
  5729  0FE3  3000               	movlw	0
  5730  0FE4  0020               	movlb	0	; select bank0
  5731  0FE5  00A3               	movwf	35	;volatile
  5732  0FE6  3050               	movlw	80
  5733  0FE7  00A2               	movwf	34	;volatile
  5734  0FE8                     l5965:
  5735                           
  5736                           ;mcc_generated_files/usb/usb_device.c: 363:     BDT[0].CNT = 8;
  5737  0FE8  3008               	movlw	8
  5738  0FE9  00A1               	movwf	33	;volatile
  5739  0FEA                     l5967:
  5740                           
  5741                           ;mcc_generated_files/usb/usb_device.c: 364:     BDT[0].STAT.Val = 0x00|0x04;
  5742  0FEA  3004               	movlw	4
  5743  0FEB  0021               	movlb	1	; select bank1
  5744  0FEC  00A5               	movwf	??_USBDeviceInit^(0+128)
  5745  0FED  0825               	movf	??_USBDeviceInit^(0+128),w
  5746  0FEE  0020               	movlb	0	; select bank0
  5747  0FEF  00A0               	movwf	32	;volatile
  5748  0FF0                     l5969:
  5749                           
  5750                           ;mcc_generated_files/usb/usb_device.c: 365:     BDT[0].STAT.Val |= 0x80;
  5751  0FF0  17A0               	bsf	32,7	;volatile
  5752  0FF1                     l5971:
  5753                           
  5754                           ;mcc_generated_files/usb/usb_device.c: 368:     USBActiveConfiguration = 0;
  5755  0FF1  0023               	movlb	3	; select bank3
  5756  0FF2  01EF               	clrf	_USBActiveConfiguration^(0+384)	;volatile
  5757  0FF3                     l5973:
  5758                           
  5759                           ;mcc_generated_files/usb/usb_device.c: 370:     USB1msTickCount = 0;
  5760  0FF3  3000               	movlw	0
  5761  0FF4  0024               	movlb	4	; select bank4
  5762  0FF5  00B7               	movwf	(_USB1msTickCount+3)^(0+512)	;volatile
  5763  0FF6  3000               	movlw	0
  5764  0FF7  00B6               	movwf	(_USB1msTickCount+2)^(0+512)	;volatile
  5765  0FF8  3000               	movlw	0
  5766  0FF9  00B5               	movwf	(_USB1msTickCount+1)^(0+512)	;volatile
  5767  0FFA  3000               	movlw	0
  5768  0FFB  00B4               	movwf	_USB1msTickCount^(0+512)	;volatile
  5769  0FFC                     l5975:
  5770                           
  5771                           ;mcc_generated_files/usb/usb_device.c: 371:     USBTicksSinceSuspendEnd = 0;
  5772  0FFC  0023               	movlb	3	; select bank3
  5773  0FFD  01DD               	clrf	_USBTicksSinceSuspendEnd^(0+384)	;volatile
  5774  0FFE                     l5977:
  5775                           
  5776                           ;mcc_generated_files/usb/usb_device.c: 374:     USBDeviceState = DETACHED_STATE;
  5777  0FFE  01EB               	clrf	_USBDeviceState^(0+384)	;volatile
  5778  0FFF                     l141:
  5779  0FFF  0008               	return
  5780  1000                     __end_of_USBDeviceInit:
  5781                           
  5782                           	psect	text17
  5783  136C                     __ptext17:	
  5784 ;; *************** function _USBDeviceAttach *****************
  5785 ;; Defined at:
  5786 ;;		line 1356 in file "mcc_generated_files/usb/usb_device.c"
  5787 ;; Parameters:    Size  Location     Type
  5788 ;;		None
  5789 ;; Auto vars:     Size  Location     Type
  5790 ;;		None
  5791 ;; Return value:  Size  Location     Type
  5792 ;;                  1    wreg      void 
  5793 ;; Registers used:
  5794 ;;		wreg, status,2, status,0
  5795 ;; Tracked objects:
  5796 ;;		On entry : 0/0
  5797 ;;		On exit  : 0/0
  5798 ;;		Unchanged: 0/0
  5799 ;; Data sizes:     COMMON   BANK0   BANK1   BANK2   BANK3   BANK4   BANK5   BANK6   BANK7   BANK8   BANK9  BANK10  BANK1
      +1  BANK12
  5800 ;;      Params:         0       0       0       0       0       0       0       0       0       0       0       0       
      +0       0
  5801 ;;      Locals:         0       0       0       0       0       0       0       0       0       0       0       0       
      +0       0
  5802 ;;      Temps:          0       0       1       0       0       0       0       0       0       0       0       0       
      +0       0
  5803 ;;      Totals:         0       0       1       0       0       0       0       0       0       0       0       0       
      +0       0
  5804 ;;Total ram usage:        1 bytes
  5805 ;; Hardware stack levels used:    1
  5806 ;; Hardware stack levels required when called:   10
  5807 ;; This function calls:
  5808 ;;		Nothing
  5809 ;; This function is called by:
  5810 ;;		_SYSTEM_Initialize
  5811 ;; This function uses a non-reentrant model
  5812 ;;
  5813                           
  5814                           
  5815                           ;psect for function _USBDeviceAttach
  5816  136C                     _USBDeviceAttach:
  5817  136C                     l6029:	
  5818                           ;incstack = 0
  5819                           ; Regs used in _USBDeviceAttach: [wreg+status,2+status,0]
  5820                           
  5821                           
  5822                           ;mcc_generated_files/usb/usb_device.c: 1360:     {;mcc_generated_files/usb/usb_device.c:
      +                           1361:         if(1 == 1)
  5823  136C  0023               	movlb	3	; select bank3
  5824  136D  086B               	movf	_USBDeviceState^(0+384),w	;volatile
  5825  136E  1D03               	btfss	3,2
  5826  136F  2B71               	goto	u4871
  5827  1370  2B72               	goto	u4870
  5828  1371                     u4871:
  5829  1371  2B8A               	goto	l199
  5830  1372                     u4870:
  5831  1372                     l6031:
  5832                           
  5833                           ;mcc_generated_files/usb/usb_device.c: 1362:         {;mcc_generated_files/usb/usb_devic
      +                          e.c: 1364:             UCON = 0;
  5834  1372  003D               	movlb	29	; select bank29
  5835  1373  018E               	clrf	14	;volatile
  5836                           
  5837                           ;mcc_generated_files/usb/usb_device.c: 1367:             UIE = 0;
  5838  1374  0192               	clrf	18	;volatile
  5839  1375                     l6033:
  5840                           
  5841                           ;mcc_generated_files/usb/usb_device.c: 1371:             { UCFG = 0x10 | 0x00 | 0x04 | 0
      +                          x02; UEIE = 0x9F; UIE = 0x39 | 0x40 | 0x02; };
  5842  1375  3016               	movlw	22
  5843  1376  0091               	movwf	17	;volatile
  5844  1377                     l6035:
  5845  1377  309F               	movlw	159
  5846  1378  0097               	movwf	23	;volatile
  5847  1379                     l6037:
  5848  1379  307B               	movlw	123
  5849  137A  0092               	movwf	18	;volatile
  5850  137B                     l6039:
  5851                           
  5852                           ;mcc_generated_files/usb/usb_device.c: 1373:             {PIE2bits.USBIE = 1;};
  5853  137B  0021               	movlb	1	; select bank1
  5854  137C  1512               	bsf	18,2	;volatile
  5855                           
  5856                           ;mcc_generated_files/usb/usb_device.c: 1376:             while(!UCONbits.USBEN){UCONbits
      +                          .USBEN = 1;}
  5857  137D  2B7F               	goto	l196
  5858  137E                     l197:
  5859  137E  158E               	bsf	14,3	;volatile
  5860  137F                     l196:
  5861  137F  003D               	movlb	29	; select bank29
  5862  1380  1D8E               	btfss	14,3	;volatile
  5863  1381  2B83               	goto	u4881
  5864  1382  2B84               	goto	u4880
  5865  1383                     u4881:
  5866  1383  2B7E               	goto	l197
  5867  1384                     u4880:
  5868  1384                     l6041:
  5869                           
  5870                           ;mcc_generated_files/usb/usb_device.c: 1379:             USBDeviceState = ATTACHED_STATE
      +                          ;
  5871  1384  3001               	movlw	1
  5872  1385  0021               	movlb	1	; select bank1
  5873  1386  00A5               	movwf	??_USBDeviceAttach^(0+128)
  5874  1387  0825               	movf	??_USBDeviceAttach^(0+128),w
  5875  1388  0023               	movlb	3	; select bank3
  5876  1389  00EB               	movwf	_USBDeviceState^(0+384)	;volatile
  5877  138A                     l199:
  5878  138A  0008               	return
  5879  138B                     __end_of_USBDeviceAttach:
  5880                           
  5881                           	psect	text18
  5882  1319                     __ptext18:	
  5883 ;; *************** function _TMR0_Initialize *****************
  5884 ;; Defined at:
  5885 ;;		line 71 in file "mcc_generated_files/tmr0.c"
  5886 ;; Parameters:    Size  Location     Type
  5887 ;;		None
  5888 ;; Auto vars:     Size  Location     Type
  5889 ;;		None
  5890 ;; Return value:  Size  Location     Type
  5891 ;;                  1    wreg      void 
  5892 ;; Registers used:
  5893 ;;		wreg, status,2, status,0, pclath, cstack
  5894 ;; Tracked objects:
  5895 ;;		On entry : 0/0
  5896 ;;		On exit  : 0/0
  5897 ;;		Unchanged: 0/0
  5898 ;; Data sizes:     COMMON   BANK0   BANK1   BANK2   BANK3   BANK4   BANK5   BANK6   BANK7   BANK8   BANK9  BANK10  BANK1
      +1  BANK12
  5899 ;;      Params:         0       0       0       0       0       0       0       0       0       0       0       0       
      +0       0
  5900 ;;      Locals:         0       0       0       0       0       0       0       0       0       0       0       0       
      +0       0
  5901 ;;      Temps:          0       0       1       0       0       0       0       0       0       0       0       0       
      +0       0
  5902 ;;      Totals:         0       0       1       0       0       0       0       0       0       0       0       0       
      +0       0
  5903 ;;Total ram usage:        1 bytes
  5904 ;; Hardware stack levels used:    1
  5905 ;; Hardware stack levels required when called:   11
  5906 ;; This function calls:
  5907 ;;		_TMR0_SetInterruptHandler
  5908 ;; This function is called by:
  5909 ;;		_SYSTEM_Initialize
  5910 ;; This function uses a non-reentrant model
  5911 ;;
  5912                           
  5913                           
  5914                           ;psect for function _TMR0_Initialize
  5915  1319                     _TMR0_Initialize:
  5916  1319                     l6083:	
  5917                           ;incstack = 0
  5918                           ; Regs used in _TMR0_Initialize: [wreg+status,2+status,0+pclath+cstack]
  5919                           
  5920                           
  5921                           ;mcc_generated_files/tmr0.c: 76:     OPTION_REG = (uint8_t)((OPTION_REG & 0xC0) | (0xD2 
      +                          & 0x3F));
  5922  1319  0021               	movlb	1	; select bank1
  5923  131A  0815               	movf	21,w	;volatile
  5924  131B  39C0               	andlw	192
  5925  131C  3812               	iorlw	18
  5926  131D  0095               	movwf	21	;volatile
  5927  131E                     l6085:
  5928                           
  5929                           ;mcc_generated_files/tmr0.c: 79:     TMR0 = 0x06;
  5930  131E  3006               	movlw	6
  5931  131F  0020               	movlb	0	; select bank0
  5932  1320  0095               	movwf	21	;volatile
  5933  1321                     l6087:
  5934                           
  5935                           ;mcc_generated_files/tmr0.c: 82:     timer0ReloadVal= 6;
  5936  1321  3006               	movlw	6
  5937  1322  0021               	movlb	1	; select bank1
  5938  1323  00A7               	movwf	??_TMR0_Initialize^(0+128)
  5939  1324  0827               	movf	??_TMR0_Initialize^(0+128),w
  5940  1325  0023               	movlb	3	; select bank3
  5941  1326  00D3               	movwf	_timer0ReloadVal^(0+384)	;volatile
  5942  1327                     l6089:
  5943                           
  5944                           ;mcc_generated_files/tmr0.c: 85:     INTCONbits.TMR0IF = 0;
  5945  1327  110B               	bcf	11,2	;volatile
  5946  1328                     l6091:
  5947                           
  5948                           ;mcc_generated_files/tmr0.c: 88:     INTCONbits.TMR0IE = 1;
  5949  1328  168B               	bsf	11,5	;volatile
  5950  1329                     l6093:
  5951                           
  5952                           ;mcc_generated_files/tmr0.c: 91:     TMR0_SetInterruptHandler(TMR0_DefaultInterruptHandl
      +                          er);
  5953  1329  30FF               	movlw	low _TMR0_DefaultInterruptHandler
  5954  132A  0021               	movlb	1	; select bank1
  5955  132B  00A5               	movwf	TMR0_SetInterruptHandler@InterruptHandler^(0+128)
  5956  132C  3007               	movlw	high _TMR0_DefaultInterruptHandler
  5957  132D  00A6               	movwf	(TMR0_SetInterruptHandler@InterruptHandler^(0+128)+1)
  5958  132E  3192  22AF  3193   	fcall	_TMR0_SetInterruptHandler
  5959  1331                     l725:
  5960  1331  0008               	return
  5961  1332                     __end_of_TMR0_Initialize:
  5962                           
  5963                           	psect	text19
  5964  12AF                     __ptext19:	
  5965 ;; *************** function _TMR0_SetInterruptHandler *****************
  5966 ;; Defined at:
  5967 ;;		line 167 in file "mcc_generated_files/tmr0.c"
  5968 ;; Parameters:    Size  Location     Type
  5969 ;;  InterruptHan    2    5[BANK1 ] PTR FTN()void 
  5970 ;;		 -> TMR0_DefaultInterruptHandler(1), 
  5971 ;; Auto vars:     Size  Location     Type
  5972 ;;		None
  5973 ;; Return value:  Size  Location     Type
  5974 ;;                  1    wreg      void 
  5975 ;; Registers used:
  5976 ;;		wreg
  5977 ;; Tracked objects:
  5978 ;;		On entry : 0/0
  5979 ;;		On exit  : 0/0
  5980 ;;		Unchanged: 0/0
  5981 ;; Data sizes:     COMMON   BANK0   BANK1   BANK2   BANK3   BANK4   BANK5   BANK6   BANK7   BANK8   BANK9  BANK10  BANK1
      +1  BANK12
  5982 ;;      Params:         0       0       2       0       0       0       0       0       0       0       0       0       
      +0       0
  5983 ;;      Locals:         0       0       0       0       0       0       0       0       0       0       0       0       
      +0       0
  5984 ;;      Temps:          0       0       0       0       0       0       0       0       0       0       0       0       
      +0       0
  5985 ;;      Totals:         0       0       2       0       0       0       0       0       0       0       0       0       
      +0       0
  5986 ;;Total ram usage:        2 bytes
  5987 ;; Hardware stack levels used:    1
  5988 ;; Hardware stack levels required when called:   10
  5989 ;; This function calls:
  5990 ;;		Nothing
  5991 ;; This function is called by:
  5992 ;;		_TMR0_Initialize
  5993 ;; This function uses a non-reentrant model
  5994 ;;
  5995                           
  5996                           
  5997                           ;psect for function _TMR0_SetInterruptHandler
  5998  12AF                     _TMR0_SetInterruptHandler:
  5999  12AF                     l5879:	
  6000                           ;incstack = 0
  6001                           ; Regs used in _TMR0_SetInterruptHandler: [wreg]
  6002                           
  6003                           
  6004                           ;mcc_generated_files/tmr0.c: 168:     TMR0_InterruptHandler = InterruptHandler;
  6005  12AF  0021               	movlb	1	; select bank1
  6006  12B0  0826               	movf	(TMR0_SetInterruptHandler@InterruptHandler+1)^(0+128),w
  6007  12B1  0024               	movlb	4	; select bank4
  6008  12B2  00B9               	movwf	(_TMR0_InterruptHandler+1)^(0+512)
  6009  12B3  0021               	movlb	1	; select bank1
  6010  12B4  0825               	movf	TMR0_SetInterruptHandler@InterruptHandler^(0+128),w
  6011  12B5  0024               	movlb	4	; select bank4
  6012  12B6  00B8               	movwf	_TMR0_InterruptHandler^(0+512)
  6013  12B7                     l750:
  6014  12B7  0008               	return
  6015  12B8                     __end_of_TMR0_SetInterruptHandler:
  6016                           
  6017                           	psect	text20
  6018  13CD                     __ptext20:	
  6019 ;; *************** function _PIN_MANAGER_Initialize *****************
  6020 ;; Defined at:
  6021 ;;		line 57 in file "mcc_generated_files/pin_manager.c"
  6022 ;; Parameters:    Size  Location     Type
  6023 ;;		None
  6024 ;; Auto vars:     Size  Location     Type
  6025 ;;		None
  6026 ;; Return value:  Size  Location     Type
  6027 ;;                  1    wreg      void 
  6028 ;; Registers used:
  6029 ;;		wreg, status,2, status,0, pclath, cstack
  6030 ;; Tracked objects:
  6031 ;;		On entry : 0/0
  6032 ;;		On exit  : 0/0
  6033 ;;		Unchanged: 0/0
  6034 ;; Data sizes:     COMMON   BANK0   BANK1   BANK2   BANK3   BANK4   BANK5   BANK6   BANK7   BANK8   BANK9  BANK10  BANK1
      +1  BANK12
  6035 ;;      Params:         0       0       0       0       0       0       0       0       0       0       0       0       
      +0       0
  6036 ;;      Locals:         0       0       0       0       0       0       0       0       0       0       0       0       
      +0       0
  6037 ;;      Temps:          0       0       0       0       0       0       0       0       0       0       0       0       
      +0       0
  6038 ;;      Totals:         0       0       0       0       0       0       0       0       0       0       0       0       
      +0       0
  6039 ;;Total ram usage:        0 bytes
  6040 ;; Hardware stack levels used:    1
  6041 ;; Hardware stack levels required when called:   11
  6042 ;; This function calls:
  6043 ;;		_IOCAF5_SetInterruptHandler
  6044 ;; This function is called by:
  6045 ;;		_SYSTEM_Initialize
  6046 ;; This function uses a non-reentrant model
  6047 ;;
  6048                           
  6049                           
  6050                           ;psect for function _PIN_MANAGER_Initialize
  6051  13CD                     _PIN_MANAGER_Initialize:
  6052  13CD                     l6043:	
  6053                           ;incstack = 0
  6054                           ; Regs used in _PIN_MANAGER_Initialize: [wreg+status,2+status,0+pclath+cstack]
  6055                           
  6056                           
  6057                           ;mcc_generated_files/pin_manager.c: 62:     LATA = 0x00;
  6058  13CD  0022               	movlb	2	; select bank2
  6059  13CE  018C               	clrf	12	;volatile
  6060                           
  6061                           ;mcc_generated_files/pin_manager.c: 63:     LATB = 0x00;
  6062  13CF  018D               	clrf	13	;volatile
  6063                           
  6064                           ;mcc_generated_files/pin_manager.c: 64:     LATC = 0x00;
  6065  13D0  018E               	clrf	14	;volatile
  6066  13D1                     l6045:
  6067                           
  6068                           ;mcc_generated_files/pin_manager.c: 69:     TRISA = 0x30;
  6069  13D1  3030               	movlw	48
  6070  13D2  0021               	movlb	1	; select bank1
  6071  13D3  008C               	movwf	12	;volatile
  6072  13D4                     l6047:
  6073                           
  6074                           ;mcc_generated_files/pin_manager.c: 70:     TRISB = 0xF0;
  6075  13D4  30F0               	movlw	240
  6076  13D5  008D               	movwf	13	;volatile
  6077  13D6                     l6049:
  6078                           
  6079                           ;mcc_generated_files/pin_manager.c: 71:     TRISC = 0xFF;
  6080  13D6  30FF               	movlw	255
  6081  13D7  008E               	movwf	14	;volatile
  6082  13D8                     l6051:
  6083                           
  6084                           ;mcc_generated_files/pin_manager.c: 76:     ANSELC = 0xCC;
  6085  13D8  30CC               	movlw	204
  6086  13D9  0023               	movlb	3	; select bank3
  6087  13DA  008E               	movwf	14	;volatile
  6088                           
  6089                           ;mcc_generated_files/pin_manager.c: 77:     ANSELB = 0x00;
  6090  13DB  018D               	clrf	13	;volatile
  6091                           
  6092                           ;mcc_generated_files/pin_manager.c: 78:     ANSELA = 0x00;
  6093  13DC  018C               	clrf	12	;volatile
  6094                           
  6095                           ;mcc_generated_files/pin_manager.c: 83:     WPUB = 0x00;
  6096  13DD  0024               	movlb	4	; select bank4
  6097  13DE  018D               	clrf	13	;volatile
  6098                           
  6099                           ;mcc_generated_files/pin_manager.c: 84:     WPUA = 0x00;
  6100  13DF  018C               	clrf	12	;volatile
  6101  13E0                     l6053:
  6102                           
  6103                           ;mcc_generated_files/pin_manager.c: 85:     OPTION_REGbits.nWPUEN = 1;
  6104  13E0  0021               	movlb	1	; select bank1
  6105  13E1  1795               	bsf	21,7	;volatile
  6106                           
  6107                           ;mcc_generated_files/pin_manager.c: 91:     APFCON = 0x00;
  6108  13E2  0022               	movlb	2	; select bank2
  6109  13E3  019D               	clrf	29	;volatile
  6110  13E4                     l6055:
  6111                           
  6112                           ;mcc_generated_files/pin_manager.c: 97:     IOCAFbits.IOCAF5 = 0;
  6113  13E4  0027               	movlb	7	; select bank7
  6114  13E5  1293               	bcf	19,5	;volatile
  6115  13E6                     l6057:
  6116                           
  6117                           ;mcc_generated_files/pin_manager.c: 99:     IOCANbits.IOCAN5 = 1;
  6118  13E6  1692               	bsf	18,5	;volatile
  6119  13E7                     l6059:
  6120                           
  6121                           ;mcc_generated_files/pin_manager.c: 101:     IOCAPbits.IOCAP5 = 1;
  6122  13E7  1691               	bsf	17,5	;volatile
  6123  13E8                     l6061:
  6124                           
  6125                           ;mcc_generated_files/pin_manager.c: 106:     IOCAF5_SetInterruptHandler(IOCAF5_DefaultIn
      +                          terruptHandler);
  6126  13E8  3000               	movlw	0
  6127  13E9  0021               	movlb	1	; select bank1
  6128  13EA  00A5               	movwf	IOCAF5_SetInterruptHandler@InterruptHandler^(0+128)
  6129  13EB  3000               	movlw	0
  6130  13EC  00A6               	movwf	(IOCAF5_SetInterruptHandler@InterruptHandler^(0+128)+1)
  6131  13ED  3192  22A6  3193   	fcall	_IOCAF5_SetInterruptHandler
  6132  13F0                     l676:
  6133  13F0  0008               	return
  6134  13F1                     __end_of_PIN_MANAGER_Initialize:
  6135                           
  6136                           	psect	text21
  6137  12A6                     __ptext21:	
  6138 ;; *************** function _IOCAF5_SetInterruptHandler *****************
  6139 ;; Defined at:
  6140 ;;		line 138 in file "mcc_generated_files/pin_manager.c"
  6141 ;; Parameters:    Size  Location     Type
  6142 ;;  InterruptHan    2    5[BANK1 ] PTR FTN()void 
  6143 ;;		 -> IOCAF5_DefaultInterruptHandler(1), 
  6144 ;; Auto vars:     Size  Location     Type
  6145 ;;		None
  6146 ;; Return value:  Size  Location     Type
  6147 ;;                  1    wreg      void 
  6148 ;; Registers used:
  6149 ;;		wreg
  6150 ;; Tracked objects:
  6151 ;;		On entry : 0/0
  6152 ;;		On exit  : 0/0
  6153 ;;		Unchanged: 0/0
  6154 ;; Data sizes:     COMMON   BANK0   BANK1   BANK2   BANK3   BANK4   BANK5   BANK6   BANK7   BANK8   BANK9  BANK10  BANK1
      +1  BANK12
  6155 ;;      Params:         0       0       2       0       0       0       0       0       0       0       0       0       
      +0       0
  6156 ;;      Locals:         0       0       0       0       0       0       0       0       0       0       0       0       
      +0       0
  6157 ;;      Temps:          0       0       0       0       0       0       0       0       0       0       0       0       
      +0       0
  6158 ;;      Totals:         0       0       2       0       0       0       0       0       0       0       0       0       
      +0       0
  6159 ;;Total ram usage:        2 bytes
  6160 ;; Hardware stack levels used:    1
  6161 ;; Hardware stack levels required when called:   10
  6162 ;; This function calls:
  6163 ;;		Nothing
  6164 ;; This function is called by:
  6165 ;;		_PIN_MANAGER_Initialize
  6166 ;; This function uses a non-reentrant model
  6167 ;;
  6168                           
  6169                           
  6170                           ;psect for function _IOCAF5_SetInterruptHandler
  6171  12A6                     _IOCAF5_SetInterruptHandler:
  6172  12A6                     l5877:	
  6173                           ;incstack = 0
  6174                           ; Regs used in _IOCAF5_SetInterruptHandler: [wreg]
  6175                           
  6176                           
  6177                           ;mcc_generated_files/pin_manager.c: 139:     IOCAF5_InterruptHandler = InterruptHandler;
  6178  12A6  0021               	movlb	1	; select bank1
  6179  12A7  0826               	movf	(IOCAF5_SetInterruptHandler@InterruptHandler+1)^(0+128),w
  6180  12A8  0024               	movlb	4	; select bank4
  6181  12A9  00E0               	movwf	(_IOCAF5_InterruptHandler+1)^(0+512)
  6182  12AA  0021               	movlb	1	; select bank1
  6183  12AB  0825               	movf	IOCAF5_SetInterruptHandler@InterruptHandler^(0+128),w
  6184  12AC  0024               	movlb	4	; select bank4
  6185  12AD  00DF               	movwf	_IOCAF5_InterruptHandler^(0+512)
  6186  12AE                     l687:
  6187  12AE  0008               	return
  6188  12AF                     __end_of_IOCAF5_SetInterruptHandler:
  6189                           
  6190                           	psect	text22
  6191  12E5                     __ptext22:	
  6192 ;; *************** function _OSCILLATOR_Initialize *****************
  6193 ;; Defined at:
  6194 ;;		line 62 in file "mcc_generated_files/mcc.c"
  6195 ;; Parameters:    Size  Location     Type
  6196 ;;		None
  6197 ;; Auto vars:     Size  Location     Type
  6198 ;;		None
  6199 ;; Return value:  Size  Location     Type
  6200 ;;                  1    wreg      void 
  6201 ;; Registers used:
  6202 ;;		wreg, status,2
  6203 ;; Tracked objects:
  6204 ;;		On entry : 0/0
  6205 ;;		On exit  : 0/0
  6206 ;;		Unchanged: 0/0
  6207 ;; Data sizes:     COMMON   BANK0   BANK1   BANK2   BANK3   BANK4   BANK5   BANK6   BANK7   BANK8   BANK9  BANK10  BANK1
      +1  BANK12
  6208 ;;      Params:         0       0       0       0       0       0       0       0       0       0       0       0       
      +0       0
  6209 ;;      Locals:         0       0       0       0       0       0       0       0       0       0       0       0       
      +0       0
  6210 ;;      Temps:          0       0       0       0       0       0       0       0       0       0       0       0       
      +0       0
  6211 ;;      Totals:         0       0       0       0       0       0       0       0       0       0       0       0       
      +0       0
  6212 ;;Total ram usage:        0 bytes
  6213 ;; Hardware stack levels used:    1
  6214 ;; Hardware stack levels required when called:   10
  6215 ;; This function calls:
  6216 ;;		Nothing
  6217 ;; This function is called by:
  6218 ;;		_SYSTEM_Initialize
  6219 ;; This function uses a non-reentrant model
  6220 ;;
  6221                           
  6222                           
  6223                           ;psect for function _OSCILLATOR_Initialize
  6224  12E5                     _OSCILLATOR_Initialize:
  6225  12E5                     l6063:	
  6226                           ;incstack = 0
  6227                           ; Regs used in _OSCILLATOR_Initialize: [wreg+status,2]
  6228                           
  6229                           
  6230                           ;mcc_generated_files/mcc.c: 65:     OSCCON = 0x7C;
  6231  12E5  307C               	movlw	124
  6232  12E6  0021               	movlb	1	; select bank1
  6233  12E7  0099               	movwf	25	;volatile
  6234  12E8                     l6065:
  6235                           
  6236                           ;mcc_generated_files/mcc.c: 67:     OSCTUNE = 0x00;
  6237  12E8  0198               	clrf	24	;volatile
  6238  12E9                     l6067:
  6239                           
  6240                           ;mcc_generated_files/mcc.c: 69:     ACTCON = 0x00;
  6241  12E9  0027               	movlb	7	; select bank7
  6242  12EA  019B               	clrf	27	;volatile
  6243  12EB                     l6069:
  6244                           
  6245                           ;mcc_generated_files/mcc.c: 71:     BORCON = 0x00;
  6246  12EB  0022               	movlb	2	; select bank2
  6247  12EC  0196               	clrf	22	;volatile
  6248  12ED                     l612:	
  6249                           ;mcc_generated_files/mcc.c: 74:     {;mcc_generated_files/mcc.c: 75:     }
  6250                           
  6251                           
  6252                           ;mcc_generated_files/mcc.c: 73:     while(PLLRDY == 0)
  6253  12ED  0021               	movlb	1	; select bank1
  6254  12EE  1F1A               	btfss	26,6	;volatile
  6255  12EF  2AF1               	goto	u4891
  6256  12F0  2AF2               	goto	u4890
  6257  12F1                     u4891:
  6258  12F1  2AED               	goto	l612
  6259  12F2                     u4890:
  6260  12F2                     l615:
  6261  12F2  0008               	return
  6262  12F3                     __end_of_OSCILLATOR_Initialize:
  6263                           
  6264                           	psect	text23
  6265  129D                     __ptext23:	
  6266 ;; *************** function _ADC_Initialize *****************
  6267 ;; Defined at:
  6268 ;;		line 67 in file "mcc_generated_files/adc.c"
  6269 ;; Parameters:    Size  Location     Type
  6270 ;;		None
  6271 ;; Auto vars:     Size  Location     Type
  6272 ;;		None
  6273 ;; Return value:  Size  Location     Type
  6274 ;;                  1    wreg      void 
  6275 ;; Registers used:
  6276 ;;		wreg, status,2
  6277 ;; Tracked objects:
  6278 ;;		On entry : 0/0
  6279 ;;		On exit  : 0/0
  6280 ;;		Unchanged: 0/0
  6281 ;; Data sizes:     COMMON   BANK0   BANK1   BANK2   BANK3   BANK4   BANK5   BANK6   BANK7   BANK8   BANK9  BANK10  BANK1
      +1  BANK12
  6282 ;;      Params:         0       0       0       0       0       0       0       0       0       0       0       0       
      +0       0
  6283 ;;      Locals:         0       0       0       0       0       0       0       0       0       0       0       0       
      +0       0
  6284 ;;      Temps:          0       0       0       0       0       0       0       0       0       0       0       0       
      +0       0
  6285 ;;      Totals:         0       0       0       0       0       0       0       0       0       0       0       0       
      +0       0
  6286 ;;Total ram usage:        0 bytes
  6287 ;; Hardware stack levels used:    1
  6288 ;; Hardware stack levels required when called:   10
  6289 ;; This function calls:
  6290 ;;		Nothing
  6291 ;; This function is called by:
  6292 ;;		_SYSTEM_Initialize
  6293 ;; This function uses a non-reentrant model
  6294 ;;
  6295                           
  6296                           
  6297                           ;psect for function _ADC_Initialize
  6298  129D                     _ADC_Initialize:
  6299  129D                     l6073:	
  6300                           ;incstack = 0
  6301                           ; Regs used in _ADC_Initialize: [wreg+status,2]
  6302                           
  6303                           
  6304                           ;mcc_generated_files/adc.c: 72:     ADCON1 = 0x90;
  6305  129D  3090               	movlw	144
  6306  129E  0021               	movlb	1	; select bank1
  6307  129F  009E               	movwf	30	;volatile
  6308  12A0                     l6075:
  6309                           
  6310                           ;mcc_generated_files/adc.c: 75:     ADCON2 = 0x00;
  6311  12A0  019F               	clrf	31	;volatile
  6312  12A1                     l6077:
  6313                           
  6314                           ;mcc_generated_files/adc.c: 78:     ADRESL = 0x00;
  6315  12A1  019B               	clrf	27	;volatile
  6316  12A2                     l6079:
  6317                           
  6318                           ;mcc_generated_files/adc.c: 81:     ADRESH = 0x00;
  6319  12A2  019C               	clrf	28	;volatile
  6320  12A3                     l6081:
  6321                           
  6322                           ;mcc_generated_files/adc.c: 84:     ADCON0 = 0x01;
  6323  12A3  3001               	movlw	1
  6324  12A4  009D               	movwf	29	;volatile
  6325  12A5                     l633:
  6326  12A5  0008               	return
  6327  12A6                     __end_of_ADC_Initialize:
  6328                           
  6329                           	psect	text24
  6330  12C1                     __ptext24:	
  6331 ;; *************** function _I2C_Initialize *****************
  6332 ;; Defined at:
  6333 ;;		line 6 in file "24aa32a.c"
  6334 ;; Parameters:    Size  Location     Type
  6335 ;;		None
  6336 ;; Auto vars:     Size  Location     Type
  6337 ;;		None
  6338 ;; Return value:  Size  Location     Type
  6339 ;;                  1    wreg      void 
  6340 ;; Registers used:
  6341 ;;		wreg, status,2
  6342 ;; Tracked objects:
  6343 ;;		On entry : 0/0
  6344 ;;		On exit  : 0/0
  6345 ;;		Unchanged: 0/0
  6346 ;; Data sizes:     COMMON   BANK0   BANK1   BANK2   BANK3   BANK4   BANK5   BANK6   BANK7   BANK8   BANK9  BANK10  BANK1
      +1  BANK12
  6347 ;;      Params:         0       0       0       0       0       0       0       0       0       0       0       0       
      +0       0
  6348 ;;      Locals:         0       0       0       0       0       0       0       0       0       0       0       0       
      +0       0
  6349 ;;      Temps:          0       0       0       0       0       0       0       0       0       0       0       0       
      +0       0
  6350 ;;      Totals:         0       0       0       0       0       0       0       0       0       0       0       0       
      +0       0
  6351 ;;Total ram usage:        0 bytes
  6352 ;; Hardware stack levels used:    1
  6353 ;; Hardware stack levels required when called:   10
  6354 ;; This function calls:
  6355 ;;		Nothing
  6356 ;; This function is called by:
  6357 ;;		_main
  6358 ;; This function uses a non-reentrant model
  6359 ;;
  6360                           
  6361                           
  6362                           ;psect for function _I2C_Initialize
  6363  12C1                     _I2C_Initialize:
  6364  12C1                     l6359:	
  6365                           ;incstack = 0
  6366                           ; Regs used in _I2C_Initialize: [wreg+status,2]
  6367                           
  6368  12C1  0024               	movlb	4	; select bank4
  6369  12C2  0194               	clrf	20	;volatile
  6370  12C3                     l6361:
  6371  12C3  3008               	movlw	8
  6372  12C4  0095               	movwf	21	;volatile
  6373  12C5                     l6363:
  6374  12C5  0196               	clrf	22	;volatile
  6375  12C6  3013               	movlw	19
  6376  12C7  0092               	movwf	18	;volatile
  6377  12C8                     l6365:
  6378  12C8  0020               	movlb	0	; select bank0
  6379  12C9  1191               	bcf	17,3	;volatile
  6380  12CA                     l6367:
  6381  12CA  0024               	movlb	4	; select bank4
  6382  12CB  1695               	bsf	21,5	;volatile
  6383  12CC                     l892:
  6384  12CC  0008               	return
  6385  12CD                     __end_of_I2C_Initialize:
  6386                           
  6387                           	psect	text25
  6388  05E4                     __ptext25:	
  6389 ;; *************** function _CDCTxService *****************
  6390 ;; Defined at:
  6391 ;;		line 854 in file "mcc_generated_files/usb/usb_device_cdc.c"
  6392 ;; Parameters:    Size  Location     Type
  6393 ;;		None
  6394 ;; Auto vars:     Size  Location     Type
  6395 ;;  byte_to_send    1   18[BANK1 ] unsigned char 
  6396 ;;  i               1   17[BANK1 ] unsigned char 
  6397 ;; Return value:  Size  Location     Type
  6398 ;;                  1    wreg      void 
  6399 ;; Registers used:
  6400 ;;		wreg, fsr0l, fsr0h, fsr1l, fsr1h, status,2, status,0, pclath, cstack
  6401 ;; Tracked objects:
  6402 ;;		On entry : 0/0
  6403 ;;		On exit  : 0/0
  6404 ;;		Unchanged: 0/0
  6405 ;; Data sizes:     COMMON   BANK0   BANK1   BANK2   BANK3   BANK4   BANK5   BANK6   BANK7   BANK8   BANK9  BANK10  BANK1
      +1  BANK12
  6406 ;;      Params:         0       0       0       0       0       0       0       0       0       0       0       0       
      +0       0
  6407 ;;      Locals:         0       0       2       0       0       0       0       0       0       0       0       0       
      +0       0
  6408 ;;      Temps:          0       0       1       0       0       0       0       0       0       0       0       0       
      +0       0
  6409 ;;      Totals:         0       0       3       0       0       0       0       0       0       0       0       0       
      +0       0
  6410 ;;Total ram usage:        3 bytes
  6411 ;; Hardware stack levels used:    1
  6412 ;; Hardware stack levels required when called:   11
  6413 ;; This function calls:
  6414 ;;		_USBTransferOnePacket
  6415 ;; This function is called by:
  6416 ;;		_main
  6417 ;;		_MCC_USB_CDC_DemoTasks
  6418 ;; This function uses a non-reentrant model
  6419 ;;
  6420                           
  6421                           
  6422                           ;psect for function _CDCTxService
  6423  05E4                     _CDCTxService:
  6424  05E4                     l6279:	
  6425                           ;incstack = 0
  6426                           ; Regs used in _CDCTxService: [wreg-fsr1h+status,2+status,0+pclath+cstack]
  6427                           
  6428                           
  6429                           ;mcc_generated_files/usb/usb_device_cdc.c: 856:     uint8_t byte_to_send;;mcc_generated_
      +                          files/usb/usb_device_cdc.c: 857:     uint8_t i;;mcc_generated_files/usb/usb_device_cdc.c
      +                          : 859:     {PIE2bits.USBIE = 0;};
  6430  05E4  0021               	movlb	1	; select bank1
  6431  05E5  1112               	bcf	18,2	;volatile
  6432  05E6                     l6281:
  6433                           
  6434                           ;mcc_generated_files/usb/usb_device_cdc.c: 861:     {};;mcc_generated_files/usb/usb_devi
      +                          ce_cdc.c: 863:     if(((CDCDataInHandle != 0x0000) && ((*(volatile uint8_t*)CDCDataInHan
      +                          dle & 0x80) != 0x00)))
  6435  05E6  0023               	movlb	3	; select bank3
  6436  05E7  084C               	movf	_CDCDataInHandle^(0+384),w
  6437  05E8  044D               	iorwf	(_CDCDataInHandle+1)^(0+384),w
  6438  05E9  1903               	btfsc	3,2
  6439  05EA  2DEC               	goto	u5221
  6440  05EB  2DED               	goto	u5220
  6441  05EC                     u5221:
  6442  05EC  2DF8               	goto	l6287
  6443  05ED                     u5220:
  6444  05ED                     l6283:
  6445  05ED  084C               	movf	_CDCDataInHandle^(0+384),w
  6446  05EE  0086               	movwf	6
  6447  05EF  084D               	movf	(_CDCDataInHandle+1)^(0+384),w
  6448  05F0  0087               	movwf	7
  6449  05F1  1F81               	btfss	1,7
  6450  05F2  2DF4               	goto	u5231
  6451  05F3  2DF5               	goto	u5230
  6452  05F4                     u5231:
  6453  05F4  2DF8               	goto	l6287
  6454  05F5                     u5230:
  6455  05F5                     l6285:
  6456                           
  6457                           ;mcc_generated_files/usb/usb_device_cdc.c: 864:     {;mcc_generated_files/usb/usb_device
      +                          _cdc.c: 865:         {PIE2bits.USBIE = 1;};
  6458  05F5  0021               	movlb	1	; select bank1
  6459  05F6  1512               	bsf	18,2	;volatile
  6460                           
  6461                           ;mcc_generated_files/usb/usb_device_cdc.c: 866:         return;
  6462  05F7  2ECD               	goto	l496
  6463  05F8                     l6287:
  6464                           
  6465                           ;mcc_generated_files/usb/usb_device_cdc.c: 874:     if(cdc_trf_state == 3)
  6466  05F8  3003               	movlw	3
  6467  05F9  065B               	xorwf	_cdc_trf_state^(0+384),w
  6468  05FA  1D03               	btfss	3,2
  6469  05FB  2DFD               	goto	u5241
  6470  05FC  2DFE               	goto	u5240
  6471  05FD                     u5241:
  6472  05FD  2DFF               	goto	l6291
  6473  05FE                     u5240:
  6474  05FE                     l6289:
  6475                           
  6476                           ;mcc_generated_files/usb/usb_device_cdc.c: 875:         cdc_trf_state = 0;
  6477  05FE  01DB               	clrf	_cdc_trf_state^(0+384)
  6478  05FF                     l6291:
  6479                           
  6480                           ;mcc_generated_files/usb/usb_device_cdc.c: 880:     if(cdc_trf_state == 0)
  6481  05FF  085B               	movf	_cdc_trf_state^(0+384),w
  6482  0600  1D03               	btfss	3,2
  6483  0601  2E03               	goto	u5251
  6484  0602  2E04               	goto	u5250
  6485  0603                     u5251:
  6486  0603  2E07               	goto	l6295
  6487  0604                     u5250:
  6488  0604                     l6293:
  6489                           
  6490                           ;mcc_generated_files/usb/usb_device_cdc.c: 881:     {;mcc_generated_files/usb/usb_device
      +                          _cdc.c: 882:         {PIE2bits.USBIE = 1;};
  6491  0604  0021               	movlb	1	; select bank1
  6492  0605  1512               	bsf	18,2	;volatile
  6493                           
  6494                           ;mcc_generated_files/usb/usb_device_cdc.c: 883:         return;
  6495  0606  2ECD               	goto	l496
  6496  0607                     l6295:
  6497                           
  6498                           ;mcc_generated_files/usb/usb_device_cdc.c: 889:     if(cdc_trf_state == 2)
  6499  0607  3002               	movlw	2
  6500  0608  065B               	xorwf	_cdc_trf_state^(0+384),w
  6501  0609  1D03               	btfss	3,2
  6502  060A  2E0C               	goto	u5261
  6503  060B  2E0D               	goto	u5260
  6504  060C                     u5261:
  6505  060C  2E28               	goto	l6301
  6506  060D                     u5260:
  6507  060D                     l6297:
  6508                           
  6509                           ;mcc_generated_files/usb/usb_device_cdc.c: 890:     {;mcc_generated_files/usb/usb_device
      +                          _cdc.c: 891:         CDCDataInHandle = USBTransferOnePacket(2,1,((void*)0),0);
  6510  060D  0021               	movlb	1	; select bank1
  6511  060E  01A5               	clrf	USBTransferOnePacket@dir^(0+128)
  6512  060F  0AA5               	incf	USBTransferOnePacket@dir^(0+128),f
  6513  0610  3000               	movlw	0
  6514  0611  00A6               	movwf	USBTransferOnePacket@data^(0+128)
  6515  0612  3000               	movlw	0
  6516  0613  00A7               	movwf	(USBTransferOnePacket@data+1)^(0+128)
  6517  0614  01A8               	clrf	USBTransferOnePacket@len^(0+128)
  6518  0615  3002               	movlw	2
  6519  0616  318A  22FA  3185   	fcall	_USBTransferOnePacket
  6520  0619  0021               	movlb	1	; select bank1
  6521  061A  0826               	movf	(?_USBTransferOnePacket+1)^(0+128),w
  6522  061B  0023               	movlb	3	; select bank3
  6523  061C  00CD               	movwf	(_CDCDataInHandle+1)^(0+384)
  6524  061D  0021               	movlb	1	; select bank1
  6525  061E  0825               	movf	?_USBTransferOnePacket^(0+128),w
  6526  061F  0023               	movlb	3	; select bank3
  6527  0620  00CC               	movwf	_CDCDataInHandle^(0+384)
  6528  0621                     l6299:
  6529                           
  6530                           ;mcc_generated_files/usb/usb_device_cdc.c: 893:         cdc_trf_state = 3;
  6531  0621  3003               	movlw	3
  6532  0622  0021               	movlb	1	; select bank1
  6533  0623  00B0               	movwf	??_CDCTxService^(0+128)
  6534  0624  0830               	movf	??_CDCTxService^(0+128),w
  6535  0625  0023               	movlb	3	; select bank3
  6536  0626  00DB               	movwf	_cdc_trf_state^(0+384)
  6537                           
  6538                           ;mcc_generated_files/usb/usb_device_cdc.c: 894:     }
  6539  0627  2ECB               	goto	l6347
  6540  0628                     l6301:
  6541  0628  035B               	decf	_cdc_trf_state^(0+384),w
  6542  0629  1D03               	btfss	3,2
  6543  062A  2E2C               	goto	u5271
  6544  062B  2E2D               	goto	u5270
  6545  062C                     u5271:
  6546  062C  2ECB               	goto	l6347
  6547  062D                     u5270:
  6548  062D                     l6303:
  6549                           
  6550                           ;mcc_generated_files/usb/usb_device_cdc.c: 896:     {;mcc_generated_files/usb/usb_device
      +                          _cdc.c: 900:      if(cdc_tx_len > sizeof(cdc_data_tx))
  6551  062D  3041               	movlw	65
  6552  062E  025A               	subwf	_cdc_tx_len^(0+384),w
  6553  062F  1C03               	skipc
  6554  0630  2E32               	goto	u5281
  6555  0631  2E33               	goto	u5280
  6556  0632                     u5281:
  6557  0632  2E39               	goto	l6307
  6558  0633                     u5280:
  6559  0633                     l6305:
  6560                           
  6561                           ;mcc_generated_files/usb/usb_device_cdc.c: 901:          byte_to_send = sizeof(cdc_data_
      +                          tx);
  6562  0633  3040               	movlw	64
  6563  0634  0021               	movlb	1	; select bank1
  6564  0635  00B0               	movwf	??_CDCTxService^(0+128)
  6565  0636  0830               	movf	??_CDCTxService^(0+128),w
  6566  0637  00B2               	movwf	CDCTxService@byte_to_send^(0+128)
  6567  0638  2E3E               	goto	l6309
  6568  0639                     l6307:
  6569                           
  6570                           ;mcc_generated_files/usb/usb_device_cdc.c: 903:          byte_to_send = cdc_tx_len;
  6571  0639  085A               	movf	_cdc_tx_len^(0+384),w
  6572  063A  0021               	movlb	1	; select bank1
  6573  063B  00B0               	movwf	??_CDCTxService^(0+128)
  6574  063C  0830               	movf	??_CDCTxService^(0+128),w
  6575  063D  00B2               	movwf	CDCTxService@byte_to_send^(0+128)
  6576  063E                     l6309:
  6577                           
  6578                           ;mcc_generated_files/usb/usb_device_cdc.c: 908:      cdc_tx_len = cdc_tx_len - byte_to_s
      +                          end;
  6579  063E  0832               	movf	CDCTxService@byte_to_send^(0+128),w
  6580  063F  0023               	movlb	3	; select bank3
  6581  0640  025A               	subwf	_cdc_tx_len^(0+384),w
  6582  0641  0021               	movlb	1	; select bank1
  6583  0642  00B0               	movwf	??_CDCTxService^(0+128)
  6584  0643  0830               	movf	??_CDCTxService^(0+128),w
  6585  0644  0023               	movlb	3	; select bank3
  6586  0645  00DA               	movwf	_cdc_tx_len^(0+384)
  6587  0646                     l6311:
  6588                           
  6589                           ;mcc_generated_files/usb/usb_device_cdc.c: 910:         pCDCDst.bRam = (uint8_t*)&cdc_da
      +                          ta_tx;
  6590  0646  3020               	movlw	32
  6591  0647  0024               	movlb	4	; select bank4
  6592  0648  00C3               	movwf	(_pCDCDst+1)^(0+512)
  6593  0649  3080               	movlw	128
  6594  064A  00C2               	movwf	_pCDCDst^(0+512)
  6595  064B                     l6313:
  6596                           
  6597                           ;mcc_generated_files/usb/usb_device_cdc.c: 912:         i = byte_to_send;
  6598  064B  0021               	movlb	1	; select bank1
  6599  064C  0832               	movf	CDCTxService@byte_to_send^(0+128),w
  6600  064D  00B0               	movwf	??_CDCTxService^(0+128)
  6601  064E  0830               	movf	??_CDCTxService^(0+128),w
  6602  064F  00B1               	movwf	CDCTxService@i^(0+128)
  6603                           
  6604                           ;mcc_generated_files/usb/usb_device_cdc.c: 913:         if(cdc_mem_type == 0x00)
  6605  0650  0023               	movlb	3	; select bank3
  6606  0651  0859               	movf	_cdc_mem_type^(0+384),w
  6607  0652  1D03               	btfss	3,2
  6608  0653  2E55               	goto	u5291
  6609  0654  2E56               	goto	u5290
  6610  0655                     u5291:
  6611  0655  2E96               	goto	l6335
  6612  0656                     u5290:
  6613  0656  2E73               	goto	l6325
  6614  0657                     l6317:
  6615                           
  6616                           ;mcc_generated_files/usb/usb_device_cdc.c: 916:             {;mcc_generated_files/usb/us
      +                          b_device_cdc.c: 917:                 *pCDCDst.bRam = *pCDCSrc.bRom;
  6617  0657  0024               	movlb	4	; select bank4
  6618  0658  0844               	movf	_pCDCSrc^(0+512),w
  6619  0659  0084               	movwf	4
  6620  065A  0845               	movf	(_pCDCSrc+1)^(0+512),w
  6621  065B  0085               	movwf	5
  6622  065C  0800               	movf	0,w	;code access
  6623  065D  0021               	movlb	1	; select bank1
  6624  065E  00B0               	movwf	??_CDCTxService^(0+128)
  6625  065F  0024               	movlb	4	; select bank4
  6626  0660  0842               	movf	_pCDCDst^(0+512),w
  6627  0661  0086               	movwf	6
  6628  0662  0843               	movf	(_pCDCDst+1)^(0+512),w
  6629  0663  0087               	movwf	7
  6630  0664  0021               	movlb	1	; select bank1
  6631  0665  0830               	movf	??_CDCTxService^(0+128),w
  6632  0666  0081               	movwf	1
  6633  0667                     l6319:
  6634                           
  6635                           ;mcc_generated_files/usb/usb_device_cdc.c: 918:                 pCDCDst.bRam++;
  6636  0667  3001               	movlw	1
  6637  0668  0024               	movlb	4	; select bank4
  6638  0669  07C2               	addwf	_pCDCDst^(0+512),f
  6639  066A  3000               	movlw	0
  6640  066B  3DC3               	addwfc	(_pCDCDst+1)^(0+512),f
  6641  066C                     l6321:
  6642                           
  6643                           ;mcc_generated_files/usb/usb_device_cdc.c: 919:                 pCDCSrc.bRom++;
  6644  066C  3001               	movlw	1
  6645  066D  07C4               	addwf	_pCDCSrc^(0+512),f
  6646  066E  3000               	movlw	0
  6647  066F  3DC5               	addwfc	(_pCDCSrc+1)^(0+512),f
  6648  0670                     l6323:
  6649                           
  6650                           ;mcc_generated_files/usb/usb_device_cdc.c: 920:                 i--;
  6651  0670  3001               	movlw	1
  6652  0671  0021               	movlb	1	; select bank1
  6653  0672  02B1               	subwf	CDCTxService@i^(0+128),f
  6654  0673                     l6325:
  6655                           
  6656                           ;mcc_generated_files/usb/usb_device_cdc.c: 915:             while(i)
  6657  0673  0021               	movlb	1	; select bank1
  6658  0674  0831               	movf	CDCTxService@i^(0+128),w
  6659  0675  1D03               	btfss	3,2
  6660  0676  2E78               	goto	u5301
  6661  0677  2E79               	goto	u5300
  6662  0678                     u5301:
  6663  0678  2E57               	goto	l6317
  6664  0679                     u5300:
  6665  0679  2E9C               	goto	l6337
  6666  067A                     l6327:
  6667                           
  6668                           ;mcc_generated_files/usb/usb_device_cdc.c: 926:             {;mcc_generated_files/usb/us
      +                          b_device_cdc.c: 927:                 *pCDCDst.bRam = *pCDCSrc.bRam;
  6669  067A  0024               	movlb	4	; select bank4
  6670  067B  0844               	movf	_pCDCSrc^(0+512),w
  6671  067C  0084               	movwf	4
  6672  067D  0845               	movf	(_pCDCSrc+1)^(0+512),w
  6673  067E  0085               	movwf	5
  6674  067F  0800               	movf	0,w	;code access
  6675  0680  0021               	movlb	1	; select bank1
  6676  0681  00B0               	movwf	??_CDCTxService^(0+128)
  6677  0682  0024               	movlb	4	; select bank4
  6678  0683  0842               	movf	_pCDCDst^(0+512),w
  6679  0684  0086               	movwf	6
  6680  0685  0843               	movf	(_pCDCDst+1)^(0+512),w
  6681  0686  0087               	movwf	7
  6682  0687  0021               	movlb	1	; select bank1
  6683  0688  0830               	movf	??_CDCTxService^(0+128),w
  6684  0689  0081               	movwf	1
  6685  068A                     l6329:
  6686                           
  6687                           ;mcc_generated_files/usb/usb_device_cdc.c: 928:                 pCDCDst.bRam++;
  6688  068A  3001               	movlw	1
  6689  068B  0024               	movlb	4	; select bank4
  6690  068C  07C2               	addwf	_pCDCDst^(0+512),f
  6691  068D  3000               	movlw	0
  6692  068E  3DC3               	addwfc	(_pCDCDst+1)^(0+512),f
  6693  068F                     l6331:
  6694                           
  6695                           ;mcc_generated_files/usb/usb_device_cdc.c: 929:                 pCDCSrc.bRam++;
  6696  068F  3001               	movlw	1
  6697  0690  07C4               	addwf	_pCDCSrc^(0+512),f
  6698  0691  3000               	movlw	0
  6699  0692  3DC5               	addwfc	(_pCDCSrc+1)^(0+512),f
  6700  0693                     l6333:
  6701                           
  6702                           ;mcc_generated_files/usb/usb_device_cdc.c: 930:                 i--;
  6703  0693  3001               	movlw	1
  6704  0694  0021               	movlb	1	; select bank1
  6705  0695  02B1               	subwf	CDCTxService@i^(0+128),f
  6706  0696                     l6335:
  6707                           
  6708                           ;mcc_generated_files/usb/usb_device_cdc.c: 925:             while(i)
  6709  0696  0021               	movlb	1	; select bank1
  6710  0697  0831               	movf	CDCTxService@i^(0+128),w
  6711  0698  1D03               	btfss	3,2
  6712  0699  2E9B               	goto	u5311
  6713  069A  2E9C               	goto	u5310
  6714  069B                     u5311:
  6715  069B  2E7A               	goto	l6327
  6716  069C                     u5310:
  6717  069C                     l6337:
  6718                           
  6719                           ;mcc_generated_files/usb/usb_device_cdc.c: 938:         if(cdc_tx_len == 0)
  6720  069C  0023               	movlb	3	; select bank3
  6721  069D  085A               	movf	_cdc_tx_len^(0+384),w
  6722  069E  1D03               	btfss	3,2
  6723  069F  2EA1               	goto	u5321
  6724  06A0  2EA2               	goto	u5320
  6725  06A1                     u5321:
  6726  06A1  2EB4               	goto	l6345
  6727  06A2                     u5320:
  6728  06A2                     l6339:
  6729                           
  6730                           ;mcc_generated_files/usb/usb_device_cdc.c: 939:         {;mcc_generated_files/usb/usb_de
      +                          vice_cdc.c: 940:             if(byte_to_send == 64)
  6731  06A2  3040               	movlw	64
  6732  06A3  0021               	movlb	1	; select bank1
  6733  06A4  0632               	xorwf	CDCTxService@byte_to_send^(0+128),w
  6734  06A5  1D03               	btfss	3,2
  6735  06A6  2EA8               	goto	u5331
  6736  06A7  2EA9               	goto	u5330
  6737  06A8                     u5331:
  6738  06A8  2EAF               	goto	l6343
  6739  06A9                     u5330:
  6740  06A9                     l6341:
  6741                           
  6742                           ;mcc_generated_files/usb/usb_device_cdc.c: 941:                 cdc_trf_state = 2;
  6743  06A9  3002               	movlw	2
  6744  06AA  00B0               	movwf	??_CDCTxService^(0+128)
  6745  06AB  0830               	movf	??_CDCTxService^(0+128),w
  6746  06AC  0023               	movlb	3	; select bank3
  6747  06AD  00DB               	movwf	_cdc_trf_state^(0+384)
  6748  06AE  2EB4               	goto	l6345
  6749  06AF                     l6343:
  6750                           
  6751                           ;mcc_generated_files/usb/usb_device_cdc.c: 943:                 cdc_trf_state = 3;
  6752  06AF  3003               	movlw	3
  6753  06B0  00B0               	movwf	??_CDCTxService^(0+128)
  6754  06B1  0830               	movf	??_CDCTxService^(0+128),w
  6755  06B2  0023               	movlb	3	; select bank3
  6756  06B3  00DB               	movwf	_cdc_trf_state^(0+384)
  6757  06B4                     l6345:
  6758                           
  6759                           ;mcc_generated_files/usb/usb_device_cdc.c: 945:         CDCDataInHandle = USBTransferOne
      +                          Packet(2,1,(uint8_t*)&cdc_data_tx,byte_to_send);
  6760  06B4  0021               	movlb	1	; select bank1
  6761  06B5  01A5               	clrf	USBTransferOnePacket@dir^(0+128)
  6762  06B6  0AA5               	incf	USBTransferOnePacket@dir^(0+128),f
  6763  06B7  3080               	movlw	128
  6764  06B8  00A6               	movwf	USBTransferOnePacket@data^(0+128)
  6765  06B9  3020               	movlw	32
  6766  06BA  00A7               	movwf	(USBTransferOnePacket@data^(0+128)+1)
  6767  06BB  0832               	movf	CDCTxService@byte_to_send^(0+128),w
  6768  06BC  00B0               	movwf	??_CDCTxService^(0+128)
  6769  06BD  0830               	movf	??_CDCTxService^(0+128),w
  6770  06BE  00A8               	movwf	USBTransferOnePacket@len^(0+128)
  6771  06BF  3002               	movlw	2
  6772  06C0  318A  22FA  3185   	fcall	_USBTransferOnePacket
  6773  06C3  0021               	movlb	1	; select bank1
  6774  06C4  0826               	movf	(?_USBTransferOnePacket+1)^(0+128),w
  6775  06C5  0023               	movlb	3	; select bank3
  6776  06C6  00CD               	movwf	(_CDCDataInHandle+1)^(0+384)
  6777  06C7  0021               	movlb	1	; select bank1
  6778  06C8  0825               	movf	?_USBTransferOnePacket^(0+128),w
  6779  06C9  0023               	movlb	3	; select bank3
  6780  06CA  00CC               	movwf	_CDCDataInHandle^(0+384)
  6781  06CB                     l6347:
  6782                           
  6783                           ;mcc_generated_files/usb/usb_device_cdc.c: 949:     {PIE2bits.USBIE = 1;};
  6784  06CB  0021               	movlb	1	; select bank1
  6785  06CC  1512               	bsf	18,2	;volatile
  6786  06CD                     l496:
  6787  06CD  0008               	return
  6788  06CE                     __end_of_CDCTxService:
  6789                           
  6790                           	psect	text26
  6791  0AFA                     __ptext26:	
  6792 ;; *************** function _USBTransferOnePacket *****************
  6793 ;; Defined at:
  6794 ;;		line 999 in file "mcc_generated_files/usb/usb_device.c"
  6795 ;; Parameters:    Size  Location     Type
  6796 ;;  ep              1    wreg     unsigned char 
  6797 ;;  dir             1    5[BANK1 ] unsigned char 
  6798 ;;  data            2    6[BANK1 ] PTR unsigned char 
  6799 ;;		 -> cdc_data_tx(64), cdc_data_rx(64), NULL(0), 
  6800 ;;  len             1    8[BANK1 ] unsigned char 
  6801 ;; Auto vars:     Size  Location     Type
  6802 ;;  ep              1   13[BANK1 ] unsigned char 
  6803 ;;  handle          2   14[BANK1 ] PTR volatile struct __BD
  6804 ;;		 -> RAM(4096), NULL(0), BDT(48), 
  6805 ;; Return value:  Size  Location     Type
  6806 ;;                  2    5[BANK1 ] PTR void 
  6807 ;; Registers used:
  6808 ;;		wreg, fsr1l, fsr1h, status,2, status,0
  6809 ;; Tracked objects:
  6810 ;;		On entry : 0/0
  6811 ;;		On exit  : 0/0
  6812 ;;		Unchanged: 0/0
  6813 ;; Data sizes:     COMMON   BANK0   BANK1   BANK2   BANK3   BANK4   BANK5   BANK6   BANK7   BANK8   BANK9  BANK10  BANK1
      +1  BANK12
  6814 ;;      Params:         0       0       4       0       0       0       0       0       0       0       0       0       
      +0       0
  6815 ;;      Locals:         0       0       3       0       0       0       0       0       0       0       0       0       
      +0       0
  6816 ;;      Temps:          0       0       4       0       0       0       0       0       0       0       0       0       
      +0       0
  6817 ;;      Totals:         0       0      11       0       0       0       0       0       0       0       0       0       
      +0       0
  6818 ;;Total ram usage:       11 bytes
  6819 ;; Hardware stack levels used:    1
  6820 ;; Hardware stack levels required when called:   10
  6821 ;; This function calls:
  6822 ;;		Nothing
  6823 ;; This function is called by:
  6824 ;;		_getsUSBUSART
  6825 ;;		_CDCTxService
  6826 ;;		_USBCDCEventHandler
  6827 ;; This function uses a non-reentrant model
  6828 ;;
  6829                           
  6830                           
  6831                           ;psect for function _USBTransferOnePacket
  6832  0AFA                     _USBTransferOnePacket:
  6833                           
  6834                           ;incstack = 0
  6835                           ; Regs used in _USBTransferOnePacket: [wreg+fsr1l+fsr1h+status,2+status,0]
  6836                           ;USBTransferOnePacket@ep stored from wreg
  6837  0AFA  0021               	movlb	1	; select bank1
  6838  0AFB  00AD               	movwf	USBTransferOnePacket@ep^(0+128)
  6839  0AFC                     l6001:
  6840                           
  6841                           ;mcc_generated_files/usb/usb_device.c: 999: void* USBTransferOnePacket(uint8_t ep,uint8_
      +                          t dir,uint8_t* data,uint8_t len);mcc_generated_files/usb/usb_device.c: 1000: {;mcc_gener
      +                          ated_files/usb/usb_device.c: 1001:     volatile BDT_ENTRY* handle;;mcc_generated_files/u
      +                          sb/usb_device.c: 1004:     if(dir != 0)
  6842  0AFC  0825               	movf	USBTransferOnePacket@dir^(0+128),w
  6843  0AFD  1903               	btfsc	3,2
  6844  0AFE  2B00               	goto	u4841
  6845  0AFF  2B01               	goto	u4840
  6846  0B00                     u4841:
  6847  0B00  2B0B               	goto	l6005
  6848  0B01                     u4840:
  6849  0B01                     l6003:
  6850                           
  6851                           ;mcc_generated_files/usb/usb_device.c: 1005:     {;mcc_generated_files/usb/usb_device.c:
      +                           1007:         handle = pBDTEntryIn[ep];
  6852  0B01  352D               	lslf	USBTransferOnePacket@ep^(0+128),w
  6853  0B02  3EB7               	addlw	(low (_pBDTEntryIn| (0+256)))& (0+255)
  6854  0B03  0086               	movwf	6
  6855  0B04  3001               	movlw	1	; select bank3/4
  6856  0B05  0087               	movwf	7
  6857  0B06  3F40               	moviw [0]fsr1
  6858  0B07  00AE               	movwf	USBTransferOnePacket@handle^(0+128)
  6859  0B08  3F41               	moviw [1]fsr1
  6860  0B09  00AF               	movwf	(USBTransferOnePacket@handle+1)^(0+128)
  6861                           
  6862                           ;mcc_generated_files/usb/usb_device.c: 1008:     }
  6863  0B0A  2B14               	goto	l6007
  6864  0B0B                     l6005:
  6865                           
  6866                           ;mcc_generated_files/usb/usb_device.c: 1010:     {;mcc_generated_files/usb/usb_device.c:
      +                           1012:         handle = pBDTEntryOut[ep];
  6867  0B0B  352D               	lslf	USBTransferOnePacket@ep^(0+128),w
  6868  0B0C  3E2A               	addlw	(low (_pBDTEntryOut| (0+512)))& (0+255)
  6869  0B0D  0086               	movwf	6
  6870  0B0E  3002               	movlw	2	; select bank4/5
  6871  0B0F  0087               	movwf	7
  6872  0B10  3F40               	moviw [0]fsr1
  6873  0B11  00AE               	movwf	USBTransferOnePacket@handle^(0+128)
  6874  0B12  3F41               	moviw [1]fsr1
  6875  0B13  00AF               	movwf	(USBTransferOnePacket@handle+1)^(0+128)
  6876  0B14                     l6007:
  6877                           
  6878                           ;mcc_generated_files/usb/usb_device.c: 1017:     if(handle == 0)
  6879  0B14  082E               	movf	USBTransferOnePacket@handle^(0+128),w
  6880  0B15  042F               	iorwf	(USBTransferOnePacket@handle+1)^(0+128),w
  6881  0B16  1D03               	btfss	3,2
  6882  0B17  2B19               	goto	u4851
  6883  0B18  2B1A               	goto	u4850
  6884  0B19                     u4851:
  6885  0B19  2B1D               	goto	l6013
  6886  0B1A                     u4850:
  6887  0B1A                     l6009:
  6888                           
  6889                           ;mcc_generated_files/usb/usb_device.c: 1018:     {;mcc_generated_files/usb/usb_device.c:
      +                           1019:         return 0;
  6890  0B1A  01A5               	clrf	?_USBTransferOnePacket^(0+128)
  6891  0B1B  01A6               	clrf	(?_USBTransferOnePacket+1)^(0+128)
  6892  0B1C  2B84               	goto	l177
  6893  0B1D                     l6013:
  6894                           
  6895                           ;mcc_generated_files/usb/usb_device.c: 1033:     handle->ADR = (((uint16_t)(data)) & 0x7
      +                          FFF);
  6896  0B1D  30FF               	movlw	255
  6897  0B1E  0526               	andwf	USBTransferOnePacket@data^(0+128),w
  6898  0B1F  00A9               	movwf	??_USBTransferOnePacket^(0+128)
  6899  0B20  307F               	movlw	127
  6900  0B21  0527               	andwf	(USBTransferOnePacket@data+1)^(0+128),w
  6901  0B22  00AA               	movwf	(??_USBTransferOnePacket+1)^(0+128)
  6902  0B23  082E               	movf	USBTransferOnePacket@handle^(0+128),w
  6903  0B24  0086               	movwf	6
  6904  0B25  082F               	movf	(USBTransferOnePacket@handle+1)^(0+128),w
  6905  0B26  0087               	movwf	7
  6906  0B27  3142               	addfsr 1,2
  6907  0B28  0829               	movf	??_USBTransferOnePacket^(0+128),w
  6908  0B29  3FC0               	movwi [0]fsr1
  6909  0B2A  082A               	movf	(??_USBTransferOnePacket^(0+128)+1),w
  6910  0B2B  3FC1               	movwi [1]fsr1
  6911  0B2C                     l6015:
  6912                           
  6913                           ;mcc_generated_files/usb/usb_device.c: 1034:     handle->CNT = len;
  6914  0B2C  082E               	movf	USBTransferOnePacket@handle^(0+128),w
  6915  0B2D  3E01               	addlw	1
  6916  0B2E  00A9               	movwf	??_USBTransferOnePacket^(0+128)
  6917  0B2F  3000               	movlw	0
  6918  0B30  3D2F               	addwfc	(USBTransferOnePacket@handle+1)^(0+128),w
  6919  0B31  00AA               	movwf	(??_USBTransferOnePacket+1)^(0+128)
  6920  0B32  0829               	movf	??_USBTransferOnePacket^(0+128),w
  6921  0B33  0086               	movwf	6
  6922  0B34  082A               	movf	(??_USBTransferOnePacket+1)^(0+128),w
  6923  0B35  0087               	movwf	7
  6924  0B36  0828               	movf	USBTransferOnePacket@len^(0+128),w
  6925  0B37  0081               	movwf	1
  6926  0B38                     l6017:
  6927                           
  6928                           ;mcc_generated_files/usb/usb_device.c: 1035:     handle->STAT.Val &= 0x40;
  6929  0B38  3040               	movlw	64
  6930  0B39  00A9               	movwf	??_USBTransferOnePacket^(0+128)
  6931  0B3A  082E               	movf	USBTransferOnePacket@handle^(0+128),w
  6932  0B3B  0086               	movwf	6
  6933  0B3C  082F               	movf	(USBTransferOnePacket@handle+1)^(0+128),w
  6934  0B3D  0087               	movwf	7
  6935  0B3E  0829               	movf	??_USBTransferOnePacket^(0+128),w
  6936  0B3F  0581               	andwf	1,f
  6937                           
  6938                           ;mcc_generated_files/usb/usb_device.c: 1036:     handle->STAT.Val |= (0x08 & 0x08);
  6939  0B40  082E               	movf	USBTransferOnePacket@handle^(0+128),w
  6940  0B41  0086               	movwf	6
  6941  0B42  082F               	movf	(USBTransferOnePacket@handle+1)^(0+128),w
  6942  0B43  0087               	movwf	7
  6943  0B44  1581               	bsf	1,3
  6944                           
  6945                           ;mcc_generated_files/usb/usb_device.c: 1037:     handle->STAT.Val |= 0x80;
  6946  0B45  082E               	movf	USBTransferOnePacket@handle^(0+128),w
  6947  0B46  0086               	movwf	6
  6948  0B47  082F               	movf	(USBTransferOnePacket@handle+1)^(0+128),w
  6949  0B48  0087               	movwf	7
  6950  0B49  1781               	bsf	1,7
  6951  0B4A                     l6019:
  6952                           
  6953                           ;mcc_generated_files/usb/usb_device.c: 1040:     if(dir != 0)
  6954  0B4A  0825               	movf	USBTransferOnePacket@dir^(0+128),w
  6955  0B4B  1903               	btfsc	3,2
  6956  0B4C  2B4E               	goto	u4861
  6957  0B4D  2B4F               	goto	u4860
  6958  0B4E                     u4861:
  6959  0B4E  2B68               	goto	l6023
  6960  0B4F                     u4860:
  6961  0B4F                     l6021:
  6962                           
  6963                           ;mcc_generated_files/usb/usb_device.c: 1041:     {;mcc_generated_files/usb/usb_device.c:
      +                           1043:         pBDTEntryIn[ep] = (BDT_ENTRY*)(((uint16_t)pBDTEntryIn[ep]) ^ 0x0004);
  6964  0B4F  352D               	lslf	USBTransferOnePacket@ep^(0+128),w
  6965  0B50  3EB7               	addlw	(low (_pBDTEntryIn| (0+256)))& (0+255)
  6966  0B51  0086               	movwf	6
  6967  0B52  3001               	movlw	1	; select bank3/4
  6968  0B53  0087               	movwf	7
  6969  0B54  3F40               	moviw [0]fsr1
  6970  0B55  00A9               	movwf	??_USBTransferOnePacket^(0+128)
  6971  0B56  3F41               	moviw [1]fsr1
  6972  0B57  00AA               	movwf	(??_USBTransferOnePacket^(0+128)+1)
  6973  0B58  3004               	movlw	4
  6974  0B59  0629               	xorwf	??_USBTransferOnePacket^(0+128),w
  6975  0B5A  00AB               	movwf	(??_USBTransferOnePacket+2)^(0+128)
  6976  0B5B  3000               	movlw	0
  6977  0B5C  062A               	xorwf	(??_USBTransferOnePacket+1)^(0+128),w
  6978  0B5D  00AC               	movwf	(??_USBTransferOnePacket+3)^(0+128)
  6979  0B5E  352D               	lslf	USBTransferOnePacket@ep^(0+128),w
  6980  0B5F  3EB7               	addlw	(low (_pBDTEntryIn| (0+256)))& (0+255)
  6981  0B60  0086               	movwf	6
  6982  0B61  3001               	movlw	1	; select bank3/4
  6983  0B62  0087               	movwf	7
  6984  0B63  082B               	movf	(??_USBTransferOnePacket+2)^(0+128),w
  6985  0B64  3FC0               	movwi [0]fsr1
  6986  0B65  082C               	movf	(??_USBTransferOnePacket+3)^(0+128),w
  6987  0B66  3FC1               	movwi [1]fsr1
  6988                           
  6989                           ;mcc_generated_files/usb/usb_device.c: 1044:     }
  6990  0B67  2B80               	goto	l6025
  6991  0B68                     l6023:
  6992                           
  6993                           ;mcc_generated_files/usb/usb_device.c: 1046:     {;mcc_generated_files/usb/usb_device.c:
      +                           1048:         pBDTEntryOut[ep] = (BDT_ENTRY*)(((uint16_t)pBDTEntryOut[ep]) ^ 0x0004);
  6994  0B68  352D               	lslf	USBTransferOnePacket@ep^(0+128),w
  6995  0B69  3E2A               	addlw	(low (_pBDTEntryOut| (0+512)))& (0+255)
  6996  0B6A  0086               	movwf	6
  6997  0B6B  3002               	movlw	2	; select bank4/5
  6998  0B6C  0087               	movwf	7
  6999  0B6D  3F40               	moviw [0]fsr1
  7000  0B6E  00A9               	movwf	??_USBTransferOnePacket^(0+128)
  7001  0B6F  3F41               	moviw [1]fsr1
  7002  0B70  00AA               	movwf	(??_USBTransferOnePacket^(0+128)+1)
  7003  0B71  3004               	movlw	4
  7004  0B72  0629               	xorwf	??_USBTransferOnePacket^(0+128),w
  7005  0B73  00AB               	movwf	(??_USBTransferOnePacket+2)^(0+128)
  7006  0B74  3000               	movlw	0
  7007  0B75  062A               	xorwf	(??_USBTransferOnePacket+1)^(0+128),w
  7008  0B76  00AC               	movwf	(??_USBTransferOnePacket+3)^(0+128)
  7009  0B77  352D               	lslf	USBTransferOnePacket@ep^(0+128),w
  7010  0B78  3E2A               	addlw	(low (_pBDTEntryOut| (0+512)))& (0+255)
  7011  0B79  0086               	movwf	6
  7012  0B7A  3002               	movlw	2	; select bank4/5
  7013  0B7B  0087               	movwf	7
  7014  0B7C  082B               	movf	(??_USBTransferOnePacket+2)^(0+128),w
  7015  0B7D  3FC0               	movwi [0]fsr1
  7016  0B7E  082C               	movf	(??_USBTransferOnePacket+3)^(0+128),w
  7017  0B7F  3FC1               	movwi [1]fsr1
  7018  0B80                     l6025:
  7019                           
  7020                           ;mcc_generated_files/usb/usb_device.c: 1050:     return (void*)handle;
  7021  0B80  082F               	movf	(USBTransferOnePacket@handle+1)^(0+128),w
  7022  0B81  00A6               	movwf	(?_USBTransferOnePacket+1)^(0+128)
  7023  0B82  082E               	movf	USBTransferOnePacket@handle^(0+128),w
  7024  0B83  00A5               	movwf	?_USBTransferOnePacket^(0+128)
  7025  0B84                     l177:
  7026  0B84  0008               	return
  7027  0B85                     __end_of_USBTransferOnePacket:
  7028                           
  7029                           	psect	intentry
  7030  0004                     __pintentry:	
  7031 ;; *************** function _INTERRUPT_InterruptManager *****************
  7032 ;; Defined at:
  7033 ;;		line 52 in file "mcc_generated_files/interrupt_manager.c"
  7034 ;; Parameters:    Size  Location     Type
  7035 ;;		None
  7036 ;; Auto vars:     Size  Location     Type
  7037 ;;		None
  7038 ;; Return value:  Size  Location     Type
  7039 ;;                  1    wreg      void 
  7040 ;; Registers used:
  7041 ;;		wreg, fsr0l, fsr0h, fsr1l, fsr1h, status,2, status,0, pclath, cstack
  7042 ;; Tracked objects:
  7043 ;;		On entry : 0/0
  7044 ;;		On exit  : 0/0
  7045 ;;		Unchanged: 0/0
  7046 ;; Data sizes:     COMMON   BANK0   BANK1   BANK2   BANK3   BANK4   BANK5   BANK6   BANK7   BANK8   BANK9  BANK10  BANK1
      +1  BANK12
  7047 ;;      Params:         0       0       0       0       0       0       0       0       0       0       0       0       
      +0       0
  7048 ;;      Locals:         0       0       0       0       0       0       0       0       0       0       0       0       
      +0       0
  7049 ;;      Temps:          0       0       0       0       0       0       0       0       0       0       0       0       
      +0       0
  7050 ;;      Totals:         0       0       0       0       0       0       0       0       0       0       0       0       
      +0       0
  7051 ;;Total ram usage:        0 bytes
  7052 ;; Hardware stack levels used:    1
  7053 ;; Hardware stack levels required when called:    9
  7054 ;; This function calls:
  7055 ;;		_TMR0_ISR
  7056 ;;		_USBDeviceTasks
  7057 ;; This function is called by:
  7058 ;;		Interrupt level 1
  7059 ;; This function uses a non-reentrant model
  7060 ;;
  7061                           
  7062  0004                     _INTERRUPT_InterruptManager:
  7063                           
  7064                           ;incstack = 0
  7065  0004  147E               	bsf	int$flags,0	;set compiler interrupt flag (level 1)
  7066                           
  7067                           ; Regs used in _INTERRUPT_InterruptManager: [wreg-fsr1h+status,2+status,0+pclath+cstack]
  7068  0005  3180               	pagesel	$
  7069  0006                     i1l6531:
  7070                           
  7071                           ;mcc_generated_files/interrupt_manager.c: 55:     if(INTCONbits.TMR0IE == 1 && INTCONbit
      +                          s.TMR0IF == 1)
  7072  0006  1E8B               	btfss	11,5	;volatile
  7073  0007  2809               	goto	u549_21
  7074  0008  280A               	goto	u549_20
  7075  0009                     u549_21:
  7076  0009  2812               	goto	i1l768
  7077  000A                     u549_20:
  7078  000A                     i1l6533:
  7079  000A  1D0B               	btfss	11,2	;volatile
  7080  000B  280D               	goto	u550_21
  7081  000C  280E               	goto	u550_20
  7082  000D                     u550_21:
  7083  000D  2812               	goto	i1l768
  7084  000E                     u550_20:
  7085  000E                     i1l6535:
  7086                           
  7087                           ;mcc_generated_files/interrupt_manager.c: 56:     {;mcc_generated_files/interrupt_manage
      +                          r.c: 57:         TMR0_ISR();
  7088  000E  318C  2412  3180   	fcall	_TMR0_ISR
  7089                           
  7090                           ;mcc_generated_files/interrupt_manager.c: 58:     }
  7091  0011  2824               	goto	i1l774
  7092  0012                     i1l768:	
  7093                           ;mcc_generated_files/interrupt_manager.c: 59:     else if(INTCONbits.PEIE == 1)
  7094                           
  7095  0012  1F0B               	btfss	11,6	;volatile
  7096  0013  2815               	goto	u551_21
  7097  0014  2816               	goto	u551_20
  7098  0015                     u551_21:
  7099  0015  2824               	goto	i1l774
  7100  0016                     u551_20:
  7101  0016                     i1l6537:
  7102                           
  7103                           ;mcc_generated_files/interrupt_manager.c: 60:     {;mcc_generated_files/interrupt_manage
      +                          r.c: 61:         if(PIE2bits.USBIE == 1 && PIR2bits.USBIF == 1)
  7104  0016  0021               	movlb	1	; select bank1
  7105  0017  1D12               	btfss	18,2	;volatile
  7106  0018  281A               	goto	u552_21
  7107  0019  281B               	goto	u552_20
  7108  001A                     u552_21:
  7109  001A  2824               	goto	i1l773
  7110  001B                     u552_20:
  7111  001B                     i1l6539:
  7112  001B  0020               	movlb	0	; select bank0
  7113  001C  1D12               	btfss	18,2	;volatile
  7114  001D  281F               	goto	u553_21
  7115  001E  2820               	goto	u553_20
  7116  001F                     u553_21:
  7117  001F  2824               	goto	i1l773
  7118  0020                     u553_20:
  7119  0020                     i1l6541:
  7120                           
  7121                           ;mcc_generated_files/interrupt_manager.c: 62:         {;mcc_generated_files/interrupt_ma
      +                          nager.c: 63:             USBDeviceTasks();
  7122  0020  3184  24C1  3180   	fcall	_USBDeviceTasks
  7123                           
  7124                           ;mcc_generated_files/interrupt_manager.c: 64:         }
  7125  0023  2824               	goto	i1l774
  7126  0024                     i1l773:	
  7127                           ;mcc_generated_files/interrupt_manager.c: 71:     {;mcc_generated_files/interrupt_manage
      +                          r.c: 73:     }
  7128                           
  7129  0024                     i1l774:
  7130  0024  107E               	bcf	int$flags,0	;clear compiler interrupt flag (level 1)
  7131  0025  0009               	retfie
  7132  0026                     __end_of_INTERRUPT_InterruptManager:
  7133                           
  7134                           	psect	text28
  7135  04C1                     __ptext28:	
  7136 ;; *************** function _USBDeviceTasks *****************
  7137 ;; Defined at:
  7138 ;;		line 481 in file "mcc_generated_files/usb/usb_device.c"
  7139 ;; Parameters:    Size  Location     Type
  7140 ;;		None
  7141 ;; Auto vars:     Size  Location     Type
  7142 ;;  i               1    4[BANK1 ] unsigned char 
  7143 ;; Return value:  Size  Location     Type
  7144 ;;                  1    wreg      void 
  7145 ;; Registers used:
  7146 ;;		wreg, fsr0l, fsr0h, fsr1l, fsr1h, status,2, status,0, pclath, cstack
  7147 ;; Tracked objects:
  7148 ;;		On entry : 0/0
  7149 ;;		On exit  : 0/0
  7150 ;;		Unchanged: 0/0
  7151 ;; Data sizes:     COMMON   BANK0   BANK1   BANK2   BANK3   BANK4   BANK5   BANK6   BANK7   BANK8   BANK9  BANK10  BANK1
      +1  BANK12
  7152 ;;      Params:         0       0       0       0       0       0       0       0       0       0       0       0       
      +0       0
  7153 ;;      Locals:         0       0       1       0       0       0       0       0       0       0       0       0       
      +0       0
  7154 ;;      Temps:          0       0       2       0       0       0       0       0       0       0       0       0       
      +0       0
  7155 ;;      Totals:         0       0       3       0       0       0       0       0       0       0       0       0       
      +0       0
  7156 ;;Total ram usage:        3 bytes
  7157 ;; Hardware stack levels used:    1
  7158 ;; Hardware stack levels required when called:    8
  7159 ;; This function calls:
  7160 ;;		_USBCtrlEPAllowStatusStage
  7161 ;;		_USBCtrlEPService
  7162 ;;		_USBIncrement1msInternalTimers
  7163 ;;		_USBStallHandler
  7164 ;;		_USBSuspend
  7165 ;;		_USBWakeFromSuspend
  7166 ;;		_USER_USB_CALLBACK_EVENT_HANDLER
  7167 ;;		i1_USBDeviceInit
  7168 ;; This function is called by:
  7169 ;;		_INTERRUPT_InterruptManager
  7170 ;; This function uses a non-reentrant model
  7171 ;;
  7172                           
  7173                           
  7174                           ;psect for function _USBDeviceTasks
  7175  04C1                     _USBDeviceTasks:
  7176  04C1                     i1l6115:	
  7177                           ;incstack = 0
  7178                           ; Regs used in _USBDeviceTasks: [wreg-fsr1h+status,2+status,0+pclath+cstack]
  7179                           
  7180                           
  7181                           ;mcc_generated_files/usb/usb_device.c: 483:     uint8_t i;;mcc_generated_files/usb/usb_d
      +                          evice.c: 594:     if(USBDeviceState == ATTACHED_STATE)
  7182  04C1  0023               	movlb	3	; select bank3
  7183  04C2  036B               	decf	_USBDeviceState^(0+384),w	;volatile
  7184  04C3  1D03               	btfss	3,2
  7185  04C4  2CC6               	goto	u491_21
  7186  04C5  2CC7               	goto	u491_20
  7187  04C6                     u491_21:
  7188  04C6  2CD5               	goto	i1l6127
  7189  04C7                     u491_20:
  7190  04C7                     i1l6117:
  7191                           
  7192                           ;mcc_generated_files/usb/usb_device.c: 595:     {;mcc_generated_files/usb/usb_device.c: 
      +                          605:         if(!UCONbits.SE0)
  7193  04C7  003D               	movlb	29	; select bank29
  7194  04C8  1A8E               	btfsc	14,5	;volatile
  7195  04C9  2CCB               	goto	u492_21
  7196  04CA  2CCC               	goto	u492_20
  7197  04CB                     u492_21:
  7198  04CB  2CD5               	goto	i1l6127
  7199  04CC                     u492_20:
  7200  04CC                     i1l6119:
  7201                           
  7202                           ;mcc_generated_files/usb/usb_device.c: 606:         {;mcc_generated_files/usb/usb_device
      +                          .c: 612:                 {UIR = 0;};
  7203  04CC  0190               	clrf	16	;volatile
  7204  04CD                     i1l6121:
  7205                           
  7206                           ;mcc_generated_files/usb/usb_device.c: 618:             UIEbits.URSTIE = 1;
  7207  04CD  1412               	bsf	18,0	;volatile
  7208  04CE                     i1l6123:
  7209                           
  7210                           ;mcc_generated_files/usb/usb_device.c: 619:             UIEbits.IDLEIE = 1;
  7211  04CE  1612               	bsf	18,4	;volatile
  7212  04CF                     i1l6125:
  7213                           
  7214                           ;mcc_generated_files/usb/usb_device.c: 620:             USBDeviceState = POWERED_STATE;
  7215  04CF  3002               	movlw	2
  7216  04D0  0021               	movlb	1	; select bank1
  7217  04D1  00A2               	movwf	??_USBDeviceTasks^(0+128)
  7218  04D2  0822               	movf	??_USBDeviceTasks^(0+128),w
  7219  04D3  0023               	movlb	3	; select bank3
  7220  04D4  00EB               	movwf	_USBDeviceState^(0+384)	;volatile
  7221  04D5                     i1l6127:
  7222                           
  7223                           ;mcc_generated_files/usb/usb_device.c: 638:     if(UIRbits.ACTVIF && UIEbits.ACTVIE)
  7224  04D5  003D               	movlb	29	; select bank29
  7225  04D6  1D10               	btfss	16,2	;volatile
  7226  04D7  2CD9               	goto	u493_21
  7227  04D8  2CDA               	goto	u493_20
  7228  04D9                     u493_21:
  7229  04D9  2CE7               	goto	i1l6135
  7230  04DA                     u493_20:
  7231  04DA                     i1l6129:
  7232  04DA  1D12               	btfss	18,2	;volatile
  7233  04DB  2CDD               	goto	u494_21
  7234  04DC  2CDE               	goto	u494_20
  7235  04DD                     u494_21:
  7236  04DD  2CE7               	goto	i1l6135
  7237  04DE                     u494_20:
  7238  04DE                     i1l6131:
  7239                           
  7240                           ;mcc_generated_files/usb/usb_device.c: 639:     {;mcc_generated_files/usb/usb_device.c: 
      +                          640:         (UIR &= 0xFB);
  7241  04DE  30FB               	movlw	251
  7242  04DF  0021               	movlb	1	; select bank1
  7243  04E0  00A2               	movwf	??_USBDeviceTasks^(0+128)
  7244  04E1  0822               	movf	??_USBDeviceTasks^(0+128),w
  7245  04E2  003D               	movlb	29	; select bank29
  7246  04E3  0590               	andwf	16,f	;volatile
  7247  04E4                     i1l6133:
  7248                           
  7249                           ;mcc_generated_files/usb/usb_device.c: 644:             USBWakeFromSuspend();
  7250  04E4  3193  23AB  3184   	fcall	_USBWakeFromSuspend
  7251  04E7                     i1l6135:
  7252                           
  7253                           ;mcc_generated_files/usb/usb_device.c: 651:     if(UCONbits.SUSPND==1)
  7254  04E7  003D               	movlb	29	; select bank29
  7255  04E8  1C8E               	btfss	14,1	;volatile
  7256  04E9  2CEB               	goto	u495_21
  7257  04EA  2CEC               	goto	u495_20
  7258  04EB                     u495_21:
  7259  04EB  2CEF               	goto	i1l147
  7260  04EC                     u495_20:
  7261  04EC                     i1l6137:
  7262                           
  7263                           ;mcc_generated_files/usb/usb_device.c: 652:     {;mcc_generated_files/usb/usb_device.c: 
      +                          653:         PIR2bits.USBIF = 0;;
  7264  04EC  0020               	movlb	0	; select bank0
  7265  04ED  1112               	bcf	18,2	;volatile
  7266                           
  7267                           ;mcc_generated_files/usb/usb_device.c: 654:         return;
  7268  04EE  2DE3               	goto	i1l148
  7269  04EF                     i1l147:	
  7270                           ;mcc_generated_files/usb/usb_device.c: 655:     }
  7271                           
  7272                           
  7273                           ;mcc_generated_files/usb/usb_device.c: 667:     if(UIRbits.URSTIF && UIEbits.URSTIE)
  7274  04EF  1C10               	btfss	16,0	;volatile
  7275  04F0  2CF2               	goto	u496_21
  7276  04F1  2CF3               	goto	u496_20
  7277  04F2                     u496_21:
  7278  04F2  2D07               	goto	i1l6149
  7279  04F3                     u496_20:
  7280  04F3                     i1l6139:
  7281  04F3  1C12               	btfss	18,0	;volatile
  7282  04F4  2CF6               	goto	u497_21
  7283  04F5  2CF7               	goto	u497_20
  7284  04F6                     u497_21:
  7285  04F6  2D07               	goto	i1l6149
  7286  04F7                     u497_20:
  7287  04F7                     i1l6141:
  7288                           
  7289                           ;mcc_generated_files/usb/usb_device.c: 668:     {;mcc_generated_files/usb/usb_device.c: 
      +                          669:         USBDeviceInit();
  7290  04F7  318D  254C  3184   	fcall	i1_USBDeviceInit
  7291  04FA                     i1l6143:
  7292                           
  7293                           ;mcc_generated_files/usb/usb_device.c: 673:         {PIE2bits.USBIE = 1;};
  7294  04FA  0021               	movlb	1	; select bank1
  7295  04FB  1512               	bsf	18,2	;volatile
  7296  04FC                     i1l6145:
  7297                           
  7298                           ;mcc_generated_files/usb/usb_device.c: 675:         USBDeviceState = DEFAULT_STATE;
  7299  04FC  3004               	movlw	4
  7300  04FD  00A2               	movwf	??_USBDeviceTasks^(0+128)
  7301  04FE  0822               	movf	??_USBDeviceTasks^(0+128),w
  7302  04FF  0023               	movlb	3	; select bank3
  7303  0500  00EB               	movwf	_USBDeviceState^(0+384)	;volatile
  7304  0501                     i1l6147:
  7305                           
  7306                           ;mcc_generated_files/usb/usb_device.c: 685:         (UIR &= 0xFE);
  7307  0501  30FE               	movlw	254
  7308  0502  0021               	movlb	1	; select bank1
  7309  0503  00A2               	movwf	??_USBDeviceTasks^(0+128)
  7310  0504  0822               	movf	??_USBDeviceTasks^(0+128),w
  7311  0505  003D               	movlb	29	; select bank29
  7312  0506  0590               	andwf	16,f	;volatile
  7313  0507                     i1l6149:
  7314                           
  7315                           ;mcc_generated_files/usb/usb_device.c: 691:     if(UIRbits.IDLEIF && UIEbits.IDLEIE)
  7316  0507  1E10               	btfss	16,4	;volatile
  7317  0508  2D0A               	goto	u498_21
  7318  0509  2D0B               	goto	u498_20
  7319  050A                     u498_21:
  7320  050A  2D12               	goto	i1l6155
  7321  050B                     u498_20:
  7322  050B                     i1l6151:
  7323  050B  1E12               	btfss	18,4	;volatile
  7324  050C  2D0E               	goto	u499_21
  7325  050D  2D0F               	goto	u499_20
  7326  050E                     u499_21:
  7327  050E  2D12               	goto	i1l6155
  7328  050F                     u499_20:
  7329  050F                     i1l6153:
  7330                           
  7331                           ;mcc_generated_files/usb/usb_device.c: 692:     {;mcc_generated_files/usb/usb_device.c: 
      +                          698:             USBSuspend();
  7332  050F  3193  238B  3184   	fcall	_USBSuspend
  7333  0512                     i1l6155:
  7334                           
  7335                           ;mcc_generated_files/usb/usb_device.c: 712:     if(UIRbits.SOFIF)
  7336  0512  003D               	movlb	29	; select bank29
  7337  0513  1F10               	btfss	16,6	;volatile
  7338  0514  2D16               	goto	u500_21
  7339  0515  2D17               	goto	u500_20
  7340  0516                     u500_21:
  7341  0516  2D44               	goto	i1l6171
  7342  0517                     u500_20:
  7343  0517                     i1l6157:
  7344                           
  7345                           ;mcc_generated_files/usb/usb_device.c: 713:     {;mcc_generated_files/usb/usb_device.c: 
      +                          715:         if(UIEbits.SOFIE)
  7346  0517  1F12               	btfss	18,6	;volatile
  7347  0518  2D1A               	goto	u501_21
  7348  0519  2D1B               	goto	u501_20
  7349  051A                     u501_21:
  7350  051A  2D2B               	goto	i1l6161
  7351  051B                     u501_20:
  7352  051B                     i1l6159:
  7353                           
  7354                           ;mcc_generated_files/usb/usb_device.c: 716:         {;mcc_generated_files/usb/usb_device
      +                          .c: 717:             USER_USB_CALLBACK_EVENT_HANDLER((USB_EVENT)EVENT_SOF,0,1);
  7355  051B  3073               	movlw	115
  7356  051C  0020               	movlb	0	; select bank0
  7357  051D  00E0               	movwf	USER_USB_CALLBACK_EVENT_HANDLER@event
  7358  051E  3000               	movlw	0
  7359  051F  00E1               	movwf	USER_USB_CALLBACK_EVENT_HANDLER@event+1
  7360  0520  3000               	movlw	0
  7361  0521  00E2               	movwf	USER_USB_CALLBACK_EVENT_HANDLER@pdata
  7362  0522  3000               	movlw	0
  7363  0523  00E3               	movwf	USER_USB_CALLBACK_EVENT_HANDLER@pdata+1
  7364  0524  3001               	movlw	1
  7365  0525  00E4               	movwf	USER_USB_CALLBACK_EVENT_HANDLER@size
  7366  0526  3000               	movlw	0
  7367  0527  00E5               	movwf	USER_USB_CALLBACK_EVENT_HANDLER@size+1
  7368  0528  3194  2471  3184   	fcall	_USER_USB_CALLBACK_EVENT_HANDLER
  7369  052B                     i1l6161:
  7370                           
  7371                           ;mcc_generated_files/usb/usb_device.c: 719:         (UIR &= 0xBF);
  7372  052B  30BF               	movlw	191
  7373  052C  0021               	movlb	1	; select bank1
  7374  052D  00A2               	movwf	??_USBDeviceTasks^(0+128)
  7375  052E  0822               	movf	??_USBDeviceTasks^(0+128),w
  7376  052F  003D               	movlb	29	; select bank29
  7377  0530  0590               	andwf	16,f	;volatile
  7378  0531                     i1l6163:
  7379                           
  7380                           ;mcc_generated_files/usb/usb_device.c: 722:             USBIncrement1msInternalTimers();
  7381  0531  3193  2332  3184   	fcall	_USBIncrement1msInternalTimers
  7382  0534                     i1l6165:
  7383                           
  7384                           ;mcc_generated_files/usb/usb_device.c: 739:             if(USBStatusStageTimeoutCounter 
      +                          != 0u)
  7385  0534  0023               	movlb	3	; select bank3
  7386  0535  0863               	movf	_USBStatusStageTimeoutCounter^(0+384),w	;volatile
  7387  0536  1903               	btfsc	3,2
  7388  0537  2D39               	goto	u502_21
  7389  0538  2D3A               	goto	u502_20
  7390  0539                     u502_21:
  7391  0539  2D3C               	goto	i1l153
  7392  053A                     u502_20:
  7393  053A                     i1l6167:
  7394                           
  7395                           ;mcc_generated_files/usb/usb_device.c: 740:             {;mcc_generated_files/usb/usb_de
      +                          vice.c: 741:                 USBStatusStageTimeoutCounter--;
  7396  053A  3001               	movlw	1
  7397  053B  02E3               	subwf	_USBStatusStageTimeoutCounter^(0+384),f	;volatile
  7398  053C                     i1l153:	
  7399                           ;mcc_generated_files/usb/usb_device.c: 742:             }
  7400                           
  7401                           
  7402                           ;mcc_generated_files/usb/usb_device.c: 748:             if(USBStatusStageTimeoutCounter 
      +                          == 0)
  7403  053C  0863               	movf	_USBStatusStageTimeoutCounter^(0+384),w	;volatile
  7404  053D  1D03               	btfss	3,2
  7405  053E  2D40               	goto	u503_21
  7406  053F  2D41               	goto	u503_20
  7407  0540                     u503_21:
  7408  0540  2D44               	goto	i1l6171
  7409  0541                     u503_20:
  7410  0541                     i1l6169:
  7411                           
  7412                           ;mcc_generated_files/usb/usb_device.c: 749:             {;mcc_generated_files/usb/usb_de
      +                          vice.c: 750:                 USBCtrlEPAllowStatusStage();
  7413  0541  3197  2789  3184   	fcall	_USBCtrlEPAllowStatusStage
  7414  0544                     i1l6171:
  7415                           
  7416                           ;mcc_generated_files/usb/usb_device.c: 755:     if(UIRbits.STALLIF && UIEbits.STALLIE)
  7417  0544  003D               	movlb	29	; select bank29
  7418  0545  1E90               	btfss	16,5	;volatile
  7419  0546  2D48               	goto	u504_21
  7420  0547  2D49               	goto	u504_20
  7421  0548                     u504_21:
  7422  0548  2D50               	goto	i1l6177
  7423  0549                     u504_20:
  7424  0549                     i1l6173:
  7425  0549  1E92               	btfss	18,5	;volatile
  7426  054A  2D4C               	goto	u505_21
  7427  054B  2D4D               	goto	u505_20
  7428  054C                     u505_21:
  7429  054C  2D50               	goto	i1l6177
  7430  054D                     u505_20:
  7431  054D                     i1l6175:
  7432                           
  7433                           ;mcc_generated_files/usb/usb_device.c: 756:     {;mcc_generated_files/usb/usb_device.c: 
      +                          757:         USBStallHandler();
  7434  054D  3194  2416  3184   	fcall	_USBStallHandler
  7435  0550                     i1l6177:
  7436                           
  7437                           ;mcc_generated_files/usb/usb_device.c: 760:     if(UIRbits.UERRIF && UIEbits.UERRIE)
  7438  0550  003D               	movlb	29	; select bank29
  7439  0551  1C90               	btfss	16,1	;volatile
  7440  0552  2D54               	goto	u506_21
  7441  0553  2D55               	goto	u506_20
  7442  0554                     u506_21:
  7443  0554  2D6B               	goto	i1l6185
  7444  0555                     u506_20:
  7445  0555                     i1l6179:
  7446  0555  1C92               	btfss	18,1	;volatile
  7447  0556  2D58               	goto	u507_21
  7448  0557  2D59               	goto	u507_20
  7449  0558                     u507_21:
  7450  0558  2D6B               	goto	i1l6185
  7451  0559                     u507_20:
  7452  0559                     i1l6181:
  7453                           
  7454                           ;mcc_generated_files/usb/usb_device.c: 761:     {;mcc_generated_files/usb/usb_device.c: 
      +                          762:         USER_USB_CALLBACK_EVENT_HANDLER((USB_EVENT)EVENT_BUS_ERROR,0,1);
  7455  0559  30FF               	movlw	255
  7456  055A  0020               	movlb	0	; select bank0
  7457  055B  00E0               	movwf	USER_USB_CALLBACK_EVENT_HANDLER@event
  7458  055C  307F               	movlw	127
  7459  055D  00E1               	movwf	USER_USB_CALLBACK_EVENT_HANDLER@event+1
  7460  055E  3000               	movlw	0
  7461  055F  00E2               	movwf	USER_USB_CALLBACK_EVENT_HANDLER@pdata
  7462  0560  3000               	movlw	0
  7463  0561  00E3               	movwf	USER_USB_CALLBACK_EVENT_HANDLER@pdata+1
  7464  0562  3001               	movlw	1
  7465  0563  00E4               	movwf	USER_USB_CALLBACK_EVENT_HANDLER@size
  7466  0564  3000               	movlw	0
  7467  0565  00E5               	movwf	USER_USB_CALLBACK_EVENT_HANDLER@size+1
  7468  0566  3194  2471  3184   	fcall	_USER_USB_CALLBACK_EVENT_HANDLER
  7469  0569                     i1l6183:
  7470                           
  7471                           ;mcc_generated_files/usb/usb_device.c: 763:         {UEIR = 0;};
  7472  0569  003D               	movlb	29	; select bank29
  7473  056A  0193               	clrf	19	;volatile
  7474  056B                     i1l6185:
  7475                           
  7476                           ;mcc_generated_files/usb/usb_device.c: 778:     if(USBDeviceState < DEFAULT_STATE)
  7477  056B  3004               	movlw	4
  7478  056C  0023               	movlb	3	; select bank3
  7479  056D  026B               	subwf	_USBDeviceState^(0+384),w	;volatile
  7480  056E  1803               	skipnc
  7481  056F  2D71               	goto	u508_21
  7482  0570  2D72               	goto	u508_20
  7483  0571                     u508_21:
  7484  0571  2D75               	goto	i1l157
  7485  0572                     u508_20:
  7486  0572                     i1l6187:
  7487                           
  7488                           ;mcc_generated_files/usb/usb_device.c: 779:     {;mcc_generated_files/usb/usb_device.c: 
      +                          780:         PIR2bits.USBIF = 0;;
  7489  0572  0020               	movlb	0	; select bank0
  7490  0573  1112               	bcf	18,2	;volatile
  7491                           
  7492                           ;mcc_generated_files/usb/usb_device.c: 781:         return;
  7493  0574  2DE3               	goto	i1l148
  7494  0575                     i1l157:	
  7495                           ;mcc_generated_files/usb/usb_device.c: 782:     }
  7496                           
  7497                           
  7498                           ;mcc_generated_files/usb/usb_device.c: 787:     if(UIEbits.TRNIE)
  7499  0575  003D               	movlb	29	; select bank29
  7500  0576  1D92               	btfss	18,3	;volatile
  7501  0577  2D79               	goto	u509_21
  7502  0578  2D7A               	goto	u509_20
  7503  0579                     u509_21:
  7504  0579  2DE1               	goto	i1l158
  7505  057A                     u509_20:
  7506  057A                     i1l6189:
  7507                           
  7508                           ;mcc_generated_files/usb/usb_device.c: 788:     {;mcc_generated_files/usb/usb_device.c: 
      +                          789:         for(i = 0; i < 4u; i++)
  7509  057A  0021               	movlb	1	; select bank1
  7510  057B  01A4               	clrf	USBDeviceTasks@i^(0+128)
  7511  057C                     i1l159:
  7512                           
  7513                           ;mcc_generated_files/usb/usb_device.c: 790:         {;mcc_generated_files/usb/usb_device
      +                          .c: 791:             if(UIRbits.TRNIF)
  7514  057C  003D               	movlb	29	; select bank29
  7515  057D  1D90               	btfss	16,3	;volatile
  7516  057E  2D80               	goto	u510_21
  7517  057F  2D81               	goto	u510_20
  7518  0580                     u510_21:
  7519  0580  2DE1               	goto	i1l158
  7520  0581                     u510_20:
  7521  0581                     i1l6195:
  7522                           
  7523                           ;mcc_generated_files/usb/usb_device.c: 792:             {;mcc_generated_files/usb/usb_de
      +                          vice.c: 794:                 USTATcopy.Val = USTAT;
  7524  0581  080F               	movf	15,w	;volatile
  7525  0582  0021               	movlb	1	; select bank1
  7526  0583  00A2               	movwf	??_USBDeviceTasks^(0+128)
  7527  0584  0822               	movf	??_USBDeviceTasks^(0+128),w
  7528  0585  0023               	movlb	3	; select bank3
  7529  0586  00EE               	movwf	_USTATcopy^(0+384)	;volatile
  7530  0587                     i1l6197:
  7531                           
  7532                           ;mcc_generated_files/usb/usb_device.c: 795:                 endpoint_number = USTATcopy.
      +                          endpoint_number;
  7533  0587  0C6E               	rrf	_USTATcopy^(0+384),w	;volatile
  7534  0588  0021               	movlb	1	; select bank1
  7535  0589  00A2               	movwf	??_USBDeviceTasks^(0+128)
  7536  058A  0CA2               	rrf	??_USBDeviceTasks^(0+128),f
  7537  058B  0C22               	rrf	??_USBDeviceTasks^(0+128),w
  7538  058C  390F               	andlw	15
  7539  058D  00A3               	movwf	(??_USBDeviceTasks+1)^(0+128)
  7540  058E  0823               	movf	(??_USBDeviceTasks+1)^(0+128),w
  7541  058F  0023               	movlb	3	; select bank3
  7542  0590  00E5               	movwf	_endpoint_number^(0+384)	;volatile
  7543  0591                     i1l6199:
  7544                           
  7545                           ;mcc_generated_files/usb/usb_device.c: 797:                 (UIR &= 0xF7);
  7546  0591  30F7               	movlw	247
  7547  0592  0021               	movlb	1	; select bank1
  7548  0593  00A2               	movwf	??_USBDeviceTasks^(0+128)
  7549  0594  0822               	movf	??_USBDeviceTasks^(0+128),w
  7550  0595  003D               	movlb	29	; select bank29
  7551  0596  0590               	andwf	16,f	;volatile
  7552  0597                     i1l6201:
  7553                           
  7554                           ;mcc_generated_files/usb/usb_device.c: 802:                 if(USTATcopy.direction == 0)
  7555  0597  0023               	movlb	3	; select bank3
  7556  0598  196E               	btfsc	_USTATcopy^(0+384),2	;volatile
  7557  0599  2D9B               	goto	u511_21
  7558  059A  2D9C               	goto	u511_20
  7559  059B                     u511_21:
  7560  059B  2DAD               	goto	i1l6205
  7561  059C                     u511_20:
  7562  059C                     i1l6203:
  7563                           
  7564                           ;mcc_generated_files/usb/usb_device.c: 803:                 {;mcc_generated_files/usb/us
      +                          b_device.c: 804:                     ep_data_out[endpoint_number].bits.ping_pong_state ^
      +                          = 1;
  7565  059C  0865               	movf	_endpoint_number^(0+384),w	;volatile
  7566  059D  3EC2               	addlw	(low (_ep_data_out| (0+256)))& (0+255)
  7567  059E  0086               	movwf	6
  7568  059F  3001               	movlw	1	; select bank3/4
  7569  05A0  0087               	movwf	7
  7570  05A1  0801               	movf	1,w
  7571  05A2  3901               	andlw	1
  7572  05A3  0021               	movlb	1	; select bank1
  7573  05A4  00A2               	movwf	??_USBDeviceTasks^(0+128)
  7574  05A5  3001               	movlw	1
  7575  05A6  06A2               	xorwf	??_USBDeviceTasks^(0+128),f
  7576  05A7  0801               	movf	1,w
  7577  05A8  0622               	xorwf	??_USBDeviceTasks^(0+128),w
  7578  05A9  39FE               	andlw	-2
  7579  05AA  0622               	xorwf	??_USBDeviceTasks^(0+128),w
  7580  05AB  0081               	movwf	1
  7581                           
  7582                           ;mcc_generated_files/usb/usb_device.c: 805:                 }
  7583  05AC  2DBD               	goto	i1l6207
  7584  05AD                     i1l6205:
  7585                           
  7586                           ;mcc_generated_files/usb/usb_device.c: 807:                 {;mcc_generated_files/usb/us
      +                          b_device.c: 808:                     ep_data_in[endpoint_number].bits.ping_pong_state ^=
      +                           1;
  7587  05AD  0865               	movf	_endpoint_number^(0+384),w	;volatile
  7588  05AE  3EC5               	addlw	(low (_ep_data_in| (0+256)))& (0+255)
  7589  05AF  0086               	movwf	6
  7590  05B0  3001               	movlw	1	; select bank3/4
  7591  05B1  0087               	movwf	7
  7592  05B2  0801               	movf	1,w
  7593  05B3  3901               	andlw	1
  7594  05B4  0021               	movlb	1	; select bank1
  7595  05B5  00A2               	movwf	??_USBDeviceTasks^(0+128)
  7596  05B6  3001               	movlw	1
  7597  05B7  06A2               	xorwf	??_USBDeviceTasks^(0+128),f
  7598  05B8  0801               	movf	1,w
  7599  05B9  0622               	xorwf	??_USBDeviceTasks^(0+128),w
  7600  05BA  39FE               	andlw	-2
  7601  05BB  0622               	xorwf	??_USBDeviceTasks^(0+128),w
  7602  05BC  0081               	movwf	1
  7603  05BD                     i1l6207:
  7604                           
  7605                           ;mcc_generated_files/usb/usb_device.c: 814:                 if(endpoint_number == 0)
  7606  05BD  0023               	movlb	3	; select bank3
  7607  05BE  0865               	movf	_endpoint_number^(0+384),w	;volatile
  7608  05BF  1D03               	btfss	3,2
  7609  05C0  2DC2               	goto	u512_21
  7610  05C1  2DC3               	goto	u512_20
  7611  05C2                     u512_21:
  7612  05C2  2DC7               	goto	i1l6211
  7613  05C3                     u512_20:
  7614  05C3                     i1l6209:
  7615                           
  7616                           ;mcc_generated_files/usb/usb_device.c: 815:                 {;mcc_generated_files/usb/us
      +                          b_device.c: 816:                     USBCtrlEPService();
  7617  05C3  3195  25E8  3184   	fcall	_USBCtrlEPService
  7618                           
  7619                           ;mcc_generated_files/usb/usb_device.c: 817:                 }
  7620  05C6  2DD6               	goto	i1l6213
  7621  05C7                     i1l6211:
  7622                           
  7623                           ;mcc_generated_files/usb/usb_device.c: 819:                 {;mcc_generated_files/usb/us
      +                          b_device.c: 820:                     USER_USB_CALLBACK_EVENT_HANDLER((USB_EVENT)EVENT_TR
      +                          ANSFER,(uint8_t*)&USTATcopy.Val,0);
  7624  05C7  3072               	movlw	114
  7625  05C8  0020               	movlb	0	; select bank0
  7626  05C9  00E0               	movwf	USER_USB_CALLBACK_EVENT_HANDLER@event
  7627  05CA  3000               	movlw	0
  7628  05CB  00E1               	movwf	USER_USB_CALLBACK_EVENT_HANDLER@event+1
  7629  05CC  30EE               	movlw	low _USTATcopy
  7630  05CD  00E2               	movwf	USER_USB_CALLBACK_EVENT_HANDLER@pdata
  7631  05CE  3001               	movlw	high _USTATcopy
  7632  05CF  00E3               	movwf	USER_USB_CALLBACK_EVENT_HANDLER@pdata+1
  7633  05D0  3000               	movlw	0
  7634  05D1  00E4               	movwf	USER_USB_CALLBACK_EVENT_HANDLER@size
  7635  05D2  00E5               	movwf	USER_USB_CALLBACK_EVENT_HANDLER@size+1
  7636  05D3  3194  2471  3184   	fcall	_USER_USB_CALLBACK_EVENT_HANDLER
  7637  05D6                     i1l6213:
  7638                           
  7639                           ;mcc_generated_files/usb/usb_device.c: 827:         }
  7640  05D6  3001               	movlw	1
  7641  05D7  0021               	movlb	1	; select bank1
  7642  05D8  00A2               	movwf	??_USBDeviceTasks^(0+128)
  7643  05D9  0822               	movf	??_USBDeviceTasks^(0+128),w
  7644  05DA  07A4               	addwf	USBDeviceTasks@i^(0+128),f
  7645  05DB                     i1l6215:
  7646  05DB  3004               	movlw	4
  7647  05DC  0224               	subwf	USBDeviceTasks@i^(0+128),w
  7648  05DD  1C03               	skipc
  7649  05DE  2DE0               	goto	u513_21
  7650  05DF  2DE1               	goto	u513_20
  7651  05E0                     u513_21:
  7652  05E0  2D7C               	goto	i1l159
  7653  05E1                     u513_20:
  7654  05E1                     i1l158:	
  7655                           ;mcc_generated_files/usb/usb_device.c: 828:     }
  7656                           
  7657                           
  7658                           ;mcc_generated_files/usb/usb_device.c: 830:     PIR2bits.USBIF = 0;;
  7659  05E1  0020               	movlb	0	; select bank0
  7660  05E2  1112               	bcf	18,2	;volatile
  7661  05E3                     i1l148:
  7662  05E3  0008               	return
  7663  05E4                     __end_of_USBDeviceTasks:
  7664                           
  7665                           	psect	text29
  7666  0D4C                     __ptext29:	
  7667 ;; *************** function i1_USBDeviceInit *****************
  7668 ;; Defined at:
  7669 ;;		line 281 in file "mcc_generated_files/usb/usb_device.c"
  7670 ;; Parameters:    Size  Location     Type
  7671 ;;		None
  7672 ;; Auto vars:     Size  Location     Type
  7673 ;;  p               2    1[COMMON] PTR unsigned char 
  7674 ;;		 -> UEP1(1), 
  7675 ;;  i               1    4[COMMON] unsigned char 
  7676 ;;  i               1    3[COMMON] unsigned char 
  7677 ;; Return value:  Size  Location     Type
  7678 ;;                  1    wreg      void 
  7679 ;; Registers used:
  7680 ;;		wreg, fsr1l, fsr1h, status,2, status,0
  7681 ;; Tracked objects:
  7682 ;;		On entry : 0/0
  7683 ;;		On exit  : 0/0
  7684 ;;		Unchanged: 0/0
  7685 ;; Data sizes:     COMMON   BANK0   BANK1   BANK2   BANK3   BANK4   BANK5   BANK6   BANK7   BANK8   BANK9  BANK10  BANK1
      +1  BANK12
  7686 ;;      Params:         0       0       0       0       0       0       0       0       0       0       0       0       
      +0       0
  7687 ;;      Locals:         4       0       0       0       0       0       0       0       0       0       0       0       
      +0       0
  7688 ;;      Temps:          1       0       0       0       0       0       0       0       0       0       0       0       
      +0       0
  7689 ;;      Totals:         5       0       0       0       0       0       0       0       0       0       0       0       
      +0       0
  7690 ;;Total ram usage:        5 bytes
  7691 ;; Hardware stack levels used:    1
  7692 ;; This function calls:
  7693 ;;		Nothing
  7694 ;; This function is called by:
  7695 ;;		_USBDeviceTasks
  7696 ;; This function uses a non-reentrant model
  7697 ;;
  7698                           
  7699                           
  7700                           ;psect for function i1_USBDeviceInit
  7701  0D4C                     i1_USBDeviceInit:
  7702  0D4C                     i1l4641:	
  7703                           ;incstack = 0
  7704                           ; Regs used in i1_USBDeviceInit: [wreg+fsr1l+fsr1h+status,2+status,0]
  7705                           
  7706                           
  7707                           ;mcc_generated_files/usb/usb_device.c: 283:     uint8_t i;;mcc_generated_files/usb/usb_d
      +                          evice.c: 285:     {PIE2bits.USBIE = 0;};
  7708  0D4C  0021               	movlb	1	; select bank1
  7709  0D4D  1112               	bcf	18,2	;volatile
  7710  0D4E                     i1l4643:
  7711                           
  7712                           ;mcc_generated_files/usb/usb_device.c: 292:     {UEIR = 0;};
  7713  0D4E  003D               	movlb	29	; select bank29
  7714  0D4F  0193               	clrf	19	;volatile
  7715                           
  7716                           ;mcc_generated_files/usb/usb_device.c: 295:     {UIR = 0;};
  7717  0D50  0190               	clrf	16	;volatile
  7718                           
  7719                           ;mcc_generated_files/usb/usb_device.c: 298:     UEP0 = 0;
  7720  0D51  0198               	clrf	24	;volatile
  7721  0D52                     i1l4645:
  7722                           
  7723                           ;mcc_generated_files/usb/usb_device.c: 300:     { uint8_t i; uint8_t* p = (uint8_t*)&UEP
      +                          1; for(i=0;i<2;i++) *p++ = 0; };
  7724  0D52  300E               	movlw	14
  7725  0D53  00F2               	movwf	i1USBDeviceInit@p+1
  7726  0D54  3099               	movlw	153
  7727  0D55  00F1               	movwf	i1USBDeviceInit@p
  7728  0D56  01F3               	clrf	i1USBDeviceInit@i_665
  7729  0D57                     i1l4651:
  7730  0D57  0871               	movf	i1USBDeviceInit@p,w
  7731  0D58  0086               	movwf	6
  7732  0D59  0872               	movf	i1USBDeviceInit@p+1,w
  7733  0D5A  0087               	movwf	7
  7734  0D5B  0181               	clrf	1
  7735  0D5C                     i1l4653:
  7736  0D5C  3001               	movlw	1
  7737  0D5D  07F1               	addwf	i1USBDeviceInit@p,f
  7738  0D5E  3000               	movlw	0
  7739  0D5F  3DF2               	addwfc	i1USBDeviceInit@p+1,f
  7740  0D60                     i1l4655:
  7741  0D60  3001               	movlw	1
  7742  0D61  00F0               	movwf	??i1_USBDeviceInit
  7743  0D62  0870               	movf	??i1_USBDeviceInit,w
  7744  0D63  07F3               	addwf	i1USBDeviceInit@i_665,f
  7745  0D64                     i1l4657:
  7746  0D64  3002               	movlw	2
  7747  0D65  0273               	subwf	i1USBDeviceInit@i_665,w
  7748  0D66  1C03               	skipc
  7749  0D67  2D69               	goto	u337_21
  7750  0D68  2D6A               	goto	u337_20
  7751  0D69                     u337_21:
  7752  0D69  2D57               	goto	i1l4651
  7753  0D6A                     u337_20:
  7754  0D6A                     i1l4659:
  7755                           
  7756                           ;mcc_generated_files/usb/usb_device.c: 302:     { UCFG = 0x10 | 0x00 | 0x04 | 0x02; UEIE
      +                           = 0x9F; UIE = 0x39 | 0x40 | 0x02; };
  7757  0D6A  3016               	movlw	22
  7758  0D6B  003D               	movlb	29	; select bank29
  7759  0D6C  0091               	movwf	17	;volatile
  7760  0D6D  309F               	movlw	159
  7761  0D6E  0097               	movwf	23	;volatile
  7762  0D6F  307B               	movlw	123
  7763  0D70  0092               	movwf	18	;volatile
  7764  0D71                     i1l4661:
  7765                           
  7766                           ;mcc_generated_files/usb/usb_device.c: 311:     for(i = 0; i < (sizeof(BDT)/sizeof(BDT_E
      +                          NTRY)); i++)
  7767  0D71  01F4               	clrf	i1USBDeviceInit@i
  7768  0D72                     i1l4667:
  7769                           
  7770                           ;mcc_generated_files/usb/usb_device.c: 312:     {;mcc_generated_files/usb/usb_device.c: 
      +                          313:         BDT[i].Val = 0x00;
  7771  0D72  0874               	movf	i1USBDeviceInit@i,w
  7772  0D73  00F0               	movwf	??i1_USBDeviceInit
  7773  0D74  3001               	movlw	1
  7774  0D75                     u338_25:
  7775  0D75  35F0               	lslf	??i1_USBDeviceInit,f
  7776  0D76  3EFF               	addlw	-1
  7777  0D77  1D03               	skipz
  7778  0D78  2D75               	goto	u338_25
  7779  0D79  3570               	lslf	??i1_USBDeviceInit,w
  7780  0D7A  3E20               	addlw	32
  7781  0D7B  0086               	movwf	6
  7782  0D7C  0187               	clrf	7
  7783  0D7D  3000               	movlw	0
  7784  0D7E  3FC0               	movwi [0]fsr1
  7785  0D7F  3000               	movlw	0
  7786  0D80  3FC1               	movwi [1]fsr1
  7787  0D81  3FC2               	movwi [2]fsr1
  7788  0D82  3FC3               	movwi [3]fsr1
  7789  0D83                     i1l4669:
  7790                           
  7791                           ;mcc_generated_files/usb/usb_device.c: 314:     }
  7792  0D83  3001               	movlw	1
  7793  0D84  00F0               	movwf	??i1_USBDeviceInit
  7794  0D85  0870               	movf	??i1_USBDeviceInit,w
  7795  0D86  07F4               	addwf	i1USBDeviceInit@i,f
  7796  0D87                     i1l4671:
  7797  0D87  300C               	movlw	12
  7798  0D88  0274               	subwf	i1USBDeviceInit@i,w
  7799  0D89  1C03               	skipc
  7800  0D8A  2D8C               	goto	u339_21
  7801  0D8B  2D8D               	goto	u339_20
  7802  0D8C                     u339_21:
  7803  0D8C  2D72               	goto	i1l4667
  7804  0D8D                     u339_20:
  7805  0D8D                     i1l136:
  7806                           
  7807                           ;mcc_generated_files/usb/usb_device.c: 317:     UCONbits.PPBRST = 1;
  7808  0D8D  003D               	movlb	29	; select bank29
  7809  0D8E  170E               	bsf	14,6	;volatile
  7810  0D8F                     i1l4673:
  7811                           
  7812                           ;mcc_generated_files/usb/usb_device.c: 320:     UADDR = 0x00;
  7813  0D8F  0196               	clrf	22	;volatile
  7814  0D90                     i1l4675:
  7815                           
  7816                           ;mcc_generated_files/usb/usb_device.c: 323:     UCONbits.PKTDIS = 0;
  7817  0D90  120E               	bcf	14,4	;volatile
  7818  0D91                     i1l4677:
  7819                           
  7820                           ;mcc_generated_files/usb/usb_device.c: 326:     UCONbits.PPBRST = 0;
  7821  0D91  130E               	bcf	14,6	;volatile
  7822  0D92                     i1l4679:
  7823                           
  7824                           ;mcc_generated_files/usb/usb_device.c: 330:     {;mcc_generated_files/usb/usb_device.c: 
      +                          331:         (UIR &= 0xF7);
  7825  0D92  30F7               	movlw	247
  7826  0D93  00F0               	movwf	??i1_USBDeviceInit
  7827  0D94  0870               	movf	??i1_USBDeviceInit,w
  7828  0D95  0590               	andwf	16,f	;volatile
  7829  0D96                     i1l4681:
  7830                           
  7831                           ;mcc_generated_files/usb/usb_device.c: 333:         inPipes[0].info.Val = 0;
  7832  0D96  0023               	movlb	3	; select bank3
  7833  0D97  01BF               	clrf	(_inPipes^(0+384)+2)	;volatile
  7834  0D98                     i1l4683:
  7835                           
  7836                           ;mcc_generated_files/usb/usb_device.c: 334:         outPipes[0].info.Val = 0;
  7837  0D98  01B2               	clrf	(_outPipes^(0+384)+2)	;volatile
  7838  0D99                     i1l4685:
  7839                           
  7840                           ;mcc_generated_files/usb/usb_device.c: 335:         outPipes[0].wCount.Val = 0;
  7841  0D99  01B3               	clrf	(_outPipes^(0+384)+3)	;volatile
  7842  0D9A  01B4               	clrf	((_outPipes+1)^(0+384)+3)	;volatile
  7843  0D9B                     i1l4687:
  7844                           
  7845                           ;mcc_generated_files/usb/usb_device.c: 336:     }while(UIRbits.TRNIF == 1);
  7846  0D9B  003D               	movlb	29	; select bank29
  7847  0D9C  1990               	btfsc	16,3	;volatile
  7848  0D9D  2D9F               	goto	u340_21
  7849  0D9E  2DA0               	goto	u340_20
  7850  0D9F                     u340_21:
  7851  0D9F  2D92               	goto	i1l4679
  7852  0DA0                     u340_20:
  7853  0DA0                     i1l4689:
  7854                           
  7855                           ;mcc_generated_files/usb/usb_device.c: 340:     USBStatusStageEnabledFlag1 = 1;
  7856  0DA0  3001               	movlw	1
  7857  0DA1  00F0               	movwf	??i1_USBDeviceInit
  7858  0DA2  0870               	movf	??i1_USBDeviceInit,w
  7859  0DA3  0023               	movlb	3	; select bank3
  7860  0DA4  00E1               	movwf	_USBStatusStageEnabledFlag1^(0+384)	;volatile
  7861                           
  7862                           ;mcc_generated_files/usb/usb_device.c: 341:     USBStatusStageEnabledFlag2 = 1;
  7863  0DA5  3001               	movlw	1
  7864  0DA6  00F0               	movwf	??i1_USBDeviceInit
  7865  0DA7  0870               	movf	??i1_USBDeviceInit,w
  7866  0DA8  00E0               	movwf	_USBStatusStageEnabledFlag2^(0+384)	;volatile
  7867  0DA9                     i1l4691:
  7868                           
  7869                           ;mcc_generated_files/usb/usb_device.c: 343:     USBDeferINDataStagePackets = 0;
  7870  0DA9  01DF               	clrf	_USBDeferINDataStagePackets^(0+384)	;volatile
  7871  0DAA                     i1l4693:
  7872                           
  7873                           ;mcc_generated_files/usb/usb_device.c: 344:     USBDeferOUTDataStagePackets = 0;
  7874  0DAA  01DE               	clrf	_USBDeferOUTDataStagePackets^(0+384)	;volatile
  7875  0DAB                     i1l4695:
  7876                           
  7877                           ;mcc_generated_files/usb/usb_device.c: 345:     USBBusIsSuspended = 0;
  7878  0DAB  01E6               	clrf	_USBBusIsSuspended^(0+384)	;volatile
  7879  0DAC                     i1l4697:
  7880                           
  7881                           ;mcc_generated_files/usb/usb_device.c: 349:     for(i = 0; i < (uint8_t)(2 +1u); i++)
  7882  0DAC  01F4               	clrf	i1USBDeviceInit@i
  7883  0DAD                     i1l4701:
  7884                           
  7885                           ;mcc_generated_files/usb/usb_device.c: 350:     {;mcc_generated_files/usb/usb_device.c: 
      +                          351:         pBDTEntryIn[i] = 0u;
  7886  0DAD  3574               	lslf	i1USBDeviceInit@i,w
  7887  0DAE  3EB7               	addlw	(low (_pBDTEntryIn| (0+256)))& (0+255)
  7888  0DAF  0086               	movwf	6
  7889  0DB0  3001               	movlw	1	; select bank3/4
  7890  0DB1  0087               	movwf	7
  7891  0DB2  3000               	movlw	0
  7892  0DB3  3FC0               	movwi [0]fsr1
  7893  0DB4  3FC1               	movwi [1]fsr1
  7894                           
  7895                           ;mcc_generated_files/usb/usb_device.c: 352:         pBDTEntryOut[i] = 0u;
  7896  0DB5  3574               	lslf	i1USBDeviceInit@i,w
  7897  0DB6  3E2A               	addlw	(low (_pBDTEntryOut| (0+512)))& (0+255)
  7898  0DB7  0086               	movwf	6
  7899  0DB8  3002               	movlw	2	; select bank4/5
  7900  0DB9  0087               	movwf	7
  7901  0DBA  3000               	movlw	0
  7902  0DBB  3FC0               	movwi [0]fsr1
  7903  0DBC  3FC1               	movwi [1]fsr1
  7904                           
  7905                           ;mcc_generated_files/usb/usb_device.c: 353:         ep_data_in[i].Val = 0u;
  7906  0DBD  0874               	movf	i1USBDeviceInit@i,w
  7907  0DBE  3EC5               	addlw	(low (_ep_data_in| (0+256)))& (0+255)
  7908  0DBF  0086               	movwf	6
  7909  0DC0  3001               	movlw	1	; select bank3/4
  7910  0DC1  0087               	movwf	7
  7911  0DC2  0181               	clrf	1
  7912                           
  7913                           ;mcc_generated_files/usb/usb_device.c: 354:         ep_data_out[i].Val = 0u;
  7914  0DC3  0874               	movf	i1USBDeviceInit@i,w
  7915  0DC4  3EC2               	addlw	(low (_ep_data_out| (0+256)))& (0+255)
  7916  0DC5  0086               	movwf	6
  7917  0DC6  3001               	movlw	1	; select bank3/4
  7918  0DC7  0087               	movwf	7
  7919  0DC8  0181               	clrf	1
  7920  0DC9                     i1l4703:
  7921                           
  7922                           ;mcc_generated_files/usb/usb_device.c: 355:     }
  7923  0DC9  3001               	movlw	1
  7924  0DCA  00F0               	movwf	??i1_USBDeviceInit
  7925  0DCB  0870               	movf	??i1_USBDeviceInit,w
  7926  0DCC  07F4               	addwf	i1USBDeviceInit@i,f
  7927  0DCD                     i1l4705:
  7928  0DCD  3003               	movlw	3
  7929  0DCE  0274               	subwf	i1USBDeviceInit@i,w
  7930  0DCF  1C03               	skipc
  7931  0DD0  2DD2               	goto	u341_21
  7932  0DD1  2DD3               	goto	u341_20
  7933  0DD2                     u341_21:
  7934  0DD2  2DAD               	goto	i1l4701
  7935  0DD3                     u341_20:
  7936  0DD3                     i1l4707:
  7937                           
  7938                           ;mcc_generated_files/usb/usb_device.c: 358:     pBDTEntryIn[0] = (volatile BDT_ENTRY*)&B
      +                          DT[2];
  7939  0DD3  3028               	movlw	40
  7940  0DD4  0023               	movlb	3	; select bank3
  7941  0DD5  00B7               	movwf	_pBDTEntryIn^(0+384)
  7942  0DD6  3000               	movlw	0
  7943  0DD7  00B8               	movwf	(_pBDTEntryIn+1)^(0+384)
  7944  0DD8                     i1l4709:
  7945                           
  7946                           ;mcc_generated_files/usb/usb_device.c: 360:     UEP0 = 0x06|0x10;
  7947  0DD8  3016               	movlw	22
  7948  0DD9  003D               	movlb	29	; select bank29
  7949  0DDA  0098               	movwf	24	;volatile
  7950  0DDB                     i1l4711:
  7951                           
  7952                           ;mcc_generated_files/usb/usb_device.c: 362:     BDT[0].ADR = (((uint16_t)(&SetupPkt)) & 
      +                          0x7FFF);
  7953  0DDB  3000               	movlw	0
  7954  0DDC  0020               	movlb	0	; select bank0
  7955  0DDD  00A3               	movwf	35	;volatile
  7956  0DDE  3050               	movlw	80
  7957  0DDF  00A2               	movwf	34	;volatile
  7958  0DE0                     i1l4713:
  7959                           
  7960                           ;mcc_generated_files/usb/usb_device.c: 363:     BDT[0].CNT = 8;
  7961  0DE0  3008               	movlw	8
  7962  0DE1  00A1               	movwf	33	;volatile
  7963  0DE2                     i1l4715:
  7964                           
  7965                           ;mcc_generated_files/usb/usb_device.c: 364:     BDT[0].STAT.Val = 0x00|0x04;
  7966  0DE2  3004               	movlw	4
  7967  0DE3  00F0               	movwf	??i1_USBDeviceInit
  7968  0DE4  0870               	movf	??i1_USBDeviceInit,w
  7969  0DE5  00A0               	movwf	32	;volatile
  7970  0DE6                     i1l4717:
  7971                           
  7972                           ;mcc_generated_files/usb/usb_device.c: 365:     BDT[0].STAT.Val |= 0x80;
  7973  0DE6  17A0               	bsf	32,7	;volatile
  7974  0DE7                     i1l4719:
  7975                           
  7976                           ;mcc_generated_files/usb/usb_device.c: 368:     USBActiveConfiguration = 0;
  7977  0DE7  0023               	movlb	3	; select bank3
  7978  0DE8  01EF               	clrf	_USBActiveConfiguration^(0+384)	;volatile
  7979  0DE9                     i1l4721:
  7980                           
  7981                           ;mcc_generated_files/usb/usb_device.c: 370:     USB1msTickCount = 0;
  7982  0DE9  3000               	movlw	0
  7983  0DEA  0024               	movlb	4	; select bank4
  7984  0DEB  00B7               	movwf	(_USB1msTickCount+3)^(0+512)	;volatile
  7985  0DEC  3000               	movlw	0
  7986  0DED  00B6               	movwf	(_USB1msTickCount+2)^(0+512)	;volatile
  7987  0DEE  3000               	movlw	0
  7988  0DEF  00B5               	movwf	(_USB1msTickCount+1)^(0+512)	;volatile
  7989  0DF0  3000               	movlw	0
  7990  0DF1  00B4               	movwf	_USB1msTickCount^(0+512)	;volatile
  7991  0DF2                     i1l4723:
  7992                           
  7993                           ;mcc_generated_files/usb/usb_device.c: 371:     USBTicksSinceSuspendEnd = 0;
  7994  0DF2  0023               	movlb	3	; select bank3
  7995  0DF3  01DD               	clrf	_USBTicksSinceSuspendEnd^(0+384)	;volatile
  7996  0DF4                     i1l4725:
  7997                           
  7998                           ;mcc_generated_files/usb/usb_device.c: 374:     USBDeviceState = DETACHED_STATE;
  7999  0DF4  01EB               	clrf	_USBDeviceState^(0+384)	;volatile
  8000  0DF5                     i1l141:
  8001  0DF5  0008               	return
  8002  0DF6                     __end_ofi1_USBDeviceInit:
  8003                           
  8004                           	psect	text30
  8005  13AB                     __ptext30:	
  8006 ;; *************** function _USBWakeFromSuspend *****************
  8007 ;; Defined at:
  8008 ;;		line 2307 in file "mcc_generated_files/usb/usb_device.c"
  8009 ;; Parameters:    Size  Location     Type
  8010 ;;		None
  8011 ;; Auto vars:     Size  Location     Type
  8012 ;;		None
  8013 ;; Return value:  Size  Location     Type
  8014 ;;                  1    wreg      void 
  8015 ;; Registers used:
  8016 ;;		wreg, fsr0l, fsr0h, fsr1l, fsr1h, status,2, status,0, pclath, cstack
  8017 ;; Tracked objects:
  8018 ;;		On entry : 0/0
  8019 ;;		On exit  : 0/0
  8020 ;;		Unchanged: 0/0
  8021 ;; Data sizes:     COMMON   BANK0   BANK1   BANK2   BANK3   BANK4   BANK5   BANK6   BANK7   BANK8   BANK9  BANK10  BANK1
      +1  BANK12
  8022 ;;      Params:         0       0       0       0       0       0       0       0       0       0       0       0       
      +0       0
  8023 ;;      Locals:         0       0       0       0       0       0       0       0       0       0       0       0       
      +0       0
  8024 ;;      Temps:          0       1       0       0       0       0       0       0       0       0       0       0       
      +0       0
  8025 ;;      Totals:         0       1       0       0       0       0       0       0       0       0       0       0       
      +0       0
  8026 ;;Total ram usage:        1 bytes
  8027 ;; Hardware stack levels used:    1
  8028 ;; Hardware stack levels required when called:    4
  8029 ;; This function calls:
  8030 ;;		_USER_USB_CALLBACK_EVENT_HANDLER
  8031 ;; This function is called by:
  8032 ;;		_USBDeviceTasks
  8033 ;; This function uses a non-reentrant model
  8034 ;;
  8035                           
  8036                           
  8037                           ;psect for function _USBWakeFromSuspend
  8038  13AB                     _USBWakeFromSuspend:
  8039  13AB                     i1l4459:	
  8040                           ;incstack = 0
  8041                           ; Regs used in _USBWakeFromSuspend: [wreg-fsr1h+status,2+status,0+pclath+cstack]
  8042                           
  8043                           
  8044                           ;mcc_generated_files/usb/usb_device.c: 2309:     USBBusIsSuspended = 0;
  8045  13AB  0023               	movlb	3	; select bank3
  8046  13AC  01E6               	clrf	_USBBusIsSuspended^(0+384)	;volatile
  8047  13AD                     i1l4461:
  8048                           
  8049                           ;mcc_generated_files/usb/usb_device.c: 2315:     USER_USB_CALLBACK_EVENT_HANDLER((USB_EV
      +                          ENT)EVENT_RESUME,0,0);
  8050  13AD  3074               	movlw	116
  8051  13AE  0020               	movlb	0	; select bank0
  8052  13AF  00E0               	movwf	USER_USB_CALLBACK_EVENT_HANDLER@event
  8053  13B0  3000               	movlw	0
  8054  13B1  00E1               	movwf	USER_USB_CALLBACK_EVENT_HANDLER@event+1
  8055  13B2  3000               	movlw	0
  8056  13B3  00E2               	movwf	USER_USB_CALLBACK_EVENT_HANDLER@pdata
  8057  13B4  3000               	movlw	0
  8058  13B5  00E3               	movwf	USER_USB_CALLBACK_EVENT_HANDLER@pdata+1
  8059  13B6  3000               	movlw	0
  8060  13B7  00E4               	movwf	USER_USB_CALLBACK_EVENT_HANDLER@size
  8061  13B8  00E5               	movwf	USER_USB_CALLBACK_EVENT_HANDLER@size+1
  8062  13B9  3194  2471  3193   	fcall	_USER_USB_CALLBACK_EVENT_HANDLER
  8063  13BC                     i1l4463:
  8064                           
  8065                           ;mcc_generated_files/usb/usb_device.c: 2322:         UCONbits.SUSPND = 0;
  8066  13BC  003D               	movlb	29	; select bank29
  8067  13BD  108E               	bcf	14,1	;volatile
  8068  13BE                     i1l4465:
  8069                           
  8070                           ;mcc_generated_files/usb/usb_device.c: 2327:     UIEbits.ACTVIE = 0;
  8071  13BE  1112               	bcf	18,2	;volatile
  8072                           
  8073                           ;mcc_generated_files/usb/usb_device.c: 2345:     while(UIRbits.ACTVIF)
  8074  13BF  2BC6               	goto	i1l4469
  8075  13C0                     i1l4467:
  8076                           
  8077                           ;mcc_generated_files/usb/usb_device.c: 2347:     {;mcc_generated_files/usb/usb_device.c:
      +                           2348:         (UIR &= 0xFB);
  8078  13C0  30FB               	movlw	251
  8079  13C1  0020               	movlb	0	; select bank0
  8080  13C2  00E6               	movwf	??_USBWakeFromSuspend
  8081  13C3  0866               	movf	??_USBWakeFromSuspend,w
  8082  13C4  003D               	movlb	29	; select bank29
  8083  13C5  0590               	andwf	16,f	;volatile
  8084  13C6                     i1l4469:
  8085                           
  8086                           ;mcc_generated_files/usb/usb_device.c: 2345:     while(UIRbits.ACTVIF)
  8087  13C6  1910               	btfsc	16,2	;volatile
  8088  13C7  2BC9               	goto	u320_21
  8089  13C8  2BCA               	goto	u320_20
  8090  13C9                     u320_21:
  8091  13C9  2BC0               	goto	i1l4467
  8092  13CA                     u320_20:
  8093  13CA                     i1l4471:
  8094                           
  8095                           ;mcc_generated_files/usb/usb_device.c: 2351:     USBTicksSinceSuspendEnd = 0;
  8096  13CA  0023               	movlb	3	; select bank3
  8097  13CB  01DD               	clrf	_USBTicksSinceSuspendEnd^(0+384)	;volatile
  8098  13CC                     i1l310:
  8099  13CC  0008               	return
  8100  13CD                     __end_of_USBWakeFromSuspend:
  8101                           
  8102                           	psect	text31
  8103  138B                     __ptext31:	
  8104 ;; *************** function _USBSuspend *****************
  8105 ;; Defined at:
  8106 ;;		line 2249 in file "mcc_generated_files/usb/usb_device.c"
  8107 ;; Parameters:    Size  Location     Type
  8108 ;;		None
  8109 ;; Auto vars:     Size  Location     Type
  8110 ;;		None
  8111 ;; Return value:  Size  Location     Type
  8112 ;;                  1    wreg      void 
  8113 ;; Registers used:
  8114 ;;		wreg, fsr0l, fsr0h, fsr1l, fsr1h, status,2, status,0, pclath, cstack
  8115 ;; Tracked objects:
  8116 ;;		On entry : 0/0
  8117 ;;		On exit  : 0/0
  8118 ;;		Unchanged: 0/0
  8119 ;; Data sizes:     COMMON   BANK0   BANK1   BANK2   BANK3   BANK4   BANK5   BANK6   BANK7   BANK8   BANK9  BANK10  BANK1
      +1  BANK12
  8120 ;;      Params:         0       0       0       0       0       0       0       0       0       0       0       0       
      +0       0
  8121 ;;      Locals:         0       0       0       0       0       0       0       0       0       0       0       0       
      +0       0
  8122 ;;      Temps:          0       1       0       0       0       0       0       0       0       0       0       0       
      +0       0
  8123 ;;      Totals:         0       1       0       0       0       0       0       0       0       0       0       0       
      +0       0
  8124 ;;Total ram usage:        1 bytes
  8125 ;; Hardware stack levels used:    1
  8126 ;; Hardware stack levels required when called:    4
  8127 ;; This function calls:
  8128 ;;		_USER_USB_CALLBACK_EVENT_HANDLER
  8129 ;; This function is called by:
  8130 ;;		_USBDeviceTasks
  8131 ;; This function uses a non-reentrant model
  8132 ;;
  8133                           
  8134                           
  8135                           ;psect for function _USBSuspend
  8136  138B                     _USBSuspend:
  8137  138B                     i1l4473:	
  8138                           ;incstack = 0
  8139                           ; Regs used in _USBSuspend: [wreg-fsr1h+status,2+status,0+pclath+cstack]
  8140                           
  8141                           
  8142                           ;mcc_generated_files/usb/usb_device.c: 2274:     UIEbits.ACTVIE = 1;
  8143  138B  003D               	movlb	29	; select bank29
  8144  138C  1512               	bsf	18,2	;volatile
  8145  138D                     i1l4475:
  8146                           
  8147                           ;mcc_generated_files/usb/usb_device.c: 2275:     (UIR &= 0xEF);
  8148  138D  30EF               	movlw	239
  8149  138E  0020               	movlb	0	; select bank0
  8150  138F  00E6               	movwf	??_USBSuspend
  8151  1390  0866               	movf	??_USBSuspend,w
  8152  1391  003D               	movlb	29	; select bank29
  8153  1392  0590               	andwf	16,f	;volatile
  8154  1393                     i1l4477:
  8155                           
  8156                           ;mcc_generated_files/usb/usb_device.c: 2278:         UCONbits.SUSPND = 1;
  8157  1393  148E               	bsf	14,1	;volatile
  8158  1394                     i1l4479:
  8159                           
  8160                           ;mcc_generated_files/usb/usb_device.c: 2281:     USBBusIsSuspended = 1;
  8161  1394  3001               	movlw	1
  8162  1395  0020               	movlb	0	; select bank0
  8163  1396  00E6               	movwf	??_USBSuspend
  8164  1397  0866               	movf	??_USBSuspend,w
  8165  1398  0023               	movlb	3	; select bank3
  8166  1399  00E6               	movwf	_USBBusIsSuspended^(0+384)	;volatile
  8167  139A                     i1l4481:
  8168                           
  8169                           ;mcc_generated_files/usb/usb_device.c: 2282:     USBTicksSinceSuspendEnd = 0;
  8170  139A  01DD               	clrf	_USBTicksSinceSuspendEnd^(0+384)	;volatile
  8171  139B                     i1l4483:
  8172                           
  8173                           ;mcc_generated_files/usb/usb_device.c: 2289:     USER_USB_CALLBACK_EVENT_HANDLER((USB_EV
      +                          ENT)EVENT_SUSPEND,0,0);
  8174  139B  3075               	movlw	117
  8175  139C  0020               	movlb	0	; select bank0
  8176  139D  00E0               	movwf	USER_USB_CALLBACK_EVENT_HANDLER@event
  8177  139E  3000               	movlw	0
  8178  139F  00E1               	movwf	USER_USB_CALLBACK_EVENT_HANDLER@event+1
  8179  13A0  3000               	movlw	0
  8180  13A1  00E2               	movwf	USER_USB_CALLBACK_EVENT_HANDLER@pdata
  8181  13A2  3000               	movlw	0
  8182  13A3  00E3               	movwf	USER_USB_CALLBACK_EVENT_HANDLER@pdata+1
  8183  13A4  3000               	movlw	0
  8184  13A5  00E4               	movwf	USER_USB_CALLBACK_EVENT_HANDLER@size
  8185  13A6  00E5               	movwf	USER_USB_CALLBACK_EVENT_HANDLER@size+1
  8186  13A7  3194  2471  3193   	fcall	_USER_USB_CALLBACK_EVENT_HANDLER
  8187  13AA                     i1l304:
  8188  13AA  0008               	return
  8189  13AB                     __end_of_USBSuspend:
  8190                           
  8191                           	psect	text32
  8192  1416                     __ptext32:	
  8193 ;; *************** function _USBStallHandler *****************
  8194 ;; Defined at:
  8195 ;;		line 2206 in file "mcc_generated_files/usb/usb_device.c"
  8196 ;; Parameters:    Size  Location     Type
  8197 ;;		None
  8198 ;; Auto vars:     Size  Location     Type
  8199 ;;		None
  8200 ;; Return value:  Size  Location     Type
  8201 ;;                  1    wreg      void 
  8202 ;; Registers used:
  8203 ;;		wreg, fsr1l, fsr1h, status,2, status,0
  8204 ;; Tracked objects:
  8205 ;;		On entry : 0/0
  8206 ;;		On exit  : 0/0
  8207 ;;		Unchanged: 0/0
  8208 ;; Data sizes:     COMMON   BANK0   BANK1   BANK2   BANK3   BANK4   BANK5   BANK6   BANK7   BANK8   BANK9  BANK10  BANK1
      +1  BANK12
  8209 ;;      Params:         0       0       0       0       0       0       0       0       0       0       0       0       
      +0       0
  8210 ;;      Locals:         0       0       0       0       0       0       0       0       0       0       0       0       
      +0       0
  8211 ;;      Temps:          1       0       0       0       0       0       0       0       0       0       0       0       
      +0       0
  8212 ;;      Totals:         1       0       0       0       0       0       0       0       0       0       0       0       
      +0       0
  8213 ;;Total ram usage:        1 bytes
  8214 ;; Hardware stack levels used:    1
  8215 ;; This function calls:
  8216 ;;		Nothing
  8217 ;; This function is called by:
  8218 ;;		_USBDeviceTasks
  8219 ;; This function uses a non-reentrant model
  8220 ;;
  8221                           
  8222                           
  8223                           ;psect for function _USBStallHandler
  8224  1416                     _USBStallHandler:
  8225  1416                     i1l4493:	
  8226                           ;incstack = 0
  8227                           ; Regs used in _USBStallHandler: [wreg+fsr1l+fsr1h+status,2+status,0]
  8228                           
  8229                           
  8230                           ;mcc_generated_files/usb/usb_device.c: 2218:     if(UEP0bits.EPSTALL == 1)
  8231  1416  003D               	movlb	29	; select bank29
  8232  1417  1C18               	btfss	24,0	;volatile
  8233  1418  2C1A               	goto	u323_21
  8234  1419  2C1B               	goto	u323_20
  8235  141A                     u323_21:
  8236  141A  2C3E               	goto	i1l4503
  8237  141B                     u323_20:
  8238  141B                     i1l4495:
  8239                           
  8240                           ;mcc_generated_files/usb/usb_device.c: 2219:     {;mcc_generated_files/usb/usb_device.c:
      +                           2221:         if((pBDTEntryEP0OutCurrent->STAT.Val == 0x80) && (pBDTEntryIn[0]->STAT.Va
      +                          l == (0x80|0x04)))
  8241  141B  0021               	movlb	1	; select bank1
  8242  141C  0845               	movf	_pBDTEntryEP0OutCurrent^(0+128),w
  8243  141D  0086               	movwf	6
  8244  141E  0187               	clrf	7
  8245  141F  3080               	movlw	128
  8246  1420  0601               	xorwf	1,w
  8247  1421  1D03               	btfss	3,2
  8248  1422  2C24               	goto	u324_21
  8249  1423  2C25               	goto	u324_20
  8250  1424                     u324_21:
  8251  1424  2C3C               	goto	i1l4501
  8252  1425                     u324_20:
  8253  1425                     i1l4497:
  8254  1425  0023               	movlb	3	; select bank3
  8255  1426  0837               	movf	_pBDTEntryIn^(0+384),w
  8256  1427  0086               	movwf	6
  8257  1428  0838               	movf	(_pBDTEntryIn+1)^(0+384),w
  8258  1429  0087               	movwf	7
  8259  142A  3084               	movlw	132
  8260  142B  0601               	xorwf	1,w
  8261  142C  1D03               	btfss	3,2
  8262  142D  2C2F               	goto	u325_21
  8263  142E  2C30               	goto	u325_20
  8264  142F                     u325_21:
  8265  142F  2C3C               	goto	i1l4501
  8266  1430                     u325_20:
  8267  1430                     i1l4499:
  8268                           
  8269                           ;mcc_generated_files/usb/usb_device.c: 2222:         {;mcc_generated_files/usb/usb_devic
      +                          e.c: 2224:             pBDTEntryEP0OutCurrent->STAT.Val = 0x00|(0x08 & 0x08)|0x04;
  8270  1430  300C               	movlw	12
  8271  1431  00F0               	movwf	??_USBStallHandler
  8272  1432  0021               	movlb	1	; select bank1
  8273  1433  0845               	movf	_pBDTEntryEP0OutCurrent^(0+128),w
  8274  1434  0086               	movwf	6
  8275  1435  0187               	clrf	7
  8276  1436  0870               	movf	??_USBStallHandler,w
  8277  1437  0081               	movwf	1
  8278                           
  8279                           ;mcc_generated_files/usb/usb_device.c: 2225:             pBDTEntryEP0OutCurrent->STAT.Va
      +                          l |= 0x80;
  8280  1438  0845               	movf	_pBDTEntryEP0OutCurrent^(0+128),w
  8281  1439  0086               	movwf	6
  8282  143A  0187               	clrf	7
  8283  143B  1781               	bsf	1,7
  8284  143C                     i1l4501:
  8285                           
  8286                           ;mcc_generated_files/usb/usb_device.c: 2227:         UEP0bits.EPSTALL = 0;
  8287  143C  003D               	movlb	29	; select bank29
  8288  143D  1018               	bcf	24,0	;volatile
  8289  143E                     i1l4503:
  8290                           
  8291                           ;mcc_generated_files/usb/usb_device.c: 2230:     (UIR &= 0xDF);
  8292  143E  30DF               	movlw	223
  8293  143F  00F0               	movwf	??_USBStallHandler
  8294  1440  0870               	movf	??_USBStallHandler,w
  8295  1441  0590               	andwf	16,f	;volatile
  8296  1442                     i1l301:
  8297  1442  0008               	return
  8298  1443                     __end_of_USBStallHandler:
  8299                           
  8300                           	psect	text33
  8301  1332                     __ptext33:	
  8302 ;; *************** function _USBIncrement1msInternalTimers *****************
  8303 ;; Defined at:
  8304 ;;		line 3029 in file "mcc_generated_files/usb/usb_device.c"
  8305 ;; Parameters:    Size  Location     Type
  8306 ;;		None
  8307 ;; Auto vars:     Size  Location     Type
  8308 ;;		None
  8309 ;; Return value:  Size  Location     Type
  8310 ;;                  1    wreg      void 
  8311 ;; Registers used:
  8312 ;;		wreg, status,2, status,0
  8313 ;; Tracked objects:
  8314 ;;		On entry : 0/0
  8315 ;;		On exit  : 0/0
  8316 ;;		Unchanged: 0/0
  8317 ;; Data sizes:     COMMON   BANK0   BANK1   BANK2   BANK3   BANK4   BANK5   BANK6   BANK7   BANK8   BANK9  BANK10  BANK1
      +1  BANK12
  8318 ;;      Params:         0       0       0       0       0       0       0       0       0       0       0       0       
      +0       0
  8319 ;;      Locals:         0       0       0       0       0       0       0       0       0       0       0       0       
      +0       0
  8320 ;;      Temps:          1       0       0       0       0       0       0       0       0       0       0       0       
      +0       0
  8321 ;;      Totals:         1       0       0       0       0       0       0       0       0       0       0       0       
      +0       0
  8322 ;;Total ram usage:        1 bytes
  8323 ;; Hardware stack levels used:    1
  8324 ;; This function calls:
  8325 ;;		Nothing
  8326 ;; This function is called by:
  8327 ;;		_USBDeviceTasks
  8328 ;; This function uses a non-reentrant model
  8329 ;;
  8330                           
  8331                           
  8332                           ;psect for function _USBIncrement1msInternalTimers
  8333  1332                     _USBIncrement1msInternalTimers:
  8334  1332                     i1l4485:	
  8335                           ;incstack = 0
  8336                           ; Regs used in _USBIncrement1msInternalTimers: [wreg+status,2+status,0]
  8337                           
  8338                           
  8339                           ;mcc_generated_files/usb/usb_device.c: 3037:     USB1msTickCount++;
  8340  1332  3001               	movlw	1
  8341  1333  0024               	movlb	4	; select bank4
  8342  1334  07B4               	addwf	_USB1msTickCount^(0+512),f	;volatile
  8343  1335  3000               	movlw	0
  8344  1336  3DB5               	addwfc	(_USB1msTickCount+1)^(0+512),f	;volatile
  8345  1337  3000               	movlw	0
  8346  1338  3DB6               	addwfc	(_USB1msTickCount+2)^(0+512),f	;volatile
  8347  1339  3000               	movlw	0
  8348  133A  3DB7               	addwfc	(_USB1msTickCount+3)^(0+512),f	;volatile
  8349  133B                     i1l4487:
  8350                           
  8351                           ;mcc_generated_files/usb/usb_device.c: 3038:     if(USBBusIsSuspended == 0)
  8352  133B  0023               	movlb	3	; select bank3
  8353  133C  0866               	movf	_USBBusIsSuspended^(0+384),w	;volatile
  8354  133D  1D03               	btfss	3,2
  8355  133E  2B40               	goto	u321_21
  8356  133F  2B41               	goto	u321_20
  8357  1340                     u321_21:
  8358  1340  2B4E               	goto	i1l391
  8359  1341                     u321_20:
  8360  1341                     i1l4489:
  8361                           
  8362                           ;mcc_generated_files/usb/usb_device.c: 3039:     {;mcc_generated_files/usb/usb_device.c:
      +                           3040:         USBTicksSinceSuspendEnd++;
  8363  1341  3001               	movlw	1
  8364  1342  00F0               	movwf	??_USBIncrement1msInternalTimers
  8365  1343  0870               	movf	??_USBIncrement1msInternalTimers,w
  8366  1344  07DD               	addwf	_USBTicksSinceSuspendEnd^(0+384),f	;volatile
  8367                           
  8368                           ;mcc_generated_files/usb/usb_device.c: 3042:         if(USBTicksSinceSuspendEnd == 0)
  8369  1345  085D               	movf	_USBTicksSinceSuspendEnd^(0+384),w	;volatile
  8370  1346  1D03               	btfss	3,2
  8371  1347  2B49               	goto	u322_21
  8372  1348  2B4A               	goto	u322_20
  8373  1349                     u322_21:
  8374  1349  2B4E               	goto	i1l391
  8375  134A                     u322_20:
  8376  134A                     i1l4491:
  8377                           
  8378                           ;mcc_generated_files/usb/usb_device.c: 3043:         {;mcc_generated_files/usb/usb_devic
      +                          e.c: 3044:             USBTicksSinceSuspendEnd = 255;
  8379  134A  30FF               	movlw	255
  8380  134B  00F0               	movwf	??_USBIncrement1msInternalTimers
  8381  134C  0870               	movf	??_USBIncrement1msInternalTimers,w
  8382  134D  00DD               	movwf	_USBTicksSinceSuspendEnd^(0+384)	;volatile
  8383  134E                     i1l391:
  8384  134E  0008               	return
  8385  134F                     __end_of_USBIncrement1msInternalTimers:
  8386                           
  8387                           	psect	text34
  8388  15E8                     __ptext34:	
  8389 ;; *************** function _USBCtrlEPService *****************
  8390 ;; Defined at:
  8391 ;;		line 2376 in file "mcc_generated_files/usb/usb_device.c"
  8392 ;; Parameters:    Size  Location     Type
  8393 ;;		None
  8394 ;; Auto vars:     Size  Location     Type
  8395 ;;		None
  8396 ;; Return value:  Size  Location     Type
  8397 ;;                  1    wreg      void 
  8398 ;; Registers used:
  8399 ;;		wreg, fsr0l, fsr0h, fsr1l, fsr1h, status,2, status,0, pclath, cstack
  8400 ;; Tracked objects:
  8401 ;;		On entry : 0/0
  8402 ;;		On exit  : 0/0
  8403 ;;		Unchanged: 0/0
  8404 ;; Data sizes:     COMMON   BANK0   BANK1   BANK2   BANK3   BANK4   BANK5   BANK6   BANK7   BANK8   BANK9  BANK10  BANK1
      +1  BANK12
  8405 ;;      Params:         0       0       0       0       0       0       0       0       0       0       0       0       
      +0       0
  8406 ;;      Locals:         0       0       0       0       0       0       0       0       0       0       0       0       
      +0       0
  8407 ;;      Temps:          0       0       2       0       0       0       0       0       0       0       0       0       
      +0       0
  8408 ;;      Totals:         0       0       2       0       0       0       0       0       0       0       0       0       
      +0       0
  8409 ;;Total ram usage:        2 bytes
  8410 ;; Hardware stack levels used:    1
  8411 ;; Hardware stack levels required when called:    7
  8412 ;; This function calls:
  8413 ;;		_USBCtrlTrfInHandler
  8414 ;;		_USBCtrlTrfOutHandler
  8415 ;;		_USBCtrlTrfSetupHandler
  8416 ;;		_memcpy
  8417 ;; This function is called by:
  8418 ;;		_USBDeviceTasks
  8419 ;; This function uses a non-reentrant model
  8420 ;;
  8421                           
  8422                           
  8423                           ;psect for function _USBCtrlEPService
  8424  15E8                     _USBCtrlEPService:
  8425  15E8                     i1l5979:	
  8426                           ;incstack = 0
  8427                           ; Regs used in _USBCtrlEPService: [wreg-fsr1h+status,2+status,0+pclath+cstack]
  8428                           
  8429                           
  8430                           ;mcc_generated_files/usb/usb_device.c: 2382:         USBStatusStageTimeoutCounter = (uin
      +                          t8_t)45;
  8431  15E8  302D               	movlw	45
  8432  15E9  0021               	movlb	1	; select bank1
  8433  15EA  00A0               	movwf	??_USBCtrlEPService^(0+128)
  8434  15EB  0820               	movf	??_USBCtrlEPService^(0+128),w
  8435  15EC  0023               	movlb	3	; select bank3
  8436  15ED  00E3               	movwf	_USBStatusStageTimeoutCounter^(0+384)	;volatile
  8437  15EE                     i1l5981:
  8438                           
  8439                           ;mcc_generated_files/usb/usb_device.c: 2386:     if((USTATcopy.Val & ~0x02) == 0x00)
  8440  15EE  086E               	movf	_USTATcopy^(0+384),w	;volatile
  8441  15EF  39FD               	andlw	253
  8442  15F0  1D03               	btfss	3,2
  8443  15F1  2DF3               	goto	u480_21
  8444  15F2  2DF4               	goto	u480_20
  8445  15F3                     u480_21:
  8446  15F3  2E31               	goto	i1l5997
  8447  15F4                     u480_20:
  8448  15F4                     i1l5983:
  8449                           
  8450                           ;mcc_generated_files/usb/usb_device.c: 2387:     {;mcc_generated_files/usb/usb_device.c:
      +                           2390:             pBDTEntryEP0OutCurrent = (volatile BDT_ENTRY*)&BDT[(USTATcopy.Val & 0
      +                          x7E)>>1];
  8451  15F4  366E               	lsrf	_USTATcopy^(0+384),w	;volatile
  8452  15F5  393F               	andlw	63
  8453  15F6  0021               	movlb	1	; select bank1
  8454  15F7  00A0               	movwf	??_USBCtrlEPService^(0+128)
  8455  15F8  3001               	movlw	1
  8456  15F9                     u481_25:
  8457  15F9  35A0               	lslf	??_USBCtrlEPService^(0+128),f
  8458  15FA  3EFF               	addlw	-1
  8459  15FB  1D03               	skipz
  8460  15FC  2DF9               	goto	u481_25
  8461  15FD  3520               	lslf	??_USBCtrlEPService^(0+128),w
  8462  15FE  3E20               	addlw	32
  8463  15FF  00A1               	movwf	(??_USBCtrlEPService+1)^(0+128)
  8464  1600  0821               	movf	(??_USBCtrlEPService+1)^(0+128),w
  8465  1601  00C5               	movwf	_pBDTEntryEP0OutCurrent^(0+128)
  8466  1602                     i1l5985:
  8467                           
  8468                           ;mcc_generated_files/usb/usb_device.c: 2398:         pBDTEntryEP0OutNext = pBDTEntryEP0O
      +                          utCurrent;
  8469  1602  0845               	movf	_pBDTEntryEP0OutCurrent^(0+128),w
  8470  1603  00C1               	movwf	_pBDTEntryEP0OutNext^(0+128)
  8471  1604  39FF               	andlw	255
  8472  1605  1D03               	skipz
  8473  1606  3000               	movlw	0
  8474  1607  00C2               	movwf	(_pBDTEntryEP0OutNext+1)^(0+128)
  8475  1608                     i1l5987:
  8476                           
  8477                           ;mcc_generated_files/usb/usb_device.c: 2400:         pBDTEntryEP0OutNext = (volatile BDT
      +                          _ENTRY*)(((uint16_t)pBDTEntryEP0OutNext) ^ 0x0004);
  8478  1608  3004               	movlw	4
  8479  1609  0641               	xorwf	_pBDTEntryEP0OutNext^(0+128),w
  8480  160A  00C1               	movwf	_pBDTEntryEP0OutNext^(0+128)
  8481  160B  3000               	movlw	0
  8482  160C  0642               	xorwf	(_pBDTEntryEP0OutNext+1)^(0+128),w
  8483  160D  00C2               	movwf	(_pBDTEntryEP0OutNext+1)^(0+128)
  8484  160E                     i1l5989:
  8485                           
  8486                           ;mcc_generated_files/usb/usb_device.c: 2403:         if(pBDTEntryEP0OutCurrent->STAT.PID
      +                           == 0xD)
  8487  160E  0845               	movf	_pBDTEntryEP0OutCurrent^(0+128),w
  8488  160F  0086               	movwf	6
  8489  1610  0187               	clrf	7
  8490  1611  0C01               	rrf	1,w
  8491  1612  0C89               	rrf	9,f
  8492  1613  390F               	andlw	15
  8493  1614  3A0D               	xorlw	13
  8494  1615  1D03               	skipz
  8495  1616  2E18               	goto	u482_21
  8496  1617  2E19               	goto	u482_20
  8497  1618                     u482_21:
  8498  1618  2E2D               	goto	i1l5995
  8499  1619                     u482_20:
  8500  1619                     i1l5991:
  8501                           
  8502                           ;mcc_generated_files/usb/usb_device.c: 2404:         {;mcc_generated_files/usb/usb_devic
      +                          e.c: 2409:             memcpy((uint8_t*)&SetupPkt, (uint8_t*)((void *)(pBDTEntryEP0OutCu
      +                          rrent->ADR)), 8);
  8503  1619  0845               	movf	_pBDTEntryEP0OutCurrent^(0+128),w
  8504  161A  3E02               	addlw	2
  8505  161B  0086               	movwf	6
  8506  161C  0187               	clrf	7
  8507  161D  3F40               	moviw [0]fsr1
  8508  161E  00F0               	movwf	memcpy@s1
  8509  161F  3F41               	moviw [1]fsr1
  8510  1620  00F1               	movwf	memcpy@s1+1
  8511  1621  3008               	movlw	8
  8512  1622  00F2               	movwf	memcpy@n
  8513  1623  3000               	movlw	0
  8514  1624  00F3               	movwf	memcpy@n+1
  8515  1625  3050               	movlw	80
  8516  1626  3194  2443  3195   	fcall	_memcpy
  8517  1629                     i1l5993:
  8518                           
  8519                           ;mcc_generated_files/usb/usb_device.c: 2412:             USBCtrlTrfSetupHandler();
  8520  1629  3195  2595  3195   	fcall	_USBCtrlTrfSetupHandler
  8521                           
  8522                           ;mcc_generated_files/usb/usb_device.c: 2413:         }
  8523  162C  2E3E               	goto	i1l318
  8524  162D                     i1l5995:
  8525                           
  8526                           ;mcc_generated_files/usb/usb_device.c: 2415:         {;mcc_generated_files/usb/usb_devic
      +                          e.c: 2417:             USBCtrlTrfOutHandler();
  8527  162D  3194  24DA  3195   	fcall	_USBCtrlTrfOutHandler
  8528  1630  2E3E               	goto	i1l318
  8529  1631                     i1l5997:
  8530  1631  30FD               	movlw	253
  8531  1632  056E               	andwf	_USTATcopy^(0+384),w	;volatile
  8532  1633  0021               	movlb	1	; select bank1
  8533  1634  00A0               	movwf	??_USBCtrlEPService^(0+128)
  8534  1635  3004               	movlw	4
  8535  1636  0620               	xorwf	??_USBCtrlEPService^(0+128),w
  8536  1637  1D03               	btfss	3,2
  8537  1638  2E3A               	goto	u483_21
  8538  1639  2E3B               	goto	u483_20
  8539  163A                     u483_21:
  8540  163A  2E3E               	goto	i1l318
  8541  163B                     u483_20:
  8542  163B                     i1l5999:
  8543                           
  8544                           ;mcc_generated_files/usb/usb_device.c: 2421:     {;mcc_generated_files/usb/usb_device.c:
      +                           2424:         USBCtrlTrfInHandler();
  8545  163B  3188  2062  3195   	fcall	_USBCtrlTrfInHandler
  8546  163E                     i1l318:
  8547  163E  0008               	return
  8548  163F                     __end_of_USBCtrlEPService:
  8549                           
  8550                           	psect	text35
  8551  1443                     __ptext35:	
  8552 ;; *************** function _memcpy *****************
  8553 ;; Defined at:
  8554 ;;		line 4 in file "C:\Program Files\Microchip\xc8\v2.31\pic\sources\c99\common\memcpy.c"
  8555 ;; Parameters:    Size  Location     Type
  8556 ;;  d1              1    wreg     PTR void 
  8557 ;;		 -> SetupPkt(8), 
  8558 ;;  s1              2    0[COMMON] PTR const void 
  8559 ;;		 -> CtrlTrfData(8), RAM(4096), SetupPkt(8), 
  8560 ;;  n               2    2[COMMON] unsigned int 
  8561 ;; Auto vars:     Size  Location     Type
  8562 ;;  d1              1    8[COMMON] PTR void 
  8563 ;;		 -> SetupPkt(8), 
  8564 ;;  s               2    5[COMMON] PTR const unsigned char 
  8565 ;;		 -> CtrlTrfData(8), RAM(4096), SetupPkt(8), 
  8566 ;;  d               1    9[COMMON] PTR unsigned char 
  8567 ;;		 -> SetupPkt(8), 
  8568 ;;  tmp             1    7[COMMON] unsigned char 
  8569 ;; Return value:  Size  Location     Type
  8570 ;;                  1    wreg      PTR void 
  8571 ;; Registers used:
  8572 ;;		wreg, fsr1l, fsr1h, status,2, status,0
  8573 ;; Tracked objects:
  8574 ;;		On entry : 0/0
  8575 ;;		On exit  : 0/0
  8576 ;;		Unchanged: 0/0
  8577 ;; Data sizes:     COMMON   BANK0   BANK1   BANK2   BANK3   BANK4   BANK5   BANK6   BANK7   BANK8   BANK9  BANK10  BANK1
      +1  BANK12
  8578 ;;      Params:         4       0       0       0       0       0       0       0       0       0       0       0       
      +0       0
  8579 ;;      Locals:         5       0       0       0       0       0       0       0       0       0       0       0       
      +0       0
  8580 ;;      Temps:          1       0       0       0       0       0       0       0       0       0       0       0       
      +0       0
  8581 ;;      Totals:        10       0       0       0       0       0       0       0       0       0       0       0       
      +0       0
  8582 ;;Total ram usage:       10 bytes
  8583 ;; Hardware stack levels used:    1
  8584 ;; This function calls:
  8585 ;;		Nothing
  8586 ;; This function is called by:
  8587 ;;		_USBCtrlEPService
  8588 ;; This function uses a non-reentrant model
  8589 ;;
  8590                           
  8591                           
  8592                           ;psect for function _memcpy
  8593  1443                     _memcpy:
  8594                           
  8595                           ;incstack = 0
  8596                           ; Regs used in _memcpy: [wreg+fsr1l+fsr1h+status,2+status,0]
  8597                           ;memcpy@d1 stored from wreg
  8598  1443  00F8               	movwf	memcpy@d1
  8599  1444                     i1l4267:
  8600  1444  0871               	movf	memcpy@s1+1,w
  8601  1445  00F6               	movwf	memcpy@s+1
  8602  1446  0870               	movf	memcpy@s1,w
  8603  1447  00F5               	movwf	memcpy@s
  8604  1448  0878               	movf	memcpy@d1,w
  8605  1449  00F4               	movwf	??_memcpy
  8606  144A  0874               	movf	??_memcpy,w
  8607  144B  00F9               	movwf	memcpy@d
  8608  144C  2C64               	goto	i1l4277
  8609  144D                     i1l4269:
  8610  144D  0875               	movf	memcpy@s,w
  8611  144E  0086               	movwf	6
  8612  144F  0876               	movf	memcpy@s+1,w
  8613  1450  0087               	movwf	7
  8614  1451  0801               	movf	1,w
  8615  1452  00F4               	movwf	??_memcpy
  8616  1453  0874               	movf	??_memcpy,w
  8617  1454  00F7               	movwf	memcpy@tmp
  8618  1455                     i1l4271:
  8619  1455  3001               	movlw	1
  8620  1456  07F5               	addwf	memcpy@s,f
  8621  1457  3000               	movlw	0
  8622  1458  3DF6               	addwfc	memcpy@s+1,f
  8623  1459                     i1l4273:
  8624  1459  0877               	movf	memcpy@tmp,w
  8625  145A  00F4               	movwf	??_memcpy
  8626  145B  0879               	movf	memcpy@d,w
  8627  145C  0086               	movwf	6
  8628  145D  0187               	clrf	7
  8629  145E  0874               	movf	??_memcpy,w
  8630  145F  0081               	movwf	1
  8631  1460                     i1l4275:
  8632  1460  3001               	movlw	1
  8633  1461  00F4               	movwf	??_memcpy
  8634  1462  0874               	movf	??_memcpy,w
  8635  1463  07F9               	addwf	memcpy@d,f
  8636  1464                     i1l4277:
  8637  1464  3001               	movlw	1
  8638  1465  02F2               	subwf	memcpy@n,f
  8639  1466  3000               	movlw	0
  8640  1467  3BF3               	subwfb	memcpy@n+1,f
  8641  1468  0A72               	incf	memcpy@n,w
  8642  1469  1D03               	skipz
  8643  146A  2C6F               	goto	u306_21
  8644  146B  0A73               	incf	memcpy@n+1,w
  8645  146C  1D03               	btfss	3,2
  8646  146D  2C6F               	goto	u306_21
  8647  146E  2C70               	goto	u306_20
  8648  146F                     u306_21:
  8649  146F  2C4D               	goto	i1l4269
  8650  1470                     u306_20:
  8651  1470                     i1l1491:
  8652  1470  0008               	return
  8653  1471                     __end_of_memcpy:
  8654                           
  8655                           	psect	text36
  8656  1595                     __ptext36:	
  8657 ;; *************** function _USBCtrlTrfSetupHandler *****************
  8658 ;; Defined at:
  8659 ;;		line 2469 in file "mcc_generated_files/usb/usb_device.c"
  8660 ;; Parameters:    Size  Location     Type
  8661 ;;		None
  8662 ;; Auto vars:     Size  Location     Type
  8663 ;;		None
  8664 ;; Return value:  Size  Location     Type
  8665 ;;                  1    wreg      void 
  8666 ;; Registers used:
  8667 ;;		wreg, fsr0l, fsr0h, fsr1l, fsr1h, status,2, status,0, pclath, cstack
  8668 ;; Tracked objects:
  8669 ;;		On entry : 0/0
  8670 ;;		On exit  : 0/0
  8671 ;;		Unchanged: 0/0
  8672 ;; Data sizes:     COMMON   BANK0   BANK1   BANK2   BANK3   BANK4   BANK5   BANK6   BANK7   BANK8   BANK9  BANK10  BANK1
      +1  BANK12
  8673 ;;      Params:         0       0       0       0       0       0       0       0       0       0       0       0       
      +0       0
  8674 ;;      Locals:         0       0       0       0       0       0       0       0       0       0       0       0       
      +0       0
  8675 ;;      Temps:          0       1       0       0       0       0       0       0       0       0       0       0       
      +0       0
  8676 ;;      Totals:         0       1       0       0       0       0       0       0       0       0       0       0       
      +0       0
  8677 ;;Total ram usage:        1 bytes
  8678 ;; Hardware stack levels used:    1
  8679 ;; Hardware stack levels required when called:    6
  8680 ;; This function calls:
  8681 ;;		_USBCheckStdRequest
  8682 ;;		_USBCtrlEPServiceComplete
  8683 ;;		_USER_USB_CALLBACK_EVENT_HANDLER
  8684 ;; This function is called by:
  8685 ;;		_USBCtrlEPService
  8686 ;; This function uses a non-reentrant model
  8687 ;;
  8688                           
  8689                           
  8690                           ;psect for function _USBCtrlTrfSetupHandler
  8691  1595                     _USBCtrlTrfSetupHandler:
  8692  1595                     i1l5851:	
  8693                           ;incstack = 0
  8694                           ; Regs used in _USBCtrlTrfSetupHandler: [wreg-fsr1h+status,2+status,0+pclath+cstack]
  8695                           
  8696                           
  8697                           ;mcc_generated_files/usb/usb_device.c: 2474:     shortPacketStatus = 0;
  8698  1595  0023               	movlb	3	; select bank3
  8699  1596  01EA               	clrf	_shortPacketStatus^(0+384)	;volatile
  8700                           
  8701                           ;mcc_generated_files/usb/usb_device.c: 2475:     USBDeferStatusStagePacket = 0;
  8702  1597  01E2               	clrf	_USBDeferStatusStagePacket^(0+384)	;volatile
  8703                           
  8704                           ;mcc_generated_files/usb/usb_device.c: 2476:     USBDeferINDataStagePackets = 0;
  8705  1598  01DF               	clrf	_USBDeferINDataStagePackets^(0+384)	;volatile
  8706                           
  8707                           ;mcc_generated_files/usb/usb_device.c: 2477:     USBDeferOUTDataStagePackets = 0;
  8708  1599  01DE               	clrf	_USBDeferOUTDataStagePackets^(0+384)	;volatile
  8709                           
  8710                           ;mcc_generated_files/usb/usb_device.c: 2478:     BothEP0OutUOWNsSet = 0;
  8711  159A  01E4               	clrf	_BothEP0OutUOWNsSet^(0+384)	;volatile
  8712                           
  8713                           ;mcc_generated_files/usb/usb_device.c: 2479:     controlTransferState = 0;
  8714  159B  01E9               	clrf	_controlTransferState^(0+384)	;volatile
  8715  159C                     i1l5853:
  8716                           
  8717                           ;mcc_generated_files/usb/usb_device.c: 2488:     pBDTEntryIn[0]->STAT.Val &= ~(0x80);
  8718  159C  307F               	movlw	127
  8719  159D  0020               	movlb	0	; select bank0
  8720  159E  00EF               	movwf	??_USBCtrlTrfSetupHandler
  8721  159F  0023               	movlb	3	; select bank3
  8722  15A0  0837               	movf	_pBDTEntryIn^(0+384),w
  8723  15A1  0086               	movwf	6
  8724  15A2  0838               	movf	(_pBDTEntryIn+1)^(0+384),w
  8725  15A3  0087               	movwf	7
  8726  15A4  0020               	movlb	0	; select bank0
  8727  15A5  086F               	movf	??_USBCtrlTrfSetupHandler,w
  8728  15A6  0581               	andwf	1,f
  8729  15A7                     i1l5855:
  8730                           
  8731                           ;mcc_generated_files/usb/usb_device.c: 2490:     pBDTEntryIn[0] = (volatile BDT_ENTRY*)(
      +                          ((uint16_t)pBDTEntryIn[0]) ^ 0x0004);
  8732  15A7  3004               	movlw	4
  8733  15A8  0023               	movlb	3	; select bank3
  8734  15A9  0637               	xorwf	_pBDTEntryIn^(0+384),w
  8735  15AA  00B7               	movwf	_pBDTEntryIn^(0+384)
  8736  15AB  3000               	movlw	0
  8737  15AC  0638               	xorwf	(_pBDTEntryIn+1)^(0+384),w
  8738  15AD  00B8               	movwf	(_pBDTEntryIn+1)^(0+384)
  8739  15AE                     i1l5857:
  8740                           
  8741                           ;mcc_generated_files/usb/usb_device.c: 2491:     pBDTEntryIn[0]->STAT.Val &= ~(0x80);
  8742  15AE  307F               	movlw	127
  8743  15AF  0020               	movlb	0	; select bank0
  8744  15B0  00EF               	movwf	??_USBCtrlTrfSetupHandler
  8745  15B1  0023               	movlb	3	; select bank3
  8746  15B2  0837               	movf	_pBDTEntryIn^(0+384),w
  8747  15B3  0086               	movwf	6
  8748  15B4  0838               	movf	(_pBDTEntryIn+1)^(0+384),w
  8749  15B5  0087               	movwf	7
  8750  15B6  0020               	movlb	0	; select bank0
  8751  15B7  086F               	movf	??_USBCtrlTrfSetupHandler,w
  8752  15B8  0581               	andwf	1,f
  8753  15B9                     i1l5859:
  8754                           
  8755                           ;mcc_generated_files/usb/usb_device.c: 2492:     pBDTEntryIn[0] = (volatile BDT_ENTRY*)(
      +                          ((uint16_t)pBDTEntryIn[0]) ^ 0x0004);
  8756  15B9  3004               	movlw	4
  8757  15BA  0023               	movlb	3	; select bank3
  8758  15BB  0637               	xorwf	_pBDTEntryIn^(0+384),w
  8759  15BC  00B7               	movwf	_pBDTEntryIn^(0+384)
  8760  15BD  3000               	movlw	0
  8761  15BE  0638               	xorwf	(_pBDTEntryIn+1)^(0+384),w
  8762  15BF  00B8               	movwf	(_pBDTEntryIn+1)^(0+384)
  8763  15C0                     i1l5861:
  8764                           
  8765                           ;mcc_generated_files/usb/usb_device.c: 2493:     pBDTEntryEP0OutNext->STAT.Val &= ~(0x80
      +                          );
  8766  15C0  307F               	movlw	127
  8767  15C1  0020               	movlb	0	; select bank0
  8768  15C2  00EF               	movwf	??_USBCtrlTrfSetupHandler
  8769  15C3  0021               	movlb	1	; select bank1
  8770  15C4  0841               	movf	_pBDTEntryEP0OutNext^(0+128),w
  8771  15C5  0086               	movwf	6
  8772  15C6  0842               	movf	(_pBDTEntryEP0OutNext+1)^(0+128),w
  8773  15C7  0087               	movwf	7
  8774  15C8  0020               	movlb	0	; select bank0
  8775  15C9  086F               	movf	??_USBCtrlTrfSetupHandler,w
  8776  15CA  0581               	andwf	1,f
  8777  15CB                     i1l5863:
  8778                           
  8779                           ;mcc_generated_files/usb/usb_device.c: 2495:     inPipes[0].info.Val = 0;
  8780  15CB  0023               	movlb	3	; select bank3
  8781  15CC  01BF               	clrf	(_inPipes^(0+384)+2)	;volatile
  8782  15CD                     i1l5865:
  8783                           
  8784                           ;mcc_generated_files/usb/usb_device.c: 2496:     inPipes[0].wCount.Val = 0;
  8785  15CD  01C0               	clrf	(_inPipes^(0+384)+3)	;volatile
  8786  15CE  01C1               	clrf	((_inPipes+1)^(0+384)+3)	;volatile
  8787  15CF                     i1l5867:
  8788                           
  8789                           ;mcc_generated_files/usb/usb_device.c: 2497:     outPipes[0].info.Val = 0;
  8790  15CF  01B2               	clrf	(_outPipes^(0+384)+2)	;volatile
  8791  15D0                     i1l5869:
  8792                           
  8793                           ;mcc_generated_files/usb/usb_device.c: 2498:     outPipes[0].wCount.Val = 0;
  8794  15D0  01B3               	clrf	(_outPipes^(0+384)+3)	;volatile
  8795  15D1  01B4               	clrf	((_outPipes+1)^(0+384)+3)	;volatile
  8796  15D2                     i1l5871:
  8797                           
  8798                           ;mcc_generated_files/usb/usb_device.c: 2504:     USBCheckStdRequest();
  8799  15D2  3189  215D  3195   	fcall	_USBCheckStdRequest
  8800  15D5                     i1l5873:
  8801                           
  8802                           ;mcc_generated_files/usb/usb_device.c: 2505:     USER_USB_CALLBACK_EVENT_HANDLER((USB_EV
      +                          ENT)EVENT_EP0_REQUEST,0,0);
  8803  15D5  3003               	movlw	3
  8804  15D6  0020               	movlb	0	; select bank0
  8805  15D7  00E0               	movwf	USER_USB_CALLBACK_EVENT_HANDLER@event
  8806  15D8  3000               	movlw	0
  8807  15D9  00E1               	movwf	USER_USB_CALLBACK_EVENT_HANDLER@event+1
  8808  15DA  3000               	movlw	0
  8809  15DB  00E2               	movwf	USER_USB_CALLBACK_EVENT_HANDLER@pdata
  8810  15DC  3000               	movlw	0
  8811  15DD  00E3               	movwf	USER_USB_CALLBACK_EVENT_HANDLER@pdata+1
  8812  15DE  3000               	movlw	0
  8813  15DF  00E4               	movwf	USER_USB_CALLBACK_EVENT_HANDLER@size
  8814  15E0  00E5               	movwf	USER_USB_CALLBACK_EVENT_HANDLER@size+1
  8815  15E1  3194  2471  3195   	fcall	_USER_USB_CALLBACK_EVENT_HANDLER
  8816  15E4                     i1l5875:
  8817                           
  8818                           ;mcc_generated_files/usb/usb_device.c: 2518:     USBCtrlEPServiceComplete();
  8819  15E4  318C  24AD  3195   	fcall	_USBCtrlEPServiceComplete
  8820  15E7                     i1l321:
  8821  15E7  0008               	return
  8822  15E8                     __end_of_USBCtrlTrfSetupHandler:
  8823                           
  8824                           	psect	text37
  8825  0CAD                     __ptext37:	
  8826 ;; *************** function _USBCtrlEPServiceComplete *****************
  8827 ;; Defined at:
  8828 ;;		line 1620 in file "mcc_generated_files/usb/usb_device.c"
  8829 ;; Parameters:    Size  Location     Type
  8830 ;;		None
  8831 ;; Auto vars:     Size  Location     Type
  8832 ;;		None
  8833 ;; Return value:  Size  Location     Type
  8834 ;;                  1    wreg      void 
  8835 ;; Registers used:
  8836 ;;		wreg, fsr0l, fsr0h, fsr1l, fsr1h, status,2, status,0, pclath, cstack
  8837 ;; Tracked objects:
  8838 ;;		On entry : 0/0
  8839 ;;		On exit  : 0/0
  8840 ;;		Unchanged: 0/0
  8841 ;; Data sizes:     COMMON   BANK0   BANK1   BANK2   BANK3   BANK4   BANK5   BANK6   BANK7   BANK8   BANK9  BANK10  BANK1
      +1  BANK12
  8842 ;;      Params:         0       0       0       0       0       0       0       0       0       0       0       0       
      +0       0
  8843 ;;      Locals:         0       0       0       0       0       0       0       0       0       0       0       0       
      +0       0
  8844 ;;      Temps:          2       0       0       0       0       0       0       0       0       0       0       0       
      +0       0
  8845 ;;      Totals:         2       0       0       0       0       0       0       0       0       0       0       0       
      +0       0
  8846 ;;Total ram usage:        2 bytes
  8847 ;; Hardware stack levels used:    1
  8848 ;; Hardware stack levels required when called:    2
  8849 ;; This function calls:
  8850 ;;		_USBCtrlEPAllowDataStage
  8851 ;;		_USBCtrlEPAllowStatusStage
  8852 ;; This function is called by:
  8853 ;;		_USBCtrlTrfSetupHandler
  8854 ;; This function uses a non-reentrant model
  8855 ;;
  8856                           
  8857                           
  8858                           ;psect for function _USBCtrlEPServiceComplete
  8859  0CAD                     _USBCtrlEPServiceComplete:
  8860  0CAD                     i1l4125:	
  8861                           ;incstack = 0
  8862                           ; Regs used in _USBCtrlEPServiceComplete: [wreg-fsr1h+status,2+status,0+pclath+cstack]
  8863                           
  8864                           
  8865                           ;mcc_generated_files/usb/usb_device.c: 1626:     UCONbits.PKTDIS = 0;
  8866  0CAD  003D               	movlb	29	; select bank29
  8867  0CAE  120E               	bcf	14,4	;volatile
  8868                           
  8869                           ;mcc_generated_files/usb/usb_device.c: 1632:     if(inPipes[0].info.bits.busy == 0)
  8870  0CAF  0023               	movlb	3	; select bank3
  8871  0CB0  1BBF               	btfsc	(_inPipes^(0+384)+2),7	;volatile
  8872  0CB1  2CB3               	goto	u292_21
  8873  0CB2  2CB4               	goto	u292_20
  8874  0CB3                     u292_21:
  8875  0CB3  2CFA               	goto	i1l221
  8876  0CB4                     u292_20:
  8877  0CB4                     i1l4127:
  8878                           
  8879                           ;mcc_generated_files/usb/usb_device.c: 1633:     {;mcc_generated_files/usb/usb_device.c:
      +                           1634:         if(outPipes[0].info.bits.busy == 1)
  8880  0CB4  1FB2               	btfss	(_outPipes^(0+384)+2),7	;volatile
  8881  0CB5  2CB7               	goto	u293_21
  8882  0CB6  2CB8               	goto	u293_20
  8883  0CB7                     u293_21:
  8884  0CB7  2CC8               	goto	i1l4139
  8885  0CB8                     u293_20:
  8886  0CB8                     i1l4129:
  8887                           
  8888                           ;mcc_generated_files/usb/usb_device.c: 1635:         {;mcc_generated_files/usb/usb_devic
      +                          e.c: 1636:             controlTransferState = 2;
  8889  0CB8  3002               	movlw	2
  8890  0CB9  00F5               	movwf	??_USBCtrlEPServiceComplete
  8891  0CBA  0875               	movf	??_USBCtrlEPServiceComplete,w
  8892  0CBB  00E9               	movwf	_controlTransferState^(0+384)	;volatile
  8893  0CBC                     i1l4131:
  8894                           
  8895                           ;mcc_generated_files/usb/usb_device.c: 1647:             if(USBDeferOUTDataStagePackets 
      +                          == 0)
  8896  0CBC  085E               	movf	_USBDeferOUTDataStagePackets^(0+384),w	;volatile
  8897  0CBD  1D03               	btfss	3,2
  8898  0CBE  2CC0               	goto	u294_21
  8899  0CBF  2CC1               	goto	u294_20
  8900  0CC0                     u294_21:
  8901  0CC0  2CC4               	goto	i1l4135
  8902  0CC1                     u294_20:
  8903  0CC1                     i1l4133:
  8904                           
  8905                           ;mcc_generated_files/usb/usb_device.c: 1648:             {;mcc_generated_files/usb/usb_d
      +                          evice.c: 1649:                 USBCtrlEPAllowDataStage();
  8906  0CC1  3188  2002  318C   	fcall	_USBCtrlEPAllowDataStage
  8907  0CC4                     i1l4135:
  8908                           
  8909                           ;mcc_generated_files/usb/usb_device.c: 1654:             USBStatusStageEnabledFlag2 = 0;
  8910  0CC4  0023               	movlb	3	; select bank3
  8911  0CC5  01E0               	clrf	_USBStatusStageEnabledFlag2^(0+384)	;volatile
  8912  0CC6                     i1l4137:
  8913                           
  8914                           ;mcc_generated_files/usb/usb_device.c: 1655:             USBStatusStageEnabledFlag1 = 0;
  8915  0CC6  01E1               	clrf	_USBStatusStageEnabledFlag1^(0+384)	;volatile
  8916                           
  8917                           ;mcc_generated_files/usb/usb_device.c: 1656:         }
  8918  0CC7  2D4B               	goto	i1l231
  8919  0CC8                     i1l4139:
  8920                           
  8921                           ;mcc_generated_files/usb/usb_device.c: 1658:         {;mcc_generated_files/usb/usb_devic
      +                          e.c: 1663:             pBDTEntryEP0OutNext->CNT = 8;
  8922  0CC8  0021               	movlb	1	; select bank1
  8923  0CC9  0841               	movf	_pBDTEntryEP0OutNext^(0+128),w
  8924  0CCA  3E01               	addlw	1
  8925  0CCB  00F5               	movwf	??_USBCtrlEPServiceComplete
  8926  0CCC  3000               	movlw	0
  8927  0CCD  3D42               	addwfc	(_pBDTEntryEP0OutNext+1)^(0+128),w
  8928  0CCE  00F6               	movwf	??_USBCtrlEPServiceComplete+1
  8929  0CCF  0875               	movf	??_USBCtrlEPServiceComplete,w
  8930  0CD0  0086               	movwf	6
  8931  0CD1  0876               	movf	??_USBCtrlEPServiceComplete+1,w
  8932  0CD2  0087               	movwf	7
  8933  0CD3  3008               	movlw	8
  8934  0CD4  0081               	movwf	1
  8935  0CD5                     i1l4141:
  8936                           
  8937                           ;mcc_generated_files/usb/usb_device.c: 1664:             pBDTEntryEP0OutNext->ADR = (((u
      +                          int16_t)(&SetupPkt)) & 0x7FFF);
  8938  0CD5  3050               	movlw	80
  8939  0CD6  00F5               	movwf	??_USBCtrlEPServiceComplete
  8940  0CD7  3000               	movlw	0
  8941  0CD8  00F6               	movwf	??_USBCtrlEPServiceComplete+1
  8942  0CD9  0841               	movf	_pBDTEntryEP0OutNext^(0+128),w
  8943  0CDA  0086               	movwf	6
  8944  0CDB  0842               	movf	(_pBDTEntryEP0OutNext+1)^(0+128),w
  8945  0CDC  0087               	movwf	7
  8946  0CDD  3142               	addfsr 1,2
  8947  0CDE  0875               	movf	??_USBCtrlEPServiceComplete,w
  8948  0CDF  3FC0               	movwi [0]fsr1
  8949  0CE0  0876               	movf	??_USBCtrlEPServiceComplete+1,w
  8950  0CE1  3FC1               	movwi [1]fsr1
  8951  0CE2                     i1l4143:
  8952                           
  8953                           ;mcc_generated_files/usb/usb_device.c: 1665:             pBDTEntryEP0OutNext->STAT.Val =
      +                           0x00|(0x08 & 0x08)|0x04;
  8954  0CE2  0841               	movf	_pBDTEntryEP0OutNext^(0+128),w
  8955  0CE3  0086               	movwf	6
  8956  0CE4  0842               	movf	(_pBDTEntryEP0OutNext+1)^(0+128),w
  8957  0CE5  0087               	movwf	7
  8958  0CE6  300C               	movlw	12
  8959  0CE7  0081               	movwf	1
  8960  0CE8                     i1l4145:
  8961                           
  8962                           ;mcc_generated_files/usb/usb_device.c: 1666:             pBDTEntryEP0OutNext->STAT.Val |
      +                          = 0x80;
  8963  0CE8  0841               	movf	_pBDTEntryEP0OutNext^(0+128),w
  8964  0CE9  0086               	movwf	6
  8965  0CEA  0842               	movf	(_pBDTEntryEP0OutNext+1)^(0+128),w
  8966  0CEB  0087               	movwf	7
  8967  0CEC  1781               	bsf	1,7
  8968  0CED                     i1l4147:
  8969                           
  8970                           ;mcc_generated_files/usb/usb_device.c: 1667:             pBDTEntryIn[0]->STAT.Val = 0x04
      +                          ;
  8971  0CED  0023               	movlb	3	; select bank3
  8972  0CEE  0837               	movf	_pBDTEntryIn^(0+384),w
  8973  0CEF  0086               	movwf	6
  8974  0CF0  0838               	movf	(_pBDTEntryIn+1)^(0+384),w
  8975  0CF1  0087               	movwf	7
  8976  0CF2  3004               	movlw	4
  8977  0CF3  0081               	movwf	1
  8978  0CF4                     i1l4149:
  8979                           
  8980                           ;mcc_generated_files/usb/usb_device.c: 1668:             pBDTEntryIn[0]->STAT.Val |= 0x8
      +                          0;
  8981  0CF4  0837               	movf	_pBDTEntryIn^(0+384),w
  8982  0CF5  0086               	movwf	6
  8983  0CF6  0838               	movf	(_pBDTEntryIn+1)^(0+384),w
  8984  0CF7  0087               	movwf	7
  8985  0CF8  1781               	bsf	1,7
  8986  0CF9  2D4B               	goto	i1l231
  8987  0CFA                     i1l221:	
  8988                           ;mcc_generated_files/usb/usb_device.c: 1671:     else
  8989                           
  8990                           
  8991                           ;mcc_generated_files/usb/usb_device.c: 1672:     {;mcc_generated_files/usb/usb_device.c:
      +                           1673:   if(SetupPkt.DataDir == (0x80>>7))
  8992  0CFA  0020               	movlb	0	; select bank0
  8993  0CFB  1FD0               	btfss	80,7	;volatile
  8994  0CFC  2CFE               	goto	u295_21
  8995  0CFD  2CFF               	goto	u295_20
  8996  0CFE                     u295_21:
  8997  0CFE  2D18               	goto	i1l4165
  8998  0CFF                     u295_20:
  8999  0CFF                     i1l4151:
  9000                           
  9001                           ;mcc_generated_files/usb/usb_device.c: 1674:   {;mcc_generated_files/usb/usb_device.c: 1
      +                          675:    controlTransferState = 1;
  9002  0CFF  3001               	movlw	1
  9003  0D00  00F5               	movwf	??_USBCtrlEPServiceComplete
  9004  0D01  0875               	movf	??_USBCtrlEPServiceComplete,w
  9005  0D02  0023               	movlb	3	; select bank3
  9006  0D03  00E9               	movwf	_controlTransferState^(0+384)	;volatile
  9007  0D04                     i1l4153:
  9008                           
  9009                           ;mcc_generated_files/usb/usb_device.c: 1689:    if(USBDeferINDataStagePackets == 0)
  9010  0D04  085F               	movf	_USBDeferINDataStagePackets^(0+384),w	;volatile
  9011  0D05  1D03               	btfss	3,2
  9012  0D06  2D08               	goto	u296_21
  9013  0D07  2D09               	goto	u296_20
  9014  0D08                     u296_21:
  9015  0D08  2D0C               	goto	i1l4157
  9016  0D09                     u296_20:
  9017  0D09                     i1l4155:
  9018                           
  9019                           ;mcc_generated_files/usb/usb_device.c: 1690:             {;mcc_generated_files/usb/usb_d
      +                          evice.c: 1691:                 USBCtrlEPAllowDataStage();
  9020  0D09  3188  2002  318C   	fcall	_USBCtrlEPAllowDataStage
  9021  0D0C                     i1l4157:
  9022                           
  9023                           ;mcc_generated_files/usb/usb_device.c: 1714:             USBStatusStageEnabledFlag2 = 0;
  9024  0D0C  0023               	movlb	3	; select bank3
  9025  0D0D  01E0               	clrf	_USBStatusStageEnabledFlag2^(0+384)	;volatile
  9026  0D0E                     i1l4159:
  9027                           
  9028                           ;mcc_generated_files/usb/usb_device.c: 1715:             USBStatusStageEnabledFlag1 = 0;
  9029  0D0E  01E1               	clrf	_USBStatusStageEnabledFlag1^(0+384)	;volatile
  9030  0D0F                     i1l4161:
  9031                           
  9032                           ;mcc_generated_files/usb/usb_device.c: 1716:             if(USBDeferStatusStagePacket ==
      +                           0)
  9033  0D0F  0862               	movf	_USBDeferStatusStagePacket^(0+384),w	;volatile
  9034  0D10  1D03               	btfss	3,2
  9035  0D11  2D13               	goto	u297_21
  9036  0D12  2D14               	goto	u297_20
  9037  0D13                     u297_21:
  9038  0D13  2D4B               	goto	i1l231
  9039  0D14                     u297_20:
  9040  0D14                     i1l4163:
  9041                           
  9042                           ;mcc_generated_files/usb/usb_device.c: 1717:             {;mcc_generated_files/usb/usb_d
      +                          evice.c: 1718:                 USBCtrlEPAllowStatusStage();
  9043  0D14  3197  2789  318C   	fcall	_USBCtrlEPAllowStatusStage
  9044  0D17  2D4B               	goto	i1l231
  9045  0D18                     i1l4165:
  9046                           
  9047                           ;mcc_generated_files/usb/usb_device.c: 1722:   {;mcc_generated_files/usb/usb_device.c: 1
      +                          733:    controlTransferState = 2;
  9048  0D18  3002               	movlw	2
  9049  0D19  00F5               	movwf	??_USBCtrlEPServiceComplete
  9050  0D1A  0875               	movf	??_USBCtrlEPServiceComplete,w
  9051  0D1B  0023               	movlb	3	; select bank3
  9052  0D1C  00E9               	movwf	_controlTransferState^(0+384)	;volatile
  9053  0D1D                     i1l4167:
  9054                           
  9055                           ;mcc_generated_files/usb/usb_device.c: 1736:    pBDTEntryEP0OutNext->CNT = 8;
  9056  0D1D  0021               	movlb	1	; select bank1
  9057  0D1E  0841               	movf	_pBDTEntryEP0OutNext^(0+128),w
  9058  0D1F  3E01               	addlw	1
  9059  0D20  00F5               	movwf	??_USBCtrlEPServiceComplete
  9060  0D21  3000               	movlw	0
  9061  0D22  3D42               	addwfc	(_pBDTEntryEP0OutNext+1)^(0+128),w
  9062  0D23  00F6               	movwf	??_USBCtrlEPServiceComplete+1
  9063  0D24  0875               	movf	??_USBCtrlEPServiceComplete,w
  9064  0D25  0086               	movwf	6
  9065  0D26  0876               	movf	??_USBCtrlEPServiceComplete+1,w
  9066  0D27  0087               	movwf	7
  9067  0D28  3008               	movlw	8
  9068  0D29  0081               	movwf	1
  9069  0D2A                     i1l4169:
  9070                           
  9071                           ;mcc_generated_files/usb/usb_device.c: 1737:    pBDTEntryEP0OutNext->ADR = (((uint16_t)(
      +                          &SetupPkt)) & 0x7FFF);
  9072  0D2A  3050               	movlw	80
  9073  0D2B  00F5               	movwf	??_USBCtrlEPServiceComplete
  9074  0D2C  3000               	movlw	0
  9075  0D2D  00F6               	movwf	??_USBCtrlEPServiceComplete+1
  9076  0D2E  0841               	movf	_pBDTEntryEP0OutNext^(0+128),w
  9077  0D2F  0086               	movwf	6
  9078  0D30  0842               	movf	(_pBDTEntryEP0OutNext+1)^(0+128),w
  9079  0D31  0087               	movwf	7
  9080  0D32  3142               	addfsr 1,2
  9081  0D33  0875               	movf	??_USBCtrlEPServiceComplete,w
  9082  0D34  3FC0               	movwi [0]fsr1
  9083  0D35  0876               	movf	??_USBCtrlEPServiceComplete+1,w
  9084  0D36  3FC1               	movwi [1]fsr1
  9085  0D37                     i1l4171:
  9086                           
  9087                           ;mcc_generated_files/usb/usb_device.c: 1738:    pBDTEntryEP0OutNext->STAT.Val = 0x04;
  9088  0D37  0841               	movf	_pBDTEntryEP0OutNext^(0+128),w
  9089  0D38  0086               	movwf	6
  9090  0D39  0842               	movf	(_pBDTEntryEP0OutNext+1)^(0+128),w
  9091  0D3A  0087               	movwf	7
  9092  0D3B  3004               	movlw	4
  9093  0D3C  0081               	movwf	1
  9094  0D3D                     i1l4173:
  9095                           
  9096                           ;mcc_generated_files/usb/usb_device.c: 1739:             pBDTEntryEP0OutNext->STAT.Val |
      +                          = 0x80;
  9097  0D3D  0841               	movf	_pBDTEntryEP0OutNext^(0+128),w
  9098  0D3E  0086               	movwf	6
  9099  0D3F  0842               	movf	(_pBDTEntryEP0OutNext+1)^(0+128),w
  9100  0D40  0087               	movwf	7
  9101  0D41  1781               	bsf	1,7
  9102  0D42                     i1l4175:
  9103                           
  9104                           ;mcc_generated_files/usb/usb_device.c: 1742:             USBStatusStageEnabledFlag2 = 0;
  9105  0D42  0023               	movlb	3	; select bank3
  9106  0D43  01E0               	clrf	_USBStatusStageEnabledFlag2^(0+384)	;volatile
  9107  0D44                     i1l4177:
  9108                           
  9109                           ;mcc_generated_files/usb/usb_device.c: 1743:             USBStatusStageEnabledFlag1 = 0;
  9110  0D44  01E1               	clrf	_USBStatusStageEnabledFlag1^(0+384)	;volatile
  9111                           
  9112                           ;mcc_generated_files/usb/usb_device.c: 1744:    if(USBDeferStatusStagePacket == 0)
  9113  0D45  0862               	movf	_USBDeferStatusStagePacket^(0+384),w	;volatile
  9114  0D46  1D03               	btfss	3,2
  9115  0D47  2D49               	goto	u298_21
  9116  0D48  2D4A               	goto	u298_20
  9117  0D49                     u298_21:
  9118  0D49  2D4B               	goto	i1l231
  9119  0D4A                     u298_20:
  9120  0D4A  2D14               	goto	i1l4163
  9121  0D4B                     i1l231:
  9122  0D4B  0008               	return
  9123  0D4C                     __end_of_USBCtrlEPServiceComplete:
  9124                           
  9125                           	psect	text38
  9126  0802                     __ptext38:	
  9127 ;; *************** function _USBCtrlEPAllowDataStage *****************
  9128 ;; Defined at:
  9129 ;;		line 1492 in file "mcc_generated_files/usb/usb_device.c"
  9130 ;; Parameters:    Size  Location     Type
  9131 ;;		None
  9132 ;; Auto vars:     Size  Location     Type
  9133 ;;		None
  9134 ;; Return value:  Size  Location     Type
  9135 ;;                  1    wreg      void 
  9136 ;; Registers used:
  9137 ;;		wreg, fsr0l, fsr0h, fsr1l, fsr1h, status,2, status,0, pclath, cstack
  9138 ;; Tracked objects:
  9139 ;;		On entry : 0/0
  9140 ;;		On exit  : 0/0
  9141 ;;		Unchanged: 0/0
  9142 ;; Data sizes:     COMMON   BANK0   BANK1   BANK2   BANK3   BANK4   BANK5   BANK6   BANK7   BANK8   BANK9  BANK10  BANK1
      +1  BANK12
  9143 ;;      Params:         0       0       0       0       0       0       0       0       0       0       0       0       
      +0       0
  9144 ;;      Locals:         0       0       0       0       0       0       0       0       0       0       0       0       
      +0       0
  9145 ;;      Temps:          2       0       0       0       0       0       0       0       0       0       0       0       
      +0       0
  9146 ;;      Totals:         2       0       0       0       0       0       0       0       0       0       0       0       
      +0       0
  9147 ;;Total ram usage:        2 bytes
  9148 ;; Hardware stack levels used:    1
  9149 ;; Hardware stack levels required when called:    1
  9150 ;; This function calls:
  9151 ;;		_USBCtrlTrfTxService
  9152 ;; This function is called by:
  9153 ;;		_USBCtrlEPServiceComplete
  9154 ;; This function uses a non-reentrant model
  9155 ;;
  9156                           
  9157                           
  9158                           ;psect for function _USBCtrlEPAllowDataStage
  9159  0802                     _USBCtrlEPAllowDataStage:
  9160  0802                     i1l3897:	
  9161                           ;incstack = 0
  9162                           ; Regs used in _USBCtrlEPAllowDataStage: [wreg-fsr1h+status,2+status,0+pclath+cstack]
  9163                           
  9164                           
  9165                           ;mcc_generated_files/usb/usb_device.c: 1494:     USBDeferINDataStagePackets = 0;
  9166  0802  0023               	movlb	3	; select bank3
  9167  0803  01DF               	clrf	_USBDeferINDataStagePackets^(0+384)	;volatile
  9168                           
  9169                           ;mcc_generated_files/usb/usb_device.c: 1495:     USBDeferOUTDataStagePackets = 0;
  9170  0804  01DE               	clrf	_USBDeferOUTDataStagePackets^(0+384)	;volatile
  9171  0805                     i1l3899:
  9172                           
  9173                           ;mcc_generated_files/usb/usb_device.c: 1497:     if(controlTransferState == 2)
  9174  0805  3002               	movlw	2
  9175  0806  0669               	xorwf	_controlTransferState^(0+384),w	;volatile
  9176  0807  1D03               	btfss	3,2
  9177  0808  280A               	goto	u261_21
  9178  0809  280B               	goto	u261_20
  9179  080A                     u261_21:
  9180  080A  2831               	goto	i1l3909
  9181  080B                     u261_20:
  9182  080B                     i1l3901:
  9183                           
  9184                           ;mcc_generated_files/usb/usb_device.c: 1498:     {;mcc_generated_files/usb/usb_device.c:
      +                           1500:         pBDTEntryEP0OutNext->CNT = 8;
  9185  080B  0021               	movlb	1	; select bank1
  9186  080C  0841               	movf	_pBDTEntryEP0OutNext^(0+128),w
  9187  080D  3E01               	addlw	1
  9188  080E  00F3               	movwf	??_USBCtrlEPAllowDataStage
  9189  080F  3000               	movlw	0
  9190  0810  3D42               	addwfc	(_pBDTEntryEP0OutNext+1)^(0+128),w
  9191  0811  00F4               	movwf	??_USBCtrlEPAllowDataStage+1
  9192  0812  0873               	movf	??_USBCtrlEPAllowDataStage,w
  9193  0813  0086               	movwf	6
  9194  0814  0874               	movf	??_USBCtrlEPAllowDataStage+1,w
  9195  0815  0087               	movwf	7
  9196  0816  3008               	movlw	8
  9197  0817  0081               	movwf	1
  9198  0818                     i1l3903:
  9199                           
  9200                           ;mcc_generated_files/usb/usb_device.c: 1501:         pBDTEntryEP0OutNext->ADR = (((uint1
      +                          6_t)(&CtrlTrfData)) & 0x7FFF);
  9201  0818  3058               	movlw	88
  9202  0819  00F3               	movwf	??_USBCtrlEPAllowDataStage
  9203  081A  3000               	movlw	0
  9204  081B  00F4               	movwf	??_USBCtrlEPAllowDataStage+1
  9205  081C  0841               	movf	_pBDTEntryEP0OutNext^(0+128),w
  9206  081D  0086               	movwf	6
  9207  081E  0842               	movf	(_pBDTEntryEP0OutNext+1)^(0+128),w
  9208  081F  0087               	movwf	7
  9209  0820  3142               	addfsr 1,2
  9210  0821  0873               	movf	??_USBCtrlEPAllowDataStage,w
  9211  0822  3FC0               	movwi [0]fsr1
  9212  0823  0874               	movf	??_USBCtrlEPAllowDataStage+1,w
  9213  0824  3FC1               	movwi [1]fsr1
  9214  0825                     i1l3905:
  9215                           
  9216                           ;mcc_generated_files/usb/usb_device.c: 1502:         pBDTEntryEP0OutNext->STAT.Val = 0x4
      +                          0|(0x08 & 0x08);
  9217  0825  0841               	movf	_pBDTEntryEP0OutNext^(0+128),w
  9218  0826  0086               	movwf	6
  9219  0827  0842               	movf	(_pBDTEntryEP0OutNext+1)^(0+128),w
  9220  0828  0087               	movwf	7
  9221  0829  3048               	movlw	72
  9222  082A  0081               	movwf	1
  9223  082B                     i1l3907:
  9224                           
  9225                           ;mcc_generated_files/usb/usb_device.c: 1503:         pBDTEntryEP0OutNext->STAT.Val |= 0x
      +                          80;
  9226  082B  0841               	movf	_pBDTEntryEP0OutNext^(0+128),w
  9227  082C  0086               	movwf	6
  9228  082D  0842               	movf	(_pBDTEntryEP0OutNext+1)^(0+128),w
  9229  082E  0087               	movwf	7
  9230  082F  1781               	bsf	1,7
  9231                           
  9232                           ;mcc_generated_files/usb/usb_device.c: 1504:     }
  9233  0830  2861               	goto	i1l213
  9234  0831                     i1l3909:
  9235                           
  9236                           ;mcc_generated_files/usb/usb_device.c: 1506:     {;mcc_generated_files/usb/usb_device.c:
      +                           1509:   if(SetupPkt.wLength < inPipes[0].wCount.Val)
  9237  0831  0841               	movf	((_inPipes+1)^(0+384)+3),w	;volatile
  9238  0832  0020               	movlb	0	; select bank0
  9239  0833  0257               	subwf	87,w	;volatile
  9240  0834  1D03               	skipz
  9241  0835  283A               	goto	u262_25
  9242  0836  0023               	movlb	3	; select bank3
  9243  0837  0840               	movf	(_inPipes^(0+384)+3),w	;volatile
  9244  0838  0020               	movlb	0	; select bank0
  9245  0839  0256               	subwf	86,w	;volatile
  9246  083A                     u262_25:
  9247  083A  1803               	skipnc
  9248  083B  283D               	goto	u262_21
  9249  083C  283E               	goto	u262_20
  9250  083D                     u262_21:
  9251  083D  2845               	goto	i1l3913
  9252  083E                     u262_20:
  9253  083E                     i1l3911:
  9254                           
  9255                           ;mcc_generated_files/usb/usb_device.c: 1510:   {;mcc_generated_files/usb/usb_device.c: 1
      +                          511:    inPipes[0].wCount.Val = SetupPkt.wLength;
  9256  083E  0857               	movf	87,w	;volatile
  9257  083F  0023               	movlb	3	; select bank3
  9258  0840  00C1               	movwf	((_inPipes+1)^(0+384)+3)	;volatile
  9259  0841  0020               	movlb	0	; select bank0
  9260  0842  0856               	movf	86,w	;volatile
  9261  0843  0023               	movlb	3	; select bank3
  9262  0844  00C0               	movwf	(_inPipes^(0+384)+3)	;volatile
  9263  0845                     i1l3913:
  9264                           
  9265                           ;mcc_generated_files/usb/usb_device.c: 1513:   USBCtrlTrfTxService();
  9266  0845  3197  2712  3188   	fcall	_USBCtrlTrfTxService
  9267  0848                     i1l3915:
  9268                           
  9269                           ;mcc_generated_files/usb/usb_device.c: 1518:   pBDTEntryIn[0]->ADR = (((uint16_t)(&CtrlT
      +                          rfData)) & 0x7FFF);
  9270  0848  3058               	movlw	88
  9271  0849  00F3               	movwf	??_USBCtrlEPAllowDataStage
  9272  084A  3000               	movlw	0
  9273  084B  00F4               	movwf	??_USBCtrlEPAllowDataStage+1
  9274  084C  0023               	movlb	3	; select bank3
  9275  084D  0837               	movf	_pBDTEntryIn^(0+384),w
  9276  084E  0086               	movwf	6
  9277  084F  0838               	movf	(_pBDTEntryIn+1)^(0+384),w
  9278  0850  0087               	movwf	7
  9279  0851  3142               	addfsr 1,2
  9280  0852  0873               	movf	??_USBCtrlEPAllowDataStage,w
  9281  0853  3FC0               	movwi [0]fsr1
  9282  0854  0874               	movf	??_USBCtrlEPAllowDataStage+1,w
  9283  0855  3FC1               	movwi [1]fsr1
  9284  0856                     i1l3917:
  9285                           
  9286                           ;mcc_generated_files/usb/usb_device.c: 1519:   pBDTEntryIn[0]->STAT.Val = 0x40|(0x08 & 0
      +                          x08);
  9287  0856  0837               	movf	_pBDTEntryIn^(0+384),w
  9288  0857  0086               	movwf	6
  9289  0858  0838               	movf	(_pBDTEntryIn+1)^(0+384),w
  9290  0859  0087               	movwf	7
  9291  085A  3048               	movlw	72
  9292  085B  0081               	movwf	1
  9293  085C                     i1l3919:
  9294                           
  9295                           ;mcc_generated_files/usb/usb_device.c: 1520:         pBDTEntryIn[0]->STAT.Val |= 0x80;
  9296  085C  0837               	movf	_pBDTEntryIn^(0+384),w
  9297  085D  0086               	movwf	6
  9298  085E  0838               	movf	(_pBDTEntryIn+1)^(0+384),w
  9299  085F  0087               	movwf	7
  9300  0860  1781               	bsf	1,7
  9301  0861                     i1l213:
  9302  0861  0008               	return
  9303  0862                     __end_of_USBCtrlEPAllowDataStage:
  9304                           
  9305                           	psect	text39
  9306  095D                     __ptext39:	
  9307 ;; *************** function _USBCheckStdRequest *****************
  9308 ;; Defined at:
  9309 ;;		line 2690 in file "mcc_generated_files/usb/usb_device.c"
  9310 ;; Parameters:    Size  Location     Type
  9311 ;;		None
  9312 ;; Auto vars:     Size  Location     Type
  9313 ;;		None
  9314 ;; Return value:  Size  Location     Type
  9315 ;;                  1    wreg      void 
  9316 ;; Registers used:
  9317 ;;		wreg, fsr0l, fsr0h, fsr1l, fsr1h, status,2, status,0, pclath, cstack
  9318 ;; Tracked objects:
  9319 ;;		On entry : 0/0
  9320 ;;		On exit  : 0/0
  9321 ;;		Unchanged: 0/0
  9322 ;; Data sizes:     COMMON   BANK0   BANK1   BANK2   BANK3   BANK4   BANK5   BANK6   BANK7   BANK8   BANK9  BANK10  BANK1
      +1  BANK12
  9323 ;;      Params:         0       0       0       0       0       0       0       0       0       0       0       0       
      +0       0
  9324 ;;      Locals:         0       0       0       0       0       0       0       0       0       0       0       0       
      +0       0
  9325 ;;      Temps:          0       2       0       0       0       0       0       0       0       0       0       0       
      +0       0
  9326 ;;      Totals:         0       2       0       0       0       0       0       0       0       0       0       0       
      +0       0
  9327 ;;Total ram usage:        2 bytes
  9328 ;; Hardware stack levels used:    1
  9329 ;; Hardware stack levels required when called:    5
  9330 ;; This function calls:
  9331 ;;		_USBStdFeatureReqHandler
  9332 ;;		_USBStdGetDscHandler
  9333 ;;		_USBStdGetStatusHandler
  9334 ;;		_USBStdSetCfgHandler
  9335 ;;		_USER_USB_CALLBACK_EVENT_HANDLER
  9336 ;; This function is called by:
  9337 ;;		_USBCtrlTrfSetupHandler
  9338 ;; This function uses a non-reentrant model
  9339 ;;
  9340                           
  9341                           
  9342                           ;psect for function _USBCheckStdRequest
  9343  095D                     _USBCheckStdRequest:
  9344  095D                     i1l5807:	
  9345                           ;incstack = 0
  9346                           ; Regs used in _USBCheckStdRequest: [wreg-fsr1h+status,2+status,0+pclath+cstack]
  9347                           
  9348                           
  9349                           ;mcc_generated_files/usb/usb_device.c: 2692:     if(SetupPkt.RequestType != (0x00>>5)) r
      +                          eturn;
  9350  095D  0020               	movlb	0	; select bank0
  9351  095E  0E50               	swapf	80,w	;volatile
  9352  095F  0C89               	rrf	9,f
  9353  0960  3903               	andlw	3
  9354  0961  3A00               	xorlw	0
  9355  0962  1903               	skipnz
  9356  0963  2965               	goto	u473_21
  9357  0964  2966               	goto	u473_20
  9358  0965                     u473_21:
  9359  0965  29B9               	goto	i1l5843
  9360  0966                     u473_20:
  9361  0966  29E4               	goto	i1l346
  9362  0967                     i1l348:	
  9363                           ;mcc_generated_files/usb/usb_device.c: 2695:     {;mcc_generated_files/usb/usb_device.c:
      +                           2696:         case 5:
  9364                           
  9365                           
  9366                           ;mcc_generated_files/usb/usb_device.c: 2697:             inPipes[0].info.bits.busy = 1;
  9367  0967  0023               	movlb	3	; select bank3
  9368  0968  17BF               	bsf	(_inPipes^(0+384)+2),7	;volatile
  9369  0969                     i1l5811:
  9370                           
  9371                           ;mcc_generated_files/usb/usb_device.c: 2698:             USBDeviceState = ADR_PENDING_ST
      +                          ATE;
  9372  0969  3008               	movlw	8
  9373  096A  0020               	movlb	0	; select bank0
  9374  096B  00ED               	movwf	??_USBCheckStdRequest
  9375  096C  086D               	movf	??_USBCheckStdRequest,w
  9376  096D  0023               	movlb	3	; select bank3
  9377  096E  00EB               	movwf	_USBDeviceState^(0+384)	;volatile
  9378                           
  9379                           ;mcc_generated_files/usb/usb_device.c: 2700:             break;
  9380  096F  29E4               	goto	i1l346
  9381  0970                     i1l5813:
  9382                           
  9383                           ;mcc_generated_files/usb/usb_device.c: 2702:             USBStdGetDscHandler();
  9384  0970  318A  226F  3189   	fcall	_USBStdGetDscHandler
  9385                           
  9386                           ;mcc_generated_files/usb/usb_device.c: 2703:             break;
  9387  0973  29E4               	goto	i1l346
  9388  0974                     i1l5815:
  9389                           
  9390                           ;mcc_generated_files/usb/usb_device.c: 2705:             USBStdSetCfgHandler();
  9391  0974  318B  2385  3189   	fcall	_USBStdSetCfgHandler
  9392                           
  9393                           ;mcc_generated_files/usb/usb_device.c: 2706:             break;
  9394  0977  29E4               	goto	i1l346
  9395  0978                     i1l5817:
  9396                           
  9397                           ;mcc_generated_files/usb/usb_device.c: 2708:             inPipes[0].pSrc.bRam = (uint8_t
      +                          *)&USBActiveConfiguration;
  9398  0978  30EF               	movlw	low _USBActiveConfiguration
  9399  0979  0023               	movlb	3	; select bank3
  9400  097A  00BD               	movwf	_inPipes^(0+384)	;volatile
  9401  097B  3001               	movlw	high _USBActiveConfiguration
  9402  097C  00BE               	movwf	(_inPipes+1)^(0+384)	;volatile
  9403  097D                     i1l5819:
  9404                           
  9405                           ;mcc_generated_files/usb/usb_device.c: 2709:             inPipes[0].info.bits.ctrl_trf_m
      +                          em = 0x01;
  9406  097D  143F               	bsf	(_inPipes^(0+384)+2),0	;volatile
  9407  097E                     i1l5821:
  9408                           
  9409                           ;mcc_generated_files/usb/usb_device.c: 2710:             inPipes[0].wCount.v[0] = 1;
  9410  097E  3001               	movlw	1
  9411  097F  0020               	movlb	0	; select bank0
  9412  0980  00ED               	movwf	??_USBCheckStdRequest
  9413  0981  086D               	movf	??_USBCheckStdRequest,w
  9414  0982  0023               	movlb	3	; select bank3
  9415  0983  00C0               	movwf	(_inPipes^(0+384)+3)	;volatile
  9416  0984                     i1l5823:
  9417                           
  9418                           ;mcc_generated_files/usb/usb_device.c: 2711:             inPipes[0].info.bits.busy = 1;
  9419  0984  17BF               	bsf	(_inPipes^(0+384)+2),7	;volatile
  9420                           
  9421                           ;mcc_generated_files/usb/usb_device.c: 2712:             break;
  9422  0985  29E4               	goto	i1l346
  9423  0986                     i1l5825:
  9424                           
  9425                           ;mcc_generated_files/usb/usb_device.c: 2714:             USBStdGetStatusHandler();
  9426  0986  3187  2798  3189   	fcall	_USBStdGetStatusHandler
  9427                           
  9428                           ;mcc_generated_files/usb/usb_device.c: 2715:             break;
  9429  0989  29E4               	goto	i1l346
  9430  098A                     i1l5827:
  9431                           
  9432                           ;mcc_generated_files/usb/usb_device.c: 2718:             USBStdFeatureReqHandler();
  9433  098A  3183  2367  3189   	fcall	_USBStdFeatureReqHandler
  9434                           
  9435                           ;mcc_generated_files/usb/usb_device.c: 2719:             break;
  9436  098D  29E4               	goto	i1l346
  9437  098E                     i1l5829:
  9438                           
  9439                           ;mcc_generated_files/usb/usb_device.c: 2721:             inPipes[0].pSrc.bRam = (uint8_t
      +                          *)&USBAlternateInterface[SetupPkt.bIntfID];
  9440  098E  0854               	movf	84,w	;volatile
  9441  098F  3EEC               	addlw	(low (_USBAlternateInterface| (0+256)))& (0+255)
  9442  0990  0023               	movlb	3	; select bank3
  9443  0991  00BD               	movwf	_inPipes^(0+384)	;volatile
  9444  0992  3001               	movlw	1
  9445  0993  00BE               	movwf	(_inPipes+1)^(0+384)	;volatile
  9446  0994                     i1l5831:
  9447                           
  9448                           ;mcc_generated_files/usb/usb_device.c: 2722:             inPipes[0].info.bits.ctrl_trf_m
      +                          em = 0x01;
  9449  0994  143F               	bsf	(_inPipes^(0+384)+2),0	;volatile
  9450  0995                     i1l5833:
  9451                           
  9452                           ;mcc_generated_files/usb/usb_device.c: 2723:             inPipes[0].wCount.v[0] = 1;
  9453  0995  3001               	movlw	1
  9454  0996  0020               	movlb	0	; select bank0
  9455  0997  00ED               	movwf	??_USBCheckStdRequest
  9456  0998  086D               	movf	??_USBCheckStdRequest,w
  9457  0999  0023               	movlb	3	; select bank3
  9458  099A  00C0               	movwf	(_inPipes^(0+384)+3)	;volatile
  9459  099B                     i1l5835:
  9460                           
  9461                           ;mcc_generated_files/usb/usb_device.c: 2724:             inPipes[0].info.bits.busy = 1;
  9462  099B  17BF               	bsf	(_inPipes^(0+384)+2),7	;volatile
  9463                           
  9464                           ;mcc_generated_files/usb/usb_device.c: 2725:             break;
  9465  099C  29E4               	goto	i1l346
  9466  099D                     i1l357:	
  9467                           ;mcc_generated_files/usb/usb_device.c: 2726:         case 11:
  9468                           
  9469                           
  9470                           ;mcc_generated_files/usb/usb_device.c: 2727:             inPipes[0].info.bits.busy = 1;
  9471  099D  0023               	movlb	3	; select bank3
  9472  099E  17BF               	bsf	(_inPipes^(0+384)+2),7	;volatile
  9473  099F                     i1l5837:
  9474                           
  9475                           ;mcc_generated_files/usb/usb_device.c: 2728:             USBAlternateInterface[SetupPkt.
      +                          bIntfID] = SetupPkt.bAltID;
  9476  099F  0020               	movlb	0	; select bank0
  9477  09A0  0852               	movf	82,w	;volatile
  9478  09A1  00ED               	movwf	??_USBCheckStdRequest
  9479  09A2  0854               	movf	84,w	;volatile
  9480  09A3  3EEC               	addlw	(low (_USBAlternateInterface| (0+256)))& (0+255)
  9481  09A4  0086               	movwf	6
  9482  09A5  3001               	movlw	1	; select bank3/4
  9483  09A6  0087               	movwf	7
  9484  09A7  086D               	movf	??_USBCheckStdRequest,w
  9485  09A8  0081               	movwf	1
  9486                           
  9487                           ;mcc_generated_files/usb/usb_device.c: 2729:             break;
  9488  09A9  29E4               	goto	i1l346
  9489  09AA                     i1l5839:
  9490                           
  9491                           ;mcc_generated_files/usb/usb_device.c: 2731:             USER_USB_CALLBACK_EVENT_HANDLER
      +                          ((USB_EVENT)EVENT_SET_DESCRIPTOR,0,0);
  9492  09AA  3002               	movlw	2
  9493  09AB  00E0               	movwf	USER_USB_CALLBACK_EVENT_HANDLER@event
  9494  09AC  3000               	movlw	0
  9495  09AD  00E1               	movwf	USER_USB_CALLBACK_EVENT_HANDLER@event+1
  9496  09AE  3000               	movlw	0
  9497  09AF  00E2               	movwf	USER_USB_CALLBACK_EVENT_HANDLER@pdata
  9498  09B0  3000               	movlw	0
  9499  09B1  00E3               	movwf	USER_USB_CALLBACK_EVENT_HANDLER@pdata+1
  9500  09B2  3000               	movlw	0
  9501  09B3  00E4               	movwf	USER_USB_CALLBACK_EVENT_HANDLER@size
  9502  09B4  00E5               	movwf	USER_USB_CALLBACK_EVENT_HANDLER@size+1
  9503  09B5  3194  2471  3189   	fcall	_USER_USB_CALLBACK_EVENT_HANDLER
  9504                           
  9505                           ;mcc_generated_files/usb/usb_device.c: 2732:             break;
  9506  09B8  29E4               	goto	i1l346
  9507  09B9                     i1l5843:
  9508  09B9  0851               	movf	81,w	;volatile
  9509  09BA  00ED               	movwf	??_USBCheckStdRequest
  9510  09BB  01EE               	clrf	??_USBCheckStdRequest+1
  9511                           
  9512                           ; Switch on 2 bytes has been partitioned into a top level switch of size 1, and 1 sub-sw
      +                          itches
  9513                           ; Switch size 1, requested type "simple"
  9514                           ; Number of cases is 1, Range of values is 0 to 0
  9515                           ; switch strategies available:
  9516                           ; Name         Instructions Cycles
  9517                           ; simple_byte            4     3 (average)
  9518                           ; direct_byte            8     6 (fixed)
  9519                           ; jumptable            260     6 (fixed)
  9520                           ;	Chosen strategy is simple_byte
  9521  09BC  086E               	movf	??_USBCheckStdRequest+1,w
  9522  09BD  3A00               	xorlw	0	; case 0
  9523  09BE  1903               	skipnz
  9524  09BF  29C1               	goto	i1l7195
  9525  09C0  29E4               	goto	i1l346
  9526  09C1                     i1l7195:
  9527                           
  9528                           ; Switch size 1, requested type "simple"
  9529                           ; Number of cases is 11, Range of values is 0 to 12
  9530                           ; switch strategies available:
  9531                           ; Name         Instructions Cycles
  9532                           ; direct_byte           32     6 (fixed)
  9533                           ; simple_byte           34    18 (average)
  9534                           ; jumptable            260     6 (fixed)
  9535                           ;	Chosen strategy is simple_byte
  9536  09C1  086D               	movf	??_USBCheckStdRequest,w
  9537  09C2  3A00               	xorlw	0	; case 0
  9538  09C3  1903               	skipnz
  9539  09C4  2986               	goto	i1l5825
  9540  09C5  3A01               	xorlw	1	; case 1
  9541  09C6  1903               	skipnz
  9542  09C7  298A               	goto	i1l5827
  9543  09C8  3A02               	xorlw	2	; case 3
  9544  09C9  1903               	skipnz
  9545  09CA  298A               	goto	i1l5827
  9546  09CB  3A06               	xorlw	6	; case 5
  9547  09CC  1903               	skipnz
  9548  09CD  2967               	goto	i1l348
  9549  09CE  3A03               	xorlw	3	; case 6
  9550  09CF  1903               	skipnz
  9551  09D0  2970               	goto	i1l5813
  9552  09D1  3A01               	xorlw	1	; case 7
  9553  09D2  1903               	skipnz
  9554  09D3  29AA               	goto	i1l5839
  9555  09D4  3A0F               	xorlw	15	; case 8
  9556  09D5  1903               	skipnz
  9557  09D6  2978               	goto	i1l5817
  9558  09D7  3A01               	xorlw	1	; case 9
  9559  09D8  1903               	skipnz
  9560  09D9  2974               	goto	i1l5815
  9561  09DA  3A03               	xorlw	3	; case 10
  9562  09DB  1903               	skipnz
  9563  09DC  298E               	goto	i1l5829
  9564  09DD  3A01               	xorlw	1	; case 11
  9565  09DE  1903               	skipnz
  9566  09DF  299D               	goto	i1l357
  9567  09E0  3A07               	xorlw	7	; case 12
  9568  09E1  1903               	skipnz
  9569  09E2  29E4               	goto	i1l346
  9570  09E3  29E4               	goto	i1l346
  9571  09E4                     i1l346:
  9572  09E4  0008               	return
  9573  09E5                     __end_of_USBCheckStdRequest:
  9574                           
  9575                           	psect	text40
  9576  0B85                     __ptext40:	
  9577 ;; *************** function _USBStdSetCfgHandler *****************
  9578 ;; Defined at:
  9579 ;;		line 1972 in file "mcc_generated_files/usb/usb_device.c"
  9580 ;; Parameters:    Size  Location     Type
  9581 ;;		None
  9582 ;; Auto vars:     Size  Location     Type
  9583 ;;  p               2    7[BANK0 ] PTR unsigned char 
  9584 ;;		 -> UEP1(1), 
  9585 ;;  i               1    9[BANK0 ] unsigned char 
  9586 ;;  i               1   10[BANK0 ] unsigned char 
  9587 ;; Return value:  Size  Location     Type
  9588 ;;                  1    wreg      void 
  9589 ;; Registers used:
  9590 ;;		wreg, fsr0l, fsr0h, fsr1l, fsr1h, status,2, status,0, pclath, cstack
  9591 ;; Tracked objects:
  9592 ;;		On entry : 0/0
  9593 ;;		On exit  : 0/0
  9594 ;;		Unchanged: 0/0
  9595 ;; Data sizes:     COMMON   BANK0   BANK1   BANK2   BANK3   BANK4   BANK5   BANK6   BANK7   BANK8   BANK9  BANK10  BANK1
      +1  BANK12
  9596 ;;      Params:         0       0       0       0       0       0       0       0       0       0       0       0       
      +0       0
  9597 ;;      Locals:         0       4       0       0       0       0       0       0       0       0       0       0       
      +0       0
  9598 ;;      Temps:          0       1       0       0       0       0       0       0       0       0       0       0       
      +0       0
  9599 ;;      Totals:         0       5       0       0       0       0       0       0       0       0       0       0       
      +0       0
  9600 ;;Total ram usage:        5 bytes
  9601 ;; Hardware stack levels used:    1
  9602 ;; Hardware stack levels required when called:    4
  9603 ;; This function calls:
  9604 ;;		_USER_USB_CALLBACK_EVENT_HANDLER
  9605 ;;		_memset
  9606 ;; This function is called by:
  9607 ;;		_USBCheckStdRequest
  9608 ;; This function uses a non-reentrant model
  9609 ;;
  9610                           
  9611                           
  9612                           ;psect for function _USBStdSetCfgHandler
  9613  0B85                     _USBStdSetCfgHandler:
  9614  0B85                     i1l5755:	
  9615                           ;incstack = 0
  9616                           ; Regs used in _USBStdSetCfgHandler: [wreg-fsr1h+status,2+status,0+pclath+cstack]
  9617                           
  9618                           
  9619                           ;mcc_generated_files/usb/usb_device.c: 1974:     uint8_t i;;mcc_generated_files/usb/usb_
      +                          device.c: 1977:     inPipes[0].info.bits.busy = 1;
  9620  0B85  0023               	movlb	3	; select bank3
  9621  0B86  17BF               	bsf	(_inPipes^(0+384)+2),7	;volatile
  9622                           
  9623                           ;mcc_generated_files/usb/usb_device.c: 1980:     { uint8_t i; uint8_t* p = (uint8_t*)&UE
      +                          P1; for(i=0;i<2;i++) *p++ = 0; };
  9624  0B87  300E               	movlw	14
  9625  0B88  0020               	movlb	0	; select bank0
  9626  0B89  00E8               	movwf	USBStdSetCfgHandler@p+1
  9627  0B8A  3099               	movlw	153
  9628  0B8B  00E7               	movwf	USBStdSetCfgHandler@p
  9629  0B8C                     i1l5757:
  9630  0B8C  01E9               	clrf	USBStdSetCfgHandler@i_1402
  9631  0B8D                     i1l5763:
  9632  0B8D  0867               	movf	USBStdSetCfgHandler@p,w
  9633  0B8E  0086               	movwf	6
  9634  0B8F  0868               	movf	USBStdSetCfgHandler@p+1,w
  9635  0B90  0087               	movwf	7
  9636  0B91  0181               	clrf	1
  9637  0B92                     i1l5765:
  9638  0B92  3001               	movlw	1
  9639  0B93  07E7               	addwf	USBStdSetCfgHandler@p,f
  9640  0B94  3000               	movlw	0
  9641  0B95  3DE8               	addwfc	USBStdSetCfgHandler@p+1,f
  9642  0B96                     i1l5767:
  9643  0B96  3001               	movlw	1
  9644  0B97  00E6               	movwf	??_USBStdSetCfgHandler
  9645  0B98  0866               	movf	??_USBStdSetCfgHandler,w
  9646  0B99  07E9               	addwf	USBStdSetCfgHandler@i_1402,f
  9647  0B9A                     i1l5769:
  9648  0B9A  3002               	movlw	2
  9649  0B9B  0269               	subwf	USBStdSetCfgHandler@i_1402,w
  9650  0B9C  1C03               	skipc
  9651  0B9D  2B9F               	goto	u470_21
  9652  0B9E  2BA0               	goto	u470_20
  9653  0B9F                     u470_21:
  9654  0B9F  2B8D               	goto	i1l5763
  9655  0BA0                     u470_20:
  9656  0BA0                     i1l5771:
  9657                           
  9658                           ;mcc_generated_files/usb/usb_device.c: 1983:     memset((void*)&BDT[0], 0x00, sizeof(BDT
      +                          ));
  9659  0BA0  3020               	movlw	32
  9660  0BA1  00F0               	movwf	memset@dest
  9661  0BA2  3000               	movlw	0
  9662  0BA3  00F1               	movwf	memset@dest+1
  9663  0BA4  3000               	movlw	0
  9664  0BA5  00F2               	movwf	memset@c
  9665  0BA6  00F3               	movwf	memset@c+1
  9666  0BA7  3030               	movlw	48
  9667  0BA8  00F4               	movwf	memset@n
  9668  0BA9  3000               	movlw	0
  9669  0BAA  00F5               	movwf	memset@n+1
  9670  0BAB  3186  26CE  318B   	fcall	_memset
  9671  0BAE                     i1l5773:
  9672                           
  9673                           ;mcc_generated_files/usb/usb_device.c: 1986:     UCONbits.PPBRST = 1;
  9674  0BAE  003D               	movlb	29	; select bank29
  9675  0BAF  170E               	bsf	14,6	;volatile
  9676  0BB0                     i1l5775:
  9677                           
  9678                           ;mcc_generated_files/usb/usb_device.c: 1991:  for(i = 0; i < (uint8_t)(2 +1u); i++)
  9679  0BB0  0020               	movlb	0	; select bank0
  9680  0BB1  01EA               	clrf	USBStdSetCfgHandler@i
  9681  0BB2                     i1l5781:
  9682                           
  9683                           ;mcc_generated_files/usb/usb_device.c: 1992:  {;mcc_generated_files/usb/usb_device.c: 19
      +                          93:   ep_data_in[i].Val = 0u;
  9684  0BB2  086A               	movf	USBStdSetCfgHandler@i,w
  9685  0BB3  3EC5               	addlw	(low (_ep_data_in| (0+256)))& (0+255)
  9686  0BB4  0086               	movwf	6
  9687  0BB5  3001               	movlw	1	; select bank3/4
  9688  0BB6  0087               	movwf	7
  9689  0BB7  0181               	clrf	1
  9690                           
  9691                           ;mcc_generated_files/usb/usb_device.c: 1994:         ep_data_out[i].Val = 0u;
  9692  0BB8  086A               	movf	USBStdSetCfgHandler@i,w
  9693  0BB9  3EC2               	addlw	(low (_ep_data_out| (0+256)))& (0+255)
  9694  0BBA  0086               	movwf	6
  9695  0BBB  3001               	movlw	1	; select bank3/4
  9696  0BBC  0087               	movwf	7
  9697  0BBD  0181               	clrf	1
  9698  0BBE                     i1l5783:
  9699                           
  9700                           ;mcc_generated_files/usb/usb_device.c: 1995:  }
  9701  0BBE  3001               	movlw	1
  9702  0BBF  00E6               	movwf	??_USBStdSetCfgHandler
  9703  0BC0  0866               	movf	??_USBStdSetCfgHandler,w
  9704  0BC1  07EA               	addwf	USBStdSetCfgHandler@i,f
  9705  0BC2                     i1l5785:
  9706  0BC2  3003               	movlw	3
  9707  0BC3  026A               	subwf	USBStdSetCfgHandler@i,w
  9708  0BC4  1C03               	skipc
  9709  0BC5  2BC7               	goto	u471_21
  9710  0BC6  2BC8               	goto	u471_20
  9711  0BC7                     u471_21:
  9712  0BC7  2BB2               	goto	i1l5781
  9713  0BC8                     u471_20:
  9714  0BC8                     i1l5787:
  9715                           
  9716                           ;mcc_generated_files/usb/usb_device.c: 1998:     memset((void*)&USBAlternateInterface,0x
      +                          00,2);
  9717  0BC8  30EC               	movlw	low _USBAlternateInterface
  9718  0BC9  00F0               	movwf	memset@dest
  9719  0BCA  3001               	movlw	high _USBAlternateInterface
  9720  0BCB  00F1               	movwf	memset@dest+1
  9721  0BCC  3000               	movlw	0
  9722  0BCD  00F2               	movwf	memset@c
  9723  0BCE  00F3               	movwf	memset@c+1
  9724  0BCF  3002               	movlw	2
  9725  0BD0  00F4               	movwf	memset@n
  9726  0BD1  3000               	movlw	0
  9727  0BD2  00F5               	movwf	memset@n+1
  9728  0BD3  3186  26CE  318B   	fcall	_memset
  9729  0BD6                     i1l5789:
  9730                           
  9731                           ;mcc_generated_files/usb/usb_device.c: 2001:     UCONbits.PPBRST = 0;
  9732  0BD6  003D               	movlb	29	; select bank29
  9733  0BD7  130E               	bcf	14,6	;volatile
  9734  0BD8                     i1l5791:
  9735                           
  9736                           ;mcc_generated_files/usb/usb_device.c: 2003:     pBDTEntryIn[0] = (volatile BDT_ENTRY*)&
      +                          BDT[2];
  9737  0BD8  3028               	movlw	40
  9738  0BD9  0023               	movlb	3	; select bank3
  9739  0BDA  00B7               	movwf	_pBDTEntryIn^(0+384)
  9740  0BDB  3000               	movlw	0
  9741  0BDC  00B8               	movwf	(_pBDTEntryIn+1)^(0+384)
  9742  0BDD                     i1l5793:
  9743                           
  9744                           ;mcc_generated_files/usb/usb_device.c: 2006:     pBDTEntryEP0OutCurrent = (volatile BDT_
      +                          ENTRY*)&BDT[0];
  9745  0BDD  3020               	movlw	32
  9746  0BDE  0020               	movlb	0	; select bank0
  9747  0BDF  00E6               	movwf	??_USBStdSetCfgHandler
  9748  0BE0  0866               	movf	??_USBStdSetCfgHandler,w
  9749  0BE1  0021               	movlb	1	; select bank1
  9750  0BE2  00C5               	movwf	_pBDTEntryEP0OutCurrent^(0+128)
  9751  0BE3                     i1l5795:
  9752                           
  9753                           ;mcc_generated_files/usb/usb_device.c: 2007:     pBDTEntryEP0OutNext = pBDTEntryEP0OutCu
      +                          rrent;
  9754  0BE3  0845               	movf	_pBDTEntryEP0OutCurrent^(0+128),w
  9755  0BE4  00C1               	movwf	_pBDTEntryEP0OutNext^(0+128)
  9756  0BE5  39FF               	andlw	255
  9757  0BE6  1D03               	skipz
  9758  0BE7  3000               	movlw	0
  9759  0BE8  00C2               	movwf	(_pBDTEntryEP0OutNext+1)^(0+128)
  9760  0BE9                     i1l5797:
  9761                           
  9762                           ;mcc_generated_files/usb/usb_device.c: 2010:     USBActiveConfiguration = SetupPkt.bConf
      +                          igurationValue;
  9763  0BE9  0020               	movlb	0	; select bank0
  9764  0BEA  0852               	movf	82,w	;volatile
  9765  0BEB  00E6               	movwf	??_USBStdSetCfgHandler
  9766  0BEC  0866               	movf	??_USBStdSetCfgHandler,w
  9767  0BED  0023               	movlb	3	; select bank3
  9768  0BEE  00EF               	movwf	_USBActiveConfiguration^(0+384)	;volatile
  9769  0BEF                     i1l5799:
  9770                           
  9771                           ;mcc_generated_files/usb/usb_device.c: 2013:     if(USBActiveConfiguration == 0)
  9772  0BEF  086F               	movf	_USBActiveConfiguration^(0+384),w	;volatile
  9773  0BF0  1D03               	btfss	3,2
  9774  0BF1  2BF3               	goto	u472_21
  9775  0BF2  2BF4               	goto	u472_20
  9776  0BF3                     u472_21:
  9777  0BF3  2BFB               	goto	i1l5803
  9778  0BF4                     u472_20:
  9779  0BF4                     i1l5801:
  9780                           
  9781                           ;mcc_generated_files/usb/usb_device.c: 2014:     {;mcc_generated_files/usb/usb_device.c:
      +                           2016:         USBDeviceState = ADDRESS_STATE;
  9782  0BF4  3010               	movlw	16
  9783  0BF5  0020               	movlb	0	; select bank0
  9784  0BF6  00E6               	movwf	??_USBStdSetCfgHandler
  9785  0BF7  0866               	movf	??_USBStdSetCfgHandler,w
  9786  0BF8  0023               	movlb	3	; select bank3
  9787  0BF9  00EB               	movwf	_USBDeviceState^(0+384)	;volatile
  9788                           
  9789                           ;mcc_generated_files/usb/usb_device.c: 2017:     }
  9790  0BFA  2C11               	goto	i1l268
  9791  0BFB                     i1l5803:
  9792                           
  9793                           ;mcc_generated_files/usb/usb_device.c: 2019:     {;mcc_generated_files/usb/usb_device.c:
      +                           2021:         USER_USB_CALLBACK_EVENT_HANDLER((USB_EVENT)EVENT_CONFIGURED,(void*)&USBAc
      +                          tiveConfiguration,1);
  9794  0BFB  3001               	movlw	1
  9795  0BFC  0020               	movlb	0	; select bank0
  9796  0BFD  00E0               	movwf	USER_USB_CALLBACK_EVENT_HANDLER@event
  9797  0BFE  3000               	movlw	0
  9798  0BFF  00E1               	movwf	USER_USB_CALLBACK_EVENT_HANDLER@event+1
  9799  0C00  30EF               	movlw	low _USBActiveConfiguration
  9800  0C01  00E2               	movwf	USER_USB_CALLBACK_EVENT_HANDLER@pdata
  9801  0C02  3001               	movlw	high _USBActiveConfiguration
  9802  0C03  00E3               	movwf	USER_USB_CALLBACK_EVENT_HANDLER@pdata+1
  9803  0C04  3001               	movlw	1
  9804  0C05  00E4               	movwf	USER_USB_CALLBACK_EVENT_HANDLER@size
  9805  0C06  3000               	movlw	0
  9806  0C07  00E5               	movwf	USER_USB_CALLBACK_EVENT_HANDLER@size+1
  9807  0C08  3194  2471  318B   	fcall	_USER_USB_CALLBACK_EVENT_HANDLER
  9808  0C0B                     i1l5805:
  9809                           
  9810                           ;mcc_generated_files/usb/usb_device.c: 2026:         USBDeviceState = CONFIGURED_STATE;
  9811  0C0B  3020               	movlw	32
  9812  0C0C  0020               	movlb	0	; select bank0
  9813  0C0D  00E6               	movwf	??_USBStdSetCfgHandler
  9814  0C0E  0866               	movf	??_USBStdSetCfgHandler,w
  9815  0C0F  0023               	movlb	3	; select bank3
  9816  0C10  00EB               	movwf	_USBDeviceState^(0+384)	;volatile
  9817  0C11                     i1l268:
  9818  0C11  0008               	return
  9819  0C12                     __end_of_USBStdSetCfgHandler:
  9820                           
  9821                           	psect	text41
  9822  06CE                     __ptext41:	
  9823 ;; *************** function _memset *****************
  9824 ;; Defined at:
  9825 ;;		line 4 in file "C:\Program Files\Microchip\xc8\v2.31\pic\sources\c99\common\memset.c"
  9826 ;; Parameters:    Size  Location     Type
  9827 ;;  dest            2    0[COMMON] PTR void 
  9828 ;;		 -> USBAlternateInterface(2), BDT(48), 
  9829 ;;  c               2    2[COMMON] int 
  9830 ;;  n               2    4[COMMON] unsigned int 
  9831 ;; Auto vars:     Size  Location     Type
  9832 ;;  s               2   12[COMMON] PTR unsigned char 
  9833 ;;		 -> USBAlternateInterface(2), BDT(48), 
  9834 ;;  k               2   10[COMMON] unsigned int 
  9835 ;; Return value:  Size  Location     Type
  9836 ;;                  2    0[COMMON] PTR void 
  9837 ;; Registers used:
  9838 ;;		wreg, fsr1l, fsr1h, status,2, status,0
  9839 ;; Tracked objects:
  9840 ;;		On entry : 0/0
  9841 ;;		On exit  : 0/0
  9842 ;;		Unchanged: 0/0
  9843 ;; Data sizes:     COMMON   BANK0   BANK1   BANK2   BANK3   BANK4   BANK5   BANK6   BANK7   BANK8   BANK9  BANK10  BANK1
      +1  BANK12
  9844 ;;      Params:         6       0       0       0       0       0       0       0       0       0       0       0       
      +0       0
  9845 ;;      Locals:         4       0       0       0       0       0       0       0       0       0       0       0       
      +0       0
  9846 ;;      Temps:          4       0       0       0       0       0       0       0       0       0       0       0       
      +0       0
  9847 ;;      Totals:        14       0       0       0       0       0       0       0       0       0       0       0       
      +0       0
  9848 ;;Total ram usage:       14 bytes
  9849 ;; Hardware stack levels used:    1
  9850 ;; This function calls:
  9851 ;;		Nothing
  9852 ;; This function is called by:
  9853 ;;		_USBStdSetCfgHandler
  9854 ;; This function uses a non-reentrant model
  9855 ;;
  9856                           
  9857                           
  9858                           ;psect for function _memset
  9859  06CE                     _memset:
  9860  06CE                     i1l5713:	
  9861                           ;incstack = 0
  9862                           ; Regs used in _memset: [wreg+fsr1l+fsr1h+status,2+status,0]
  9863                           
  9864  06CE  0871               	movf	memset@dest+1,w
  9865  06CF  00FD               	movwf	memset@s+1
  9866  06D0  0870               	movf	memset@dest,w
  9867  06D1  00FC               	movwf	memset@s
  9868  06D2                     i1l5715:
  9869  06D2  0874               	movf	memset@n,w
  9870  06D3  0475               	iorwf	memset@n+1,w
  9871  06D4  1D03               	btfss	3,2
  9872  06D5  2ED7               	goto	u465_21
  9873  06D6  2ED8               	goto	u465_20
  9874  06D7                     u465_21:
  9875  06D7  2ED9               	goto	i1l5719
  9876  06D8                     u465_20:
  9877  06D8  2F97               	goto	i1l1495
  9878  06D9                     i1l5719:
  9879  06D9  087C               	movf	memset@s,w
  9880  06DA  0086               	movwf	6
  9881  06DB  087D               	movf	memset@s+1,w
  9882  06DC  0087               	movwf	7
  9883  06DD  0872               	movf	memset@c,w
  9884  06DE  0081               	movwf	1
  9885  06DF                     i1l5721:
  9886  06DF  0874               	movf	memset@n,w
  9887  06E0  077C               	addwf	memset@s,w
  9888  06E1  00F6               	movwf	??_memset
  9889  06E2  0875               	movf	memset@n+1,w
  9890  06E3  3D7D               	addwfc	memset@s+1,w
  9891  06E4  00F7               	movwf	??_memset+1
  9892  06E5  0876               	movf	??_memset,w
  9893  06E6  3EFF               	addlw	255
  9894  06E7  00F8               	movwf	??_memset+2
  9895  06E8  30FF               	movlw	255
  9896  06E9  3D77               	addwfc	??_memset+1,w
  9897  06EA  00F9               	movwf	??_memset+3
  9898  06EB  0878               	movf	??_memset+2,w
  9899  06EC  0086               	movwf	6
  9900  06ED  0879               	movf	??_memset+3,w
  9901  06EE  0087               	movwf	7
  9902  06EF  0872               	movf	memset@c,w
  9903  06F0  0081               	movwf	1
  9904  06F1                     i1l5723:
  9905  06F1  3000               	movlw	0
  9906  06F2  0275               	subwf	memset@n+1,w
  9907  06F3  3003               	movlw	3
  9908  06F4  1903               	skipnz
  9909  06F5  0274               	subwf	memset@n,w
  9910  06F6  1803               	skipnc
  9911  06F7  2EF9               	goto	u466_21
  9912  06F8  2EFA               	goto	u466_20
  9913  06F9                     u466_21:
  9914  06F9  2EFB               	goto	i1l5727
  9915  06FA                     u466_20:
  9916  06FA  2F97               	goto	i1l1495
  9917  06FB                     i1l5727:
  9918  06FB  087C               	movf	memset@s,w
  9919  06FC  3E01               	addlw	1
  9920  06FD  00F6               	movwf	??_memset
  9921  06FE  3000               	movlw	0
  9922  06FF  3D7D               	addwfc	memset@s+1,w
  9923  0700  00F7               	movwf	??_memset+1
  9924  0701  0876               	movf	??_memset,w
  9925  0702  0086               	movwf	6
  9926  0703  0877               	movf	??_memset+1,w
  9927  0704  0087               	movwf	7
  9928  0705  0872               	movf	memset@c,w
  9929  0706  0081               	movwf	1
  9930  0707  087C               	movf	memset@s,w
  9931  0708  3E02               	addlw	2
  9932  0709  00F6               	movwf	??_memset
  9933  070A  3000               	movlw	0
  9934  070B  3D7D               	addwfc	memset@s+1,w
  9935  070C  00F7               	movwf	??_memset+1
  9936  070D  0876               	movf	??_memset,w
  9937  070E  0086               	movwf	6
  9938  070F  0877               	movf	??_memset+1,w
  9939  0710  0087               	movwf	7
  9940  0711  0872               	movf	memset@c,w
  9941  0712  0081               	movwf	1
  9942  0713  0874               	movf	memset@n,w
  9943  0714  077C               	addwf	memset@s,w
  9944  0715  00F6               	movwf	??_memset
  9945  0716  0875               	movf	memset@n+1,w
  9946  0717  3D7D               	addwfc	memset@s+1,w
  9947  0718  00F7               	movwf	??_memset+1
  9948  0719  0876               	movf	??_memset,w
  9949  071A  3EFE               	addlw	254
  9950  071B  00F8               	movwf	??_memset+2
  9951  071C  30FF               	movlw	255
  9952  071D  3D77               	addwfc	??_memset+1,w
  9953  071E  00F9               	movwf	??_memset+3
  9954  071F  0878               	movf	??_memset+2,w
  9955  0720  0086               	movwf	6
  9956  0721  0879               	movf	??_memset+3,w
  9957  0722  0087               	movwf	7
  9958  0723  0872               	movf	memset@c,w
  9959  0724  0081               	movwf	1
  9960  0725  0874               	movf	memset@n,w
  9961  0726  077C               	addwf	memset@s,w
  9962  0727  00F6               	movwf	??_memset
  9963  0728  0875               	movf	memset@n+1,w
  9964  0729  3D7D               	addwfc	memset@s+1,w
  9965  072A  00F7               	movwf	??_memset+1
  9966  072B  0876               	movf	??_memset,w
  9967  072C  3EFD               	addlw	253
  9968  072D  00F8               	movwf	??_memset+2
  9969  072E  30FF               	movlw	255
  9970  072F  3D77               	addwfc	??_memset+1,w
  9971  0730  00F9               	movwf	??_memset+3
  9972  0731  0878               	movf	??_memset+2,w
  9973  0732  0086               	movwf	6
  9974  0733  0879               	movf	??_memset+3,w
  9975  0734  0087               	movwf	7
  9976  0735  0872               	movf	memset@c,w
  9977  0736  0081               	movwf	1
  9978  0737                     i1l5729:
  9979  0737  3000               	movlw	0
  9980  0738  0275               	subwf	memset@n+1,w
  9981  0739  3007               	movlw	7
  9982  073A  1903               	skipnz
  9983  073B  0274               	subwf	memset@n,w
  9984  073C  1803               	skipnc
  9985  073D  2F3F               	goto	u467_21
  9986  073E  2F40               	goto	u467_20
  9987  073F                     u467_21:
  9988  073F  2F41               	goto	i1l5733
  9989  0740                     u467_20:
  9990  0740  2F97               	goto	i1l1495
  9991  0741                     i1l5733:
  9992  0741  087C               	movf	memset@s,w
  9993  0742  3E03               	addlw	3
  9994  0743  00F6               	movwf	??_memset
  9995  0744  3000               	movlw	0
  9996  0745  3D7D               	addwfc	memset@s+1,w
  9997  0746  00F7               	movwf	??_memset+1
  9998  0747  0876               	movf	??_memset,w
  9999  0748  0086               	movwf	6
 10000  0749  0877               	movf	??_memset+1,w
 10001  074A  0087               	movwf	7
 10002  074B  0872               	movf	memset@c,w
 10003  074C  0081               	movwf	1
 10004  074D  0874               	movf	memset@n,w
 10005  074E  077C               	addwf	memset@s,w
 10006  074F  00F6               	movwf	??_memset
 10007  0750  0875               	movf	memset@n+1,w
 10008  0751  3D7D               	addwfc	memset@s+1,w
 10009  0752  00F7               	movwf	??_memset+1
 10010  0753  0876               	movf	??_memset,w
 10011  0754  3EFC               	addlw	252
 10012  0755  00F8               	movwf	??_memset+2
 10013  0756  30FF               	movlw	255
 10014  0757  3D77               	addwfc	??_memset+1,w
 10015  0758  00F9               	movwf	??_memset+3
 10016  0759  0878               	movf	??_memset+2,w
 10017  075A  0086               	movwf	6
 10018  075B  0879               	movf	??_memset+3,w
 10019  075C  0087               	movwf	7
 10020  075D  0872               	movf	memset@c,w
 10021  075E  0081               	movwf	1
 10022  075F                     i1l5735:
 10023  075F  3000               	movlw	0
 10024  0760  0275               	subwf	memset@n+1,w
 10025  0761  3009               	movlw	9
 10026  0762  1903               	skipnz
 10027  0763  0274               	subwf	memset@n,w
 10028  0764  1803               	skipnc
 10029  0765  2F67               	goto	u468_21
 10030  0766  2F68               	goto	u468_20
 10031  0767                     u468_21:
 10032  0767  2F69               	goto	i1l5739
 10033  0768                     u468_20:
 10034  0768  2F97               	goto	i1l1495
 10035  0769                     i1l5739:
 10036  0769  097C               	comf	memset@s,w
 10037  076A  00F6               	movwf	??_memset
 10038  076B  097D               	comf	memset@s+1,w
 10039  076C  00F7               	movwf	??_memset+1
 10040  076D  0AF6               	incf	??_memset,f
 10041  076E  1903               	skipnz
 10042  076F  0AF7               	incf	??_memset+1,f
 10043  0770  3003               	movlw	3
 10044  0771  0576               	andwf	??_memset,w
 10045  0772  00FA               	movwf	memset@k
 10046  0773  3000               	movlw	0
 10047  0774  0577               	andwf	??_memset+1,w
 10048  0775  00FB               	movwf	memset@k+1
 10049  0776                     i1l5741:
 10050  0776  087A               	movf	memset@k,w
 10051  0777  07FC               	addwf	memset@s,f
 10052  0778  087B               	movf	memset@k+1,w
 10053  0779  3DFD               	addwfc	memset@s+1,f
 10054  077A                     i1l5743:
 10055  077A  087A               	movf	memset@k,w
 10056  077B  02F4               	subwf	memset@n,f
 10057  077C  087B               	movf	memset@k+1,w
 10058  077D  3BF5               	subwfb	memset@n+1,f
 10059  077E                     i1l5745:
 10060  077E  30FC               	movlw	252
 10061  077F  05F4               	andwf	memset@n,f
 10062  0780  30FF               	movlw	255
 10063  0781  05F5               	andwf	memset@n+1,f
 10064  0782  2F91               	goto	i1l5753
 10065  0783                     i1l5747:
 10066  0783  087C               	movf	memset@s,w
 10067  0784  0086               	movwf	6
 10068  0785  087D               	movf	memset@s+1,w
 10069  0786  0087               	movwf	7
 10070  0787  0872               	movf	memset@c,w
 10071  0788  0081               	movwf	1
 10072  0789                     i1l5749:
 10073  0789  3001               	movlw	1
 10074  078A  02F4               	subwf	memset@n,f
 10075  078B  3000               	movlw	0
 10076  078C  3BF5               	subwfb	memset@n+1,f
 10077  078D                     i1l5751:
 10078  078D  3001               	movlw	1
 10079  078E  07FC               	addwf	memset@s,f
 10080  078F  3000               	movlw	0
 10081  0790  3DFD               	addwfc	memset@s+1,f
 10082  0791                     i1l5753:
 10083  0791  0874               	movf	memset@n,w
 10084  0792  0475               	iorwf	memset@n+1,w
 10085  0793  1D03               	btfss	3,2
 10086  0794  2F96               	goto	u469_21
 10087  0795  2F97               	goto	u469_20
 10088  0796                     u469_21:
 10089  0796  2F83               	goto	i1l5747
 10090  0797                     u469_20:
 10091  0797                     i1l1495:
 10092  0797  0008               	return
 10093  0798                     __end_of_memset:
 10094                           
 10095                           	psect	text42
 10096  0798                     __ptext42:	
 10097 ;; *************** function _USBStdGetStatusHandler *****************
 10098 ;; Defined at:
 10099 ;;		line 2133 in file "mcc_generated_files/usb/usb_device.c"
 10100 ;; Parameters:    Size  Location     Type
 10101 ;;		None
 10102 ;; Auto vars:     Size  Location     Type
 10103 ;;  p               2    2[COMMON] PTR struct __BDT
 10104 ;;		 -> RAM(4096), NULL(0), BDT(48), 
 10105 ;; Return value:  Size  Location     Type
 10106 ;;                  1    wreg      void 
 10107 ;; Registers used:
 10108 ;;		wreg, fsr0l, fsr0h, fsr1l, fsr1h, status,2, status,0
 10109 ;; Tracked objects:
 10110 ;;		On entry : 0/0
 10111 ;;		On exit  : 0/0
 10112 ;;		Unchanged: 0/0
 10113 ;; Data sizes:     COMMON   BANK0   BANK1   BANK2   BANK3   BANK4   BANK5   BANK6   BANK7   BANK8   BANK9  BANK10  BANK1
      +1  BANK12
 10114 ;;      Params:         0       0       0       0       0       0       0       0       0       0       0       0       
      +0       0
 10115 ;;      Locals:         2       0       0       0       0       0       0       0       0       0       0       0       
      +0       0
 10116 ;;      Temps:          2       0       0       0       0       0       0       0       0       0       0       0       
      +0       0
 10117 ;;      Totals:         4       0       0       0       0       0       0       0       0       0       0       0       
      +0       0
 10118 ;;Total ram usage:        4 bytes
 10119 ;; Hardware stack levels used:    1
 10120 ;; This function calls:
 10121 ;;		Nothing
 10122 ;; This function is called by:
 10123 ;;		_USBCheckStdRequest
 10124 ;; This function uses a non-reentrant model
 10125 ;;
 10126                           
 10127                           
 10128                           ;psect for function _USBStdGetStatusHandler
 10129  0798                     _USBStdGetStatusHandler:
 10130  0798                     i1l4009:	
 10131                           ;incstack = 0
 10132                           ; Regs used in _USBStdGetStatusHandler: [wreg-fsr1h+status,2+status,0]
 10133                           
 10134                           
 10135                           ;mcc_generated_files/usb/usb_device.c: 2135:     CtrlTrfData[0] = 0;
 10136  0798  0020               	movlb	0	; select bank0
 10137  0799  01D8               	clrf	88	;volatile
 10138                           
 10139                           ;mcc_generated_files/usb/usb_device.c: 2136:     CtrlTrfData[1] = 0;
 10140  079A  01D9               	clrf	89	;volatile
 10141                           
 10142                           ;mcc_generated_files/usb/usb_device.c: 2138:     switch(SetupPkt.Recipient)
 10143  079B  2FDC               	goto	i1l4029
 10144  079C                     i1l286:	
 10145                           ;mcc_generated_files/usb/usb_device.c: 2139:     {;mcc_generated_files/usb/usb_device.c:
      +                           2140:         case (0x00):
 10146                           
 10147                           
 10148                           ;mcc_generated_files/usb/usb_device.c: 2141:             inPipes[0].info.bits.busy = 1;
 10149  079C  0023               	movlb	3	; select bank3
 10150  079D  17BF               	bsf	(_inPipes^(0+384)+2),7	;volatile
 10151  079E                     i1l4013:	
 10152                           ;mcc_generated_files/usb/usb_device.c: 2146:             if(0 == 1)
 10153                           
 10154                           
 10155                           ;mcc_generated_files/usb/usb_device.c: 2151:             if(RemoteWakeup == 1)
 10156  079E  0367               	decf	_RemoteWakeup^(0+384),w	;volatile
 10157  079F  1D03               	btfss	3,2
 10158  07A0  2FA2               	goto	u269_21
 10159  07A1  2FA3               	goto	u269_20
 10160  07A2                     u269_21:
 10161  07A2  2FF0               	goto	i1l289
 10162  07A3                     u269_20:
 10163  07A3                     i1l4015:
 10164                           
 10165                           ;mcc_generated_files/usb/usb_device.c: 2152:             {;mcc_generated_files/usb/usb_d
      +                          evice.c: 2153:                 CtrlTrfData[0]|=0x02;
 10166  07A3  0020               	movlb	0	; select bank0
 10167  07A4  14D8               	bsf	88,1	;volatile
 10168  07A5  2FF0               	goto	i1l289
 10169  07A6                     i1l290:	
 10170                           ;mcc_generated_files/usb/usb_device.c: 2156:         case (0x01):
 10171                           
 10172                           
 10173                           ;mcc_generated_files/usb/usb_device.c: 2157:             inPipes[0].info.bits.busy = 1;
 10174  07A6  0023               	movlb	3	; select bank3
 10175  07A7  17BF               	bsf	(_inPipes^(0+384)+2),7	;volatile
 10176                           
 10177                           ;mcc_generated_files/usb/usb_device.c: 2158:             break;
 10178  07A8  2FF0               	goto	i1l289
 10179  07A9                     i1l291:	
 10180                           ;mcc_generated_files/usb/usb_device.c: 2159:         case (0x02):
 10181                           
 10182                           
 10183                           ;mcc_generated_files/usb/usb_device.c: 2160:             inPipes[0].info.bits.busy = 1;
 10184  07A9  0023               	movlb	3	; select bank3
 10185  07AA  17BF               	bsf	(_inPipes^(0+384)+2),7	;volatile
 10186                           
 10187                           ;mcc_generated_files/usb/usb_device.c: 2164:             {;mcc_generated_files/usb/usb_d
      +                          evice.c: 2165:                 BDT_ENTRY *p;;mcc_generated_files/usb/usb_device.c: 2167:
      +                                           if(SetupPkt.EPDir == 0)
 10188  07AB  0020               	movlb	0	; select bank0
 10189  07AC  1BD4               	btfsc	84,7	;volatile
 10190  07AD  2FAF               	goto	u270_21
 10191  07AE  2FB0               	goto	u270_20
 10192  07AF                     u270_21:
 10193  07AF  2FBC               	goto	i1l4019
 10194  07B0                     u270_20:
 10195  07B0                     i1l4017:
 10196                           
 10197                           ;mcc_generated_files/usb/usb_device.c: 2168:                 {;mcc_generated_files/usb/u
      +                          sb_device.c: 2169:                     p = (BDT_ENTRY*)pBDTEntryOut[SetupPkt.EPNum];
 10198  07B0  0854               	movf	84,w	;volatile
 10199  07B1  390F               	andlw	15
 10200  07B2  0709               	addwf	9,w
 10201  07B3  3E2A               	addlw	(low (_pBDTEntryOut| (0+512)))& (0+255)
 10202  07B4  0086               	movwf	6
 10203  07B5  3002               	movlw	2	; select bank4/5
 10204  07B6  0087               	movwf	7
 10205  07B7  3F40               	moviw [0]fsr1
 10206  07B8  00F2               	movwf	USBStdGetStatusHandler@p
 10207  07B9  3F41               	moviw [1]fsr1
 10208  07BA  00F3               	movwf	USBStdGetStatusHandler@p+1
 10209                           
 10210                           ;mcc_generated_files/usb/usb_device.c: 2170:                 }
 10211  07BB  2FC7               	goto	i1l4021
 10212  07BC                     i1l4019:
 10213                           
 10214                           ;mcc_generated_files/usb/usb_device.c: 2172:                 {;mcc_generated_files/usb/u
      +                          sb_device.c: 2173:                     p = (BDT_ENTRY*)pBDTEntryIn[SetupPkt.EPNum];
 10215  07BC  0854               	movf	84,w	;volatile
 10216  07BD  390F               	andlw	15
 10217  07BE  0709               	addwf	9,w
 10218  07BF  3EB7               	addlw	(low (_pBDTEntryIn| (0+256)))& (0+255)
 10219  07C0  0086               	movwf	6
 10220  07C1  3001               	movlw	1	; select bank3/4
 10221  07C2  0087               	movwf	7
 10222  07C3  3F40               	moviw [0]fsr1
 10223  07C4  00F2               	movwf	USBStdGetStatusHandler@p
 10224  07C5  3F41               	moviw [1]fsr1
 10225  07C6  00F3               	movwf	USBStdGetStatusHandler@p+1
 10226  07C7                     i1l4021:
 10227                           
 10228                           ;mcc_generated_files/usb/usb_device.c: 2176:                 if((p->STAT.UOWN == 1) && (
      +                          p->STAT.BSTALL == 1))
 10229  07C7  0872               	movf	USBStdGetStatusHandler@p,w
 10230  07C8  0086               	movwf	6
 10231  07C9  0873               	movf	USBStdGetStatusHandler@p+1,w
 10232  07CA  0087               	movwf	7
 10233  07CB  1F81               	btfss	1,7
 10234  07CC  2FCE               	goto	u271_21
 10235  07CD  2FCF               	goto	u271_20
 10236  07CE                     u271_21:
 10237  07CE  2FF0               	goto	i1l289
 10238  07CF                     u271_20:
 10239  07CF                     i1l4023:
 10240  07CF  0872               	movf	USBStdGetStatusHandler@p,w
 10241  07D0  0086               	movwf	6
 10242  07D1  0873               	movf	USBStdGetStatusHandler@p+1,w
 10243  07D2  0087               	movwf	7
 10244  07D3  1D01               	btfss	1,2
 10245  07D4  2FD6               	goto	u272_21
 10246  07D5  2FD7               	goto	u272_20
 10247  07D6                     u272_21:
 10248  07D6  2FF0               	goto	i1l289
 10249  07D7                     u272_20:
 10250  07D7                     i1l4025:
 10251                           
 10252                           ;mcc_generated_files/usb/usb_device.c: 2177:                     CtrlTrfData[0]=0x01;
 10253  07D7  3001               	movlw	1
 10254  07D8  00F0               	movwf	??_USBStdGetStatusHandler
 10255  07D9  0870               	movf	??_USBStdGetStatusHandler,w
 10256  07DA  00D8               	movwf	88	;volatile
 10257  07DB  2FF0               	goto	i1l289
 10258  07DC                     i1l4029:
 10259  07DC  0850               	movf	80,w	;volatile
 10260  07DD  391F               	andlw	31
 10261  07DE  00F0               	movwf	??_USBStdGetStatusHandler
 10262  07DF  01F1               	clrf	??_USBStdGetStatusHandler+1
 10263                           
 10264                           ; Switch on 2 bytes has been partitioned into a top level switch of size 1, and 1 sub-sw
      +                          itches
 10265                           ; Switch size 1, requested type "simple"
 10266                           ; Number of cases is 1, Range of values is 0 to 0
 10267                           ; switch strategies available:
 10268                           ; Name         Instructions Cycles
 10269                           ; simple_byte            4     3 (average)
 10270                           ; direct_byte            8     6 (fixed)
 10271                           ; jumptable            260     6 (fixed)
 10272                           ;	Chosen strategy is simple_byte
 10273  07E0  0871               	movf	??_USBStdGetStatusHandler+1,w
 10274  07E1  3A00               	xorlw	0	; case 0
 10275  07E2  1903               	skipnz
 10276  07E3  2FE5               	goto	i1l7197
 10277  07E4  2FF0               	goto	i1l289
 10278  07E5                     i1l7197:
 10279                           
 10280                           ; Switch size 1, requested type "simple"
 10281                           ; Number of cases is 3, Range of values is 0 to 2
 10282                           ; switch strategies available:
 10283                           ; Name         Instructions Cycles
 10284                           ; simple_byte           10     6 (average)
 10285                           ; direct_byte           12     6 (fixed)
 10286                           ; jumptable            260     6 (fixed)
 10287                           ;	Chosen strategy is simple_byte
 10288  07E5  0870               	movf	??_USBStdGetStatusHandler,w
 10289  07E6  3A00               	xorlw	0	; case 0
 10290  07E7  1903               	skipnz
 10291  07E8  2F9C               	goto	i1l286
 10292  07E9  3A01               	xorlw	1	; case 1
 10293  07EA  1903               	skipnz
 10294  07EB  2FA6               	goto	i1l290
 10295  07EC  3A03               	xorlw	3	; case 2
 10296  07ED  1903               	skipnz
 10297  07EE  2FA9               	goto	i1l291
 10298  07EF  2FF0               	goto	i1l289
 10299  07F0                     i1l289:
 10300                           
 10301                           ;mcc_generated_files/usb/usb_device.c: 2182:     if(inPipes[0].info.bits.busy == 1)
 10302  07F0  0023               	movlb	3	; select bank3
 10303  07F1  1FBF               	btfss	(_inPipes^(0+384)+2),7	;volatile
 10304  07F2  2FF4               	goto	u273_21
 10305  07F3  2FF5               	goto	u273_20
 10306  07F4                     u273_21:
 10307  07F4  2FFE               	goto	i1l296
 10308  07F5                     u273_20:
 10309  07F5                     i1l4031:
 10310                           
 10311                           ;mcc_generated_files/usb/usb_device.c: 2183:     {;mcc_generated_files/usb/usb_device.c:
      +                           2184:         inPipes[0].pSrc.bRam = (uint8_t*)&CtrlTrfData;
 10312  07F5  3058               	movlw	88
 10313  07F6  00BD               	movwf	_inPipes^(0+384)	;volatile
 10314  07F7  3000               	movlw	0
 10315  07F8  00BE               	movwf	(_inPipes+1)^(0+384)	;volatile
 10316  07F9                     i1l4033:
 10317                           
 10318                           ;mcc_generated_files/usb/usb_device.c: 2185:         inPipes[0].info.bits.ctrl_trf_mem =
      +                           0x01;
 10319  07F9  143F               	bsf	(_inPipes^(0+384)+2),0	;volatile
 10320  07FA                     i1l4035:
 10321                           
 10322                           ;mcc_generated_files/usb/usb_device.c: 2186:         inPipes[0].wCount.v[0] = 2;
 10323  07FA  3002               	movlw	2
 10324  07FB  00F0               	movwf	??_USBStdGetStatusHandler
 10325  07FC  0870               	movf	??_USBStdGetStatusHandler,w
 10326  07FD  00C0               	movwf	(_inPipes^(0+384)+3)	;volatile
 10327  07FE                     i1l296:
 10328  07FE  0008               	return
 10329  07FF                     __end_of_USBStdGetStatusHandler:
 10330                           
 10331                           	psect	text43
 10332  0A6F                     __ptext43:	
 10333 ;; *************** function _USBStdGetDscHandler *****************
 10334 ;; Defined at:
 10335 ;;		line 2047 in file "mcc_generated_files/usb/usb_device.c"
 10336 ;; Parameters:    Size  Location     Type
 10337 ;;		None
 10338 ;; Auto vars:     Size  Location     Type
 10339 ;;		None
 10340 ;; Return value:  Size  Location     Type
 10341 ;;                  1    wreg      void 
 10342 ;; Registers used:
 10343 ;;		wreg, fsr0l, fsr0h, status,2, status,0, pclath
 10344 ;; Tracked objects:
 10345 ;;		On entry : 0/0
 10346 ;;		On exit  : 0/0
 10347 ;;		Unchanged: 0/0
 10348 ;; Data sizes:     COMMON   BANK0   BANK1   BANK2   BANK3   BANK4   BANK5   BANK6   BANK7   BANK8   BANK9  BANK10  BANK1
      +1  BANK12
 10349 ;;      Params:         0       0       0       0       0       0       0       0       0       0       0       0       
      +0       0
 10350 ;;      Locals:         0       0       0       0       0       0       0       0       0       0       0       0       
      +0       0
 10351 ;;      Temps:          3       0       0       0       0       0       0       0       0       0       0       0       
      +0       0
 10352 ;;      Totals:         3       0       0       0       0       0       0       0       0       0       0       0       
      +0       0
 10353 ;;Total ram usage:        3 bytes
 10354 ;; Hardware stack levels used:    1
 10355 ;; This function calls:
 10356 ;;		Nothing
 10357 ;; This function is called by:
 10358 ;;		_USBCheckStdRequest
 10359 ;; This function uses a non-reentrant model
 10360 ;;
 10361                           
 10362                           
 10363                           ;psect for function _USBStdGetDscHandler
 10364  0A6F                     _USBStdGetDscHandler:
 10365  0A6F                     i1l3973:	
 10366                           ;incstack = 0
 10367                           ; Regs used in _USBStdGetDscHandler: [wreg-fsr0h+status,2+status,0+pclath]
 10368                           
 10369                           
 10370                           ;mcc_generated_files/usb/usb_device.c: 2049:     if(SetupPkt.bmRequestType == 0x80)
 10371  0A6F  3080               	movlw	128
 10372  0A70  0020               	movlb	0	; select bank0
 10373  0A71  0650               	xorwf	80,w	;volatile
 10374  0A72  1D03               	btfss	3,2
 10375  0A73  2A75               	goto	u266_21
 10376  0A74  2A76               	goto	u266_20
 10377  0A75                     u266_21:
 10378  0A75  2AF9               	goto	i1l282
 10379  0A76                     u266_20:
 10380  0A76                     i1l3975:
 10381                           
 10382                           ;mcc_generated_files/usb/usb_device.c: 2050:     {;mcc_generated_files/usb/usb_device.c:
      +                           2051:         inPipes[0].info.Val = 0x00 | 0x80 | 0x40;
 10383  0A76  30C0               	movlw	192
 10384  0A77  00F0               	movwf	??_USBStdGetDscHandler
 10385  0A78  0870               	movf	??_USBStdGetDscHandler,w
 10386  0A79  0023               	movlb	3	; select bank3
 10387  0A7A  00BF               	movwf	(_inPipes^(0+384)+2)	;volatile
 10388                           
 10389                           ;mcc_generated_files/usb/usb_device.c: 2053:         switch(SetupPkt.bDescriptorType)
 10390  0A7B  2AE5               	goto	i1l4003
 10391  0A7C                     i1l3977:
 10392                           
 10393                           ;mcc_generated_files/usb/usb_device.c: 2059:                     inPipes[0].pSrc.bRom = 
      +                          (const uint8_t*)&device_dsc;
 10394  0A7C  308D               	movlw	low (_device_dsc| (0+32768))
 10395  0A7D  0023               	movlb	3	; select bank3
 10396  0A7E  00BD               	movwf	_inPipes^(0+384)	;volatile
 10397  0A7F  3098               	movlw	high (_device_dsc| (0+32768))
 10398  0A80  00BE               	movwf	(_inPipes^(0+384)+1)	;volatile
 10399  0A81                     i1l3979:
 10400                           
 10401                           ;mcc_generated_files/usb/usb_device.c: 2061:                 inPipes[0].wCount.Val = siz
      +                          eof(device_dsc);
 10402  0A81  3000               	movlw	0
 10403  0A82  00C1               	movwf	((_inPipes+1)^(0+384)+3)	;volatile
 10404  0A83  3012               	movlw	18
 10405  0A84  00C0               	movwf	(_inPipes^(0+384)+3)	;volatile
 10406                           
 10407                           ;mcc_generated_files/usb/usb_device.c: 2062:                 break;
 10408  0A85  2AF9               	goto	i1l282
 10409  0A86                     i1l3981:
 10410                           
 10411                           ;mcc_generated_files/usb/usb_device.c: 2067:                 if(SetupPkt.bDscIndex < 1)
 10412  0A86  0852               	movf	82,w	;volatile
 10413  0A87  1D03               	btfss	3,2
 10414  0A88  2A8A               	goto	u267_21
 10415  0A89  2A8B               	goto	u267_20
 10416  0A8A                     u267_21:
 10417  0A8A  2ABA               	goto	i1l3989
 10418  0A8B                     u267_20:
 10419  0A8B                     i1l3983:
 10420                           
 10421                           ;mcc_generated_files/usb/usb_device.c: 2068:                 {;mcc_generated_files/usb/u
      +                          sb_device.c: 2072:                         inPipes[0].pSrc.bRom = *(USB_CD_Ptr+SetupPkt.
      +                          bDscIndex);
 10422  0A8B  0852               	movf	82,w	;volatile
 10423  0A8C  00F0               	movwf	??_USBStdGetDscHandler
 10424  0A8D  01F1               	clrf	??_USBStdGetDscHandler+1
 10425  0A8E  35F0               	lslf	??_USBStdGetDscHandler,f
 10426  0A8F  0DF1               	rlf	??_USBStdGetDscHandler+1,f
 10427  0A90  30B9               	movlw	low (_USB_CD_Ptr| (0+32768))
 10428  0A91  0770               	addwf	??_USBStdGetDscHandler,w
 10429  0A92  0084               	movwf	4
 10430  0A93  3098               	movlw	high (_USB_CD_Ptr| (0+32768))
 10431  0A94  3D71               	addwfc	??_USBStdGetDscHandler+1,w
 10432  0A95  0085               	movwf	5
 10433  0A96  3F00               	moviw [0]fsr0
 10434  0A97  0023               	movlb	3	; select bank3
 10435  0A98  00BD               	movwf	_inPipes^(0+384)	;volatile
 10436  0A99  3F01               	moviw [1]fsr0
 10437  0A9A  00BE               	movwf	(_inPipes+1)^(0+384)	;volatile
 10438  0A9B                     i1l3985:
 10439                           
 10440                           ;mcc_generated_files/usb/usb_device.c: 2078:                     inPipes[0].wCount.byte.
      +                          LB = *(inPipes[0].pSrc.bRom+2);
 10441  0A9B  083E               	movf	(_inPipes+1)^(0+384),w	;volatile
 10442  0A9C  00F1               	movwf	??_USBStdGetDscHandler+1
 10443  0A9D  083D               	movf	_inPipes^(0+384),w	;volatile
 10444  0A9E  00F0               	movwf	??_USBStdGetDscHandler
 10445  0A9F  3002               	movlw	2
 10446  0AA0  0770               	addwf	??_USBStdGetDscHandler,w
 10447  0AA1  0084               	movwf	4
 10448  0AA2  0871               	movf	??_USBStdGetDscHandler+1,w
 10449  0AA3  1803               	skipnc
 10450  0AA4  0A71               	incf	??_USBStdGetDscHandler+1,w
 10451  0AA5  0085               	movwf	5
 10452  0AA6  0800               	movf	0,w	;code access
 10453  0AA7  00F2               	movwf	??_USBStdGetDscHandler+2
 10454  0AA8  0872               	movf	??_USBStdGetDscHandler+2,w
 10455  0AA9  00C0               	movwf	(_inPipes^(0+384)+3)	;volatile
 10456  0AAA                     i1l3987:
 10457                           
 10458                           ;mcc_generated_files/usb/usb_device.c: 2079:                     inPipes[0].wCount.byte.
      +                          HB = *(inPipes[0].pSrc.bRom+3);
 10459  0AAA  083E               	movf	(_inPipes+1)^(0+384),w	;volatile
 10460  0AAB  00F1               	movwf	??_USBStdGetDscHandler+1
 10461  0AAC  083D               	movf	_inPipes^(0+384),w	;volatile
 10462  0AAD  00F0               	movwf	??_USBStdGetDscHandler
 10463  0AAE  3003               	movlw	3
 10464  0AAF  0770               	addwf	??_USBStdGetDscHandler,w
 10465  0AB0  0084               	movwf	4
 10466  0AB1  0871               	movf	??_USBStdGetDscHandler+1,w
 10467  0AB2  1803               	skipnc
 10468  0AB3  0A71               	incf	??_USBStdGetDscHandler+1,w
 10469  0AB4  0085               	movwf	5
 10470  0AB5  0800               	movf	0,w	;code access
 10471  0AB6  00F2               	movwf	??_USBStdGetDscHandler+2
 10472  0AB7  0872               	movf	??_USBStdGetDscHandler+2,w
 10473  0AB8  00C1               	movwf	(_inPipes^(0+384)+4)	;volatile
 10474                           
 10475                           ;mcc_generated_files/usb/usb_device.c: 2080:                 }
 10476  0AB9  2AF9               	goto	i1l282
 10477  0ABA                     i1l3989:
 10478                           
 10479                           ;mcc_generated_files/usb/usb_device.c: 2082:     {;mcc_generated_files/usb/usb_device.c:
      +                           2083:      inPipes[0].info.Val = 0;
 10480  0ABA  0023               	movlb	3	; select bank3
 10481  0ABB  01BF               	clrf	(_inPipes^(0+384)+2)	;volatile
 10482  0ABC  2AF9               	goto	i1l282
 10483  0ABD                     i1l3991:
 10484                           
 10485                           ;mcc_generated_files/usb/usb_device.c: 2090:                 if(SetupPkt.bDscIndex<4)
 10486  0ABD  3004               	movlw	4
 10487  0ABE  0252               	subwf	82,w	;volatile
 10488  0ABF  1803               	skipnc
 10489  0AC0  2AC2               	goto	u268_21
 10490  0AC1  2AC3               	goto	u268_20
 10491  0AC2                     u268_21:
 10492  0AC2  2ADF               	goto	i1l3997
 10493  0AC3                     u268_20:
 10494  0AC3                     i1l3993:
 10495                           
 10496                           ;mcc_generated_files/usb/usb_device.c: 2091:                 {;mcc_generated_files/usb/u
      +                          sb_device.c: 2093:                     inPipes[0].pSrc.bRom = *(USB_SD_Ptr+SetupPkt.bDsc
      +                          Index);
 10497  0AC3  0852               	movf	82,w	;volatile
 10498  0AC4  00F0               	movwf	??_USBStdGetDscHandler
 10499  0AC5  01F1               	clrf	??_USBStdGetDscHandler+1
 10500  0AC6  35F0               	lslf	??_USBStdGetDscHandler,f
 10501  0AC7  0DF1               	rlf	??_USBStdGetDscHandler+1,f
 10502  0AC8  309F               	movlw	low (_USB_SD_Ptr| (0+32768))
 10503  0AC9  0770               	addwf	??_USBStdGetDscHandler,w
 10504  0ACA  0084               	movwf	4
 10505  0ACB  3098               	movlw	high (_USB_SD_Ptr| (0+32768))
 10506  0ACC  3D71               	addwfc	??_USBStdGetDscHandler+1,w
 10507  0ACD  0085               	movwf	5
 10508  0ACE  3F00               	moviw [0]fsr0
 10509  0ACF  0023               	movlb	3	; select bank3
 10510  0AD0  00BD               	movwf	_inPipes^(0+384)	;volatile
 10511  0AD1  3F01               	moviw [1]fsr0
 10512  0AD2  00BE               	movwf	(_inPipes+1)^(0+384)	;volatile
 10513  0AD3                     i1l3995:
 10514                           
 10515                           ;mcc_generated_files/usb/usb_device.c: 2095:                     inPipes[0].wCount.Val =
      +                           *inPipes[0].pSrc.bRom;
 10516  0AD3  083D               	movf	_inPipes^(0+384),w	;volatile
 10517  0AD4  0084               	movwf	4
 10518  0AD5  083E               	movf	(_inPipes+1)^(0+384),w	;volatile
 10519  0AD6  0085               	movwf	5
 10520  0AD7  0800               	movf	0,w	;code access
 10521  0AD8  00F0               	movwf	??_USBStdGetDscHandler
 10522  0AD9  01F1               	clrf	??_USBStdGetDscHandler+1
 10523  0ADA  0870               	movf	??_USBStdGetDscHandler,w
 10524  0ADB  00C0               	movwf	(_inPipes^(0+384)+3)	;volatile
 10525  0ADC  0871               	movf	??_USBStdGetDscHandler+1,w
 10526  0ADD  00C1               	movwf	((_inPipes+1)^(0+384)+3)	;volatile
 10527                           
 10528                           ;mcc_generated_files/usb/usb_device.c: 2096:                 }
 10529  0ADE  2AF9               	goto	i1l282
 10530  0ADF                     i1l3997:
 10531                           
 10532                           ;mcc_generated_files/usb/usb_device.c: 2107:                 {;mcc_generated_files/usb/u
      +                          sb_device.c: 2108:                     inPipes[0].info.Val = 0;
 10533  0ADF  0023               	movlb	3	; select bank3
 10534  0AE0  01BF               	clrf	(_inPipes^(0+384)+2)	;volatile
 10535  0AE1  2AF9               	goto	i1l282
 10536  0AE2                     i1l3999:
 10537                           
 10538                           ;mcc_generated_files/usb/usb_device.c: 2112:                 inPipes[0].info.Val = 0;
 10539  0AE2  0023               	movlb	3	; select bank3
 10540  0AE3  01BF               	clrf	(_inPipes^(0+384)+2)	;volatile
 10541                           
 10542                           ;mcc_generated_files/usb/usb_device.c: 2113:                 break;
 10543  0AE4  2AF9               	goto	i1l282
 10544  0AE5                     i1l4003:
 10545  0AE5  0020               	movlb	0	; select bank0
 10546  0AE6  0853               	movf	83,w	;volatile
 10547  0AE7  00F0               	movwf	??_USBStdGetDscHandler
 10548  0AE8  01F1               	clrf	??_USBStdGetDscHandler+1
 10549                           
 10550                           ; Switch on 2 bytes has been partitioned into a top level switch of size 1, and 1 sub-sw
      +                          itches
 10551                           ; Switch size 1, requested type "simple"
 10552                           ; Number of cases is 1, Range of values is 0 to 0
 10553                           ; switch strategies available:
 10554                           ; Name         Instructions Cycles
 10555                           ; simple_byte            4     3 (average)
 10556                           ; direct_byte            8     6 (fixed)
 10557                           ; jumptable            260     6 (fixed)
 10558                           ;	Chosen strategy is simple_byte
 10559  0AE9  0871               	movf	??_USBStdGetDscHandler+1,w
 10560  0AEA  3A00               	xorlw	0	; case 0
 10561  0AEB  1903               	skipnz
 10562  0AEC  2AEE               	goto	i1l7199
 10563  0AED  2AE2               	goto	i1l3999
 10564  0AEE                     i1l7199:
 10565                           
 10566                           ; Switch size 1, requested type "simple"
 10567                           ; Number of cases is 3, Range of values is 1 to 3
 10568                           ; switch strategies available:
 10569                           ; Name         Instructions Cycles
 10570                           ; simple_byte           10     6 (average)
 10571                           ; direct_byte           15     9 (fixed)
 10572                           ; jumptable            263     9 (fixed)
 10573                           ;	Chosen strategy is simple_byte
 10574  0AEE  0870               	movf	??_USBStdGetDscHandler,w
 10575  0AEF  3A01               	xorlw	1	; case 1
 10576  0AF0  1903               	skipnz
 10577  0AF1  2A7C               	goto	i1l3977
 10578  0AF2  3A03               	xorlw	3	; case 2
 10579  0AF3  1903               	skipnz
 10580  0AF4  2A86               	goto	i1l3981
 10581  0AF5  3A01               	xorlw	1	; case 3
 10582  0AF6  1903               	skipnz
 10583  0AF7  2ABD               	goto	i1l3991
 10584  0AF8  2AE2               	goto	i1l3999
 10585  0AF9                     i1l282:
 10586  0AF9  0008               	return
 10587  0AFA                     __end_of_USBStdGetDscHandler:
 10588                           
 10589                           	psect	text44
 10590  0367                     __ptext44:	
 10591 ;; *************** function _USBStdFeatureReqHandler *****************
 10592 ;; Defined at:
 10593 ;;		line 2758 in file "mcc_generated_files/usb/usb_device.c"
 10594 ;; Parameters:    Size  Location     Type
 10595 ;;		None
 10596 ;; Auto vars:     Size  Location     Type
 10597 ;;  p               2   11[BANK0 ] PTR struct __BDT
 10598 ;;		 -> RAM(4096), NULL(0), BDT(48), 
 10599 ;;  pUEP            2    8[BANK0 ] PTR unsigned char 
 10600 ;;		 -> UEP0(1), 
 10601 ;;  current_ep_d    1   10[BANK0 ] struct .
 10602 ;; Return value:  Size  Location     Type
 10603 ;;                  1    wreg      void 
 10604 ;; Registers used:
 10605 ;;		wreg, fsr0l, fsr0h, fsr1l, fsr1h, status,2, status,0, pclath, cstack
 10606 ;; Tracked objects:
 10607 ;;		On entry : 0/0
 10608 ;;		On exit  : 0/0
 10609 ;;		Unchanged: 0/0
 10610 ;; Data sizes:     COMMON   BANK0   BANK1   BANK2   BANK3   BANK4   BANK5   BANK6   BANK7   BANK8   BANK9  BANK10  BANK1
      +1  BANK12
 10611 ;;      Params:         0       0       0       0       0       0       0       0       0       0       0       0       
      +0       0
 10612 ;;      Locals:         0       5       0       0       0       0       0       0       0       0       0       0       
      +0       0
 10613 ;;      Temps:          0       2       0       0       0       0       0       0       0       0       0       0       
      +0       0
 10614 ;;      Totals:         0       7       0       0       0       0       0       0       0       0       0       0       
      +0       0
 10615 ;;Total ram usage:        7 bytes
 10616 ;; Hardware stack levels used:    1
 10617 ;; Hardware stack levels required when called:    4
 10618 ;; This function calls:
 10619 ;;		_USER_USB_CALLBACK_EVENT_HANDLER
 10620 ;; This function is called by:
 10621 ;;		_USBCheckStdRequest
 10622 ;; This function uses a non-reentrant model
 10623 ;;
 10624                           
 10625                           
 10626                           ;psect for function _USBStdFeatureReqHandler
 10627  0367                     _USBStdFeatureReqHandler:
 10628  0367                     i1l4041:	
 10629                           ;incstack = 0
 10630                           ; Regs used in _USBStdFeatureReqHandler: [wreg-fsr1h+status,2+status,0+pclath+cstack]
 10631                           
 10632                           
 10633                           ;mcc_generated_files/usb/usb_device.c: 2760:     BDT_ENTRY *p;;mcc_generated_files/usb/u
      +                          sb_device.c: 2761:     EP_STATUS current_ep_data;;mcc_generated_files/usb/usb_device.c: 
      +                          2765:         unsigned char* pUEP;;mcc_generated_files/usb/usb_device.c: 2803:     if((S
      +                          etupPkt.bFeature == 1)&&
 10634  0367  0020               	movlb	0	; select bank0
 10635  0368  0352               	decf	82,w	;volatile
 10636  0369  1D03               	btfss	3,2
 10637  036A  2B6C               	goto	u274_21
 10638  036B  2B6D               	goto	u274_20
 10639  036C                     u274_21:
 10640  036C  2B85               	goto	i1l4053
 10641  036D                     u274_20:
 10642  036D                     i1l4043:
 10643  036D  0850               	movf	80,w	;volatile
 10644  036E  391F               	andlw	31
 10645  036F  3A00               	xorlw	0
 10646  0370  1D03               	skipz
 10647  0371  2B73               	goto	u275_21
 10648  0372  2B74               	goto	u275_20
 10649  0373                     u275_21:
 10650  0373  2B85               	goto	i1l4053
 10651  0374                     u275_20:
 10652  0374                     i1l4045:
 10653                           
 10654                           ;mcc_generated_files/usb/usb_device.c: 2805:     {;mcc_generated_files/usb/usb_device.c:
      +                           2806:         inPipes[0].info.bits.busy = 1;
 10655  0374  0023               	movlb	3	; select bank3
 10656  0375  17BF               	bsf	(_inPipes^(0+384)+2),7	;volatile
 10657  0376                     i1l4047:
 10658                           
 10659                           ;mcc_generated_files/usb/usb_device.c: 2807:         if(SetupPkt.bRequest == 3)
 10660  0376  3003               	movlw	3
 10661  0377  0020               	movlb	0	; select bank0
 10662  0378  0651               	xorwf	81,w	;volatile
 10663  0379  1D03               	btfss	3,2
 10664  037A  2B7C               	goto	u276_21
 10665  037B  2B7D               	goto	u276_20
 10666  037C                     u276_21:
 10667  037C  2B83               	goto	i1l4051
 10668  037D                     u276_20:
 10669  037D                     i1l4049:
 10670                           
 10671                           ;mcc_generated_files/usb/usb_device.c: 2808:             RemoteWakeup = 1;
 10672  037D  3001               	movlw	1
 10673  037E  00E6               	movwf	??_USBStdFeatureReqHandler
 10674  037F  0866               	movf	??_USBStdFeatureReqHandler,w
 10675  0380  0023               	movlb	3	; select bank3
 10676  0381  00E7               	movwf	_RemoteWakeup^(0+384)	;volatile
 10677  0382  2B85               	goto	i1l4053
 10678  0383                     i1l4051:
 10679                           
 10680                           ;mcc_generated_files/usb/usb_device.c: 2810:             RemoteWakeup = 0;
 10681  0383  0023               	movlb	3	; select bank3
 10682  0384  01E7               	clrf	_RemoteWakeup^(0+384)	;volatile
 10683  0385                     i1l4053:
 10684                           
 10685                           ;mcc_generated_files/usb/usb_device.c: 2814:     if((SetupPkt.bFeature == 0)&&
 10686  0385  0020               	movlb	0	; select bank0
 10687  0386  0852               	movf	82,w	;volatile
 10688  0387  1D03               	btfss	3,2
 10689  0388  2B8A               	goto	u277_21
 10690  0389  2B8B               	goto	u277_20
 10691  038A                     u277_21:
 10692  038A  2CC0               	goto	i1l386
 10693  038B                     u277_20:
 10694  038B                     i1l4055:
 10695  038B  0850               	movf	80,w	;volatile
 10696  038C  391F               	andlw	31
 10697  038D  3A02               	xorlw	2
 10698  038E  1D03               	skipz
 10699  038F  2B91               	goto	u278_21
 10700  0390  2B92               	goto	u278_20
 10701  0391                     u278_21:
 10702  0391  2CC0               	goto	i1l386
 10703  0392                     u278_20:
 10704  0392                     i1l4057:
 10705  0392  0854               	movf	84,w	;volatile
 10706  0393  390F               	andlw	15
 10707  0394  3A00               	xorlw	0
 10708  0395  1903               	skipnz
 10709  0396  2B98               	goto	u279_21
 10710  0397  2B99               	goto	u279_20
 10711  0398                     u279_21:
 10712  0398  2CC0               	goto	i1l386
 10713  0399                     u279_20:
 10714  0399                     i1l4059:
 10715  0399  0854               	movf	84,w	;volatile
 10716  039A  390F               	andlw	15
 10717  039B  00E6               	movwf	??_USBStdFeatureReqHandler
 10718  039C  3003               	movlw	3
 10719  039D  0266               	subwf	??_USBStdFeatureReqHandler,w
 10720  039E  1803               	skipnc
 10721  039F  2BA1               	goto	u280_21
 10722  03A0  2BA2               	goto	u280_20
 10723  03A1                     u280_21:
 10724  03A1  2CC0               	goto	i1l386
 10725  03A2                     u280_20:
 10726  03A2                     i1l4061:
 10727  03A2  3020               	movlw	32
 10728  03A3  0023               	movlb	3	; select bank3
 10729  03A4  066B               	xorwf	_USBDeviceState^(0+384),w	;volatile
 10730  03A5  1D03               	btfss	3,2
 10731  03A6  2BA8               	goto	u281_21
 10732  03A7  2BA9               	goto	u281_20
 10733  03A8                     u281_21:
 10734  03A8  2CC0               	goto	i1l386
 10735  03A9                     u281_20:
 10736  03A9                     i1l4063:
 10737                           
 10738                           ;mcc_generated_files/usb/usb_device.c: 2818:     {;mcc_generated_files/usb/usb_device.c:
      +                           2821:   inPipes[0].info.bits.busy = 1;
 10739  03A9  17BF               	bsf	(_inPipes^(0+384)+2),7	;volatile
 10740                           
 10741                           ;mcc_generated_files/usb/usb_device.c: 2824:         if(SetupPkt.EPDir == 0)
 10742  03AA  0020               	movlb	0	; select bank0
 10743  03AB  1BD4               	btfsc	84,7	;volatile
 10744  03AC  2BAE               	goto	u282_21
 10745  03AD  2BAF               	goto	u282_20
 10746  03AE                     u282_21:
 10747  03AE  2BC5               	goto	i1l4067
 10748  03AF                     u282_20:
 10749  03AF                     i1l4065:
 10750                           
 10751                           ;mcc_generated_files/usb/usb_device.c: 2825:         {;mcc_generated_files/usb/usb_devic
      +                          e.c: 2826:             p = (BDT_ENTRY*)pBDTEntryOut[SetupPkt.EPNum];
 10752  03AF  0854               	movf	84,w	;volatile
 10753  03B0  390F               	andlw	15
 10754  03B1  0709               	addwf	9,w
 10755  03B2  3E2A               	addlw	(low (_pBDTEntryOut| (0+512)))& (0+255)
 10756  03B3  0086               	movwf	6
 10757  03B4  3002               	movlw	2	; select bank4/5
 10758  03B5  0087               	movwf	7
 10759  03B6  3F40               	moviw [0]fsr1
 10760  03B7  00EB               	movwf	USBStdFeatureReqHandler@p
 10761  03B8  3F41               	moviw [1]fsr1
 10762  03B9  00EC               	movwf	USBStdFeatureReqHandler@p+1
 10763                           
 10764                           ;mcc_generated_files/usb/usb_device.c: 2827:             current_ep_data.Val = ep_data_o
      +                          ut[SetupPkt.EPNum].Val;
 10765  03BA  0854               	movf	84,w	;volatile
 10766  03BB  390F               	andlw	15
 10767  03BC  3EC2               	addlw	(low (_ep_data_out| (0+256)))& (0+255)
 10768  03BD  0086               	movwf	6
 10769  03BE  3001               	movlw	1	; select bank3/4
 10770  03BF  0087               	movwf	7
 10771  03C0  0801               	movf	1,w
 10772  03C1  00E6               	movwf	??_USBStdFeatureReqHandler
 10773  03C2  0866               	movf	??_USBStdFeatureReqHandler,w
 10774  03C3  00EA               	movwf	USBStdFeatureReqHandler@current_ep_data
 10775                           
 10776                           ;mcc_generated_files/usb/usb_device.c: 2828:         }
 10777  03C4  2BDA               	goto	i1l4069
 10778  03C5                     i1l4067:
 10779                           
 10780                           ;mcc_generated_files/usb/usb_device.c: 2830:         {;mcc_generated_files/usb/usb_devic
      +                          e.c: 2831:             p = (BDT_ENTRY*)pBDTEntryIn[SetupPkt.EPNum];
 10781  03C5  0854               	movf	84,w	;volatile
 10782  03C6  390F               	andlw	15
 10783  03C7  0709               	addwf	9,w
 10784  03C8  3EB7               	addlw	(low (_pBDTEntryIn| (0+256)))& (0+255)
 10785  03C9  0086               	movwf	6
 10786  03CA  3001               	movlw	1	; select bank3/4
 10787  03CB  0087               	movwf	7
 10788  03CC  3F40               	moviw [0]fsr1
 10789  03CD  00EB               	movwf	USBStdFeatureReqHandler@p
 10790  03CE  3F41               	moviw [1]fsr1
 10791  03CF  00EC               	movwf	USBStdFeatureReqHandler@p+1
 10792                           
 10793                           ;mcc_generated_files/usb/usb_device.c: 2832:             current_ep_data.Val = ep_data_i
      +                          n[SetupPkt.EPNum].Val;
 10794  03D0  0854               	movf	84,w	;volatile
 10795  03D1  390F               	andlw	15
 10796  03D2  3EC5               	addlw	(low (_ep_data_in| (0+256)))& (0+255)
 10797  03D3  0086               	movwf	6
 10798  03D4  3001               	movlw	1	; select bank3/4
 10799  03D5  0087               	movwf	7
 10800  03D6  0801               	movf	1,w
 10801  03D7  00E6               	movwf	??_USBStdFeatureReqHandler
 10802  03D8  0866               	movf	??_USBStdFeatureReqHandler,w
 10803  03D9  00EA               	movwf	USBStdFeatureReqHandler@current_ep_data
 10804  03DA                     i1l4069:
 10805                           
 10806                           ;mcc_generated_files/usb/usb_device.c: 2839:             if(current_ep_data.bits.ping_po
      +                          ng_state == 0)
 10807  03DA  186A               	btfsc	USBStdFeatureReqHandler@current_ep_data,0
 10808  03DB  2BDD               	goto	u283_21
 10809  03DC  2BDE               	goto	u283_20
 10810  03DD                     u283_21:
 10811  03DD  2BE9               	goto	i1l4073
 10812  03DE                     u283_20:
 10813  03DE                     i1l4071:
 10814                           
 10815                           ;mcc_generated_files/usb/usb_device.c: 2840:             {;mcc_generated_files/usb/usb_d
      +                          evice.c: 2841:                 p = (BDT_ENTRY*)(((uint16_t)p) & (~0x0004));
 10816  03DE  30FB               	movlw	251
 10817  03DF  00E6               	movwf	??_USBStdFeatureReqHandler
 10818  03E0  30FF               	movlw	255
 10819  03E1  00E7               	movwf	??_USBStdFeatureReqHandler+1
 10820  03E2  086B               	movf	USBStdFeatureReqHandler@p,w
 10821  03E3  0566               	andwf	??_USBStdFeatureReqHandler,w
 10822  03E4  00EB               	movwf	USBStdFeatureReqHandler@p
 10823  03E5  086C               	movf	USBStdFeatureReqHandler@p+1,w
 10824  03E6  0567               	andwf	??_USBStdFeatureReqHandler+1,w
 10825  03E7  00EC               	movwf	USBStdFeatureReqHandler@p+1
 10826                           
 10827                           ;mcc_generated_files/usb/usb_device.c: 2842:             }
 10828  03E8  2BEF               	goto	i1l4075
 10829  03E9                     i1l4073:
 10830                           
 10831                           ;mcc_generated_files/usb/usb_device.c: 2844:             {;mcc_generated_files/usb/usb_d
      +                          evice.c: 2845:                 p = (BDT_ENTRY*)(((uint16_t)p) | 0x0004);
 10832  03E9  3004               	movlw	4
 10833  03EA  046B               	iorwf	USBStdFeatureReqHandler@p,w
 10834  03EB  00EB               	movwf	USBStdFeatureReqHandler@p
 10835  03EC  3000               	movlw	0
 10836  03ED  046C               	iorwf	USBStdFeatureReqHandler@p+1,w
 10837  03EE  00EC               	movwf	USBStdFeatureReqHandler@p+1
 10838  03EF                     i1l4075:
 10839                           
 10840                           ;mcc_generated_files/usb/usb_device.c: 2851:         if(SetupPkt.EPDir == 0)
 10841  03EF  1BD4               	btfsc	84,7	;volatile
 10842  03F0  2BF2               	goto	u284_21
 10843  03F1  2BF3               	goto	u284_20
 10844  03F2                     u284_21:
 10845  03F2  2BFF               	goto	i1l4079
 10846  03F3                     u284_20:
 10847  03F3                     i1l4077:
 10848                           
 10849                           ;mcc_generated_files/usb/usb_device.c: 2852:         {;mcc_generated_files/usb/usb_devic
      +                          e.c: 2853:             pBDTEntryOut[SetupPkt.EPNum] = (volatile BDT_ENTRY *)p;
 10850  03F3  0854               	movf	84,w	;volatile
 10851  03F4  390F               	andlw	15
 10852  03F5  0709               	addwf	9,w
 10853  03F6  3E2A               	addlw	(low (_pBDTEntryOut| (0+512)))& (0+255)
 10854  03F7  0086               	movwf	6
 10855  03F8  3002               	movlw	2	; select bank4/5
 10856  03F9  0087               	movwf	7
 10857  03FA  086B               	movf	USBStdFeatureReqHandler@p,w
 10858  03FB  3FC0               	movwi [0]fsr1
 10859  03FC  086C               	movf	USBStdFeatureReqHandler@p+1,w
 10860  03FD  3FC1               	movwi [1]fsr1
 10861                           
 10862                           ;mcc_generated_files/usb/usb_device.c: 2854:         }
 10863  03FE  2C0A               	goto	i1l4081
 10864  03FF                     i1l4079:
 10865                           
 10866                           ;mcc_generated_files/usb/usb_device.c: 2856:         {;mcc_generated_files/usb/usb_devic
      +                          e.c: 2857:             pBDTEntryIn[SetupPkt.EPNum] = (volatile BDT_ENTRY *)p;
 10867  03FF  0854               	movf	84,w	;volatile
 10868  0400  390F               	andlw	15
 10869  0401  0709               	addwf	9,w
 10870  0402  3EB7               	addlw	(low (_pBDTEntryIn| (0+256)))& (0+255)
 10871  0403  0086               	movwf	6
 10872  0404  3001               	movlw	1	; select bank3/4
 10873  0405  0087               	movwf	7
 10874  0406  086B               	movf	USBStdFeatureReqHandler@p,w
 10875  0407  3FC0               	movwi [0]fsr1
 10876  0408  086C               	movf	USBStdFeatureReqHandler@p+1,w
 10877  0409  3FC1               	movwi [1]fsr1
 10878  040A                     i1l4081:
 10879                           
 10880                           ;mcc_generated_files/usb/usb_device.c: 2861:         if(SetupPkt.bRequest == 3)
 10881  040A  3003               	movlw	3
 10882  040B  0651               	xorwf	81,w	;volatile
 10883  040C  1D03               	btfss	3,2
 10884  040D  2C0F               	goto	u285_21
 10885  040E  2C10               	goto	u285_20
 10886  040F                     u285_21:
 10887  040F  2C36               	goto	i1l4095
 10888  0410                     u285_20:
 10889  0410                     i1l4083:
 10890                           
 10891                           ;mcc_generated_files/usb/usb_device.c: 2862:         {;mcc_generated_files/usb/usb_devic
      +                          e.c: 2863:             if(p->STAT.UOWN == 1)
 10892  0410  086B               	movf	USBStdFeatureReqHandler@p,w
 10893  0411  0086               	movwf	6
 10894  0412  086C               	movf	USBStdFeatureReqHandler@p+1,w
 10895  0413  0087               	movwf	7
 10896  0414  1F81               	btfss	1,7
 10897  0415  2C17               	goto	u286_21
 10898  0416  2C18               	goto	u286_20
 10899  0417                     u286_21:
 10900  0417  2C2B               	goto	i1l4091
 10901  0418                     u286_20:
 10902  0418                     i1l4085:
 10903                           
 10904                           ;mcc_generated_files/usb/usb_device.c: 2864:             {;mcc_generated_files/usb/usb_d
      +                          evice.c: 2867:                 if(SetupPkt.EPDir == 0)
 10905  0418  1BD4               	btfsc	84,7	;volatile
 10906  0419  2C1B               	goto	u287_21
 10907  041A  2C1C               	goto	u287_20
 10908  041B                     u287_21:
 10909  041B  2C24               	goto	i1l4089
 10910  041C                     u287_20:
 10911  041C                     i1l4087:
 10912                           
 10913                           ;mcc_generated_files/usb/usb_device.c: 2868:                 {;mcc_generated_files/usb/u
      +                          sb_device.c: 2869:                     ep_data_out[SetupPkt.EPNum].bits.transfer_termina
      +                          ted = 1;
 10914  041C  0854               	movf	84,w	;volatile
 10915  041D  390F               	andlw	15
 10916  041E  3EC2               	addlw	(low (_ep_data_out| (0+256)))& (0+255)
 10917  041F  0086               	movwf	6
 10918  0420  3001               	movlw	1	; select bank3/4
 10919  0421  0087               	movwf	7
 10920  0422  1481               	bsf	1,1
 10921                           
 10922                           ;mcc_generated_files/usb/usb_device.c: 2870:                 }
 10923  0423  2C2B               	goto	i1l4091
 10924  0424                     i1l4089:
 10925                           
 10926                           ;mcc_generated_files/usb/usb_device.c: 2872:                 {;mcc_generated_files/usb/u
      +                          sb_device.c: 2873:                     ep_data_in[SetupPkt.EPNum].bits.transfer_terminat
      +                          ed = 1;
 10927  0424  0854               	movf	84,w	;volatile
 10928  0425  390F               	andlw	15
 10929  0426  3EC5               	addlw	(low (_ep_data_in| (0+256)))& (0+255)
 10930  0427  0086               	movwf	6
 10931  0428  3001               	movlw	1	; select bank3/4
 10932  0429  0087               	movwf	7
 10933  042A  1481               	bsf	1,1
 10934  042B                     i1l4091:
 10935                           
 10936                           ;mcc_generated_files/usb/usb_device.c: 2878:             p->STAT.Val |= 0x04;
 10937  042B  086B               	movf	USBStdFeatureReqHandler@p,w
 10938  042C  0086               	movwf	6
 10939  042D  086C               	movf	USBStdFeatureReqHandler@p+1,w
 10940  042E  0087               	movwf	7
 10941  042F  1501               	bsf	1,2
 10942  0430                     i1l4093:
 10943                           
 10944                           ;mcc_generated_files/usb/usb_device.c: 2879:             p->STAT.Val |= 0x80;
 10945  0430  086B               	movf	USBStdFeatureReqHandler@p,w
 10946  0431  0086               	movwf	6
 10947  0432  086C               	movf	USBStdFeatureReqHandler@p+1,w
 10948  0433  0087               	movwf	7
 10949  0434  1781               	bsf	1,7
 10950                           
 10951                           ;mcc_generated_files/usb/usb_device.c: 2880:         }
 10952  0435  2CC0               	goto	i1l386
 10953  0436                     i1l4095:
 10954                           
 10955                           ;mcc_generated_files/usb/usb_device.c: 2882:         {;mcc_generated_files/usb/usb_devic
      +                          e.c: 2886:                 p = (BDT_ENTRY*)(((uint16_t)p) ^ 0x0004);
 10956  0436  3004               	movlw	4
 10957  0437  066B               	xorwf	USBStdFeatureReqHandler@p,w
 10958  0438  00EB               	movwf	USBStdFeatureReqHandler@p
 10959  0439  3000               	movlw	0
 10960  043A  066C               	xorwf	USBStdFeatureReqHandler@p+1,w
 10961  043B  00EC               	movwf	USBStdFeatureReqHandler@p+1
 10962  043C                     i1l4097:
 10963                           
 10964                           ;mcc_generated_files/usb/usb_device.c: 2888:                 if(p->STAT.UOWN == 1)
 10965  043C  086B               	movf	USBStdFeatureReqHandler@p,w
 10966  043D  0086               	movwf	6
 10967  043E  086C               	movf	USBStdFeatureReqHandler@p+1,w
 10968  043F  0087               	movwf	7
 10969  0440  1F81               	btfss	1,7
 10970  0441  2C43               	goto	u288_21
 10971  0442  2C44               	goto	u288_20
 10972  0443                     u288_21:
 10973  0443  2C61               	goto	i1l4105
 10974  0444                     u288_20:
 10975  0444                     i1l4099:
 10976                           
 10977                           ;mcc_generated_files/usb/usb_device.c: 2889:                 {;mcc_generated_files/usb/u
      +                          sb_device.c: 2892:                     p->STAT.Val &= (~0x80);
 10978  0444  307F               	movlw	127
 10979  0445  00E6               	movwf	??_USBStdFeatureReqHandler
 10980  0446  086B               	movf	USBStdFeatureReqHandler@p,w
 10981  0447  0086               	movwf	6
 10982  0448  086C               	movf	USBStdFeatureReqHandler@p+1,w
 10983  0449  0087               	movwf	7
 10984  044A  0866               	movf	??_USBStdFeatureReqHandler,w
 10985  044B  0581               	andwf	1,f
 10986  044C                     i1l4101:
 10987                           
 10988                           ;mcc_generated_files/usb/usb_device.c: 2893:                     p->STAT.Val |= 0x40;
 10989  044C  086B               	movf	USBStdFeatureReqHandler@p,w
 10990  044D  0086               	movwf	6
 10991  044E  086C               	movf	USBStdFeatureReqHandler@p+1,w
 10992  044F  0087               	movwf	7
 10993  0450  1701               	bsf	1,6
 10994  0451                     i1l4103:
 10995                           
 10996                           ;mcc_generated_files/usb/usb_device.c: 2894:                     USER_USB_CALLBACK_EVENT
      +                          _HANDLER((USB_EVENT)EVENT_TRANSFER_TERMINATED,p,sizeof(p));
 10997  0451  3005               	movlw	5
 10998  0452  00E0               	movwf	USER_USB_CALLBACK_EVENT_HANDLER@event
 10999  0453  3000               	movlw	0
 11000  0454  00E1               	movwf	USER_USB_CALLBACK_EVENT_HANDLER@event+1
 11001  0455  086C               	movf	USBStdFeatureReqHandler@p+1,w
 11002  0456  00E3               	movwf	USER_USB_CALLBACK_EVENT_HANDLER@pdata+1
 11003  0457  086B               	movf	USBStdFeatureReqHandler@p,w
 11004  0458  00E2               	movwf	USER_USB_CALLBACK_EVENT_HANDLER@pdata
 11005  0459  3002               	movlw	2
 11006  045A  00E4               	movwf	USER_USB_CALLBACK_EVENT_HANDLER@size
 11007  045B  3000               	movlw	0
 11008  045C  00E5               	movwf	USER_USB_CALLBACK_EVENT_HANDLER@size+1
 11009  045D  3194  2471  3183   	fcall	_USER_USB_CALLBACK_EVENT_HANDLER
 11010                           
 11011                           ;mcc_generated_files/usb/usb_device.c: 2895:                 }
 11012  0460  2C66               	goto	i1l4107
 11013  0461                     i1l4105:
 11014                           
 11015                           ;mcc_generated_files/usb/usb_device.c: 2897:                 {;mcc_generated_files/usb/u
      +                          sb_device.c: 2899:      p->STAT.Val |= 0x40;
 11016  0461  086B               	movf	USBStdFeatureReqHandler@p,w
 11017  0462  0086               	movwf	6
 11018  0463  086C               	movf	USBStdFeatureReqHandler@p+1,w
 11019  0464  0087               	movwf	7
 11020  0465  1701               	bsf	1,6
 11021  0466                     i1l4107:
 11022                           
 11023                           ;mcc_generated_files/usb/usb_device.c: 2904:                 p = (BDT_ENTRY*)(((uint16_t
      +                          )p) ^ 0x0004);
 11024  0466  3004               	movlw	4
 11025  0467  0020               	movlb	0	; select bank0
 11026  0468  066B               	xorwf	USBStdFeatureReqHandler@p,w
 11027  0469  00EB               	movwf	USBStdFeatureReqHandler@p
 11028  046A  3000               	movlw	0
 11029  046B  066C               	xorwf	USBStdFeatureReqHandler@p+1,w
 11030  046C  00EC               	movwf	USBStdFeatureReqHandler@p+1
 11031  046D                     i1l4109:
 11032                           
 11033                           ;mcc_generated_files/usb/usb_device.c: 2910:                 if((current_ep_data.bits.tr
      +                          ansfer_terminated != 0) || (p->STAT.UOWN == 1))
 11034  046D  18EA               	btfsc	USBStdFeatureReqHandler@current_ep_data,1
 11035  046E  2C70               	goto	u289_21
 11036  046F  2C71               	goto	u289_20
 11037  0470                     u289_21:
 11038  0470  2C79               	goto	i1l382
 11039  0471                     u289_20:
 11040  0471                     i1l4111:
 11041  0471  086B               	movf	USBStdFeatureReqHandler@p,w
 11042  0472  0086               	movwf	6
 11043  0473  086C               	movf	USBStdFeatureReqHandler@p+1,w
 11044  0474  0087               	movwf	7
 11045  0475  1F81               	btfss	1,7
 11046  0476  2C78               	goto	u290_21
 11047  0477  2C79               	goto	u290_20
 11048  0478                     u290_21:
 11049  0478  2CA4               	goto	i1l4119
 11050  0479                     u290_20:
 11051  0479                     i1l382:
 11052                           
 11053                           ;mcc_generated_files/usb/usb_device.c: 2911:                 {;mcc_generated_files/usb/u
      +                          sb_device.c: 2912:                     if(SetupPkt.EPDir == 0)
 11054  0479  1BD4               	btfsc	84,7	;volatile
 11055  047A  2C7C               	goto	u291_21
 11056  047B  2C7D               	goto	u291_20
 11057  047C                     u291_21:
 11058  047C  2C85               	goto	i1l4115
 11059  047D                     u291_20:
 11060  047D                     i1l4113:
 11061                           
 11062                           ;mcc_generated_files/usb/usb_device.c: 2913:                     {;mcc_generated_files/u
      +                          sb/usb_device.c: 2914:                         ep_data_out[SetupPkt.EPNum].bits.transfer
      +                          _terminated = 0;
 11063  047D  0854               	movf	84,w	;volatile
 11064  047E  390F               	andlw	15
 11065  047F  3EC2               	addlw	(low (_ep_data_out| (0+256)))& (0+255)
 11066  0480  0086               	movwf	6
 11067  0481  3001               	movlw	1	; select bank3/4
 11068  0482  0087               	movwf	7
 11069  0483  1081               	bcf	1,1
 11070                           
 11071                           ;mcc_generated_files/usb/usb_device.c: 2915:                     }
 11072  0484  2C8C               	goto	i1l384
 11073  0485                     i1l4115:
 11074                           
 11075                           ;mcc_generated_files/usb/usb_device.c: 2917:                     {;mcc_generated_files/u
      +                          sb/usb_device.c: 2918:                         ep_data_in[SetupPkt.EPNum].bits.transfer_
      +                          terminated = 0;
 11076  0485  0854               	movf	84,w	;volatile
 11077  0486  390F               	andlw	15
 11078  0487  3EC5               	addlw	(low (_ep_data_in| (0+256)))& (0+255)
 11079  0488  0086               	movwf	6
 11080  0489  3001               	movlw	1	; select bank3/4
 11081  048A  0087               	movwf	7
 11082  048B  1081               	bcf	1,1
 11083  048C                     i1l384:	
 11084                           ;mcc_generated_files/usb/usb_device.c: 2919:                     }
 11085                           
 11086                           
 11087                           ;mcc_generated_files/usb/usb_device.c: 2921:                     p->STAT.Val &= ~(0x80 |
      +                           0x40 | 0x04);
 11088  048C  303B               	movlw	59
 11089  048D  00E6               	movwf	??_USBStdFeatureReqHandler
 11090  048E  086B               	movf	USBStdFeatureReqHandler@p,w
 11091  048F  0086               	movwf	6
 11092  0490  086C               	movf	USBStdFeatureReqHandler@p+1,w
 11093  0491  0087               	movwf	7
 11094  0492  0866               	movf	??_USBStdFeatureReqHandler,w
 11095  0493  0581               	andwf	1,f
 11096  0494                     i1l4117:
 11097                           
 11098                           ;mcc_generated_files/usb/usb_device.c: 2924:                     USER_USB_CALLBACK_EVENT
      +                          _HANDLER((USB_EVENT)EVENT_TRANSFER_TERMINATED,p,sizeof(p));
 11099  0494  3005               	movlw	5
 11100  0495  00E0               	movwf	USER_USB_CALLBACK_EVENT_HANDLER@event
 11101  0496  3000               	movlw	0
 11102  0497  00E1               	movwf	USER_USB_CALLBACK_EVENT_HANDLER@event+1
 11103  0498  086C               	movf	USBStdFeatureReqHandler@p+1,w
 11104  0499  00E3               	movwf	USER_USB_CALLBACK_EVENT_HANDLER@pdata+1
 11105  049A  086B               	movf	USBStdFeatureReqHandler@p,w
 11106  049B  00E2               	movwf	USER_USB_CALLBACK_EVENT_HANDLER@pdata
 11107  049C  3002               	movlw	2
 11108  049D  00E4               	movwf	USER_USB_CALLBACK_EVENT_HANDLER@size
 11109  049E  3000               	movlw	0
 11110  049F  00E5               	movwf	USER_USB_CALLBACK_EVENT_HANDLER@size+1
 11111  04A0  3194  2471  3183   	fcall	_USER_USB_CALLBACK_EVENT_HANDLER
 11112                           
 11113                           ;mcc_generated_files/usb/usb_device.c: 2925:                 }
 11114  04A3  2CAC               	goto	i1l4121
 11115  04A4                     i1l4119:
 11116                           
 11117                           ;mcc_generated_files/usb/usb_device.c: 2927:                 {;mcc_generated_files/usb/u
      +                          sb_device.c: 2929:                     p->STAT.Val &= ~(0x80 | 0x40 | 0x04);
 11118  04A4  303B               	movlw	59
 11119  04A5  00E6               	movwf	??_USBStdFeatureReqHandler
 11120  04A6  086B               	movf	USBStdFeatureReqHandler@p,w
 11121  04A7  0086               	movwf	6
 11122  04A8  086C               	movf	USBStdFeatureReqHandler@p+1,w
 11123  04A9  0087               	movwf	7
 11124  04AA  0866               	movf	??_USBStdFeatureReqHandler,w
 11125  04AB  0581               	andwf	1,f
 11126  04AC                     i1l4121:
 11127                           
 11128                           ;mcc_generated_files/usb/usb_device.c: 2977:                 pUEP = (unsigned char*)(&UE
      +                          P0+SetupPkt.EPNum);
 11129  04AC  0020               	movlb	0	; select bank0
 11130  04AD  0854               	movf	84,w	;volatile
 11131  04AE  390F               	andlw	15
 11132  04AF  3E98               	addlw	152
 11133  04B0  00E6               	movwf	??_USBStdFeatureReqHandler
 11134  04B1  01E7               	clrf	??_USBStdFeatureReqHandler+1
 11135  04B2  300E               	movlw	14
 11136  04B3  3DE7               	addwfc	??_USBStdFeatureReqHandler+1,f
 11137  04B4  0866               	movf	??_USBStdFeatureReqHandler,w
 11138  04B5  00E8               	movwf	USBStdFeatureReqHandler@pUEP
 11139  04B6  0867               	movf	??_USBStdFeatureReqHandler+1,w
 11140  04B7  00E9               	movwf	USBStdFeatureReqHandler@pUEP+1
 11141  04B8                     i1l4123:
 11142                           
 11143                           ;mcc_generated_files/usb/usb_device.c: 2981:             *pUEP &= ~0x0001;
 11144  04B8  30FE               	movlw	254
 11145  04B9  00E6               	movwf	??_USBStdFeatureReqHandler
 11146  04BA  0868               	movf	USBStdFeatureReqHandler@pUEP,w
 11147  04BB  0086               	movwf	6
 11148  04BC  0869               	movf	USBStdFeatureReqHandler@pUEP+1,w
 11149  04BD  0087               	movwf	7
 11150  04BE  0866               	movf	??_USBStdFeatureReqHandler,w
 11151  04BF  0581               	andwf	1,f
 11152  04C0                     i1l386:
 11153  04C0  0008               	return
 11154  04C1                     __end_of_USBStdFeatureReqHandler:
 11155                           
 11156                           	psect	text45
 11157  1471                     __ptext45:	
 11158 ;; *************** function _USER_USB_CALLBACK_EVENT_HANDLER *****************
 11159 ;; Defined at:
 11160 ;;		line 49 in file "mcc_generated_files/usb/usb_device_events.c"
 11161 ;; Parameters:    Size  Location     Type
 11162 ;;  event           2    0[BANK0 ] enum E46
 11163 ;;  pdata           2    2[BANK0 ] PTR void 
 11164 ;;		 -> RAM(4096), USTATcopy(1), USBActiveConfiguration(1), NULL(0), 
 11165 ;;		 -> BDT(48), 
 11166 ;;  size            2    4[BANK0 ] unsigned short 
 11167 ;; Auto vars:     Size  Location     Type
 11168 ;;		None
 11169 ;; Return value:  Size  Location     Type
 11170 ;;                  1    wreg      _Bool 
 11171 ;; Registers used:
 11172 ;;		wreg, fsr0l, fsr0h, fsr1l, fsr1h, status,2, status,0, pclath, cstack
 11173 ;; Tracked objects:
 11174 ;;		On entry : 0/0
 11175 ;;		On exit  : 0/0
 11176 ;;		Unchanged: 0/0
 11177 ;; Data sizes:     COMMON   BANK0   BANK1   BANK2   BANK3   BANK4   BANK5   BANK6   BANK7   BANK8   BANK9  BANK10  BANK1
      +1  BANK12
 11178 ;;      Params:         0       6       0       0       0       0       0       0       0       0       0       0       
      +0       0
 11179 ;;      Locals:         0       0       0       0       0       0       0       0       0       0       0       0       
      +0       0
 11180 ;;      Temps:          0       0       0       0       0       0       0       0       0       0       0       0       
      +0       0
 11181 ;;      Totals:         0       6       0       0       0       0       0       0       0       0       0       0       
      +0       0
 11182 ;;Total ram usage:        6 bytes
 11183 ;; Hardware stack levels used:    1
 11184 ;; Hardware stack levels required when called:    3
 11185 ;; This function calls:
 11186 ;;		_CDCInitEP
 11187 ;;		_USBCheckCDCRequest
 11188 ;; This function is called by:
 11189 ;;		_USBDeviceTasks
 11190 ;;		_USBStdSetCfgHandler
 11191 ;;		_USBSuspend
 11192 ;;		_USBWakeFromSuspend
 11193 ;;		_USBCtrlTrfSetupHandler
 11194 ;;		_USBCheckStdRequest
 11195 ;;		_USBStdFeatureReqHandler
 11196 ;; This function uses a non-reentrant model
 11197 ;;
 11198                           
 11199                           
 11200                           ;psect for function _USER_USB_CALLBACK_EVENT_HANDLER
 11201  1471                     _USER_USB_CALLBACK_EVENT_HANDLER:
 11202  1471                     i1l3761:	
 11203                           ;incstack = 0
 11204                           ; Regs used in _USER_USB_CALLBACK_EVENT_HANDLER: [wreg-fsr1h+status,2+status,0+pclath+cs
      +                          tack]
 11205                           
 11206                           
 11207                           ;mcc_generated_files/usb/usb_device_events.c: 49: _Bool USER_USB_CALLBACK_EVENT_HANDLER(
      +                          USB_EVENT event, void *pdata, uint16_t size);mcc_generated_files/usb/usb_device_events.c
      +                          : 50: {;mcc_generated_files/usb/usb_device_events.c: 51:     switch( (int) event )
 11208  1471  2C7A               	goto	i1l3769
 11209  1472                     i1l3763:
 11210                           
 11211                           ;mcc_generated_files/usb/usb_device_events.c: 76:             CDCInitEP();
 11212  1472  3194  24A3  3194   	fcall	_CDCInitEP
 11213                           
 11214                           ;mcc_generated_files/usb/usb_device_events.c: 77:             break;
 11215  1475  2CA2               	goto	i1l549
 11216  1476                     i1l3765:
 11217                           
 11218                           ;mcc_generated_files/usb/usb_device_events.c: 85:             USBCheckCDCRequest();
 11219  1476  3196  26A4  3194   	fcall	_USBCheckCDCRequest
 11220                           
 11221                           ;mcc_generated_files/usb/usb_device_events.c: 86:             break;
 11222  1479  2CA2               	goto	i1l549
 11223  147A                     i1l3769:
 11224                           
 11225                           ; Switch on 2 bytes has been partitioned into a top level switch of size 1, and 2 sub-sw
      +                          itches
 11226                           ; Switch size 1, requested type "simple"
 11227                           ; Number of cases is 2, Range of values is 0 to 127
 11228                           ; switch strategies available:
 11229                           ; Name         Instructions Cycles
 11230                           ; simple_byte            7     4 (average)
 11231                           ; direct_byte          262     6 (fixed)
 11232                           ; jumptable            260     6 (fixed)
 11233                           ;	Chosen strategy is simple_byte
 11234  147A  0020               	movlb	0	; select bank0
 11235  147B  0861               	movf	USER_USB_CALLBACK_EVENT_HANDLER@event+1,w
 11236  147C  3A00               	xorlw	0	; case 0
 11237  147D  1903               	skipnz
 11238  147E  2C83               	goto	i1l7201
 11239  147F  3A7F               	xorlw	127	; case 127
 11240  1480  1903               	skipnz
 11241  1481  2C9D               	goto	i1l7203
 11242  1482  2CA2               	goto	i1l549
 11243  1483                     i1l7201:
 11244                           
 11245                           ; Switch size 1, requested type "simple"
 11246                           ; Number of cases is 8, Range of values is 1 to 117
 11247                           ; switch strategies available:
 11248                           ; Name         Instructions Cycles
 11249                           ; simple_byte           25    13 (average)
 11250                           ; direct_byte          243     9 (fixed)
 11251                           ; jumptable            263     9 (fixed)
 11252                           ;	Chosen strategy is simple_byte
 11253  1483  0860               	movf	USER_USB_CALLBACK_EVENT_HANDLER@event,w
 11254  1484  3A01               	xorlw	1	; case 1
 11255  1485  1903               	skipnz
 11256  1486  2C72               	goto	i1l3763
 11257  1487  3A03               	xorlw	3	; case 2
 11258  1488  1903               	skipnz
 11259  1489  2CA2               	goto	i1l549
 11260  148A  3A01               	xorlw	1	; case 3
 11261  148B  1903               	skipnz
 11262  148C  2C76               	goto	i1l3765
 11263  148D  3A06               	xorlw	6	; case 5
 11264  148E  1903               	skipnz
 11265  148F  2CA2               	goto	i1l549
 11266  1490  3A77               	xorlw	119	; case 114
 11267  1491  1903               	skipnz
 11268  1492  2CA2               	goto	i1l549
 11269  1493  3A01               	xorlw	1	; case 115
 11270  1494  1903               	skipnz
 11271  1495  2CA2               	goto	i1l549
 11272  1496  3A07               	xorlw	7	; case 116
 11273  1497  1903               	skipnz
 11274  1498  2CA2               	goto	i1l549
 11275  1499  3A01               	xorlw	1	; case 117
 11276  149A  1903               	skipnz
 11277  149B  2CA2               	goto	i1l549
 11278  149C  2CA2               	goto	i1l549
 11279  149D                     i1l7203:
 11280                           
 11281                           ; Switch size 1, requested type "simple"
 11282                           ; Number of cases is 1, Range of values is 255 to 255
 11283                           ; switch strategies available:
 11284                           ; Name         Instructions Cycles
 11285                           ; simple_byte            4     3 (average)
 11286                           ; direct_byte            7     5 (fixed)
 11287                           ; jumptable            263     9 (fixed)
 11288                           ;	Chosen strategy is simple_byte
 11289  149D  0860               	movf	USER_USB_CALLBACK_EVENT_HANDLER@event,w
 11290  149E  3AFF               	xorlw	255	; case 255
 11291  149F  1903               	skipnz
 11292  14A0  2CA2               	goto	i1l549
 11293  14A1  2CA2               	goto	i1l549
 11294  14A2                     i1l549:
 11295  14A2  0008               	return
 11296  14A3                     __end_of_USER_USB_CALLBACK_EVENT_HANDLER:
 11297                           
 11298                           	psect	text46
 11299  16A4                     __ptext46:	
 11300 ;; *************** function _USBCheckCDCRequest *****************
 11301 ;; Defined at:
 11302 ;;		line 147 in file "mcc_generated_files/usb/usb_device_cdc.c"
 11303 ;; Parameters:    Size  Location     Type
 11304 ;;		None
 11305 ;; Auto vars:     Size  Location     Type
 11306 ;;		None
 11307 ;; Return value:  Size  Location     Type
 11308 ;;                  1    wreg      void 
 11309 ;; Registers used:
 11310 ;;		wreg, fsr0l, fsr0h, status,2, status,0
 11311 ;; Tracked objects:
 11312 ;;		On entry : 0/0
 11313 ;;		On exit  : 0/0
 11314 ;;		Unchanged: 0/0
 11315 ;; Data sizes:     COMMON   BANK0   BANK1   BANK2   BANK3   BANK4   BANK5   BANK6   BANK7   BANK8   BANK9  BANK10  BANK1
      +1  BANK12
 11316 ;;      Params:         0       0       0       0       0       0       0       0       0       0       0       0       
      +0       0
 11317 ;;      Locals:         0       0       0       0       0       0       0       0       0       0       0       0       
      +0       0
 11318 ;;      Temps:          2       0       0       0       0       0       0       0       0       0       0       0       
      +0       0
 11319 ;;      Totals:         2       0       0       0       0       0       0       0       0       0       0       0       
      +0       0
 11320 ;;Total ram usage:        2 bytes
 11321 ;; Hardware stack levels used:    1
 11322 ;; This function calls:
 11323 ;;		Nothing
 11324 ;; This function is called by:
 11325 ;;		_USER_USB_CALLBACK_EVENT_HANDLER
 11326 ;; This function uses a non-reentrant model
 11327 ;;
 11328                           
 11329                           
 11330                           ;psect for function _USBCheckCDCRequest
 11331  16A4                     _USBCheckCDCRequest:
 11332  16A4                     i1l3693:	
 11333                           ;incstack = 0
 11334                           ; Regs used in _USBCheckCDCRequest: [wreg-fsr0h+status,2+status,0]
 11335                           
 11336                           
 11337                           ;mcc_generated_files/usb/usb_device_cdc.c: 152:     if(SetupPkt.Recipient != (0x01)) ret
      +                          urn;
 11338  16A4  0020               	movlb	0	; select bank0
 11339  16A5  0850               	movf	80,w	;volatile
 11340  16A6  391F               	andlw	31
 11341  16A7  3A01               	xorlw	1
 11342  16A8  1903               	skipnz
 11343  16A9  2EAB               	goto	u242_21
 11344  16AA  2EAC               	goto	u242_20
 11345  16AB                     u242_21:
 11346  16AB  2EAD               	goto	i1l3697
 11347  16AC                     u242_20:
 11348  16AC  2F11               	goto	i1l442
 11349  16AD                     i1l3697:
 11350                           
 11351                           ;mcc_generated_files/usb/usb_device_cdc.c: 157:     if(SetupPkt.RequestType != (0x20>>5)
      +                          ) return;
 11352  16AD  0E50               	swapf	80,w	;volatile
 11353  16AE  0C89               	rrf	9,f
 11354  16AF  3903               	andlw	3
 11355  16B0  3A01               	xorlw	1
 11356  16B1  1903               	skipnz
 11357  16B2  2EB4               	goto	u243_21
 11358  16B3  2EB5               	goto	u243_20
 11359  16B4                     u243_21:
 11360  16B4  2EB6               	goto	i1l3701
 11361  16B5                     u243_20:
 11362  16B5  2F11               	goto	i1l442
 11363  16B6                     i1l3701:
 11364                           
 11365                           ;mcc_generated_files/usb/usb_device_cdc.c: 163:     if((SetupPkt.bIntfID != 0x0)&&
 11366  16B6  0854               	movf	84,w	;volatile
 11367  16B7  1903               	btfsc	3,2
 11368  16B8  2EBA               	goto	u244_21
 11369  16B9  2EBB               	goto	u244_20
 11370  16BA                     u244_21:
 11371  16BA  2EF8               	goto	i1l3737
 11372  16BB                     u244_20:
 11373  16BB                     i1l3703:
 11374  16BB  0354               	decf	84,w	;volatile
 11375  16BC  1903               	btfsc	3,2
 11376  16BD  2EBF               	goto	u245_21
 11377  16BE  2EC0               	goto	u245_20
 11378  16BF                     u245_21:
 11379  16BF  2EF8               	goto	i1l3737
 11380  16C0                     u245_20:
 11381  16C0  2F11               	goto	i1l442
 11382  16C1                     i1l3707:
 11383                           
 11384                           ;mcc_generated_files/usb/usb_device_cdc.c: 171:             inPipes[0].pSrc.bRam = (uint
      +                          8_t*)&dummy_encapsulated_cmd_response;
 11385  16C1  3046               	movlw	low _dummy_encapsulated_cmd_response
 11386  16C2  0023               	movlb	3	; select bank3
 11387  16C3  00BD               	movwf	_inPipes^(0+384)	;volatile
 11388  16C4  3002               	movlw	high _dummy_encapsulated_cmd_response
 11389  16C5  00BE               	movwf	(_inPipes+1)^(0+384)	;volatile
 11390  16C6                     i1l3709:
 11391                           
 11392                           ;mcc_generated_files/usb/usb_device_cdc.c: 172:             inPipes[0].wCount.Val = 0x08
      +                          ;
 11393  16C6  3000               	movlw	0
 11394  16C7  00C1               	movwf	((_inPipes+1)^(0+384)+3)	;volatile
 11395  16C8  3008               	movlw	8
 11396  16C9  00C0               	movwf	(_inPipes^(0+384)+3)	;volatile
 11397  16CA                     i1l3711:
 11398                           
 11399                           ;mcc_generated_files/usb/usb_device_cdc.c: 173:             inPipes[0].info.bits.ctrl_tr
      +                          f_mem = 0x01;
 11400  16CA  143F               	bsf	(_inPipes^(0+384)+2),0	;volatile
 11401  16CB                     i1l3713:
 11402                           
 11403                           ;mcc_generated_files/usb/usb_device_cdc.c: 174:             inPipes[0].info.bits.busy = 
      +                          1;
 11404  16CB  17BF               	bsf	(_inPipes^(0+384)+2),7	;volatile
 11405                           
 11406                           ;mcc_generated_files/usb/usb_device_cdc.c: 175:             break;
 11407  16CC  2F11               	goto	i1l442
 11408  16CD                     i1l3715:
 11409                           
 11410                           ;mcc_generated_files/usb/usb_device_cdc.c: 178:             inPipes[0].pSrc.bRam = (uint
      +                          8_t*)&dummy_encapsulated_cmd_response;
 11411  16CD  3046               	movlw	low _dummy_encapsulated_cmd_response
 11412  16CE  0023               	movlb	3	; select bank3
 11413  16CF  00BD               	movwf	_inPipes^(0+384)	;volatile
 11414  16D0  3002               	movlw	high _dummy_encapsulated_cmd_response
 11415  16D1  00BE               	movwf	(_inPipes+1)^(0+384)	;volatile
 11416  16D2                     i1l3717:
 11417                           
 11418                           ;mcc_generated_files/usb/usb_device_cdc.c: 179:             inPipes[0].info.bits.busy = 
      +                          1;
 11419  16D2  17BF               	bsf	(_inPipes^(0+384)+2),7	;volatile
 11420                           
 11421                           ;mcc_generated_files/usb/usb_device_cdc.c: 180:             break;
 11422  16D3  2F11               	goto	i1l442
 11423  16D4                     i1l3719:
 11424                           
 11425                           ;mcc_generated_files/usb/usb_device_cdc.c: 185:             outPipes[0].wCount.Val = Set
      +                          upPkt.wLength;
 11426  16D4  0857               	movf	87,w	;volatile
 11427  16D5  0023               	movlb	3	; select bank3
 11428  16D6  00B4               	movwf	((_outPipes+1)^(0+384)+3)	;volatile
 11429  16D7  0020               	movlb	0	; select bank0
 11430  16D8  0856               	movf	86,w	;volatile
 11431  16D9  0023               	movlb	3	; select bank3
 11432  16DA  00B3               	movwf	(_outPipes^(0+384)+3)	;volatile
 11433                           
 11434                           ;mcc_generated_files/usb/usb_device_cdc.c: 186:             outPipes[0].pDst.bRam = (uin
      +                          t8_t*)&line_coding._byte[0];
 11435  16DB  304E               	movlw	(low (_line_coding| (0+512)))& (0+255)
 11436  16DC  00F0               	movwf	??_USBCheckCDCRequest
 11437  16DD  0870               	movf	??_USBCheckCDCRequest,w
 11438  16DE  00B0               	movwf	_outPipes^(0+384)	;volatile
 11439  16DF                     i1l3721:
 11440                           
 11441                           ;mcc_generated_files/usb/usb_device_cdc.c: 187:             outPipes[0].pFunc = ((void*)
      +                          0);
 11442  16DF  01B5               	clrf	(low ((_outPipes| (0+256)+5)))^(0+128)	;volatile
 11443  16E0  01B6               	clrf	((low ((_outPipes| (0+256)+5))+1))^(0+128)	;volatile
 11444  16E1                     i1l3723:
 11445                           
 11446                           ;mcc_generated_files/usb/usb_device_cdc.c: 188:             outPipes[0].info.bits.busy =
      +                           1;
 11447  16E1  17B2               	bsf	(_outPipes^(0+384)+2),7	;volatile
 11448                           
 11449                           ;mcc_generated_files/usb/usb_device_cdc.c: 189:             break;
 11450  16E2  2F11               	goto	i1l442
 11451  16E3                     i1l3725:
 11452                           
 11453                           ;mcc_generated_files/usb/usb_device_cdc.c: 192:             { inPipes[0].pSrc.bRam = (ui
      +                          nt8_t*)&line_coding; inPipes[0].wCount.Val = 0x07; inPipes[0].info.Val = 0x40 | 0x80 | 0
      +                          x01; };
 11454  16E3  304E               	movlw	low _line_coding
 11455  16E4  0023               	movlb	3	; select bank3
 11456  16E5  00BD               	movwf	_inPipes^(0+384)	;volatile
 11457  16E6  3002               	movlw	high _line_coding
 11458  16E7  00BE               	movwf	(_inPipes+1)^(0+384)	;volatile
 11459  16E8                     i1l3727:
 11460  16E8  3000               	movlw	0
 11461  16E9  00C1               	movwf	((_inPipes+1)^(0+384)+3)	;volatile
 11462  16EA  3007               	movlw	7
 11463  16EB  00C0               	movwf	(_inPipes^(0+384)+3)	;volatile
 11464  16EC                     i1l3729:
 11465  16EC  30C1               	movlw	193
 11466  16ED  00F0               	movwf	??_USBCheckCDCRequest
 11467  16EE  0870               	movf	??_USBCheckCDCRequest,w
 11468  16EF  00BF               	movwf	(_inPipes^(0+384)+2)	;volatile
 11469                           
 11470                           ;mcc_generated_files/usb/usb_device_cdc.c: 196:             break;
 11471  16F0  2F11               	goto	i1l442
 11472  16F1                     i1l3731:
 11473                           
 11474                           ;mcc_generated_files/usb/usb_device_cdc.c: 199:             control_signal_bitmap._byte 
      +                          = (uint8_t)SetupPkt.wValue;
 11475  16F1  0852               	movf	82,w	;volatile
 11476  16F2  00F0               	movwf	??_USBCheckCDCRequest
 11477  16F3  0870               	movf	??_USBCheckCDCRequest,w
 11478  16F4  0023               	movlb	3	; select bank3
 11479  16F5  00D8               	movwf	_control_signal_bitmap^(0+384)
 11480  16F6                     i1l3733:
 11481                           
 11482                           ;mcc_generated_files/usb/usb_device_cdc.c: 231:             inPipes[0].info.bits.busy = 
      +                          1;
 11483  16F6  17BF               	bsf	(_inPipes^(0+384)+2),7	;volatile
 11484                           
 11485                           ;mcc_generated_files/usb/usb_device_cdc.c: 232:             break;
 11486  16F7  2F11               	goto	i1l442
 11487  16F8                     i1l3737:
 11488  16F8  0851               	movf	81,w	;volatile
 11489  16F9  00F0               	movwf	??_USBCheckCDCRequest
 11490  16FA  01F1               	clrf	??_USBCheckCDCRequest+1
 11491                           
 11492                           ; Switch on 2 bytes has been partitioned into a top level switch of size 1, and 1 sub-sw
      +                          itches
 11493                           ; Switch size 1, requested type "simple"
 11494                           ; Number of cases is 1, Range of values is 0 to 0
 11495                           ; switch strategies available:
 11496                           ; Name         Instructions Cycles
 11497                           ; simple_byte            4     3 (average)
 11498                           ; direct_byte            8     6 (fixed)
 11499                           ; jumptable            260     6 (fixed)
 11500                           ;	Chosen strategy is simple_byte
 11501  16FB  0871               	movf	??_USBCheckCDCRequest+1,w
 11502  16FC  3A00               	xorlw	0	; case 0
 11503  16FD  1903               	skipnz
 11504  16FE  2F00               	goto	i1l7205
 11505  16FF  2F11               	goto	i1l442
 11506  1700                     i1l7205:
 11507                           
 11508                           ; Switch size 1, requested type "simple"
 11509                           ; Number of cases is 5, Range of values is 0 to 34
 11510                           ; switch strategies available:
 11511                           ; Name         Instructions Cycles
 11512                           ; simple_byte           16     9 (average)
 11513                           ; direct_byte           76     6 (fixed)
 11514                           ; jumptable            260     6 (fixed)
 11515                           ;	Chosen strategy is simple_byte
 11516  1700  0870               	movf	??_USBCheckCDCRequest,w
 11517  1701  3A00               	xorlw	0	; case 0
 11518  1702  1903               	skipnz
 11519  1703  2EC1               	goto	i1l3707
 11520  1704  3A01               	xorlw	1	; case 1
 11521  1705  1903               	skipnz
 11522  1706  2ECD               	goto	i1l3715
 11523  1707  3A21               	xorlw	33	; case 32
 11524  1708  1903               	skipnz
 11525  1709  2ED4               	goto	i1l3719
 11526  170A  3A01               	xorlw	1	; case 33
 11527  170B  1903               	skipnz
 11528  170C  2EE3               	goto	i1l3725
 11529  170D  3A03               	xorlw	3	; case 34
 11530  170E  1903               	skipnz
 11531  170F  2EF1               	goto	i1l3731
 11532  1710  2F11               	goto	i1l442
 11533  1711                     i1l442:
 11534  1711  0008               	return
 11535  1712                     __end_of_USBCheckCDCRequest:
 11536                           
 11537                           	psect	text47
 11538  14A3                     __ptext47:	
 11539 ;; *************** function _CDCInitEP *****************
 11540 ;; Defined at:
 11541 ;;		line 294 in file "mcc_generated_files/usb/usb_device_cdc.c"
 11542 ;; Parameters:    Size  Location     Type
 11543 ;;		None
 11544 ;; Auto vars:     Size  Location     Type
 11545 ;;		None
 11546 ;; Return value:  Size  Location     Type
 11547 ;;                  1    wreg      void 
 11548 ;; Registers used:
 11549 ;;		wreg, fsr1l, fsr1h, status,2, status,0, pclath, cstack
 11550 ;; Tracked objects:
 11551 ;;		On entry : 0/0
 11552 ;;		On exit  : 0/0
 11553 ;;		Unchanged: 0/0
 11554 ;; Data sizes:     COMMON   BANK0   BANK1   BANK2   BANK3   BANK4   BANK5   BANK6   BANK7   BANK8   BANK9  BANK10  BANK1
      +1  BANK12
 11555 ;;      Params:         0       0       0       0       0       0       0       0       0       0       0       0       
      +0       0
 11556 ;;      Locals:         0       0       0       0       0       0       0       0       0       0       0       0       
      +0       0
 11557 ;;      Temps:          1       0       0       0       0       0       0       0       0       0       0       0       
      +0       0
 11558 ;;      Totals:         1       0       0       0       0       0       0       0       0       0       0       0       
      +0       0
 11559 ;;Total ram usage:        1 bytes
 11560 ;; Hardware stack levels used:    1
 11561 ;; Hardware stack levels required when called:    2
 11562 ;; This function calls:
 11563 ;;		_USBEnableEndpoint
 11564 ;;		i1_USBTransferOnePacket
 11565 ;; This function is called by:
 11566 ;;		_USER_USB_CALLBACK_EVENT_HANDLER
 11567 ;; This function uses a non-reentrant model
 11568 ;;
 11569                           
 11570                           
 11571                           ;psect for function _CDCInitEP
 11572  14A3                     _CDCInitEP:
 11573  14A3                     i1l3743:	
 11574                           ;incstack = 0
 11575                           ; Regs used in _CDCInitEP: [wreg+fsr1l+fsr1h+status,2+status,0+pclath+cstack]
 11576                           
 11577                           
 11578                           ;mcc_generated_files/usb/usb_device_cdc.c: 297:     line_coding.dwDTERate = 19200;
 11579  14A3  3000               	movlw	0
 11580  14A4  0024               	movlb	4	; select bank4
 11581  14A5  00D1               	movwf	(_line_coding+3)^(0+512)
 11582  14A6  3000               	movlw	0
 11583  14A7  00D0               	movwf	(_line_coding+2)^(0+512)
 11584  14A8  304B               	movlw	75
 11585  14A9  00CF               	movwf	(_line_coding+1)^(0+512)
 11586  14AA  3000               	movlw	0
 11587  14AB  00CE               	movwf	_line_coding^(0+512)
 11588  14AC                     i1l3745:
 11589                           
 11590                           ;mcc_generated_files/usb/usb_device_cdc.c: 298:     line_coding.bCharFormat = 0x00;
 11591  14AC  01D2               	clrf	(_line_coding^(0+512)+4)
 11592  14AD                     i1l3747:
 11593                           
 11594                           ;mcc_generated_files/usb/usb_device_cdc.c: 299:     line_coding.bParityType = 0x00;
 11595  14AD  01D3               	clrf	(_line_coding^(0+512)+5)
 11596                           
 11597                           ;mcc_generated_files/usb/usb_device_cdc.c: 300:     line_coding.bDataBits = 0x08;
 11598  14AE  3008               	movlw	8
 11599  14AF  00FD               	movwf	??_CDCInitEP
 11600  14B0  087D               	movf	??_CDCInitEP,w
 11601  14B1  00D4               	movwf	(_line_coding^(0+512)+6)
 11602  14B2                     i1l3749:
 11603                           
 11604                           ;mcc_generated_files/usb/usb_device_cdc.c: 302:     cdc_rx_len = 0;
 11605  14B2  0023               	movlb	3	; select bank3
 11606  14B3  01DC               	clrf	_cdc_rx_len^(0+384)
 11607  14B4                     i1l3751:
 11608                           
 11609                           ;mcc_generated_files/usb/usb_device_cdc.c: 315:     USBEnableEndpoint(1,0x02|0x10|0x08);
 11610  14B4  301A               	movlw	26
 11611  14B5  00FD               	movwf	??_CDCInitEP
 11612  14B6  087D               	movf	??_CDCInitEP,w
 11613  14B7  00F7               	movwf	USBEnableEndpoint@options
 11614  14B8  3001               	movlw	1
 11615  14B9  3193  23F1  3194   	fcall	_USBEnableEndpoint
 11616  14BC                     i1l3753:
 11617                           
 11618                           ;mcc_generated_files/usb/usb_device_cdc.c: 316:     USBEnableEndpoint(2,0x02|0x04|0x10|0
      +                          x08);
 11619  14BC  301E               	movlw	30
 11620  14BD  00FD               	movwf	??_CDCInitEP
 11621  14BE  087D               	movf	??_CDCInitEP,w
 11622  14BF  00F7               	movwf	USBEnableEndpoint@options
 11623  14C0  3002               	movlw	2
 11624  14C1  3193  23F1  3194   	fcall	_USBEnableEndpoint
 11625  14C4                     i1l3755:
 11626                           
 11627                           ;mcc_generated_files/usb/usb_device_cdc.c: 318:     CDCDataOutHandle = USBTransferOnePac
      +                          ket(2,0,(uint8_t*)&cdc_data_rx,sizeof(cdc_data_rx));
 11628  14C4  01F0               	clrf	i1USBTransferOnePacket@dir
 11629  14C5  30C0               	movlw	192
 11630  14C6  00F1               	movwf	i1USBTransferOnePacket@data
 11631  14C7  3020               	movlw	32
 11632  14C8  00F2               	movwf	i1USBTransferOnePacket@data+1
 11633  14C9  3040               	movlw	64
 11634  14CA  00FD               	movwf	??_CDCInitEP
 11635  14CB  087D               	movf	??_CDCInitEP,w
 11636  14CC  00F3               	movwf	i1USBTransferOnePacket@len
 11637  14CD  3002               	movlw	2
 11638  14CE  3189  21E5  3194   	fcall	i1_USBTransferOnePacket
 11639  14D1  0871               	movf	?i1_USBTransferOnePacket+1,w
 11640  14D2  0023               	movlb	3	; select bank3
 11641  14D3  00CF               	movwf	(_CDCDataOutHandle+1)^(0+384)
 11642  14D4  0870               	movf	?i1_USBTransferOnePacket,w
 11643  14D5  00CE               	movwf	_CDCDataOutHandle^(0+384)
 11644  14D6                     i1l3757:
 11645                           
 11646                           ;mcc_generated_files/usb/usb_device_cdc.c: 319:     CDCDataInHandle = ((void*)0);
 11647  14D6  01CC               	clrf	_CDCDataInHandle^(0+384)
 11648  14D7  01CD               	clrf	(_CDCDataInHandle+1)^(0+384)
 11649  14D8                     i1l3759:
 11650                           
 11651                           ;mcc_generated_files/usb/usb_device_cdc.c: 346:     cdc_trf_state = 0;
 11652  14D8  01DB               	clrf	_cdc_trf_state^(0+384)
 11653  14D9                     i1l455:
 11654  14D9  0008               	return
 11655  14DA                     __end_of_CDCInitEP:
 11656                           
 11657                           	psect	text48
 11658  09E5                     __ptext48:	
 11659 ;; *************** function i1_USBTransferOnePacket *****************
 11660 ;; Defined at:
 11661 ;;		line 999 in file "mcc_generated_files/usb/usb_device.c"
 11662 ;; Parameters:    Size  Location     Type
 11663 ;;  ep              1    wreg     unsigned char 
 11664 ;;  dir             1    0[COMMON] unsigned char 
 11665 ;;  data            2    1[COMMON] PTR unsigned char 
 11666 ;;		 -> cdc_data_tx(64), cdc_data_rx(64), NULL(0), 
 11667 ;;  len             1    3[COMMON] unsigned char 
 11668 ;; Auto vars:     Size  Location     Type
 11669 ;;  ep              1    8[COMMON] unsigned char 
 11670 ;;  handle          2    9[COMMON] PTR volatile struct __BD
 11671 ;;		 -> RAM(4096), NULL(0), BDT(48), 
 11672 ;; Return value:  Size  Location     Type
 11673 ;;                  2    0[COMMON] PTR void 
 11674 ;; Registers used:
 11675 ;;		wreg, fsr1l, fsr1h, status,2, status,0
 11676 ;; Tracked objects:
 11677 ;;		On entry : 0/0
 11678 ;;		On exit  : 0/0
 11679 ;;		Unchanged: 0/0
 11680 ;; Data sizes:     COMMON   BANK0   BANK1   BANK2   BANK3   BANK4   BANK5   BANK6   BANK7   BANK8   BANK9  BANK10  BANK1
      +1  BANK12
 11681 ;;      Params:         4       0       0       0       0       0       0       0       0       0       0       0       
      +0       0
 11682 ;;      Locals:         3       0       0       0       0       0       0       0       0       0       0       0       
      +0       0
 11683 ;;      Temps:          4       0       0       0       0       0       0       0       0       0       0       0       
      +0       0
 11684 ;;      Totals:        11       0       0       0       0       0       0       0       0       0       0       0       
      +0       0
 11685 ;;Total ram usage:       11 bytes
 11686 ;; Hardware stack levels used:    1
 11687 ;; This function calls:
 11688 ;;		Nothing
 11689 ;; This function is called by:
 11690 ;;		_CDCInitEP
 11691 ;; This function uses a non-reentrant model
 11692 ;;
 11693                           
 11694                           
 11695                           ;psect for function i1_USBTransferOnePacket
 11696  09E5                     i1_USBTransferOnePacket:
 11697                           
 11698                           ;incstack = 0
 11699                           ; Regs used in i1_USBTransferOnePacket: [wreg+fsr1l+fsr1h+status,2+status,0]
 11700                           ;i1USBTransferOnePacket@ep stored from wreg
 11701  09E5  00F8               	movwf	i1USBTransferOnePacket@ep
 11702  09E6                     i1l3665:
 11703                           
 11704                           ;mcc_generated_files/usb/usb_device.c: 999: void* USBTransferOnePacket(uint8_t ep,uint8_
      +                          t dir,uint8_t* data,uint8_t len);mcc_generated_files/usb/usb_device.c: 1000: {;mcc_gener
      +                          ated_files/usb/usb_device.c: 1001:     volatile BDT_ENTRY* handle;;mcc_generated_files/u
      +                          sb/usb_device.c: 1004:     if(dir != 0)
 11705  09E6  0870               	movf	i1USBTransferOnePacket@dir,w
 11706  09E7  1903               	btfsc	3,2
 11707  09E8  29EA               	goto	u239_21
 11708  09E9  29EB               	goto	u239_20
 11709  09EA                     u239_21:
 11710  09EA  29F5               	goto	i1l3669
 11711  09EB                     u239_20:
 11712  09EB                     i1l3667:
 11713                           
 11714                           ;mcc_generated_files/usb/usb_device.c: 1005:     {;mcc_generated_files/usb/usb_device.c:
      +                           1007:         handle = pBDTEntryIn[ep];
 11715  09EB  3578               	lslf	i1USBTransferOnePacket@ep,w
 11716  09EC  3EB7               	addlw	(low (_pBDTEntryIn| (0+256)))& (0+255)
 11717  09ED  0086               	movwf	6
 11718  09EE  3001               	movlw	1	; select bank3/4
 11719  09EF  0087               	movwf	7
 11720  09F0  3F40               	moviw [0]fsr1
 11721  09F1  00F9               	movwf	i1USBTransferOnePacket@handle
 11722  09F2  3F41               	moviw [1]fsr1
 11723  09F3  00FA               	movwf	i1USBTransferOnePacket@handle+1
 11724                           
 11725                           ;mcc_generated_files/usb/usb_device.c: 1008:     }
 11726  09F4  29FE               	goto	i1l3671
 11727  09F5                     i1l3669:
 11728                           
 11729                           ;mcc_generated_files/usb/usb_device.c: 1010:     {;mcc_generated_files/usb/usb_device.c:
      +                           1012:         handle = pBDTEntryOut[ep];
 11730  09F5  3578               	lslf	i1USBTransferOnePacket@ep,w
 11731  09F6  3E2A               	addlw	(low (_pBDTEntryOut| (0+512)))& (0+255)
 11732  09F7  0086               	movwf	6
 11733  09F8  3002               	movlw	2	; select bank4/5
 11734  09F9  0087               	movwf	7
 11735  09FA  3F40               	moviw [0]fsr1
 11736  09FB  00F9               	movwf	i1USBTransferOnePacket@handle
 11737  09FC  3F41               	moviw [1]fsr1
 11738  09FD  00FA               	movwf	i1USBTransferOnePacket@handle+1
 11739  09FE                     i1l3671:
 11740                           
 11741                           ;mcc_generated_files/usb/usb_device.c: 1017:     if(handle == 0)
 11742  09FE  0879               	movf	i1USBTransferOnePacket@handle,w
 11743  09FF  047A               	iorwf	i1USBTransferOnePacket@handle+1,w
 11744  0A00  1D03               	btfss	3,2
 11745  0A01  2A03               	goto	u240_21
 11746  0A02  2A04               	goto	u240_20
 11747  0A03                     u240_21:
 11748  0A03  2A07               	goto	i1l3677
 11749  0A04                     u240_20:
 11750  0A04                     i1l3673:
 11751                           
 11752                           ;mcc_generated_files/usb/usb_device.c: 1018:     {;mcc_generated_files/usb/usb_device.c:
      +                           1019:         return 0;
 11753  0A04  01F0               	clrf	?i1_USBTransferOnePacket
 11754  0A05  01F1               	clrf	?i1_USBTransferOnePacket+1
 11755  0A06  2A6E               	goto	i1l177
 11756  0A07                     i1l3677:
 11757                           
 11758                           ;mcc_generated_files/usb/usb_device.c: 1033:     handle->ADR = (((uint16_t)(data)) & 0x7
      +                          FFF);
 11759  0A07  30FF               	movlw	255
 11760  0A08  0571               	andwf	i1USBTransferOnePacket@data,w
 11761  0A09  00F4               	movwf	??i1_USBTransferOnePacket
 11762  0A0A  307F               	movlw	127
 11763  0A0B  0572               	andwf	i1USBTransferOnePacket@data+1,w
 11764  0A0C  00F5               	movwf	??i1_USBTransferOnePacket+1
 11765  0A0D  0879               	movf	i1USBTransferOnePacket@handle,w
 11766  0A0E  0086               	movwf	6
 11767  0A0F  087A               	movf	i1USBTransferOnePacket@handle+1,w
 11768  0A10  0087               	movwf	7
 11769  0A11  3142               	addfsr 1,2
 11770  0A12  0874               	movf	??i1_USBTransferOnePacket,w
 11771  0A13  3FC0               	movwi [0]fsr1
 11772  0A14  0875               	movf	??i1_USBTransferOnePacket+1,w
 11773  0A15  3FC1               	movwi [1]fsr1
 11774  0A16                     i1l3679:
 11775                           
 11776                           ;mcc_generated_files/usb/usb_device.c: 1034:     handle->CNT = len;
 11777  0A16  0879               	movf	i1USBTransferOnePacket@handle,w
 11778  0A17  3E01               	addlw	1
 11779  0A18  00F4               	movwf	??i1_USBTransferOnePacket
 11780  0A19  3000               	movlw	0
 11781  0A1A  3D7A               	addwfc	i1USBTransferOnePacket@handle+1,w
 11782  0A1B  00F5               	movwf	??i1_USBTransferOnePacket+1
 11783  0A1C  0874               	movf	??i1_USBTransferOnePacket,w
 11784  0A1D  0086               	movwf	6
 11785  0A1E  0875               	movf	??i1_USBTransferOnePacket+1,w
 11786  0A1F  0087               	movwf	7
 11787  0A20  0873               	movf	i1USBTransferOnePacket@len,w
 11788  0A21  0081               	movwf	1
 11789  0A22                     i1l3681:
 11790                           
 11791                           ;mcc_generated_files/usb/usb_device.c: 1035:     handle->STAT.Val &= 0x40;
 11792  0A22  3040               	movlw	64
 11793  0A23  00F4               	movwf	??i1_USBTransferOnePacket
 11794  0A24  0879               	movf	i1USBTransferOnePacket@handle,w
 11795  0A25  0086               	movwf	6
 11796  0A26  087A               	movf	i1USBTransferOnePacket@handle+1,w
 11797  0A27  0087               	movwf	7
 11798  0A28  0874               	movf	??i1_USBTransferOnePacket,w
 11799  0A29  0581               	andwf	1,f
 11800                           
 11801                           ;mcc_generated_files/usb/usb_device.c: 1036:     handle->STAT.Val |= (0x08 & 0x08);
 11802  0A2A  0879               	movf	i1USBTransferOnePacket@handle,w
 11803  0A2B  0086               	movwf	6
 11804  0A2C  087A               	movf	i1USBTransferOnePacket@handle+1,w
 11805  0A2D  0087               	movwf	7
 11806  0A2E  1581               	bsf	1,3
 11807                           
 11808                           ;mcc_generated_files/usb/usb_device.c: 1037:     handle->STAT.Val |= 0x80;
 11809  0A2F  0879               	movf	i1USBTransferOnePacket@handle,w
 11810  0A30  0086               	movwf	6
 11811  0A31  087A               	movf	i1USBTransferOnePacket@handle+1,w
 11812  0A32  0087               	movwf	7
 11813  0A33  1781               	bsf	1,7
 11814  0A34                     i1l3683:
 11815                           
 11816                           ;mcc_generated_files/usb/usb_device.c: 1040:     if(dir != 0)
 11817  0A34  0870               	movf	i1USBTransferOnePacket@dir,w
 11818  0A35  1903               	btfsc	3,2
 11819  0A36  2A38               	goto	u241_21
 11820  0A37  2A39               	goto	u241_20
 11821  0A38                     u241_21:
 11822  0A38  2A52               	goto	i1l3687
 11823  0A39                     u241_20:
 11824  0A39                     i1l3685:
 11825                           
 11826                           ;mcc_generated_files/usb/usb_device.c: 1041:     {;mcc_generated_files/usb/usb_device.c:
      +                           1043:         pBDTEntryIn[ep] = (BDT_ENTRY*)(((uint16_t)pBDTEntryIn[ep]) ^ 0x0004);
 11827  0A39  3578               	lslf	i1USBTransferOnePacket@ep,w
 11828  0A3A  3EB7               	addlw	(low (_pBDTEntryIn| (0+256)))& (0+255)
 11829  0A3B  0086               	movwf	6
 11830  0A3C  3001               	movlw	1	; select bank3/4
 11831  0A3D  0087               	movwf	7
 11832  0A3E  3F40               	moviw [0]fsr1
 11833  0A3F  00F4               	movwf	??i1_USBTransferOnePacket
 11834  0A40  3F41               	moviw [1]fsr1
 11835  0A41  00F5               	movwf	??i1_USBTransferOnePacket+1
 11836  0A42  3004               	movlw	4
 11837  0A43  0674               	xorwf	??i1_USBTransferOnePacket,w
 11838  0A44  00F6               	movwf	??i1_USBTransferOnePacket+2
 11839  0A45  3000               	movlw	0
 11840  0A46  0675               	xorwf	??i1_USBTransferOnePacket+1,w
 11841  0A47  00F7               	movwf	??i1_USBTransferOnePacket+3
 11842  0A48  3578               	lslf	i1USBTransferOnePacket@ep,w
 11843  0A49  3EB7               	addlw	(low (_pBDTEntryIn| (0+256)))& (0+255)
 11844  0A4A  0086               	movwf	6
 11845  0A4B  3001               	movlw	1	; select bank3/4
 11846  0A4C  0087               	movwf	7
 11847  0A4D  0876               	movf	??i1_USBTransferOnePacket+2,w
 11848  0A4E  3FC0               	movwi [0]fsr1
 11849  0A4F  0877               	movf	??i1_USBTransferOnePacket+3,w
 11850  0A50  3FC1               	movwi [1]fsr1
 11851                           
 11852                           ;mcc_generated_files/usb/usb_device.c: 1044:     }
 11853  0A51  2A6A               	goto	i1l3689
 11854  0A52                     i1l3687:
 11855                           
 11856                           ;mcc_generated_files/usb/usb_device.c: 1046:     {;mcc_generated_files/usb/usb_device.c:
      +                           1048:         pBDTEntryOut[ep] = (BDT_ENTRY*)(((uint16_t)pBDTEntryOut[ep]) ^ 0x0004);
 11857  0A52  3578               	lslf	i1USBTransferOnePacket@ep,w
 11858  0A53  3E2A               	addlw	(low (_pBDTEntryOut| (0+512)))& (0+255)
 11859  0A54  0086               	movwf	6
 11860  0A55  3002               	movlw	2	; select bank4/5
 11861  0A56  0087               	movwf	7
 11862  0A57  3F40               	moviw [0]fsr1
 11863  0A58  00F4               	movwf	??i1_USBTransferOnePacket
 11864  0A59  3F41               	moviw [1]fsr1
 11865  0A5A  00F5               	movwf	??i1_USBTransferOnePacket+1
 11866  0A5B  3004               	movlw	4
 11867  0A5C  0674               	xorwf	??i1_USBTransferOnePacket,w
 11868  0A5D  00F6               	movwf	??i1_USBTransferOnePacket+2
 11869  0A5E  3000               	movlw	0
 11870  0A5F  0675               	xorwf	??i1_USBTransferOnePacket+1,w
 11871  0A60  00F7               	movwf	??i1_USBTransferOnePacket+3
 11872  0A61  3578               	lslf	i1USBTransferOnePacket@ep,w
 11873  0A62  3E2A               	addlw	(low (_pBDTEntryOut| (0+512)))& (0+255)
 11874  0A63  0086               	movwf	6
 11875  0A64  3002               	movlw	2	; select bank4/5
 11876  0A65  0087               	movwf	7
 11877  0A66  0876               	movf	??i1_USBTransferOnePacket+2,w
 11878  0A67  3FC0               	movwi [0]fsr1
 11879  0A68  0877               	movf	??i1_USBTransferOnePacket+3,w
 11880  0A69  3FC1               	movwi [1]fsr1
 11881  0A6A                     i1l3689:
 11882                           
 11883                           ;mcc_generated_files/usb/usb_device.c: 1050:     return (void*)handle;
 11884  0A6A  087A               	movf	i1USBTransferOnePacket@handle+1,w
 11885  0A6B  00F1               	movwf	?i1_USBTransferOnePacket+1
 11886  0A6C  0879               	movf	i1USBTransferOnePacket@handle,w
 11887  0A6D  00F0               	movwf	?i1_USBTransferOnePacket
 11888  0A6E                     i1l177:
 11889  0A6E  0008               	return
 11890  0A6F                     __end_ofi1_USBTransferOnePacket:
 11891                           
 11892                           	psect	text49
 11893  13F1                     __ptext49:	
 11894 ;; *************** function _USBEnableEndpoint *****************
 11895 ;; Defined at:
 11896 ;;		line 882 in file "mcc_generated_files/usb/usb_device.c"
 11897 ;; Parameters:    Size  Location     Type
 11898 ;;  ep              1    wreg     unsigned char 
 11899 ;;  options         1    7[COMMON] unsigned char 
 11900 ;; Auto vars:     Size  Location     Type
 11901 ;;  ep              1   12[COMMON] unsigned char 
 11902 ;;  p               2   10[COMMON] PTR unsigned char 
 11903 ;;		 -> UEP0(1), 
 11904 ;; Return value:  Size  Location     Type
 11905 ;;                  1    wreg      void 
 11906 ;; Registers used:
 11907 ;;		wreg, fsr1l, fsr1h, status,2, status,0, pclath, cstack
 11908 ;; Tracked objects:
 11909 ;;		On entry : 0/0
 11910 ;;		On exit  : 0/0
 11911 ;;		Unchanged: 0/0
 11912 ;; Data sizes:     COMMON   BANK0   BANK1   BANK2   BANK3   BANK4   BANK5   BANK6   BANK7   BANK8   BANK9  BANK10  BANK1
      +1  BANK12
 11913 ;;      Params:         1       0       0       0       0       0       0       0       0       0       0       0       
      +0       0
 11914 ;;      Locals:         3       0       0       0       0       0       0       0       0       0       0       0       
      +0       0
 11915 ;;      Temps:          2       0       0       0       0       0       0       0       0       0       0       0       
      +0       0
 11916 ;;      Totals:         6       0       0       0       0       0       0       0       0       0       0       0       
      +0       0
 11917 ;;Total ram usage:        6 bytes
 11918 ;; Hardware stack levels used:    1
 11919 ;; Hardware stack levels required when called:    1
 11920 ;; This function calls:
 11921 ;;		_USBConfigureEndpoint
 11922 ;; This function is called by:
 11923 ;;		_CDCInitEP
 11924 ;; This function uses a non-reentrant model
 11925 ;;
 11926                           
 11927                           
 11928                           ;psect for function _USBEnableEndpoint
 11929  13F1                     _USBEnableEndpoint:
 11930                           
 11931                           ;incstack = 0
 11932                           ; Regs used in _USBEnableEndpoint: [wreg+fsr1l+fsr1h+status,2+status,0+pclath+cstack]
 11933                           ;USBEnableEndpoint@ep stored from wreg
 11934  13F1  00FC               	movwf	USBEnableEndpoint@ep
 11935  13F2                     i1l3653:
 11936                           
 11937                           ;mcc_generated_files/usb/usb_device.c: 882: void USBEnableEndpoint(uint8_t ep, uint8_t o
      +                          ptions);mcc_generated_files/usb/usb_device.c: 883: {;mcc_generated_files/usb/usb_device.
      +                          c: 884:     unsigned char* p;;mcc_generated_files/usb/usb_device.c: 888:     if(options 
      +                          & 0x04)
 11938  13F2  1D77               	btfss	USBEnableEndpoint@options,2
 11939  13F3  2BF5               	goto	u237_21
 11940  13F4  2BF6               	goto	u237_20
 11941  13F5                     u237_21:
 11942  13F5  2BFB               	goto	i1l3657
 11943  13F6                     u237_20:
 11944  13F6                     i1l3655:
 11945                           
 11946                           ;mcc_generated_files/usb/usb_device.c: 889:     {;mcc_generated_files/usb/usb_device.c: 
      +                          890:         USBConfigureEndpoint(ep, 0);
 11947  13F6  01F0               	clrf	USBConfigureEndpoint@direction
 11948  13F7  087C               	movf	USBEnableEndpoint@ep,w
 11949  13F8  3195  2551  3193   	fcall	_USBConfigureEndpoint
 11950  13FB                     i1l3657:
 11951                           
 11952                           ;mcc_generated_files/usb/usb_device.c: 892:     if(options & 0x02)
 11953  13FB  1CF7               	btfss	USBEnableEndpoint@options,1
 11954  13FC  2BFE               	goto	u238_21
 11955  13FD  2BFF               	goto	u238_20
 11956  13FE                     u238_21:
 11957  13FE  2C05               	goto	i1l3661
 11958  13FF                     u238_20:
 11959  13FF                     i1l3659:
 11960                           
 11961                           ;mcc_generated_files/usb/usb_device.c: 893:     {;mcc_generated_files/usb/usb_device.c: 
      +                          894:         USBConfigureEndpoint(ep, 1);
 11962  13FF  01F0               	clrf	USBConfigureEndpoint@direction
 11963  1400  0AF0               	incf	USBConfigureEndpoint@direction,f
 11964  1401  087C               	movf	USBEnableEndpoint@ep,w
 11965  1402  3195  2551  3193   	fcall	_USBConfigureEndpoint
 11966  1405                     i1l3661:
 11967                           
 11968                           ;mcc_generated_files/usb/usb_device.c: 903:         p = (unsigned char*)(&UEP0+ep);
 11969  1405  087C               	movf	USBEnableEndpoint@ep,w
 11970  1406  3E98               	addlw	152
 11971  1407  00F8               	movwf	??_USBEnableEndpoint
 11972  1408  01F9               	clrf	??_USBEnableEndpoint+1
 11973  1409  300E               	movlw	14
 11974  140A  3DF9               	addwfc	??_USBEnableEndpoint+1,f
 11975  140B  0878               	movf	??_USBEnableEndpoint,w
 11976  140C  00FA               	movwf	USBEnableEndpoint@p
 11977  140D  0879               	movf	??_USBEnableEndpoint+1,w
 11978  140E  00FB               	movwf	USBEnableEndpoint@p+1
 11979  140F                     i1l3663:
 11980                           
 11981                           ;mcc_generated_files/usb/usb_device.c: 905:     *p = options;
 11982  140F  087A               	movf	USBEnableEndpoint@p,w
 11983  1410  0086               	movwf	6
 11984  1411  087B               	movf	USBEnableEndpoint@p+1,w
 11985  1412  0087               	movwf	7
 11986  1413  0877               	movf	USBEnableEndpoint@options,w
 11987  1414  0081               	movwf	1
 11988  1415                     i1l171:
 11989  1415  0008               	return
 11990  1416                     __end_of_USBEnableEndpoint:
 11991                           
 11992                           	psect	text50
 11993  1551                     __ptext50:	
 11994 ;; *************** function _USBConfigureEndpoint *****************
 11995 ;; Defined at:
 11996 ;;		line 1547 in file "mcc_generated_files/usb/usb_device.c"
 11997 ;; Parameters:    Size  Location     Type
 11998 ;;  EPNum           1    wreg     unsigned char 
 11999 ;;  direction       1    0[COMMON] unsigned char 
 12000 ;; Auto vars:     Size  Location     Type
 12001 ;;  EPNum           1    5[COMMON] unsigned char 
 12002 ;;  handle          1    6[COMMON] PTR volatile struct __BD
 12003 ;;		 -> BDT(48), 
 12004 ;; Return value:  Size  Location     Type
 12005 ;;                  1    wreg      void 
 12006 ;; Registers used:
 12007 ;;		wreg, fsr1l, fsr1h, status,2, status,0
 12008 ;; Tracked objects:
 12009 ;;		On entry : 0/0
 12010 ;;		On exit  : 0/0
 12011 ;;		Unchanged: 0/0
 12012 ;; Data sizes:     COMMON   BANK0   BANK1   BANK2   BANK3   BANK4   BANK5   BANK6   BANK7   BANK8   BANK9  BANK10  BANK1
      +1  BANK12
 12013 ;;      Params:         1       0       0       0       0       0       0       0       0       0       0       0       
      +0       0
 12014 ;;      Locals:         2       0       0       0       0       0       0       0       0       0       0       0       
      +0       0
 12015 ;;      Temps:          4       0       0       0       0       0       0       0       0       0       0       0       
      +0       0
 12016 ;;      Totals:         7       0       0       0       0       0       0       0       0       0       0       0       
      +0       0
 12017 ;;Total ram usage:        7 bytes
 12018 ;; Hardware stack levels used:    1
 12019 ;; This function calls:
 12020 ;;		Nothing
 12021 ;; This function is called by:
 12022 ;;		_USBEnableEndpoint
 12023 ;; This function uses a non-reentrant model
 12024 ;;
 12025                           
 12026                           
 12027                           ;psect for function _USBConfigureEndpoint
 12028  1551                     _USBConfigureEndpoint:
 12029                           
 12030                           ;incstack = 0
 12031                           ; Regs used in _USBConfigureEndpoint: [wreg+fsr1l+fsr1h+status,2+status,0]
 12032                           ;USBConfigureEndpoint@EPNum stored from wreg
 12033  1551  00F5               	movwf	USBConfigureEndpoint@EPNum
 12034  1552                     i1l3637:
 12035                           
 12036                           ;mcc_generated_files/usb/usb_device.c: 1547: static void USBConfigureEndpoint(uint8_t EP
      +                          Num, uint8_t direction);mcc_generated_files/usb/usb_device.c: 1548: {;mcc_generated_file
      +                          s/usb/usb_device.c: 1549:     volatile BDT_ENTRY* handle;;mcc_generated_files/usb/usb_de
      +                          vice.c: 1553:     handle = (volatile BDT_ENTRY*)&BDT[0];
 12037  1552  3020               	movlw	32
 12038  1553  00F1               	movwf	??_USBConfigureEndpoint
 12039  1554  0871               	movf	??_USBConfigureEndpoint,w
 12040  1555  00F6               	movwf	USBConfigureEndpoint@handle
 12041  1556                     i1l3639:
 12042                           
 12043                           ;mcc_generated_files/usb/usb_device.c: 1554:     handle += (4*EPNum+2*direction+0u);
 12044  1556  0870               	movf	USBConfigureEndpoint@direction,w
 12045  1557  00F1               	movwf	??_USBConfigureEndpoint
 12046  1558  3001               	movlw	1
 12047  1559                     u233_25:
 12048  1559  35F1               	lslf	??_USBConfigureEndpoint,f
 12049  155A  0B89               	decfsz	9,f
 12050  155B  2D59               	goto	u233_25
 12051  155C  0875               	movf	USBConfigureEndpoint@EPNum,w
 12052  155D  00F2               	movwf	??_USBConfigureEndpoint+1
 12053  155E  3001               	movlw	1
 12054  155F                     u234_25:
 12055  155F  35F2               	lslf	??_USBConfigureEndpoint+1,f
 12056  1560  3EFF               	addlw	-1
 12057  1561  1D03               	skipz
 12058  1562  2D5F               	goto	u234_25
 12059  1563  3572               	lslf	??_USBConfigureEndpoint+1,w
 12060  1564  0771               	addwf	??_USBConfigureEndpoint,w
 12061  1565  00F3               	movwf	??_USBConfigureEndpoint+2
 12062  1566  3001               	movlw	1
 12063  1567                     u235_25:
 12064  1567  35F3               	lslf	??_USBConfigureEndpoint+2,f
 12065  1568  3EFF               	addlw	-1
 12066  1569  1D03               	skipz
 12067  156A  2D67               	goto	u235_25
 12068  156B  3573               	lslf	??_USBConfigureEndpoint+2,w
 12069  156C  00F4               	movwf	??_USBConfigureEndpoint+3
 12070  156D  0874               	movf	??_USBConfigureEndpoint+3,w
 12071  156E  07F6               	addwf	USBConfigureEndpoint@handle,f
 12072  156F                     i1l3641:
 12073                           
 12074                           ;mcc_generated_files/usb/usb_device.c: 1556:     handle->STAT.UOWN = 0;
 12075  156F  0876               	movf	USBConfigureEndpoint@handle,w
 12076  1570  0086               	movwf	6
 12077  1571  0187               	clrf	7
 12078  1572  1381               	bcf	1,7
 12079  1573                     i1l3643:
 12080                           
 12081                           ;mcc_generated_files/usb/usb_device.c: 1561:     if(direction == 0)
 12082  1573  0870               	movf	USBConfigureEndpoint@direction,w
 12083  1574  1D03               	btfss	3,2
 12084  1575  2D77               	goto	u236_21
 12085  1576  2D78               	goto	u236_20
 12086  1577                     u236_21:
 12087  1577  2D82               	goto	i1l3647
 12088  1578                     u236_20:
 12089  1578                     i1l3645:
 12090                           
 12091                           ;mcc_generated_files/usb/usb_device.c: 1562:     {;mcc_generated_files/usb/usb_device.c:
      +                           1563:         pBDTEntryOut[EPNum] = handle;
 12092  1578  3575               	lslf	USBConfigureEndpoint@EPNum,w
 12093  1579  3E2A               	addlw	(low (_pBDTEntryOut| (0+512)))& (0+255)
 12094  157A  0086               	movwf	6
 12095  157B  3002               	movlw	2	; select bank4/5
 12096  157C  0087               	movwf	7
 12097  157D  0876               	movf	USBConfigureEndpoint@handle,w
 12098  157E  3FC0               	movwi [0]fsr1
 12099  157F  3000               	movlw	0
 12100  1580  3FC1               	movwi [1]fsr1
 12101                           
 12102                           ;mcc_generated_files/usb/usb_device.c: 1564:     }
 12103  1581  2D8B               	goto	i1l3649
 12104  1582                     i1l3647:
 12105                           
 12106                           ;mcc_generated_files/usb/usb_device.c: 1566:     {;mcc_generated_files/usb/usb_device.c:
      +                           1567:         pBDTEntryIn[EPNum] = handle;
 12107  1582  3575               	lslf	USBConfigureEndpoint@EPNum,w
 12108  1583  3EB7               	addlw	(low (_pBDTEntryIn| (0+256)))& (0+255)
 12109  1584  0086               	movwf	6
 12110  1585  3001               	movlw	1	; select bank3/4
 12111  1586  0087               	movwf	7
 12112  1587  0876               	movf	USBConfigureEndpoint@handle,w
 12113  1588  3FC0               	movwi [0]fsr1
 12114  1589  3000               	movlw	0
 12115  158A  3FC1               	movwi [1]fsr1
 12116  158B                     i1l3649:
 12117                           
 12118                           ;mcc_generated_files/usb/usb_device.c: 1571:         handle->STAT.DTS = 0;
 12119  158B  0876               	movf	USBConfigureEndpoint@handle,w
 12120  158C  0086               	movwf	6
 12121  158D  0187               	clrf	7
 12122  158E  1301               	bcf	1,6
 12123  158F                     i1l3651:
 12124                           
 12125                           ;mcc_generated_files/usb/usb_device.c: 1572:         (handle+1)->STAT.DTS = 1;
 12126  158F  0876               	movf	USBConfigureEndpoint@handle,w
 12127  1590  3E04               	addlw	4
 12128  1591  0086               	movwf	6
 12129  1592  0187               	clrf	7
 12130  1593  1701               	bsf	1,6
 12131  1594                     i1l218:
 12132  1594  0008               	return
 12133  1595                     __end_of_USBConfigureEndpoint:
 12134                           
 12135                           	psect	text51
 12136  14DA                     __ptext51:	
 12137 ;; *************** function _USBCtrlTrfOutHandler *****************
 12138 ;; Defined at:
 12139 ;;		line 2542 in file "mcc_generated_files/usb/usb_device.c"
 12140 ;; Parameters:    Size  Location     Type
 12141 ;;		None
 12142 ;; Auto vars:     Size  Location     Type
 12143 ;;		None
 12144 ;; Return value:  Size  Location     Type
 12145 ;;                  1    wreg      void 
 12146 ;; Registers used:
 12147 ;;		wreg, fsr1l, fsr1h, status,2, status,0, pclath, cstack
 12148 ;; Tracked objects:
 12149 ;;		On entry : 0/0
 12150 ;;		On exit  : 0/0
 12151 ;;		Unchanged: 0/0
 12152 ;; Data sizes:     COMMON   BANK0   BANK1   BANK2   BANK3   BANK4   BANK5   BANK6   BANK7   BANK8   BANK9  BANK10  BANK1
      +1  BANK12
 12153 ;;      Params:         0       0       0       0       0       0       0       0       0       0       0       0       
      +0       0
 12154 ;;      Locals:         0       0       0       0       0       0       0       0       0       0       0       0       
      +0       0
 12155 ;;      Temps:          2       0       0       0       0       0       0       0       0       0       0       0       
      +0       0
 12156 ;;      Totals:         2       0       0       0       0       0       0       0       0       0       0       0       
      +0       0
 12157 ;;Total ram usage:        2 bytes
 12158 ;; Hardware stack levels used:    1
 12159 ;; Hardware stack levels required when called:    2
 12160 ;; This function calls:
 12161 ;;		_USBCtrlTrfRxService
 12162 ;; This function is called by:
 12163 ;;		_USBCtrlEPService
 12164 ;; This function uses a non-reentrant model
 12165 ;;
 12166                           
 12167                           
 12168                           ;psect for function _USBCtrlTrfOutHandler
 12169  14DA                     _USBCtrlTrfOutHandler:
 12170  14DA                     i1l4305:	
 12171                           ;incstack = 0
 12172                           ; Regs used in _USBCtrlTrfOutHandler: [wreg+fsr1l+fsr1h+status,2+status,0+pclath+cstack]
 12173                           
 12174                           
 12175                           ;mcc_generated_files/usb/usb_device.c: 2544:     if(controlTransferState == 2)
 12176  14DA  3002               	movlw	2
 12177  14DB  0023               	movlb	3	; select bank3
 12178  14DC  0669               	xorwf	_controlTransferState^(0+384),w	;volatile
 12179  14DD  1D03               	btfss	3,2
 12180  14DE  2CE0               	goto	u307_21
 12181  14DF  2CE1               	goto	u307_20
 12182  14E0                     u307_21:
 12183  14E0  2CE5               	goto	i1l4309
 12184  14E1                     u307_20:
 12185  14E1                     i1l4307:
 12186                           
 12187                           ;mcc_generated_files/usb/usb_device.c: 2545:     {;mcc_generated_files/usb/usb_device.c:
      +                           2546:         USBCtrlTrfRxService();
 12188  14E1  318E  26A0  3194   	fcall	_USBCtrlTrfRxService
 12189                           
 12190                           ;mcc_generated_files/usb/usb_device.c: 2547:     }
 12191  14E4  2D12               	goto	i1l328
 12192  14E5                     i1l4309:
 12193                           
 12194                           ;mcc_generated_files/usb/usb_device.c: 2549:     {;mcc_generated_files/usb/usb_device.c:
      +                           2552:         controlTransferState = 0;
 12195  14E5  01E9               	clrf	_controlTransferState^(0+384)	;volatile
 12196  14E6                     i1l4311:
 12197                           
 12198                           ;mcc_generated_files/usb/usb_device.c: 2559:         if(BothEP0OutUOWNsSet == 0)
 12199  14E6  0864               	movf	_BothEP0OutUOWNsSet^(0+384),w	;volatile
 12200  14E7  1D03               	btfss	3,2
 12201  14E8  2CEA               	goto	u308_21
 12202  14E9  2CEB               	goto	u308_20
 12203  14EA                     u308_21:
 12204  14EA  2D11               	goto	i1l4321
 12205  14EB                     u308_20:
 12206  14EB                     i1l4313:
 12207                           
 12208                           ;mcc_generated_files/usb/usb_device.c: 2560:         {;mcc_generated_files/usb/usb_devic
      +                          e.c: 2561:             pBDTEntryEP0OutNext->CNT = 8;
 12209  14EB  0021               	movlb	1	; select bank1
 12210  14EC  0841               	movf	_pBDTEntryEP0OutNext^(0+128),w
 12211  14ED  3E01               	addlw	1
 12212  14EE  00F6               	movwf	??_USBCtrlTrfOutHandler
 12213  14EF  3000               	movlw	0
 12214  14F0  3D42               	addwfc	(_pBDTEntryEP0OutNext+1)^(0+128),w
 12215  14F1  00F7               	movwf	??_USBCtrlTrfOutHandler+1
 12216  14F2  0876               	movf	??_USBCtrlTrfOutHandler,w
 12217  14F3  0086               	movwf	6
 12218  14F4  0877               	movf	??_USBCtrlTrfOutHandler+1,w
 12219  14F5  0087               	movwf	7
 12220  14F6  3008               	movlw	8
 12221  14F7  0081               	movwf	1
 12222  14F8                     i1l4315:
 12223                           
 12224                           ;mcc_generated_files/usb/usb_device.c: 2562:             pBDTEntryEP0OutNext->ADR = (((u
      +                          int16_t)(&SetupPkt)) & 0x7FFF);
 12225  14F8  3050               	movlw	80
 12226  14F9  00F6               	movwf	??_USBCtrlTrfOutHandler
 12227  14FA  3000               	movlw	0
 12228  14FB  00F7               	movwf	??_USBCtrlTrfOutHandler+1
 12229  14FC  0841               	movf	_pBDTEntryEP0OutNext^(0+128),w
 12230  14FD  0086               	movwf	6
 12231  14FE  0842               	movf	(_pBDTEntryEP0OutNext+1)^(0+128),w
 12232  14FF  0087               	movwf	7
 12233  1500  3142               	addfsr 1,2
 12234  1501  0876               	movf	??_USBCtrlTrfOutHandler,w
 12235  1502  3FC0               	movwi [0]fsr1
 12236  1503  0877               	movf	??_USBCtrlTrfOutHandler+1,w
 12237  1504  3FC1               	movwi [1]fsr1
 12238  1505                     i1l4317:
 12239                           
 12240                           ;mcc_generated_files/usb/usb_device.c: 2563:             pBDTEntryEP0OutNext->STAT.Val =
      +                           0x00|(0x08 & 0x08)|0x04;
 12241  1505  0841               	movf	_pBDTEntryEP0OutNext^(0+128),w
 12242  1506  0086               	movwf	6
 12243  1507  0842               	movf	(_pBDTEntryEP0OutNext+1)^(0+128),w
 12244  1508  0087               	movwf	7
 12245  1509  300C               	movlw	12
 12246  150A  0081               	movwf	1
 12247  150B                     i1l4319:
 12248                           
 12249                           ;mcc_generated_files/usb/usb_device.c: 2564:             pBDTEntryEP0OutNext->STAT.Val |
      +                          = 0x80;
 12250  150B  0841               	movf	_pBDTEntryEP0OutNext^(0+128),w
 12251  150C  0086               	movwf	6
 12252  150D  0842               	movf	(_pBDTEntryEP0OutNext+1)^(0+128),w
 12253  150E  0087               	movwf	7
 12254  150F  1781               	bsf	1,7
 12255                           
 12256                           ;mcc_generated_files/usb/usb_device.c: 2565:         }
 12257  1510  2D12               	goto	i1l328
 12258  1511                     i1l4321:
 12259                           
 12260                           ;mcc_generated_files/usb/usb_device.c: 2567:         {;mcc_generated_files/usb/usb_devic
      +                          e.c: 2568:                 BothEP0OutUOWNsSet = 0;
 12261  1511  01E4               	clrf	_BothEP0OutUOWNsSet^(0+384)	;volatile
 12262  1512                     i1l328:
 12263  1512  0008               	return
 12264  1513                     __end_of_USBCtrlTrfOutHandler:
 12265                           
 12266                           	psect	text52
 12267  0EA0                     __ptext52:	
 12268 ;; *************** function _USBCtrlTrfRxService *****************
 12269 ;; Defined at:
 12270 ;;		line 1856 in file "mcc_generated_files/usb/usb_device.c"
 12271 ;; Parameters:    Size  Location     Type
 12272 ;;		None
 12273 ;; Auto vars:     Size  Location     Type
 12274 ;;  byteToRead      1    5[COMMON] unsigned char 
 12275 ;;  i               1    4[COMMON] unsigned char 
 12276 ;; Return value:  Size  Location     Type
 12277 ;;                  1    wreg      void 
 12278 ;; Registers used:
 12279 ;;		wreg, fsr1l, fsr1h, status,2, status,0, pclath, cstack
 12280 ;; Tracked objects:
 12281 ;;		On entry : 0/0
 12282 ;;		On exit  : 0/0
 12283 ;;		Unchanged: 0/0
 12284 ;; Data sizes:     COMMON   BANK0   BANK1   BANK2   BANK3   BANK4   BANK5   BANK6   BANK7   BANK8   BANK9  BANK10  BANK1
      +1  BANK12
 12285 ;;      Params:         0       0       0       0       0       0       0       0       0       0       0       0       
      +0       0
 12286 ;;      Locals:         2       0       0       0       0       0       0       0       0       0       0       0       
      +0       0
 12287 ;;      Temps:          2       0       0       0       0       0       0       0       0       0       0       0       
      +0       0
 12288 ;;      Totals:         4       0       0       0       0       0       0       0       0       0       0       0       
      +0       0
 12289 ;;Total ram usage:        4 bytes
 12290 ;; Hardware stack levels used:    1
 12291 ;; Hardware stack levels required when called:    1
 12292 ;; This function calls:
 12293 ;;		_USBCtrlEPAllowStatusStage
 12294 ;; This function is called by:
 12295 ;;		_USBCtrlTrfOutHandler
 12296 ;; This function uses a non-reentrant model
 12297 ;;
 12298                           
 12299                           
 12300                           ;psect for function _USBCtrlTrfRxService
 12301  0EA0                     _USBCtrlTrfRxService:
 12302  0EA0                     i1l4181:	
 12303                           ;incstack = 0
 12304                           ; Regs used in _USBCtrlTrfRxService: [wreg+fsr1l+fsr1h+status,2+status,0+pclath+cstack]
 12305                           
 12306                           
 12307                           ;mcc_generated_files/usb/usb_device.c: 1858:     uint8_t byteToRead;;mcc_generated_files
      +                          /usb/usb_device.c: 1859:     uint8_t i;;mcc_generated_files/usb/usb_device.c: 1863:     
      +                          byteToRead = pBDTEntryEP0OutCurrent->CNT;
 12308  0EA0  0021               	movlb	1	; select bank1
 12309  0EA1  0845               	movf	_pBDTEntryEP0OutCurrent^(0+128),w
 12310  0EA2  0086               	movwf	6
 12311  0EA3  0187               	clrf	7
 12312  0EA4  3F41               	moviw [1]fsr1
 12313  0EA5  00F5               	movwf	USBCtrlTrfRxService@byteToRead
 12314  0EA6                     i1l4183:
 12315                           
 12316                           ;mcc_generated_files/usb/usb_device.c: 1869:     if(byteToRead > outPipes[0].wCount.Val)
 12317  0EA6  0875               	movf	USBCtrlTrfRxService@byteToRead,w
 12318  0EA7  00F2               	movwf	??_USBCtrlTrfRxService
 12319  0EA8  01F3               	clrf	??_USBCtrlTrfRxService+1
 12320  0EA9  0873               	movf	??_USBCtrlTrfRxService+1,w
 12321  0EAA  0023               	movlb	3	; select bank3
 12322  0EAB  0234               	subwf	((_outPipes+1)^(0+384)+3),w	;volatile
 12323  0EAC  1D03               	skipz
 12324  0EAD  2EB0               	goto	u299_25
 12325  0EAE  0872               	movf	??_USBCtrlTrfRxService,w
 12326  0EAF  0233               	subwf	(_outPipes^(0+384)+3),w	;volatile
 12327  0EB0                     u299_25:
 12328  0EB0  1803               	skipnc
 12329  0EB1  2EB3               	goto	u299_21
 12330  0EB2  2EB4               	goto	u299_20
 12331  0EB3                     u299_21:
 12332  0EB3  2EB8               	goto	i1l249
 12333  0EB4                     u299_20:
 12334  0EB4                     i1l4185:
 12335                           
 12336                           ;mcc_generated_files/usb/usb_device.c: 1870:     {;mcc_generated_files/usb/usb_device.c:
      +                           1871:         byteToRead = outPipes[0].wCount.Val;
 12337  0EB4  0833               	movf	(_outPipes^(0+384)+3),w	;volatile
 12338  0EB5  00F2               	movwf	??_USBCtrlTrfRxService
 12339  0EB6  0872               	movf	??_USBCtrlTrfRxService,w
 12340  0EB7  00F5               	movwf	USBCtrlTrfRxService@byteToRead
 12341  0EB8                     i1l249:	
 12342                           ;mcc_generated_files/usb/usb_device.c: 1872:     }
 12343                           
 12344                           
 12345                           ;mcc_generated_files/usb/usb_device.c: 1874:     outPipes[0].wCount.Val -= byteToRead;
 12346  0EB8  0875               	movf	USBCtrlTrfRxService@byteToRead,w
 12347  0EB9  00F2               	movwf	??_USBCtrlTrfRxService
 12348  0EBA  01F3               	clrf	??_USBCtrlTrfRxService+1
 12349  0EBB  0872               	movf	??_USBCtrlTrfRxService,w
 12350  0EBC  02B3               	subwf	(_outPipes^(0+384)+3),f	;volatile
 12351  0EBD  0873               	movf	??_USBCtrlTrfRxService+1,w
 12352  0EBE  3BB4               	subwfb	((_outPipes+1)^(0+384)+3),f	;volatile
 12353  0EBF                     i1l4187:
 12354                           
 12355                           ;mcc_generated_files/usb/usb_device.c: 1878:     for(i=0;i<byteToRead;i++)
 12356  0EBF  01F4               	clrf	USBCtrlTrfRxService@i
 12357  0EC0  2ED5               	goto	i1l4195
 12358  0EC1                     i1l4189:
 12359                           
 12360                           ;mcc_generated_files/usb/usb_device.c: 1879:     {;mcc_generated_files/usb/usb_device.c:
      +                           1880:         *outPipes[0].pDst.bRam++ = CtrlTrfData[i];
 12361  0EC1  0874               	movf	USBCtrlTrfRxService@i,w
 12362  0EC2  3E58               	addlw	88
 12363  0EC3  0086               	movwf	6
 12364  0EC4  0187               	clrf	7
 12365  0EC5  0801               	movf	1,w
 12366  0EC6  00F2               	movwf	??_USBCtrlTrfRxService
 12367  0EC7  0830               	movf	_outPipes^(0+384),w	;volatile
 12368  0EC8  0086               	movwf	6
 12369  0EC9  3002               	movlw	2	; select bank4/5
 12370  0ECA  0087               	movwf	7
 12371  0ECB  0872               	movf	??_USBCtrlTrfRxService,w
 12372  0ECC  0081               	movwf	1
 12373  0ECD                     i1l4191:
 12374  0ECD  3001               	movlw	1
 12375  0ECE  00F2               	movwf	??_USBCtrlTrfRxService
 12376  0ECF  0872               	movf	??_USBCtrlTrfRxService,w
 12377  0ED0  07B0               	addwf	_outPipes^(0+384),f	;volatile
 12378  0ED1                     i1l4193:
 12379                           
 12380                           ;mcc_generated_files/usb/usb_device.c: 1881:     }
 12381  0ED1  3001               	movlw	1
 12382  0ED2  00F2               	movwf	??_USBCtrlTrfRxService
 12383  0ED3  0872               	movf	??_USBCtrlTrfRxService,w
 12384  0ED4  07F4               	addwf	USBCtrlTrfRxService@i,f
 12385  0ED5                     i1l4195:
 12386  0ED5  0875               	movf	USBCtrlTrfRxService@byteToRead,w
 12387  0ED6  0274               	subwf	USBCtrlTrfRxService@i,w
 12388  0ED7  1C03               	skipc
 12389  0ED8  2EDA               	goto	u300_21
 12390  0ED9  2EDB               	goto	u300_20
 12391  0EDA                     u300_21:
 12392  0EDA  2EC1               	goto	i1l4189
 12393  0EDB                     u300_20:
 12394  0EDB                     i1l4197:
 12395                           
 12396                           ;mcc_generated_files/usb/usb_device.c: 1885:     if(outPipes[0].wCount.Val > 0)
 12397  0EDB  0833               	movf	(_outPipes^(0+384)+3),w	;volatile
 12398  0EDC  0434               	iorwf	((_outPipes+1)^(0+384)+3),w	;volatile
 12399  0EDD  1903               	btfsc	3,2
 12400  0EDE  2EE0               	goto	u301_21
 12401  0EDF  2EE1               	goto	u301_20
 12402  0EE0                     u301_21:
 12403  0EE0  2F1A               	goto	i1l4209
 12404  0EE1                     u301_20:
 12405  0EE1                     i1l4199:
 12406                           
 12407                           ;mcc_generated_files/usb/usb_device.c: 1886:     {;mcc_generated_files/usb/usb_device.c:
      +                           1887:         pBDTEntryEP0OutNext->CNT = 8;
 12408  0EE1  0021               	movlb	1	; select bank1
 12409  0EE2  0841               	movf	_pBDTEntryEP0OutNext^(0+128),w
 12410  0EE3  3E01               	addlw	1
 12411  0EE4  00F2               	movwf	??_USBCtrlTrfRxService
 12412  0EE5  3000               	movlw	0
 12413  0EE6  3D42               	addwfc	(_pBDTEntryEP0OutNext+1)^(0+128),w
 12414  0EE7  00F3               	movwf	??_USBCtrlTrfRxService+1
 12415  0EE8  0872               	movf	??_USBCtrlTrfRxService,w
 12416  0EE9  0086               	movwf	6
 12417  0EEA  0873               	movf	??_USBCtrlTrfRxService+1,w
 12418  0EEB  0087               	movwf	7
 12419  0EEC  3008               	movlw	8
 12420  0EED  0081               	movwf	1
 12421  0EEE                     i1l4201:
 12422                           
 12423                           ;mcc_generated_files/usb/usb_device.c: 1888:         pBDTEntryEP0OutNext->ADR = (((uint1
      +                          6_t)(&CtrlTrfData)) & 0x7FFF);
 12424  0EEE  3058               	movlw	88
 12425  0EEF  00F2               	movwf	??_USBCtrlTrfRxService
 12426  0EF0  3000               	movlw	0
 12427  0EF1  00F3               	movwf	??_USBCtrlTrfRxService+1
 12428  0EF2  0841               	movf	_pBDTEntryEP0OutNext^(0+128),w
 12429  0EF3  0086               	movwf	6
 12430  0EF4  0842               	movf	(_pBDTEntryEP0OutNext+1)^(0+128),w
 12431  0EF5  0087               	movwf	7
 12432  0EF6  3142               	addfsr 1,2
 12433  0EF7  0872               	movf	??_USBCtrlTrfRxService,w
 12434  0EF8  3FC0               	movwi [0]fsr1
 12435  0EF9  0873               	movf	??_USBCtrlTrfRxService+1,w
 12436  0EFA  3FC1               	movwi [1]fsr1
 12437  0EFB                     i1l4203:
 12438                           
 12439                           ;mcc_generated_files/usb/usb_device.c: 1889:         if(pBDTEntryEP0OutCurrent->STAT.DTS
      +                           == 0)
 12440  0EFB  0845               	movf	_pBDTEntryEP0OutCurrent^(0+128),w
 12441  0EFC  0086               	movwf	6
 12442  0EFD  0187               	clrf	7
 12443  0EFE  1B01               	btfsc	1,6
 12444  0EFF  2F01               	goto	u302_21
 12445  0F00  2F02               	goto	u302_20
 12446  0F01                     u302_21:
 12447  0F01  2F0E               	goto	i1l4207
 12448  0F02                     u302_20:
 12449  0F02                     i1l4205:
 12450                           
 12451                           ;mcc_generated_files/usb/usb_device.c: 1890:         {;mcc_generated_files/usb/usb_devic
      +                          e.c: 1891:             pBDTEntryEP0OutNext->STAT.Val = 0x40|(0x08 & 0x08);
 12452  0F02  0841               	movf	_pBDTEntryEP0OutNext^(0+128),w
 12453  0F03  0086               	movwf	6
 12454  0F04  0842               	movf	(_pBDTEntryEP0OutNext+1)^(0+128),w
 12455  0F05  0087               	movwf	7
 12456  0F06  3048               	movlw	72
 12457  0F07  0081               	movwf	1
 12458                           
 12459                           ;mcc_generated_files/usb/usb_device.c: 1892:             pBDTEntryEP0OutNext->STAT.Val |
      +                          = 0x80;
 12460  0F08  0841               	movf	_pBDTEntryEP0OutNext^(0+128),w
 12461  0F09  0086               	movwf	6
 12462  0F0A  0842               	movf	(_pBDTEntryEP0OutNext+1)^(0+128),w
 12463  0F0B  0087               	movwf	7
 12464  0F0C  1781               	bsf	1,7
 12465                           
 12466                           ;mcc_generated_files/usb/usb_device.c: 1893:         }
 12467  0F0D  2F4B               	goto	i1l259
 12468  0F0E                     i1l4207:
 12469                           
 12470                           ;mcc_generated_files/usb/usb_device.c: 1895:         {;mcc_generated_files/usb/usb_devic
      +                          e.c: 1896:             pBDTEntryEP0OutNext->STAT.Val = 0x00|(0x08 & 0x08);
 12471  0F0E  0841               	movf	_pBDTEntryEP0OutNext^(0+128),w
 12472  0F0F  0086               	movwf	6
 12473  0F10  0842               	movf	(_pBDTEntryEP0OutNext+1)^(0+128),w
 12474  0F11  0087               	movwf	7
 12475  0F12  3008               	movlw	8
 12476  0F13  0081               	movwf	1
 12477                           
 12478                           ;mcc_generated_files/usb/usb_device.c: 1897:             pBDTEntryEP0OutNext->STAT.Val |
      +                          = 0x80;
 12479  0F14  0841               	movf	_pBDTEntryEP0OutNext^(0+128),w
 12480  0F15  0086               	movwf	6
 12481  0F16  0842               	movf	(_pBDTEntryEP0OutNext+1)^(0+128),w
 12482  0F17  0087               	movwf	7
 12483  0F18  1781               	bsf	1,7
 12484  0F19  2F4B               	goto	i1l259
 12485  0F1A                     i1l4209:
 12486                           
 12487                           ;mcc_generated_files/usb/usb_device.c: 1901:     {;mcc_generated_files/usb/usb_device.c:
      +                           1905:         pBDTEntryEP0OutNext->CNT = 8;
 12488  0F1A  0021               	movlb	1	; select bank1
 12489  0F1B  0841               	movf	_pBDTEntryEP0OutNext^(0+128),w
 12490  0F1C  3E01               	addlw	1
 12491  0F1D  00F2               	movwf	??_USBCtrlTrfRxService
 12492  0F1E  3000               	movlw	0
 12493  0F1F  3D42               	addwfc	(_pBDTEntryEP0OutNext+1)^(0+128),w
 12494  0F20  00F3               	movwf	??_USBCtrlTrfRxService+1
 12495  0F21  0872               	movf	??_USBCtrlTrfRxService,w
 12496  0F22  0086               	movwf	6
 12497  0F23  0873               	movf	??_USBCtrlTrfRxService+1,w
 12498  0F24  0087               	movwf	7
 12499  0F25  3008               	movlw	8
 12500  0F26  0081               	movwf	1
 12501  0F27                     i1l4211:
 12502                           
 12503                           ;mcc_generated_files/usb/usb_device.c: 1906:         pBDTEntryEP0OutNext->ADR = (((uint1
      +                          6_t)(&SetupPkt)) & 0x7FFF);
 12504  0F27  3050               	movlw	80
 12505  0F28  00F2               	movwf	??_USBCtrlTrfRxService
 12506  0F29  3000               	movlw	0
 12507  0F2A  00F3               	movwf	??_USBCtrlTrfRxService+1
 12508  0F2B  0841               	movf	_pBDTEntryEP0OutNext^(0+128),w
 12509  0F2C  0086               	movwf	6
 12510  0F2D  0842               	movf	(_pBDTEntryEP0OutNext+1)^(0+128),w
 12511  0F2E  0087               	movwf	7
 12512  0F2F  3142               	addfsr 1,2
 12513  0F30  0872               	movf	??_USBCtrlTrfRxService,w
 12514  0F31  3FC0               	movwi [0]fsr1
 12515  0F32  0873               	movf	??_USBCtrlTrfRxService+1,w
 12516  0F33  3FC1               	movwi [1]fsr1
 12517  0F34                     i1l4213:
 12518                           
 12519                           ;mcc_generated_files/usb/usb_device.c: 1910:         pBDTEntryEP0OutNext->STAT.Val = 0x0
      +                          4;
 12520  0F34  0841               	movf	_pBDTEntryEP0OutNext^(0+128),w
 12521  0F35  0086               	movwf	6
 12522  0F36  0842               	movf	(_pBDTEntryEP0OutNext+1)^(0+128),w
 12523  0F37  0087               	movwf	7
 12524  0F38  3004               	movlw	4
 12525  0F39  0081               	movwf	1
 12526  0F3A                     i1l4215:
 12527                           
 12528                           ;mcc_generated_files/usb/usb_device.c: 1911:         pBDTEntryEP0OutNext->STAT.Val |= 0x
      +                          80;
 12529  0F3A  0841               	movf	_pBDTEntryEP0OutNext^(0+128),w
 12530  0F3B  0086               	movwf	6
 12531  0F3C  0842               	movf	(_pBDTEntryEP0OutNext+1)^(0+128),w
 12532  0F3D  0087               	movwf	7
 12533  0F3E  1781               	bsf	1,7
 12534  0F3F                     i1l4217:
 12535                           
 12536                           ;mcc_generated_files/usb/usb_device.c: 1919:         {
 12537  0F3F  0023               	movlb	3	; select bank3
 12538  0F40  0835               	movf	(low ((_outPipes| (0+256)+5)))^(0+128),w	;volatile
 12539  0F41  0836               	movf	((low ((_outPipes| (0+256)+5))+1))^(0+128),w	;volatile
 12540  0F42                     i1l257:
 12541  0F42  13B2               	bcf	(_outPipes^(0+384)+2),7	;volatile
 12542  0F43                     i1l4219:
 12543                           
 12544                           ;mcc_generated_files/usb/usb_device.c: 1945:         if(USBDeferStatusStagePacket == 0)
 12545  0F43  0862               	movf	_USBDeferStatusStagePacket^(0+384),w	;volatile
 12546  0F44  1D03               	btfss	3,2
 12547  0F45  2F47               	goto	u303_21
 12548  0F46  2F48               	goto	u303_20
 12549  0F47                     u303_21:
 12550  0F47  2F4B               	goto	i1l259
 12551  0F48                     u303_20:
 12552  0F48                     i1l4221:
 12553                           
 12554                           ;mcc_generated_files/usb/usb_device.c: 1946:         {;mcc_generated_files/usb/usb_devic
      +                          e.c: 1947:             USBCtrlEPAllowStatusStage();
 12555  0F48  3197  2789  318E   	fcall	_USBCtrlEPAllowStatusStage
 12556  0F4B                     i1l259:
 12557  0F4B  0008               	return
 12558  0F4C                     __end_of_USBCtrlTrfRxService:
 12559                           
 12560                           	psect	text53
 12561  1789                     __ptext53:	
 12562 ;; *************** function _USBCtrlEPAllowStatusStage *****************
 12563 ;; Defined at:
 12564 ;;		line 1420 in file "mcc_generated_files/usb/usb_device.c"
 12565 ;; Parameters:    Size  Location     Type
 12566 ;;		None
 12567 ;; Auto vars:     Size  Location     Type
 12568 ;;		None
 12569 ;; Return value:  Size  Location     Type
 12570 ;;                  1    wreg      void 
 12571 ;; Registers used:
 12572 ;;		wreg, fsr1l, fsr1h, status,2, status,0
 12573 ;; Tracked objects:
 12574 ;;		On entry : 0/0
 12575 ;;		On exit  : 0/0
 12576 ;;		Unchanged: 0/0
 12577 ;; Data sizes:     COMMON   BANK0   BANK1   BANK2   BANK3   BANK4   BANK5   BANK6   BANK7   BANK8   BANK9  BANK10  BANK1
      +1  BANK12
 12578 ;;      Params:         0       0       0       0       0       0       0       0       0       0       0       0       
      +0       0
 12579 ;;      Locals:         0       0       0       0       0       0       0       0       0       0       0       0       
      +0       0
 12580 ;;      Temps:          2       0       0       0       0       0       0       0       0       0       0       0       
      +0       0
 12581 ;;      Totals:         2       0       0       0       0       0       0       0       0       0       0       0       
      +0       0
 12582 ;;Total ram usage:        2 bytes
 12583 ;; Hardware stack levels used:    1
 12584 ;; This function calls:
 12585 ;;		Nothing
 12586 ;; This function is called by:
 12587 ;;		_USBDeviceTasks
 12588 ;;		_USBCtrlEPServiceComplete
 12589 ;;		_USBCtrlTrfRxService
 12590 ;; This function uses a non-reentrant model
 12591 ;;
 12592                           
 12593                           
 12594                           ;psect for function _USBCtrlEPAllowStatusStage
 12595  1789                     _USBCtrlEPAllowStatusStage:
 12596  1789                     i1l3861:	
 12597                           ;incstack = 0
 12598                           ; Regs used in _USBCtrlEPAllowStatusStage: [wreg+fsr1l+fsr1h+status,2+status,0]
 12599                           
 12600                           
 12601                           ;mcc_generated_files/usb/usb_device.c: 1427:     if(USBStatusStageEnabledFlag1 == 0)
 12602  1789  0023               	movlb	3	; select bank3
 12603  178A  0861               	movf	_USBStatusStageEnabledFlag1^(0+384),w	;volatile
 12604  178B  1D03               	btfss	3,2
 12605  178C  2F8E               	goto	u257_21
 12606  178D  2F8F               	goto	u257_20
 12607  178E                     u257_21:
 12608  178E  2FFF               	goto	i1l207
 12609  178F                     u257_20:
 12610  178F                     i1l3863:
 12611                           
 12612                           ;mcc_generated_files/usb/usb_device.c: 1428:     {;mcc_generated_files/usb/usb_device.c:
      +                           1429:         USBStatusStageEnabledFlag1 = 1;
 12613  178F  3001               	movlw	1
 12614  1790  00F0               	movwf	??_USBCtrlEPAllowStatusStage
 12615  1791  0870               	movf	??_USBCtrlEPAllowStatusStage,w
 12616  1792  00E1               	movwf	_USBStatusStageEnabledFlag1^(0+384)	;volatile
 12617  1793                     i1l3865:
 12618                           
 12619                           ;mcc_generated_files/usb/usb_device.c: 1430:         if(USBStatusStageEnabledFlag2 == 0)
 12620  1793  0860               	movf	_USBStatusStageEnabledFlag2^(0+384),w	;volatile
 12621  1794  1D03               	btfss	3,2
 12622  1795  2F97               	goto	u258_21
 12623  1796  2F98               	goto	u258_20
 12624  1797                     u258_21:
 12625  1797  2FFF               	goto	i1l207
 12626  1798                     u258_20:
 12627  1798                     i1l3867:
 12628                           
 12629                           ;mcc_generated_files/usb/usb_device.c: 1431:         {;mcc_generated_files/usb/usb_devic
      +                          e.c: 1432:             USBStatusStageEnabledFlag2 = 1;
 12630  1798  3001               	movlw	1
 12631  1799  00F0               	movwf	??_USBCtrlEPAllowStatusStage
 12632  179A  0870               	movf	??_USBCtrlEPAllowStatusStage,w
 12633  179B  00E0               	movwf	_USBStatusStageEnabledFlag2^(0+384)	;volatile
 12634  179C                     i1l3869:
 12635                           
 12636                           ;mcc_generated_files/usb/usb_device.c: 1436:             if(controlTransferState == 2)
 12637  179C  3002               	movlw	2
 12638  179D  0669               	xorwf	_controlTransferState^(0+384),w	;volatile
 12639  179E  1D03               	btfss	3,2
 12640  179F  2FA1               	goto	u259_21
 12641  17A0  2FA2               	goto	u259_20
 12642  17A1                     u259_21:
 12643  17A1  2FB4               	goto	i1l3877
 12644  17A2                     u259_20:
 12645  17A2                     i1l3871:
 12646                           
 12647                           ;mcc_generated_files/usb/usb_device.c: 1437:             {;mcc_generated_files/usb/usb_d
      +                          evice.c: 1438:                 pBDTEntryIn[0]->CNT = 0;
 12648  17A2  0837               	movf	_pBDTEntryIn^(0+384),w
 12649  17A3  0086               	movwf	6
 12650  17A4  0838               	movf	(_pBDTEntryIn+1)^(0+384),w
 12651  17A5  0087               	movwf	7
 12652  17A6  3141               	addfsr 1,1
 12653  17A7  0181               	clrf	1
 12654  17A8                     i1l3873:
 12655                           
 12656                           ;mcc_generated_files/usb/usb_device.c: 1439:                 pBDTEntryIn[0]->STAT.Val = 
      +                          0x40|(0x08 & 0x08);
 12657  17A8  0837               	movf	_pBDTEntryIn^(0+384),w
 12658  17A9  0086               	movwf	6
 12659  17AA  0838               	movf	(_pBDTEntryIn+1)^(0+384),w
 12660  17AB  0087               	movwf	7
 12661  17AC  3048               	movlw	72
 12662  17AD  0081               	movwf	1
 12663  17AE                     i1l3875:
 12664                           
 12665                           ;mcc_generated_files/usb/usb_device.c: 1440:                 pBDTEntryIn[0]->STAT.Val |=
      +                           0x80;
 12666  17AE  0837               	movf	_pBDTEntryIn^(0+384),w
 12667  17AF  0086               	movwf	6
 12668  17B0  0838               	movf	(_pBDTEntryIn+1)^(0+384),w
 12669  17B1  0087               	movwf	7
 12670  17B2  1781               	bsf	1,7
 12671                           
 12672                           ;mcc_generated_files/usb/usb_device.c: 1441:             }
 12673  17B3  2FFF               	goto	i1l207
 12674  17B4                     i1l3877:
 12675  17B4  0369               	decf	_controlTransferState^(0+384),w	;volatile
 12676  17B5  1D03               	btfss	3,2
 12677  17B6  2FB8               	goto	u260_21
 12678  17B7  2FB9               	goto	u260_20
 12679  17B8                     u260_21:
 12680  17B8  2FFF               	goto	i1l203
 12681  17B9                     u260_20:
 12682  17B9                     i1l3879:
 12683                           
 12684                           ;mcc_generated_files/usb/usb_device.c: 1443:             {;mcc_generated_files/usb/usb_d
      +                          evice.c: 1444:                 BothEP0OutUOWNsSet = 0;
 12685  17B9  01E4               	clrf	_BothEP0OutUOWNsSet^(0+384)	;volatile
 12686  17BA                     i1l3881:
 12687                           
 12688                           ;mcc_generated_files/usb/usb_device.c: 1449:                     pBDTEntryEP0OutCurrent-
      +                          >CNT = 8;
 12689  17BA  3008               	movlw	8
 12690  17BB  00F0               	movwf	??_USBCtrlEPAllowStatusStage
 12691  17BC  0021               	movlb	1	; select bank1
 12692  17BD  0A45               	incf	_pBDTEntryEP0OutCurrent^(0+128),w
 12693  17BE  0086               	movwf	6
 12694  17BF  0187               	clrf	7
 12695  17C0  0870               	movf	??_USBCtrlEPAllowStatusStage,w
 12696  17C1  0081               	movwf	1
 12697  17C2                     i1l3883:
 12698                           
 12699                           ;mcc_generated_files/usb/usb_device.c: 1450:                     pBDTEntryEP0OutCurrent-
      +                          >ADR = (((uint16_t)(&SetupPkt)) & 0x7FFF);
 12700  17C2  3050               	movlw	80
 12701  17C3  00F0               	movwf	??_USBCtrlEPAllowStatusStage
 12702  17C4  3000               	movlw	0
 12703  17C5  00F1               	movwf	??_USBCtrlEPAllowStatusStage+1
 12704  17C6  0845               	movf	_pBDTEntryEP0OutCurrent^(0+128),w
 12705  17C7  3E02               	addlw	2
 12706  17C8  0086               	movwf	6
 12707  17C9  0187               	clrf	7
 12708  17CA  0870               	movf	??_USBCtrlEPAllowStatusStage,w
 12709  17CB  3FC0               	movwi [0]fsr1
 12710  17CC  0871               	movf	??_USBCtrlEPAllowStatusStage+1,w
 12711  17CD  3FC1               	movwi [1]fsr1
 12712  17CE                     i1l3885:
 12713                           
 12714                           ;mcc_generated_files/usb/usb_device.c: 1451:                     pBDTEntryEP0OutCurrent-
      +                          >STAT.Val = 0x04;
 12715  17CE  3004               	movlw	4
 12716  17CF  00F0               	movwf	??_USBCtrlEPAllowStatusStage
 12717  17D0  0845               	movf	_pBDTEntryEP0OutCurrent^(0+128),w
 12718  17D1  0086               	movwf	6
 12719  17D2  0187               	clrf	7
 12720  17D3  0870               	movf	??_USBCtrlEPAllowStatusStage,w
 12721  17D4  0081               	movwf	1
 12722  17D5                     i1l3887:
 12723                           
 12724                           ;mcc_generated_files/usb/usb_device.c: 1452:                     pBDTEntryEP0OutCurrent-
      +                          >STAT.Val |= 0x80;
 12725  17D5  0845               	movf	_pBDTEntryEP0OutCurrent^(0+128),w
 12726  17D6  0086               	movwf	6
 12727  17D7  0187               	clrf	7
 12728  17D8  1781               	bsf	1,7
 12729  17D9                     i1l3889:
 12730                           
 12731                           ;mcc_generated_files/usb/usb_device.c: 1453:                     BothEP0OutUOWNsSet = 1;
 12732  17D9  3001               	movlw	1
 12733  17DA  00F0               	movwf	??_USBCtrlEPAllowStatusStage
 12734  17DB  0870               	movf	??_USBCtrlEPAllowStatusStage,w
 12735  17DC  0023               	movlb	3	; select bank3
 12736  17DD  00E4               	movwf	_BothEP0OutUOWNsSet^(0+384)	;volatile
 12737  17DE                     i1l3891:
 12738                           
 12739                           ;mcc_generated_files/usb/usb_device.c: 1457:                 pBDTEntryEP0OutNext->CNT = 
      +                          8;
 12740  17DE  0021               	movlb	1	; select bank1
 12741  17DF  0841               	movf	_pBDTEntryEP0OutNext^(0+128),w
 12742  17E0  3E01               	addlw	1
 12743  17E1  00F0               	movwf	??_USBCtrlEPAllowStatusStage
 12744  17E2  3000               	movlw	0
 12745  17E3  3D42               	addwfc	(_pBDTEntryEP0OutNext+1)^(0+128),w
 12746  17E4  00F1               	movwf	??_USBCtrlEPAllowStatusStage+1
 12747  17E5  0870               	movf	??_USBCtrlEPAllowStatusStage,w
 12748  17E6  0086               	movwf	6
 12749  17E7  0871               	movf	??_USBCtrlEPAllowStatusStage+1,w
 12750  17E8  0087               	movwf	7
 12751  17E9  3008               	movlw	8
 12752  17EA  0081               	movwf	1
 12753  17EB                     i1l3893:
 12754                           
 12755                           ;mcc_generated_files/usb/usb_device.c: 1458:                 pBDTEntryEP0OutNext->ADR = 
      +                          (((uint16_t)(&SetupPkt)) & 0x7FFF);
 12756  17EB  3050               	movlw	80
 12757  17EC  00F0               	movwf	??_USBCtrlEPAllowStatusStage
 12758  17ED  3000               	movlw	0
 12759  17EE  00F1               	movwf	??_USBCtrlEPAllowStatusStage+1
 12760  17EF  0841               	movf	_pBDTEntryEP0OutNext^(0+128),w
 12761  17F0  0086               	movwf	6
 12762  17F1  0842               	movf	(_pBDTEntryEP0OutNext+1)^(0+128),w
 12763  17F2  0087               	movwf	7
 12764  17F3  3142               	addfsr 1,2
 12765  17F4  0870               	movf	??_USBCtrlEPAllowStatusStage,w
 12766  17F5  3FC0               	movwi [0]fsr1
 12767  17F6  0871               	movf	??_USBCtrlEPAllowStatusStage+1,w
 12768  17F7  3FC1               	movwi [1]fsr1
 12769  17F8                     i1l3895:
 12770                           
 12771                           ;mcc_generated_files/usb/usb_device.c: 1459:                 pBDTEntryEP0OutNext->STAT.V
      +                          al = 0x80;
 12772  17F8  0841               	movf	_pBDTEntryEP0OutNext^(0+128),w
 12773  17F9  0086               	movwf	6
 12774  17FA  0842               	movf	(_pBDTEntryEP0OutNext+1)^(0+128),w
 12775  17FB  0087               	movwf	7
 12776  17FC  3080               	movlw	128
 12777  17FD  0081               	movwf	1
 12778  17FE  2FFF               	goto	i1l207
 12779  17FF                     i1l203:	
 12780                           ;mcc_generated_files/usb/usb_device.c: 1461:         }
 12781                           
 12782  17FF                     i1l207:
 12783  17FF  0008               	return
 12784  1800                     __end_of_USBCtrlEPAllowStatusStage:
 12785                           
 12786                           	psect	text54
 12787  0862                     __ptext54:	
 12788 ;; *************** function _USBCtrlTrfInHandler *****************
 12789 ;; Defined at:
 12790 ;;		line 2596 in file "mcc_generated_files/usb/usb_device.c"
 12791 ;; Parameters:    Size  Location     Type
 12792 ;;		None
 12793 ;; Auto vars:     Size  Location     Type
 12794 ;;  lastDTS         1    5[COMMON] unsigned char 
 12795 ;; Return value:  Size  Location     Type
 12796 ;;                  1    wreg      void 
 12797 ;; Registers used:
 12798 ;;		wreg, fsr0l, fsr0h, fsr1l, fsr1h, status,2, status,0, pclath, cstack
 12799 ;; Tracked objects:
 12800 ;;		On entry : 0/0
 12801 ;;		On exit  : 0/0
 12802 ;;		Unchanged: 0/0
 12803 ;; Data sizes:     COMMON   BANK0   BANK1   BANK2   BANK3   BANK4   BANK5   BANK6   BANK7   BANK8   BANK9  BANK10  BANK1
      +1  BANK12
 12804 ;;      Params:         0       0       0       0       0       0       0       0       0       0       0       0       
      +0       0
 12805 ;;      Locals:         1       0       0       0       0       0       0       0       0       0       0       0       
      +0       0
 12806 ;;      Temps:          2       0       0       0       0       0       0       0       0       0       0       0       
      +0       0
 12807 ;;      Totals:         3       0       0       0       0       0       0       0       0       0       0       0       
      +0       0
 12808 ;;Total ram usage:        3 bytes
 12809 ;; Hardware stack levels used:    1
 12810 ;; Hardware stack levels required when called:    1
 12811 ;; This function calls:
 12812 ;;		_USBCtrlTrfTxService
 12813 ;; This function is called by:
 12814 ;;		_USBCtrlEPService
 12815 ;; This function uses a non-reentrant model
 12816 ;;
 12817                           
 12818                           
 12819                           ;psect for function _USBCtrlTrfInHandler
 12820  0862                     _USBCtrlTrfInHandler:
 12821  0862                     i1l4323:	
 12822                           ;incstack = 0
 12823                           ; Regs used in _USBCtrlTrfInHandler: [wreg-fsr1h+status,2+status,0+pclath+cstack]
 12824                           
 12825                           
 12826                           ;mcc_generated_files/usb/usb_device.c: 2598:     uint8_t lastDTS;;mcc_generated_files/us
      +                          b/usb_device.c: 2600:     lastDTS = pBDTEntryIn[0]->STAT.DTS;
 12827  0862  0023               	movlb	3	; select bank3
 12828  0863  0837               	movf	_pBDTEntryIn^(0+384),w
 12829  0864  0086               	movwf	6
 12830  0865  0838               	movf	(_pBDTEntryIn+1)^(0+384),w
 12831  0866  0087               	movwf	7
 12832  0867  3000               	movlw	0
 12833  0868  1B01               	btfsc	1,6
 12834  0869  3001               	movlw	1
 12835  086A  00F5               	movwf	USBCtrlTrfInHandler@lastDTS
 12836  086B                     i1l4325:
 12837                           
 12838                           ;mcc_generated_files/usb/usb_device.c: 2603:     pBDTEntryIn[0] = (volatile BDT_ENTRY*)(
      +                          ((uint16_t)pBDTEntryIn[0]) ^ 0x0004);
 12839  086B  3004               	movlw	4
 12840  086C  0637               	xorwf	_pBDTEntryIn^(0+384),w
 12841  086D  00B7               	movwf	_pBDTEntryIn^(0+384)
 12842  086E  3000               	movlw	0
 12843  086F  0638               	xorwf	(_pBDTEntryIn+1)^(0+384),w
 12844  0870  00B8               	movwf	(_pBDTEntryIn+1)^(0+384)
 12845  0871                     i1l4327:
 12846                           
 12847                           ;mcc_generated_files/usb/usb_device.c: 2608:     if(USBDeviceState == ADR_PENDING_STATE)
 12848  0871  3008               	movlw	8
 12849  0872  066B               	xorwf	_USBDeviceState^(0+384),w	;volatile
 12850  0873  1D03               	btfss	3,2
 12851  0874  2876               	goto	u309_21
 12852  0875  2877               	goto	u309_20
 12853  0876                     u309_21:
 12854  0876  288C               	goto	i1l4337
 12855  0877                     u309_20:
 12856  0877                     i1l4329:
 12857                           
 12858                           ;mcc_generated_files/usb/usb_device.c: 2609:     {;mcc_generated_files/usb/usb_device.c:
      +                           2610:         UADDR = (SetupPkt.bDevADR & 0x7F);
 12859  0877  0020               	movlb	0	; select bank0
 12860  0878  0852               	movf	82,w	;volatile
 12861  0879  397F               	andlw	127
 12862  087A  003D               	movlb	29	; select bank29
 12863  087B  0096               	movwf	22	;volatile
 12864  087C                     i1l4331:
 12865                           
 12866                           ;mcc_generated_files/usb/usb_device.c: 2611:         if(UADDR != 0u)
 12867  087C  0816               	movf	22,w	;volatile
 12868  087D  1903               	btfsc	3,2
 12869  087E  2880               	goto	u310_21
 12870  087F  2881               	goto	u310_20
 12871  0880                     u310_21:
 12872  0880  2887               	goto	i1l4335
 12873  0881                     u310_20:
 12874  0881                     i1l4333:
 12875                           
 12876                           ;mcc_generated_files/usb/usb_device.c: 2612:         {;mcc_generated_files/usb/usb_devic
      +                          e.c: 2613:             USBDeviceState=ADDRESS_STATE;
 12877  0881  3010               	movlw	16
 12878  0882  00F3               	movwf	??_USBCtrlTrfInHandler
 12879  0883  0873               	movf	??_USBCtrlTrfInHandler,w
 12880  0884  0023               	movlb	3	; select bank3
 12881  0885  00EB               	movwf	_USBDeviceState^(0+384)	;volatile
 12882                           
 12883                           ;mcc_generated_files/usb/usb_device.c: 2614:         }
 12884  0886  288C               	goto	i1l4337
 12885  0887                     i1l4335:
 12886                           
 12887                           ;mcc_generated_files/usb/usb_device.c: 2616:         {;mcc_generated_files/usb/usb_devic
      +                          e.c: 2617:             USBDeviceState=DEFAULT_STATE;
 12888  0887  3004               	movlw	4
 12889  0888  00F3               	movwf	??_USBCtrlTrfInHandler
 12890  0889  0873               	movf	??_USBCtrlTrfInHandler,w
 12891  088A  0023               	movlb	3	; select bank3
 12892  088B  00EB               	movwf	_USBDeviceState^(0+384)	;volatile
 12893  088C                     i1l4337:
 12894                           
 12895                           ;mcc_generated_files/usb/usb_device.c: 2622:     if(controlTransferState == 1)
 12896  088C  0369               	decf	_controlTransferState^(0+384),w	;volatile
 12897  088D  1D03               	btfss	3,2
 12898  088E  2890               	goto	u311_21
 12899  088F  2891               	goto	u311_20
 12900  0890                     u311_21:
 12901  0890  28D1               	goto	i1l334
 12902  0891                     u311_20:
 12903  0891                     i1l4339:
 12904                           
 12905                           ;mcc_generated_files/usb/usb_device.c: 2623:     {;mcc_generated_files/usb/usb_device.c:
      +                           2624:         pBDTEntryIn[0]->ADR = (((uint16_t)(CtrlTrfData)) & 0x7FFF);
 12906  0891  3058               	movlw	88
 12907  0892  00F3               	movwf	??_USBCtrlTrfInHandler
 12908  0893  3000               	movlw	0
 12909  0894  00F4               	movwf	??_USBCtrlTrfInHandler+1
 12910  0895  0837               	movf	_pBDTEntryIn^(0+384),w
 12911  0896  0086               	movwf	6
 12912  0897  0838               	movf	(_pBDTEntryIn+1)^(0+384),w
 12913  0898  0087               	movwf	7
 12914  0899  3142               	addfsr 1,2
 12915  089A  0873               	movf	??_USBCtrlTrfInHandler,w
 12916  089B  3FC0               	movwi [0]fsr1
 12917  089C  0874               	movf	??_USBCtrlTrfInHandler+1,w
 12918  089D  3FC1               	movwi [1]fsr1
 12919  089E                     i1l4341:
 12920                           
 12921                           ;mcc_generated_files/usb/usb_device.c: 2625:         USBCtrlTrfTxService();
 12922  089E  3197  2712  3188   	fcall	_USBCtrlTrfTxService
 12923  08A1                     i1l4343:
 12924                           
 12925                           ;mcc_generated_files/usb/usb_device.c: 2631:         if(shortPacketStatus == 2)
 12926  08A1  3002               	movlw	2
 12927  08A2  0023               	movlb	3	; select bank3
 12928  08A3  066A               	xorwf	_shortPacketStatus^(0+384),w	;volatile
 12929  08A4  1D03               	btfss	3,2
 12930  08A5  28A7               	goto	u312_21
 12931  08A6  28A8               	goto	u312_20
 12932  08A7                     u312_21:
 12933  08A7  28B4               	goto	i1l4347
 12934  08A8                     u312_20:
 12935  08A8                     i1l4345:
 12936                           
 12937                           ;mcc_generated_files/usb/usb_device.c: 2632:         {;mcc_generated_files/usb/usb_devic
      +                          e.c: 2635:             pBDTEntryIn[0]->STAT.Val = 0x04;
 12938  08A8  0837               	movf	_pBDTEntryIn^(0+384),w
 12939  08A9  0086               	movwf	6
 12940  08AA  0838               	movf	(_pBDTEntryIn+1)^(0+384),w
 12941  08AB  0087               	movwf	7
 12942  08AC  3004               	movlw	4
 12943  08AD  0081               	movwf	1
 12944                           
 12945                           ;mcc_generated_files/usb/usb_device.c: 2636:             pBDTEntryIn[0]->STAT.Val |= 0x8
      +                          0;
 12946  08AE  0837               	movf	_pBDTEntryIn^(0+384),w
 12947  08AF  0086               	movwf	6
 12948  08B0  0838               	movf	(_pBDTEntryIn+1)^(0+384),w
 12949  08B1  0087               	movwf	7
 12950  08B2  1781               	bsf	1,7
 12951                           
 12952                           ;mcc_generated_files/usb/usb_device.c: 2637:         }
 12953  08B3  28D9               	goto	i1l342
 12954  08B4                     i1l4347:
 12955                           
 12956                           ;mcc_generated_files/usb/usb_device.c: 2639:         {;mcc_generated_files/usb/usb_devic
      +                          e.c: 2640:             if(lastDTS == 0)
 12957  08B4  0875               	movf	USBCtrlTrfInHandler@lastDTS,w
 12958  08B5  1D03               	btfss	3,2
 12959  08B6  28B8               	goto	u313_21
 12960  08B7  28B9               	goto	u313_20
 12961  08B8                     u313_21:
 12962  08B8  28C5               	goto	i1l4351
 12963  08B9                     u313_20:
 12964  08B9                     i1l4349:
 12965                           
 12966                           ;mcc_generated_files/usb/usb_device.c: 2641:             {;mcc_generated_files/usb/usb_d
      +                          evice.c: 2642:                 pBDTEntryIn[0]->STAT.Val = 0x40|(0x08 & 0x08);
 12967  08B9  0837               	movf	_pBDTEntryIn^(0+384),w
 12968  08BA  0086               	movwf	6
 12969  08BB  0838               	movf	(_pBDTEntryIn+1)^(0+384),w
 12970  08BC  0087               	movwf	7
 12971  08BD  3048               	movlw	72
 12972  08BE  0081               	movwf	1
 12973                           
 12974                           ;mcc_generated_files/usb/usb_device.c: 2643:                 pBDTEntryIn[0]->STAT.Val |=
      +                           0x80;
 12975  08BF  0837               	movf	_pBDTEntryIn^(0+384),w
 12976  08C0  0086               	movwf	6
 12977  08C1  0838               	movf	(_pBDTEntryIn+1)^(0+384),w
 12978  08C2  0087               	movwf	7
 12979  08C3  1781               	bsf	1,7
 12980                           
 12981                           ;mcc_generated_files/usb/usb_device.c: 2644:             }
 12982  08C4  28D9               	goto	i1l342
 12983  08C5                     i1l4351:
 12984                           
 12985                           ;mcc_generated_files/usb/usb_device.c: 2646:             {;mcc_generated_files/usb/usb_d
      +                          evice.c: 2647:                 pBDTEntryIn[0]->STAT.Val = 0x00|(0x08 & 0x08);
 12986  08C5  0837               	movf	_pBDTEntryIn^(0+384),w
 12987  08C6  0086               	movwf	6
 12988  08C7  0838               	movf	(_pBDTEntryIn+1)^(0+384),w
 12989  08C8  0087               	movwf	7
 12990  08C9  3008               	movlw	8
 12991  08CA  0081               	movwf	1
 12992                           
 12993                           ;mcc_generated_files/usb/usb_device.c: 2648:                 pBDTEntryIn[0]->STAT.Val |=
      +                           0x80;
 12994  08CB  0837               	movf	_pBDTEntryIn^(0+384),w
 12995  08CC  0086               	movwf	6
 12996  08CD  0838               	movf	(_pBDTEntryIn+1)^(0+384),w
 12997  08CE  0087               	movwf	7
 12998  08CF  1781               	bsf	1,7
 12999  08D0  28D9               	goto	i1l342
 13000  08D1                     i1l334:	
 13001                           ;mcc_generated_files/usb/usb_device.c: 2652:  else
 13002                           
 13003                           
 13004                           ;mcc_generated_files/usb/usb_device.c: 2653:  {;mcc_generated_files/usb/usb_device.c: 26
      +                          57:         if(outPipes[0].info.bits.busy == 1)
 13005  08D1  1FB2               	btfss	(_outPipes^(0+384)+2),7	;volatile
 13006  08D2  28D4               	goto	u314_21
 13007  08D3  28D5               	goto	u314_20
 13008  08D4                     u314_21:
 13009  08D4  28D8               	goto	i1l4355
 13010  08D5                     u314_20:
 13011  08D5                     i1l4353:
 13012                           
 13013                           ;mcc_generated_files/usb/usb_device.c: 2660:             {;mcc_generated_files/usb/usb_d
      +                          evice.c: 2661:                 outPipes[0].pFunc();
 13014  08D5  0835               	movf	(low ((_outPipes| (0+256)+5)))^(0+128),w	;volatile
 13015  08D6  0836               	movf	((low ((_outPipes| (0+256)+5))+1))^(0+128),w	;volatile
 13016  08D7                     i1l341:	
 13017                           ;mcc_generated_files/usb/usb_device.c: 2662:             }
 13018                           
 13019                           
 13020                           ;mcc_generated_files/usb/usb_device.c: 2663:             outPipes[0].info.bits.busy = 0;
 13021  08D7  13B2               	bcf	(_outPipes^(0+384)+2),7	;volatile
 13022  08D8                     i1l4355:
 13023                           
 13024                           ;mcc_generated_files/usb/usb_device.c: 2666:         controlTransferState = 0;
 13025  08D8  01E9               	clrf	_controlTransferState^(0+384)	;volatile
 13026  08D9                     i1l342:
 13027  08D9  0008               	return
 13028  08DA                     __end_of_USBCtrlTrfInHandler:
 13029                           
 13030                           	psect	text55
 13031  1712                     __ptext55:	
 13032 ;; *************** function _USBCtrlTrfTxService *****************
 13033 ;; Defined at:
 13034 ;;		line 1775 in file "mcc_generated_files/usb/usb_device.c"
 13035 ;; Parameters:    Size  Location     Type
 13036 ;;		None
 13037 ;; Auto vars:     Size  Location     Type
 13038 ;;  byteToSend      1    2[COMMON] unsigned char 
 13039 ;; Return value:  Size  Location     Type
 13040 ;;                  1    wreg      void 
 13041 ;; Registers used:
 13042 ;;		wreg, fsr0l, fsr0h, fsr1l, fsr1h, status,2, status,0, pclath
 13043 ;; Tracked objects:
 13044 ;;		On entry : 0/0
 13045 ;;		On exit  : 0/0
 13046 ;;		Unchanged: 0/0
 13047 ;; Data sizes:     COMMON   BANK0   BANK1   BANK2   BANK3   BANK4   BANK5   BANK6   BANK7   BANK8   BANK9  BANK10  BANK1
      +1  BANK12
 13048 ;;      Params:         0       0       0       0       0       0       0       0       0       0       0       0       
      +0       0
 13049 ;;      Locals:         1       0       0       0       0       0       0       0       0       0       0       0       
      +0       0
 13050 ;;      Temps:          2       0       0       0       0       0       0       0       0       0       0       0       
      +0       0
 13051 ;;      Totals:         3       0       0       0       0       0       0       0       0       0       0       0       
      +0       0
 13052 ;;Total ram usage:        3 bytes
 13053 ;; Hardware stack levels used:    1
 13054 ;; This function calls:
 13055 ;;		Nothing
 13056 ;; This function is called by:
 13057 ;;		_USBCtrlEPAllowDataStage
 13058 ;;		_USBCtrlTrfInHandler
 13059 ;; This function uses a non-reentrant model
 13060 ;;
 13061                           
 13062                           
 13063                           ;psect for function _USBCtrlTrfTxService
 13064  1712                     _USBCtrlTrfTxService:
 13065  1712                     i1l3779:	
 13066                           ;incstack = 0
 13067                           ; Regs used in _USBCtrlTrfTxService: [wreg-fsr1h+status,2+status,0+pclath]
 13068                           
 13069                           
 13070                           ;mcc_generated_files/usb/usb_device.c: 1777:     uint8_t byteToSend;;mcc_generated_files
      +                          /usb/usb_device.c: 1781:     byteToSend = 8;
 13071  1712  3008               	movlw	8
 13072  1713  00F0               	movwf	??_USBCtrlTrfTxService
 13073  1714  0870               	movf	??_USBCtrlTrfTxService,w
 13074  1715  00F2               	movwf	USBCtrlTrfTxService@byteToSend
 13075                           
 13076                           ;mcc_generated_files/usb/usb_device.c: 1782:     if(inPipes[0].wCount.Val < (uint8_t)8)
 13077  1716  3000               	movlw	0
 13078  1717  0023               	movlb	3	; select bank3
 13079  1718  0241               	subwf	((_inPipes+1)^(0+384)+3),w	;volatile
 13080  1719  3008               	movlw	8
 13081  171A  1903               	skipnz
 13082  171B  0240               	subwf	(_inPipes^(0+384)+3),w	;volatile
 13083  171C  1803               	skipnc
 13084  171D  2F1F               	goto	u246_21
 13085  171E  2F20               	goto	u246_20
 13086  171F                     u246_21:
 13087  171F  2F37               	goto	i1l234
 13088  1720                     u246_20:
 13089  1720                     i1l3781:
 13090                           
 13091                           ;mcc_generated_files/usb/usb_device.c: 1783:     {;mcc_generated_files/usb/usb_device.c:
      +                           1784:         byteToSend = inPipes[0].wCount.Val;
 13092  1720  0840               	movf	(_inPipes^(0+384)+3),w	;volatile
 13093  1721  00F0               	movwf	??_USBCtrlTrfTxService
 13094  1722  0870               	movf	??_USBCtrlTrfTxService,w
 13095  1723  00F2               	movwf	USBCtrlTrfTxService@byteToSend
 13096  1724                     i1l3783:
 13097                           
 13098                           ;mcc_generated_files/usb/usb_device.c: 1791:         if(shortPacketStatus == 0)
 13099  1724  086A               	movf	_shortPacketStatus^(0+384),w	;volatile
 13100  1725  1D03               	btfss	3,2
 13101  1726  2F28               	goto	u247_21
 13102  1727  2F29               	goto	u247_20
 13103  1728                     u247_21:
 13104  1728  2F2E               	goto	i1l3787
 13105  1729                     u247_20:
 13106  1729                     i1l3785:
 13107                           
 13108                           ;mcc_generated_files/usb/usb_device.c: 1792:         {;mcc_generated_files/usb/usb_devic
      +                          e.c: 1793:             shortPacketStatus = 1;
 13109  1729  3001               	movlw	1
 13110  172A  00F0               	movwf	??_USBCtrlTrfTxService
 13111  172B  0870               	movf	??_USBCtrlTrfTxService,w
 13112  172C  00EA               	movwf	_shortPacketStatus^(0+384)	;volatile
 13113                           
 13114                           ;mcc_generated_files/usb/usb_device.c: 1794:         }
 13115  172D  2F37               	goto	i1l234
 13116  172E                     i1l3787:
 13117  172E  036A               	decf	_shortPacketStatus^(0+384),w	;volatile
 13118  172F  1D03               	btfss	3,2
 13119  1730  2F32               	goto	u248_21
 13120  1731  2F33               	goto	u248_20
 13121  1732                     u248_21:
 13122  1732  2F37               	goto	i1l234
 13123  1733                     u248_20:
 13124  1733                     i1l3789:
 13125                           
 13126                           ;mcc_generated_files/usb/usb_device.c: 1796:         {;mcc_generated_files/usb/usb_devic
      +                          e.c: 1797:             shortPacketStatus = 2;
 13127  1733  3002               	movlw	2
 13128  1734  00F0               	movwf	??_USBCtrlTrfTxService
 13129  1735  0870               	movf	??_USBCtrlTrfTxService,w
 13130  1736  00EA               	movwf	_shortPacketStatus^(0+384)	;volatile
 13131  1737                     i1l234:	
 13132                           ;mcc_generated_files/usb/usb_device.c: 1799:     }
 13133                           
 13134                           
 13135                           ;mcc_generated_files/usb/usb_device.c: 1803:     inPipes[0].wCount.Val -= byteToSend;
 13136  1737  0872               	movf	USBCtrlTrfTxService@byteToSend,w
 13137  1738  00F0               	movwf	??_USBCtrlTrfTxService
 13138  1739  01F1               	clrf	??_USBCtrlTrfTxService+1
 13139  173A  0870               	movf	??_USBCtrlTrfTxService,w
 13140  173B  02C0               	subwf	(_inPipes^(0+384)+3),f	;volatile
 13141  173C  0871               	movf	??_USBCtrlTrfTxService+1,w
 13142  173D  3BC1               	subwfb	((_inPipes+1)^(0+384)+3),f	;volatile
 13143  173E                     i1l3791:
 13144                           
 13145                           ;mcc_generated_files/usb/usb_device.c: 1808:     pBDTEntryIn[0]->CNT = byteToSend;
 13146  173E  0837               	movf	_pBDTEntryIn^(0+384),w
 13147  173F  3E01               	addlw	1
 13148  1740  00F0               	movwf	??_USBCtrlTrfTxService
 13149  1741  3000               	movlw	0
 13150  1742  3D38               	addwfc	(_pBDTEntryIn+1)^(0+384),w
 13151  1743  00F1               	movwf	??_USBCtrlTrfTxService+1
 13152  1744  0870               	movf	??_USBCtrlTrfTxService,w
 13153  1745  0086               	movwf	6
 13154  1746  0871               	movf	??_USBCtrlTrfTxService+1,w
 13155  1747  0087               	movwf	7
 13156  1748  0872               	movf	USBCtrlTrfTxService@byteToSend,w
 13157  1749  0081               	movwf	1
 13158  174A                     i1l3793:
 13159                           
 13160                           ;mcc_generated_files/usb/usb_device.c: 1812:     pDst = (volatile uint8_t*)CtrlTrfData;
 13161  174A  3058               	movlw	88
 13162  174B  00F0               	movwf	??_USBCtrlTrfTxService
 13163  174C  0870               	movf	??_USBCtrlTrfTxService,w
 13164  174D  00E8               	movwf	_pDst^(0+384)
 13165  174E                     i1l3795:
 13166                           
 13167                           ;mcc_generated_files/usb/usb_device.c: 1813:     if(inPipes[0].info.bits.ctrl_trf_mem ==
      +                           0x00)
 13168  174E  183F               	btfsc	(_inPipes^(0+384)+2),0	;volatile
 13169  174F  2F51               	goto	u249_21
 13170  1750  2F52               	goto	u249_20
 13171  1751                     u249_21:
 13172  1751  2F83               	goto	i1l3817
 13173  1752                     u249_20:
 13174  1752  2F68               	goto	i1l3807
 13175  1753                     i1l3799:
 13176                           
 13177                           ;mcc_generated_files/usb/usb_device.c: 1816:         {;mcc_generated_files/usb/usb_devic
      +                          e.c: 1817:             *pDst++ = *inPipes[0].pSrc.bRom++;
 13178  1753  083D               	movf	_inPipes^(0+384),w	;volatile
 13179  1754  0084               	movwf	4
 13180  1755  083E               	movf	(_inPipes+1)^(0+384),w	;volatile
 13181  1756  0085               	movwf	5
 13182  1757  0800               	movf	0,w	;code access
 13183  1758  00F0               	movwf	??_USBCtrlTrfTxService
 13184  1759  0868               	movf	_pDst^(0+384),w
 13185  175A  0086               	movwf	6
 13186  175B  0187               	clrf	7
 13187  175C  0870               	movf	??_USBCtrlTrfTxService,w
 13188  175D  0081               	movwf	1
 13189  175E                     i1l3801:
 13190  175E  3001               	movlw	1
 13191  175F  07BD               	addwf	_inPipes^(0+384),f	;volatile
 13192  1760  3000               	movlw	0
 13193  1761  3DBE               	addwfc	(_inPipes+1)^(0+384),f	;volatile
 13194  1762                     i1l3803:
 13195  1762  3001               	movlw	1
 13196  1763  00F0               	movwf	??_USBCtrlTrfTxService
 13197  1764  0870               	movf	??_USBCtrlTrfTxService,w
 13198  1765  07E8               	addwf	_pDst^(0+384),f
 13199  1766                     i1l3805:
 13200                           
 13201                           ;mcc_generated_files/usb/usb_device.c: 1818:             byteToSend--;
 13202  1766  3001               	movlw	1
 13203  1767  02F2               	subwf	USBCtrlTrfTxService@byteToSend,f
 13204  1768                     i1l3807:
 13205                           
 13206                           ;mcc_generated_files/usb/usb_device.c: 1815:         while(byteToSend)
 13207  1768  0872               	movf	USBCtrlTrfTxService@byteToSend,w
 13208  1769  1D03               	btfss	3,2
 13209  176A  2F6C               	goto	u250_21
 13210  176B  2F6D               	goto	u250_20
 13211  176C                     u250_21:
 13212  176C  2F53               	goto	i1l3799
 13213  176D                     u250_20:
 13214  176D  2F88               	goto	i1l246
 13215  176E                     i1l3809:
 13216                           
 13217                           ;mcc_generated_files/usb/usb_device.c: 1824:         {;mcc_generated_files/usb/usb_devic
      +                          e.c: 1825:             *pDst++ = *inPipes[0].pSrc.bRam++;
 13218  176E  083D               	movf	_inPipes^(0+384),w	;volatile
 13219  176F  0084               	movwf	4
 13220  1770  083E               	movf	(_inPipes+1)^(0+384),w	;volatile
 13221  1771  0085               	movwf	5
 13222  1772  0800               	movf	0,w	;code access
 13223  1773  00F0               	movwf	??_USBCtrlTrfTxService
 13224  1774  0868               	movf	_pDst^(0+384),w
 13225  1775  0086               	movwf	6
 13226  1776  0187               	clrf	7
 13227  1777  0870               	movf	??_USBCtrlTrfTxService,w
 13228  1778  0081               	movwf	1
 13229  1779                     i1l3811:
 13230  1779  3001               	movlw	1
 13231  177A  07BD               	addwf	_inPipes^(0+384),f	;volatile
 13232  177B  3000               	movlw	0
 13233  177C  3DBE               	addwfc	(_inPipes+1)^(0+384),f	;volatile
 13234  177D                     i1l3813:
 13235  177D  3001               	movlw	1
 13236  177E  00F0               	movwf	??_USBCtrlTrfTxService
 13237  177F  0870               	movf	??_USBCtrlTrfTxService,w
 13238  1780  07E8               	addwf	_pDst^(0+384),f
 13239  1781                     i1l3815:
 13240                           
 13241                           ;mcc_generated_files/usb/usb_device.c: 1826:             byteToSend--;
 13242  1781  3001               	movlw	1
 13243  1782  02F2               	subwf	USBCtrlTrfTxService@byteToSend,f
 13244  1783                     i1l3817:
 13245                           
 13246                           ;mcc_generated_files/usb/usb_device.c: 1823:         while(byteToSend)
 13247  1783  0872               	movf	USBCtrlTrfTxService@byteToSend,w
 13248  1784  1D03               	btfss	3,2
 13249  1785  2F87               	goto	u251_21
 13250  1786  2F88               	goto	u251_20
 13251  1787                     u251_21:
 13252  1787  2F6E               	goto	i1l3809
 13253  1788                     u251_20:
 13254  1788                     i1l246:
 13255  1788  0008               	return
 13256  1789                     __end_of_USBCtrlTrfTxService:
 13257                           
 13258                           	psect	text56
 13259  0C12                     __ptext56:	
 13260 ;; *************** function _TMR0_ISR *****************
 13261 ;; Defined at:
 13262 ;;		line 115 in file "mcc_generated_files/tmr0.c"
 13263 ;; Parameters:    Size  Location     Type
 13264 ;;		None
 13265 ;; Auto vars:     Size  Location     Type
 13266 ;;		None
 13267 ;; Return value:  Size  Location     Type
 13268 ;;                  1    wreg      void 
 13269 ;; Registers used:
 13270 ;;		wreg, status,2, status,0, pclath, cstack
 13271 ;; Tracked objects:
 13272 ;;		On entry : 0/0
 13273 ;;		On exit  : 0/0
 13274 ;;		Unchanged: 0/0
 13275 ;; Data sizes:     COMMON   BANK0   BANK1   BANK2   BANK3   BANK4   BANK5   BANK6   BANK7   BANK8   BANK9  BANK10  BANK1
      +1  BANK12
 13276 ;;      Params:         0       0       0       0       0       0       0       0       0       0       0       0       
      +0       0
 13277 ;;      Locals:         0       0       0       0       0       0       0       0       0       0       0       0       
      +0       0
 13278 ;;      Temps:          1       0       0       0       0       0       0       0       0       0       0       0       
      +0       0
 13279 ;;      Totals:         1       0       0       0       0       0       0       0       0       0       0       0       
      +0       0
 13280 ;;Total ram usage:        1 bytes
 13281 ;; Hardware stack levels used:    1
 13282 ;; Hardware stack levels required when called:    1
 13283 ;; This function calls:
 13284 ;;		Absolute function
 13285 ;;		_TMR0_DefaultInterruptHandler
 13286 ;; This function is called by:
 13287 ;;		_INTERRUPT_InterruptManager
 13288 ;; This function uses a non-reentrant model
 13289 ;;
 13290                           
 13291                           
 13292                           ;psect for function _TMR0_ISR
 13293  0C12                     _TMR0_ISR:
 13294  0C12                     i1l4971:	
 13295                           ;incstack = 0
 13296                           ; Regs used in _TMR0_ISR: [wreg+status,2+status,0+pclath+cstack]
 13297                           
 13298                           
 13299                           ;mcc_generated_files/tmr0.c: 119:     INTCONbits.TMR0IF = 0;
 13300  0C12  110B               	bcf	11,2	;volatile
 13301  0C13                     i1l4973:
 13302                           
 13303                           ;mcc_generated_files/tmr0.c: 121:     TMR0 = timer0ReloadVal;
 13304  0C13  0023               	movlb	3	; select bank3
 13305  0C14  0853               	movf	_timer0ReloadVal^(0+384),w	;volatile
 13306  0C15  0020               	movlb	0	; select bank0
 13307  0C16  0095               	movwf	21	;volatile
 13308  0C17                     i1l4975:
 13309                           
 13310                           ;mcc_generated_files/tmr0.c: 123:     if(TMR0_InterruptHandler)
 13311  0C17  0024               	movlb	4	; select bank4
 13312  0C18  0838               	movf	_TMR0_InterruptHandler^(0+512),w
 13313  0C19  0439               	iorwf	(_TMR0_InterruptHandler+1)^(0+512),w
 13314  0C1A  1903               	btfsc	3,2
 13315  0C1B  2C1D               	goto	u385_21
 13316  0C1C  2C1E               	goto	u385_20
 13317  0C1D                     u385_21:
 13318  0C1D  2C23               	goto	i1l4979
 13319  0C1E                     u385_20:
 13320  0C1E                     i1l4977:
 13321                           
 13322                           ;mcc_generated_files/tmr0.c: 124:     {;mcc_generated_files/tmr0.c: 125:         TMR0_In
      +                          terruptHandler();
 13323  0C1E  0839               	movf	(_TMR0_InterruptHandler+1)^(0+512),w
 13324  0C1F  008A               	movwf	10
 13325  0C20  0838               	movf	_TMR0_InterruptHandler^(0+512),w
 13326  0C21  000A               	callw
 13327  0C22  318C               	pagesel	$
 13328  0C23                     i1l4979:
 13329                           
 13330                           ;mcc_generated_files/tmr0.c: 127:     if(!usbInit_flag)
 13331  0C23  0023               	movlb	3	; select bank3
 13332  0C24  0854               	movf	_usbInit_flag^(0+384),w	;volatile
 13333  0C25  1D03               	btfss	3,2
 13334  0C26  2C28               	goto	u386_21
 13335  0C27  2C29               	goto	u386_20
 13336  0C28                     u386_21:
 13337  0C28  2CAC               	goto	i1l747
 13338  0C29                     u386_20:
 13339  0C29                     i1l4981:
 13340                           
 13341                           ;mcc_generated_files/tmr0.c: 128:     {;mcc_generated_files/tmr0.c: 129:         if(++he
      +                          artbeat_counter >= 5000)
 13342  0C29  3001               	movlw	1
 13343  0C2A  0024               	movlb	4	; select bank4
 13344  0C2B  07BC               	addwf	_heartbeat_counter^(0+512),f
 13345  0C2C  3000               	movlw	0
 13346  0C2D  3DBD               	addwfc	(_heartbeat_counter+1)^(0+512),f
 13347  0C2E  3013               	movlw	19
 13348  0C2F  023D               	subwf	(_heartbeat_counter+1)^(0+512),w
 13349  0C30  3088               	movlw	136
 13350  0C31  1903               	skipnz
 13351  0C32  023C               	subwf	_heartbeat_counter^(0+512),w
 13352  0C33  1C03               	skipc
 13353  0C34  2C36               	goto	u387_21
 13354  0C35  2C37               	goto	u387_20
 13355  0C36                     u387_21:
 13356  0C36  2C48               	goto	i1l4991
 13357  0C37                     u387_20:
 13358  0C37                     i1l4983:
 13359                           
 13360                           ;mcc_generated_files/tmr0.c: 130:         {;mcc_generated_files/tmr0.c: 131:            
      +                           TRISCbits.TRISC5 = 0;
 13361  0C37  0021               	movlb	1	; select bank1
 13362  0C38  128E               	bcf	14,5	;volatile
 13363  0C39                     i1l4985:
 13364                           
 13365                           ;mcc_generated_files/tmr0.c: 132:             if(heartbeat_counter >= 5020)
 13366  0C39  3013               	movlw	19
 13367  0C3A  0024               	movlb	4	; select bank4
 13368  0C3B  023D               	subwf	(_heartbeat_counter+1)^(0+512),w
 13369  0C3C  309C               	movlw	156
 13370  0C3D  1903               	skipnz
 13371  0C3E  023C               	subwf	_heartbeat_counter^(0+512),w
 13372  0C3F  1C03               	skipc
 13373  0C40  2C42               	goto	u388_21
 13374  0C41  2C43               	goto	u388_20
 13375  0C42                     u388_21:
 13376  0C42  2C48               	goto	i1l4991
 13377  0C43                     u388_20:
 13378  0C43                     i1l4987:
 13379                           
 13380                           ;mcc_generated_files/tmr0.c: 133:             {;mcc_generated_files/tmr0.c: 134:        
      +                                   TRISCbits.TRISC5 = 1;
 13381  0C43  0021               	movlb	1	; select bank1
 13382  0C44  168E               	bsf	14,5	;volatile
 13383  0C45                     i1l4989:
 13384                           
 13385                           ;mcc_generated_files/tmr0.c: 135:                 heartbeat_counter = 0;
 13386  0C45  0024               	movlb	4	; select bank4
 13387  0C46  01BC               	clrf	_heartbeat_counter^(0+512)
 13388  0C47  01BD               	clrf	(_heartbeat_counter+1)^(0+512)
 13389  0C48                     i1l4991:
 13390                           
 13391                           ;mcc_generated_files/tmr0.c: 138:         if(++waitforsleep_count >= 29500)
 13392  0C48  3001               	movlw	1
 13393  0C49  0023               	movlb	3	; select bank3
 13394  0C4A  07CA               	addwf	_waitforsleep_count^(0+384),f	;volatile
 13395  0C4B  3000               	movlw	0
 13396  0C4C  3DCB               	addwfc	(_waitforsleep_count+1)^(0+384),f	;volatile
 13397  0C4D  084B               	movf	(_waitforsleep_count+1)^(0+384),w	;volatile
 13398  0C4E  3A80               	xorlw	128
 13399  0C4F  00F0               	movwf	??_TMR0_ISR
 13400  0C50  30F3               	movlw	243
 13401  0C51  0270               	subwf	??_TMR0_ISR,w
 13402  0C52  1D03               	skipz
 13403  0C53  2C56               	goto	u389_25
 13404  0C54  303C               	movlw	60
 13405  0C55  024A               	subwf	_waitforsleep_count^(0+384),w	;volatile
 13406  0C56                     u389_25:
 13407  0C56  1C03               	skipc
 13408  0C57  2C59               	goto	u389_21
 13409  0C58  2C5A               	goto	u389_20
 13410  0C59                     u389_21:
 13411  0C59  2C79               	goto	i1l5005
 13412  0C5A                     u389_20:
 13413  0C5A                     i1l4993:
 13414                           
 13415                           ;mcc_generated_files/tmr0.c: 139:         {;mcc_generated_files/tmr0.c: 140:            
      +                           if(waitforsleep_count == 29500) TRISCbits.TRISC5 = 0;
 13416  0C5A  303C               	movlw	60
 13417  0C5B  0023               	movlb	3	; select bank3
 13418  0C5C  064A               	xorwf	_waitforsleep_count^(0+384),w	;volatile
 13419  0C5D  3073               	movlw	115
 13420  0C5E  1903               	skipnz
 13421  0C5F  064B               	xorwf	(_waitforsleep_count+1)^(0+384),w	;volatile
 13422  0C60  1D03               	btfss	3,2
 13423  0C61  2C63               	goto	u390_21
 13424  0C62  2C64               	goto	u390_20
 13425  0C63                     u390_21:
 13426  0C63  2C66               	goto	i1l4997
 13427  0C64                     u390_20:
 13428  0C64                     i1l4995:
 13429  0C64  0021               	movlb	1	; select bank1
 13430  0C65  128E               	bcf	14,5	;volatile
 13431  0C66                     i1l4997:
 13432                           
 13433                           ;mcc_generated_files/tmr0.c: 141:             if(waitforsleep_count == 30000)
 13434  0C66  3030               	movlw	48
 13435  0C67  0023               	movlb	3	; select bank3
 13436  0C68  064A               	xorwf	_waitforsleep_count^(0+384),w	;volatile
 13437  0C69  3075               	movlw	117
 13438  0C6A  1903               	skipnz
 13439  0C6B  064B               	xorwf	(_waitforsleep_count+1)^(0+384),w	;volatile
 13440  0C6C  1D03               	btfss	3,2
 13441  0C6D  2C6F               	goto	u391_21
 13442  0C6E  2C70               	goto	u391_20
 13443  0C6F                     u391_21:
 13444  0C6F  2C79               	goto	i1l5005
 13445  0C70                     u391_20:
 13446  0C70                     i1l4999:
 13447                           
 13448                           ;mcc_generated_files/tmr0.c: 142:             {;mcc_generated_files/tmr0.c: 143:        
      +                                   TRISCbits.TRISC5 = 1;
 13449  0C70  0021               	movlb	1	; select bank1
 13450  0C71  168E               	bsf	14,5	;volatile
 13451  0C72                     i1l5001:
 13452                           
 13453                           ;mcc_generated_files/tmr0.c: 144:                 waitforsleep_count = 0;
 13454  0C72  0023               	movlb	3	; select bank3
 13455  0C73  01CA               	clrf	_waitforsleep_count^(0+384)	;volatile
 13456  0C74  01CB               	clrf	(_waitforsleep_count+1)^(0+384)	;volatile
 13457  0C75                     i1l5003:
 13458                           
 13459                           ;mcc_generated_files/tmr0.c: 145:                 sleep_flag = 1;
 13460  0C75  3001               	movlw	1
 13461  0C76  00F0               	movwf	??_TMR0_ISR
 13462  0C77  0870               	movf	??_TMR0_ISR,w
 13463  0C78  00D7               	movwf	_sleep_flag^(0+384)	;volatile
 13464  0C79                     i1l5005:
 13465                           
 13466                           ;mcc_generated_files/tmr0.c: 148:         if(++counter >= 10)
 13467  0C79  3001               	movlw	1
 13468  0C7A  0024               	movlb	4	; select bank4
 13469  0C7B  07BE               	addwf	_counter^(0+512),f	;volatile
 13470  0C7C  3000               	movlw	0
 13471  0C7D  3DBF               	addwfc	(_counter+1)^(0+512),f	;volatile
 13472  0C7E  083F               	movf	(_counter+1)^(0+512),w	;volatile
 13473  0C7F  3A80               	xorlw	128
 13474  0C80  00F0               	movwf	??_TMR0_ISR
 13475  0C81  3080               	movlw	128
 13476  0C82  0270               	subwf	??_TMR0_ISR,w
 13477  0C83  1D03               	skipz
 13478  0C84  2C87               	goto	u392_25
 13479  0C85  300A               	movlw	10
 13480  0C86  023E               	subwf	_counter^(0+512),w	;volatile
 13481  0C87                     u392_25:
 13482  0C87  1C03               	skipc
 13483  0C88  2C8A               	goto	u392_21
 13484  0C89  2C8B               	goto	u392_20
 13485  0C8A                     u392_21:
 13486  0C8A  2CAC               	goto	i1l747
 13487  0C8B                     u392_20:
 13488  0C8B                     i1l5007:
 13489                           
 13490                           ;mcc_generated_files/tmr0.c: 149:         {;mcc_generated_files/tmr0.c: 150:            
      +                           if(measurementburst_count < 78)
 13491  0C8B  0024               	movlb	4	; select bank4
 13492  0C8C  083B               	movf	(_measurementburst_count+1)^(0+512),w	;volatile
 13493  0C8D  3A80               	xorlw	128
 13494  0C8E  00F0               	movwf	??_TMR0_ISR
 13495  0C8F  3080               	movlw	128
 13496  0C90  0270               	subwf	??_TMR0_ISR,w
 13497  0C91  1D03               	skipz
 13498  0C92  2C95               	goto	u393_25
 13499  0C93  304E               	movlw	78
 13500  0C94  023A               	subwf	_measurementburst_count^(0+512),w	;volatile
 13501  0C95                     u393_25:
 13502  0C95  1803               	skipnc
 13503  0C96  2C98               	goto	u393_21
 13504  0C97  2C99               	goto	u393_20
 13505  0C98                     u393_21:
 13506  0C98  2CA4               	goto	i1l5011
 13507  0C99                     u393_20:
 13508  0C99                     i1l5009:
 13509                           
 13510                           ;mcc_generated_files/tmr0.c: 151:             {;mcc_generated_files/tmr0.c: 152:        
      +                               measurementburst_count++;
 13511  0C99  3001               	movlw	1
 13512  0C9A  0024               	movlb	4	; select bank4
 13513  0C9B  07BA               	addwf	_measurementburst_count^(0+512),f	;volatile
 13514  0C9C  3000               	movlw	0
 13515  0C9D  3DBB               	addwfc	(_measurementburst_count+1)^(0+512),f	;volatile
 13516                           
 13517                           ;mcc_generated_files/tmr0.c: 153:             measurement_flag = 1;
 13518  0C9E  3001               	movlw	1
 13519  0C9F  00F0               	movwf	??_TMR0_ISR
 13520  0CA0  0870               	movf	??_TMR0_ISR,w
 13521  0CA1  0023               	movlb	3	; select bank3
 13522  0CA2  00D5               	movwf	_measurement_flag^(0+384)	;volatile
 13523                           
 13524                           ;mcc_generated_files/tmr0.c: 154:             }
 13525  0CA3  2CA9               	goto	i1l5013
 13526  0CA4                     i1l5011:
 13527                           
 13528                           ;mcc_generated_files/tmr0.c: 156:             {;mcc_generated_files/tmr0.c: 157:        
      +                                   writeout_flag = 1;
 13529  0CA4  3001               	movlw	1
 13530  0CA5  00F0               	movwf	??_TMR0_ISR
 13531  0CA6  0870               	movf	??_TMR0_ISR,w
 13532  0CA7  0023               	movlb	3	; select bank3
 13533  0CA8  00D6               	movwf	_writeout_flag^(0+384)	;volatile
 13534  0CA9                     i1l5013:
 13535                           
 13536                           ;mcc_generated_files/tmr0.c: 159:             counter = 0;
 13537  0CA9  0024               	movlb	4	; select bank4
 13538  0CAA  01BE               	clrf	_counter^(0+512)	;volatile
 13539  0CAB  01BF               	clrf	(_counter+1)^(0+512)	;volatile
 13540  0CAC                     i1l747:
 13541  0CAC  0008               	return
 13542  0CAD                     __end_of_TMR0_ISR:
 13543                           
 13544                           	psect	text57
 13545  07FF                     __ptext57:	
 13546 ;; *************** function _TMR0_DefaultInterruptHandler *****************
 13547 ;; Defined at:
 13548 ;;		line 171 in file "mcc_generated_files/tmr0.c"
 13549 ;; Parameters:    Size  Location     Type
 13550 ;;		None
 13551 ;; Auto vars:     Size  Location     Type
 13552 ;;		None
 13553 ;; Return value:  Size  Location     Type
 13554 ;;                  1    wreg      void 
 13555 ;; Registers used:
 13556 ;;		None
 13557 ;; Tracked objects:
 13558 ;;		On entry : 0/0
 13559 ;;		On exit  : 0/0
 13560 ;;		Unchanged: 0/0
 13561 ;; Data sizes:     COMMON   BANK0   BANK1   BANK2   BANK3   BANK4   BANK5   BANK6   BANK7   BANK8   BANK9  BANK10  BANK1
      +1  BANK12
 13562 ;;      Params:         0       0       0       0       0       0       0       0       0       0       0       0       
      +0       0
 13563 ;;      Locals:         0       0       0       0       0       0       0       0       0       0       0       0       
      +0       0
 13564 ;;      Temps:          0       0       0       0       0       0       0       0       0       0       0       0       
      +0       0
 13565 ;;      Totals:         0       0       0       0       0       0       0       0       0       0       0       0       
      +0       0
 13566 ;;Total ram usage:        0 bytes
 13567 ;; Hardware stack levels used:    1
 13568 ;; This function calls:
 13569 ;;		Nothing
 13570 ;; This function is called by:
 13571 ;;		_TMR0_Initialize
 13572 ;;		_TMR0_ISR
 13573 ;; This function uses a non-reentrant model
 13574 ;;
 13575                           
 13576                           
 13577                           ;psect for function _TMR0_DefaultInterruptHandler
 13578  07FF                     _TMR0_DefaultInterruptHandler:
 13579  07FF                     i1l753:	
 13580                           ;incstack = 0
 13581                           ; Regs used in _TMR0_DefaultInterruptHandler: []
 13582                           
 13583  07FF  0008               	return
 13584  0800                     __end_of_TMR0_DefaultInterruptHandler:
 13585  007E                     btemp	set	126	;btemp
 13586  007E                     int$flags	set	126
 13587  007E                     wtemp0	set	126
 13588  2250                     
 13589                           	psect	config
 13590                           
 13591                           ;Config register CONFIG1 @ 0x8007
 13592                           ;	Oscillator Selection Bits
 13593                           ;	FOSC = INTOSC, INTOSC oscillator: I/O function on CLKIN pin
 13594                           ;	Watchdog Timer Enable
 13595                           ;	WDTE = OFF, WDT disabled
 13596                           ;	Power-up Timer Enable
 13597                           ;	PWRTE = OFF, PWRT disabled
 13598                           ;	MCLR Pin Function Select
 13599                           ;	MCLRE = ON, MCLR/VPP pin function is MCLR
 13600                           ;	Flash Program Memory Code Protection
 13601                           ;	CP = OFF, Program memory code protection is disabled
 13602                           ;	Brown-out Reset Enable
 13603                           ;	BOREN = ON, Brown-out Reset enabled
 13604                           ;	Clock Out Enable
 13605                           ;	CLKOUTEN = OFF, CLKOUT function is disabled. I/O or oscillator function on the CLKOUT 
      +                          pin
 13606                           ;	Internal/External Switchover Mode
 13607                           ;	IESO = ON, Internal/External Switchover Mode is enabled
 13608                           ;	Fail-Safe Clock Monitor Enable
 13609                           ;	FCMEN = ON, Fail-Safe Clock Monitor is enabled
 13610  8007                     	org	32775
 13611  8007  3FE4               	dw	16356
 13612                           
 13613                           ;Config register CONFIG2 @ 0x8008
 13614                           ;	Flash Memory Self-Write Protection
 13615                           ;	WRT = OFF, Write protection off
 13616                           ;	CPU System Clock Selection Bit
 13617                           ;	CPUDIV = CLKDIV6, CPU system clock divided by 6
 13618                           ;	USB Low SPeed Clock Selection bit
 13619                           ;	USBLSCLK = 48MHz, System clock expects 48 MHz, FS/LS USB CLKENs divide-by is set to 8.
 13620                           ;	PLL Multipler Selection Bit
 13621                           ;	PLLMULT = 3x, 3x Output Frequency Selected
 13622                           ;	PLL Enable Bit
 13623                           ;	PLLEN = ENABLED, 3x or 4x PLL Enabled
 13624                           ;	Stack Overflow/Underflow Reset Enable
 13625                           ;	STVREN = ON, Stack Overflow or Underflow will cause a Reset
 13626                           ;	Brown-out Reset Voltage Selection
 13627                           ;	BORV = LO, Brown-out Reset Voltage (Vbor), low trip point selected.
 13628                           ;	Low-Power Brown Out Reset
 13629                           ;	LPBOR = OFF, Low-Power BOR is disabled
 13630                           ;	Low-Voltage Programming Enable
 13631                           ;	LVP = ON, Low-voltage programming enabled
 13632  8008                     	org	32776
 13633  8008  3FFF               	dw	16383

Data Sizes:
    Strings     6
    Constant    181
    Data        416
    BSS         250
    Persistent  34
    Stack       0

Auto Spaces:
    Space          Size  Autos    Used
    COMMON           14     14      14
    BANK0            16     16      16
    BANK1            48     33      38
    BANK2             0      0       0
    BANK3            64      0      64
    BANK4            80     10      65
    BANK5            80      0      64
    BANK6            80      0      64
    BANK7            32      0       0
    BANK8             0      0       0
    BANK9             0      0       0
    BANK10            0      0       0
    BANK11            0      0       0
    BANK12            0      0       0

Pointer List with Targets:

    USER_USB_CALLBACK_EVENT_HANDLER@pdata	PTR void  size(2) Largest target is 4096
		 -> RAM(DATA[4096]), USTATcopy(BANK3[1]), USBActiveConfiguration(BANK3[1]), NULL(NULL[0]), 
		 -> BDT(BANK0[48]), 

    ADC_InterruptHandler	PTR FTN()void  size(2) Largest target is 1
		 -> Absolute function(), 

    memset@dest	PTR void  size(2) Largest target is 48
		 -> USBAlternateInterface(BANK3[2]), BDT(BANK0[48]), 

    memset@s	PTR unsigned char  size(2) Largest target is 48
		 -> USBAlternateInterface(BANK3[2]), BDT(BANK0[48]), 

    memcpy@d1	PTR void  size(1) Largest target is 8
		 -> SetupPkt(BANK0[8]), 

    memcpy@d	PTR unsigned char  size(1) Largest target is 8
		 -> SetupPkt(BANK0[8]), 

    memcpy@s1	PTR const void  size(2) Largest target is 4096
		 -> CtrlTrfData(BANK0[8]), RAM(DATA[4096]), SetupPkt(BANK0[8]), 

    memcpy@s	PTR const unsigned char  size(2) Largest target is 4096
		 -> CtrlTrfData(BANK0[8]), RAM(DATA[4096]), SetupPkt(BANK0[8]), 

    eeprom_readPage@measarrayptr	PTR unsigned short [8] size(2) Largest target is 416
		 -> measarray(BIGRAM[416]), 

    eeprom_storeBurstGroup@data	PTR unsigned short [8] size(2) Largest target is 416
		 -> measarray(BIGRAM[416]), 

    TMR0_SetInterruptHandler@InterruptHandler	PTR FTN()void  size(2) Largest target is 1
		 -> TMR0_DefaultInterruptHandler(), 

    TMR0_InterruptHandler	PTR FTN()void  size(2) Largest target is 1
		 -> TMR0_DefaultInterruptHandler(), Absolute function(), 

    IOCAF5_SetInterruptHandler@InterruptHandler	PTR FTN()void  size(2) Largest target is 1
		 -> IOCAF5_DefaultInterruptHandler(), 

    IOCAF5_InterruptHandler	PTR FTN()void  size(2) Largest target is 1
		 -> Absolute function(), IOCAF5_DefaultInterruptHandler(), 

    putrsUSBUSART@data	PTR const unsigned char  size(2) Largest target is 6
		 -> STR_1(CODE[6]), 

    putrsUSBUSART@pData	PTR const unsigned char  size(2) Largest target is 6
		 -> STR_1(CODE[6]), 

    putUSBUSART@data	PTR unsigned char  size(2) Largest target is 64
		 -> main@testvar2(BANK4[2]), main@testvar1(BANK4[2]), writeBuffer(BANK6[64]), 

    getsUSBUSART@buffer	PTR unsigned char  size(1) Largest target is 64
		 -> main@buffer(BANK4[1]), readBuffer(BANK5[64]), 

    CDCDataInHandle	PTR void  size(2) Largest target is 4096
		 -> RAM(DATA[4096]), NULL(NULL[0]), BDT(BANK0[48]), 

    CDCDataOutHandle	PTR void  size(2) Largest target is 4096
		 -> RAM(DATA[4096]), NULL(NULL[0]), BDT(BANK0[48]), 

    pCDCDst.wRom	PTR const unsigned short  size(2) Largest target is 0

    pCDCDst.bRom	PTR const unsigned char  size(2) Largest target is 0

    pCDCDst.wRam	PTR unsigned short  size(2) Largest target is 0

    pCDCDst.bRam	PTR unsigned char  size(2) Largest target is 0

    S1607_POINTER$wRom	PTR const unsigned short  size(2) Largest target is 0

    pCDCSrc.wRom	PTR const unsigned short  size(2) Largest target is 0

    S1607_POINTER$bRom	PTR const unsigned char  size(2) Largest target is 0

    pCDCSrc.bRom	PTR const unsigned char  size(2) Largest target is 0

    S1607_POINTER$wRam	PTR unsigned short  size(2) Largest target is 0

    pCDCSrc.wRam	PTR unsigned short  size(2) Largest target is 0

    S1607_POINTER$bRam	PTR unsigned char  size(2) Largest target is 0

    pCDCSrc.bRam	PTR unsigned char  size(2) Largest target is 0

    USBStdFeatureReqHandler@pUEP	PTR unsigned char  size(2) Largest target is 1
		 -> UEP0(SFR29[1]), 

    USBStdFeatureReqHandler@p	PTR struct __BDT size(2) Largest target is 4096
		 -> RAM(DATA[4096]), NULL(NULL[0]), BDT(BANK0[48]), 

    sp__memcpy	PTR void  size(1) Largest target is 8
		 -> SetupPkt(BANK0[8]), 

    USBStdGetStatusHandler@p	PTR struct __BDT size(2) Largest target is 4096
		 -> RAM(DATA[4096]), NULL(NULL[0]), BDT(BANK0[48]), 

    USB_SD_Ptr	const PTR const unsigned char [4] size(2) Largest target is 52
		 -> sd003(CODE[8]), sd002(CODE[22]), sd001(CODE[52]), sd000(CODE[4]), 

    USB_CD_Ptr	const PTR const unsigned char [1] size(2) Largest target is 67
		 -> configDescriptor1(CODE[67]), 

    sp__memset	PTR void  size(2) Largest target is 48
		 -> USBAlternateInterface(BANK3[2]), BDT(BANK0[48]), 

    USBStdSetCfgHandler@p	PTR unsigned char  size(2) Largest target is 1
		 -> UEP1(SFR29[1]), 

    pDst	PTR volatile unsigned char  size(1) Largest target is 8
		 -> CtrlTrfData(BANK0[8]), NULL(NULL[0]), 

    USBConfigureEndpoint@handle	PTR volatile struct __BDT size(1) Largest target is 48
		 -> BDT(BANK0[48]), 

    pBDTEntryEP0OutCurrent	PTR volatile struct __BDT size(1) Largest target is 48
		 -> NULL(NULL[0]), BDT(BANK0[48]), 

    pBDTEntryEP0OutNext	PTR volatile struct __BDT size(2) Largest target is 4096
		 -> RAM(DATA[4096]), NULL(NULL[0]), BDT(BANK0[48]), 

    USBTransferOnePacket@data	PTR unsigned char  size(2) Largest target is 64
		 -> cdc_data_tx(BIGRAM[64]), cdc_data_rx(BIGRAM[64]), NULL(NULL[0]), 

    sp__USBTransferOnePacket	PTR void  size(2) Largest target is 4096
		 -> RAM(DATA[4096]), NULL(NULL[0]), BDT(BANK0[48]), 

    USBTransferOnePacket@handle	PTR volatile struct __BDT size(2) Largest target is 4096
		 -> RAM(DATA[4096]), NULL(NULL[0]), BDT(BANK0[48]), 

    USBEnableEndpoint@p	PTR unsigned char  size(2) Largest target is 1
		 -> UEP0(SFR29[1]), 

    pBDTEntryOut	PTR volatile struct __BDT[3] size(2) Largest target is 4096
		 -> RAM(DATA[4096]), NULL(NULL[0]), BDT(BANK0[48]), 

    pBDTEntryIn	PTR volatile struct __BDT[3] size(2) Largest target is 4096
		 -> RAM(DATA[4096]), NULL(NULL[0]), BDT(BANK0[48]), 

    S103$pFunc	PTR FTN()void  size(2) Largest target is 0
		 -> NULL(NULL[0]), 

    outPipes.pFunc	PTR FTN()void  size(2) Largest target is 0
		 -> NULL(NULL[0]), 

    S93$wRam	PTR unsigned short  size(1) Largest target is 0

    outPipes.pDst.wRam	PTR unsigned short  size(1) Largest target is 0

    S93$bRam	PTR unsigned char  size(1) Largest target is 0

    outPipes.pDst.bRam	PTR unsigned char  size(1) Largest target is 0

    S69$wRom	PTR const unsigned short  size(1) Largest target is 0

    inPipes.pSrc.wRom	PTR const unsigned short  size(1) Largest target is 0

    S69$wRam	PTR unsigned short  size(1) Largest target is 0

    inPipes.pSrc.wRam	PTR unsigned short  size(1) Largest target is 0

    S69$bRom	PTR const unsigned char  size(1) Largest target is 0

    inPipes.pSrc.bRom	PTR const unsigned char  size(1) Largest target is 0

    S69$bRam	PTR unsigned char  size(1) Largest target is 0

    inPipes.pSrc.bRam	PTR unsigned char  size(1) Largest target is 0

    USBDeviceInit@p	PTR unsigned char  size(2) Largest target is 1
		 -> UEP1(SFR29[1]), 


Critical Paths under _main in COMMON

    None.

Critical Paths under _INTERRUPT_InterruptManager in COMMON

    _USBCtrlEPServiceComplete->_USBCtrlEPAllowDataStage
    _USBCtrlEPAllowDataStage->_USBCtrlTrfTxService
    _USBStdSetCfgHandler->_memset
    _USER_USB_CALLBACK_EVENT_HANDLER->_CDCInitEP
    _CDCInitEP->_USBEnableEndpoint
    _USBEnableEndpoint->_USBConfigureEndpoint
    _USBCtrlTrfOutHandler->_USBCtrlTrfRxService
    _USBCtrlTrfRxService->_USBCtrlEPAllowStatusStage
    _USBCtrlTrfInHandler->_USBCtrlTrfTxService

Critical Paths under _main in BANK0

    None.

Critical Paths under _INTERRUPT_InterruptManager in BANK0

    _USBWakeFromSuspend->_USER_USB_CALLBACK_EVENT_HANDLER
    _USBSuspend->_USER_USB_CALLBACK_EVENT_HANDLER
    _USBCtrlEPService->_USBCtrlTrfSetupHandler
    _USBCtrlTrfSetupHandler->_USBCheckStdRequest
    _USBCheckStdRequest->_USBStdFeatureReqHandler
    _USBStdSetCfgHandler->_USER_USB_CALLBACK_EVENT_HANDLER
    _USBStdFeatureReqHandler->_USER_USB_CALLBACK_EVENT_HANDLER

Critical Paths under _main in BANK1

    _main->_eeprom_storeBurstGroup
    _getsUSBUSART->_USBTransferOnePacket
    _eeprom_storeBurstGroup->_I2C_MasterWrite
    _ACK_Poll->_I2C_MasterWrite
    _eeprom_readPage->_I2C_MasterWrite
    _SYSTEM_Initialize->_USBDeviceInit
    _TMR0_Initialize->_TMR0_SetInterruptHandler
    _PIN_MANAGER_Initialize->_IOCAF5_SetInterruptHandler
    _CDCTxService->_USBTransferOnePacket

Critical Paths under _INTERRUPT_InterruptManager in BANK1

    _INTERRUPT_InterruptManager->_USBDeviceTasks
    _USBDeviceTasks->_USBCtrlEPService

Critical Paths under _main in BANK2

    None.

Critical Paths under _INTERRUPT_InterruptManager in BANK2

    None.

Critical Paths under _main in BANK3

    None.

Critical Paths under _INTERRUPT_InterruptManager in BANK3

    None.

Critical Paths under _main in BANK4

    None.

Critical Paths under _INTERRUPT_InterruptManager in BANK4

    None.

Critical Paths under _main in BANK5

    None.

Critical Paths under _INTERRUPT_InterruptManager in BANK5

    None.

Critical Paths under _main in BANK6

    None.

Critical Paths under _INTERRUPT_InterruptManager in BANK6

    None.

Critical Paths under _main in BANK7

    None.

Critical Paths under _INTERRUPT_InterruptManager in BANK7

    None.

Critical Paths under _main in BANK8

    None.

Critical Paths under _INTERRUPT_InterruptManager in BANK8

    None.

Critical Paths under _main in BANK9

    None.

Critical Paths under _INTERRUPT_InterruptManager in BANK9

    None.

Critical Paths under _main in BANK10

    None.

Critical Paths under _INTERRUPT_InterruptManager in BANK10

    None.

Critical Paths under _main in BANK11

    None.

Critical Paths under _INTERRUPT_InterruptManager in BANK11

    None.

Critical Paths under _main in BANK12

    None.

Critical Paths under _INTERRUPT_InterruptManager in BANK12

    None.

Call Graph Tables:

 ---------------------------------------------------------------------------------
 (Depth) Function   	        Calls       Base Space   Used Autos Params    Refs
 ---------------------------------------------------------------------------------
 (0) _main                                                18    18      0    8695
                                             25 BANK1      8     8      0
                                              0 BANK4     10    10      0
                       _CDCTxService
                     _I2C_Initialize
                  _SYSTEM_Initialize
                    _eeprom_readPage
             _eeprom_storeBurstGroup
                       _getsUSBUSART
                        _putUSBUSART
                      _putrsUSBUSART
 ---------------------------------------------------------------------------------
 (1) _putrsUSBUSART                                        8     6      2     268
                                              5 BANK1      8     6      2
 ---------------------------------------------------------------------------------
 (1) _putUSBUSART                                          4     1      3     503
                                              5 BANK1      4     1      3
 ---------------------------------------------------------------------------------
 (1) _getsUSBUSART                                         4     3      1    2456
                                             16 BANK1      4     3      1
               _USBTransferOnePacket
 ---------------------------------------------------------------------------------
 (1) _eeprom_storeBurstGroup                              19    15      4     883
                                              6 BANK1     19    15      4
                           _ACK_Poll
                    _I2C_MasterStart
                     _I2C_MasterStop
                    _I2C_MasterWrite
 ---------------------------------------------------------------------------------
 (2) _ACK_Poll                                             0     0      0      31
                    _I2C_MasterStart
                     _I2C_MasterStop
                    _I2C_MasterWrite
 ---------------------------------------------------------------------------------
 (1) _eeprom_readPage                                     14    10      4     902
                                              6 BANK1     14    10      4
                  _I2C_MasterSendAck
                 _I2C_MasterSendNack
               _I2C_MasterSetReceive
                    _I2C_MasterStart
                     _I2C_MasterStop
                    _I2C_MasterWrite
 ---------------------------------------------------------------------------------
 (2) _I2C_MasterWrite                                      1     1      0      31
                                              5 BANK1      1     1      0
              _I2C_WaitForCompletion
 ---------------------------------------------------------------------------------
 (2) _I2C_MasterStop                                       0     0      0       0
              _I2C_WaitForCompletion
 ---------------------------------------------------------------------------------
 (2) _I2C_MasterStart                                      0     0      0       0
              _I2C_WaitForCompletion
 ---------------------------------------------------------------------------------
 (2) _I2C_MasterSetReceive                                 0     0      0       0
              _I2C_WaitForCompletion
 ---------------------------------------------------------------------------------
 (2) _I2C_MasterSendNack                                   0     0      0       0
              _I2C_WaitForCompletion
 ---------------------------------------------------------------------------------
 (2) _I2C_MasterSendAck                                    0     0      0       0
              _I2C_WaitForCompletion
 ---------------------------------------------------------------------------------
 (3) _I2C_WaitForCompletion                                0     0      0       0
 ---------------------------------------------------------------------------------
 (1) _SYSTEM_Initialize                                    0     0      0     666
                     _ADC_Initialize
              _OSCILLATOR_Initialize
             _PIN_MANAGER_Initialize
                    _TMR0_Initialize
                    _USBDeviceAttach
                      _USBDeviceInit
                     _WDT_Initialize
 ---------------------------------------------------------------------------------
 (2) _WDT_Initialize                                       0     0      0       0
 ---------------------------------------------------------------------------------
 (2) _USBDeviceInit                                        5     5      0     396
                                              5 BANK1      5     5      0
 ---------------------------------------------------------------------------------
 (2) _USBDeviceAttach                                      1     1      0       0
                                              5 BANK1      1     1      0
 ---------------------------------------------------------------------------------
 (2) _TMR0_Initialize                                      1     1      0     135
                                              7 BANK1      1     1      0
           _TMR0_SetInterruptHandler
 ---------------------------------------------------------------------------------
 (3) _TMR0_SetInterruptHandler                             2     0      2     135
                                              5 BANK1      2     0      2
 ---------------------------------------------------------------------------------
 (2) _PIN_MANAGER_Initialize                               0     0      0     135
         _IOCAF5_SetInterruptHandler
 ---------------------------------------------------------------------------------
 (3) _IOCAF5_SetInterruptHandler                           2     0      2     135
                                              5 BANK1      2     0      2
 ---------------------------------------------------------------------------------
 (2) _OSCILLATOR_Initialize                                0     0      0       0
 ---------------------------------------------------------------------------------
 (2) _ADC_Initialize                                       0     0      0       0
 ---------------------------------------------------------------------------------
 (1) _I2C_Initialize                                       0     0      0       0
 ---------------------------------------------------------------------------------
 (1) _CDCTxService                                         3     3      0    2189
                                             16 BANK1      3     3      0
               _USBTransferOnePacket
 ---------------------------------------------------------------------------------
 (2) _USBTransferOnePacket                                11     7      4    1988
                                              5 BANK1     11     7      4
 ---------------------------------------------------------------------------------
 Estimated maximum stack depth 3
 ---------------------------------------------------------------------------------
 (Depth) Function   	        Calls       Base Space   Used Autos Params    Refs
 ---------------------------------------------------------------------------------
 (5) _INTERRUPT_InterruptManager                           0     0      0   30448
                           _TMR0_ISR
                     _USBDeviceTasks
 ---------------------------------------------------------------------------------
 (6) _USBDeviceTasks                                       3     3      0   30448
                                              2 BANK1      3     3      0
          _USBCtrlEPAllowStatusStage
                   _USBCtrlEPService
      _USBIncrement1msInternalTimers
                    _USBStallHandler
                         _USBSuspend
                 _USBWakeFromSuspend
    _USER_USB_CALLBACK_EVENT_HANDLER
                    i1_USBDeviceInit
 ---------------------------------------------------------------------------------
 (7) i1_USBDeviceInit                                      5     5      0     272
                                              0 COMMON     5     5      0
 ---------------------------------------------------------------------------------
 (7) _USBWakeFromSuspend                                   1     1      0    3879
                                              6 BANK0      1     1      0
    _USER_USB_CALLBACK_EVENT_HANDLER
 ---------------------------------------------------------------------------------
 (7) _USBSuspend                                           1     1      0    3879
                                              6 BANK0      1     1      0
    _USER_USB_CALLBACK_EVENT_HANDLER
 ---------------------------------------------------------------------------------
 (7) _USBStallHandler                                      1     1      0       0
                                              0 COMMON     1     1      0
 ---------------------------------------------------------------------------------
 (7) _USBIncrement1msInternalTimers                        1     1      0       0
                                              0 COMMON     1     1      0
 ---------------------------------------------------------------------------------
 (7) _USBCtrlEPService                                     2     2      0   18471
                                              0 BANK1      2     2      0
                _USBCtrlTrfInHandler
               _USBCtrlTrfOutHandler
             _USBCtrlTrfSetupHandler
                             _memcpy
 ---------------------------------------------------------------------------------
 (8) _memcpy                                              10     6      4     363
                                              0 COMMON    10     6      4
 ---------------------------------------------------------------------------------
 (8) _USBCtrlTrfSetupHandler                               1     1      0   17879
                                             15 BANK0      1     1      0
                 _USBCheckStdRequest
           _USBCtrlEPServiceComplete
    _USER_USB_CALLBACK_EVENT_HANDLER
 ---------------------------------------------------------------------------------
 (9) _USBCtrlEPServiceComplete                             2     2      0      92
                                              5 COMMON     2     2      0
            _USBCtrlEPAllowDataStage
          _USBCtrlEPAllowStatusStage
 ---------------------------------------------------------------------------------
 (10) _USBCtrlEPAllowDataStage                             2     2      0      92
                                              3 COMMON     2     2      0
                _USBCtrlTrfTxService
 ---------------------------------------------------------------------------------
 (9) _USBCheckStdRequest                                   2     2      0   13908
                                             13 BANK0      2     2      0
            _USBStdFeatureReqHandler
                _USBStdGetDscHandler
             _USBStdGetStatusHandler
                _USBStdSetCfgHandler
    _USER_USB_CALLBACK_EVENT_HANDLER
 ---------------------------------------------------------------------------------
 (10) _USBStdSetCfgHandler                                 5     5      0    5633
                                              6 BANK0      5     5      0
    _USER_USB_CALLBACK_EVENT_HANDLER
                             _memset
 ---------------------------------------------------------------------------------
 (11) _memset                                             14     8      6    1519
                                              0 COMMON    14     8      6
 ---------------------------------------------------------------------------------
 (10) _USBStdGetStatusHandler                              4     4      0      46
                                              0 COMMON     4     4      0
 ---------------------------------------------------------------------------------
 (10) _USBStdGetDscHandler                                 3     3      0       0
                                              0 COMMON     3     3      0
 ---------------------------------------------------------------------------------
 (10) _USBStdFeatureReqHandler                             7     7      0    4350
                                              6 BANK0      7     7      0
    _USER_USB_CALLBACK_EVENT_HANDLER
 ---------------------------------------------------------------------------------
 (7) _USER_USB_CALLBACK_EVENT_HANDLER                      6     0      6    3879
                                              0 BANK0      6     0      6
                          _CDCInitEP
                 _USBCheckCDCRequest
 ---------------------------------------------------------------------------------
 (8) _USBCheckCDCRequest                                   2     2      0       0
                                              0 COMMON     2     2      0
 ---------------------------------------------------------------------------------
 (8) _CDCInitEP                                            1     1      0    1187
                                             13 COMMON     1     1      0
                  _USBEnableEndpoint
             i1_USBTransferOnePacket
 ---------------------------------------------------------------------------------
 (9) i1_USBTransferOnePacket                              11     7      4     454
                                              0 COMMON    11     7      4
 ---------------------------------------------------------------------------------
 (9) _USBEnableEndpoint                                    6     5      1     733
                                              7 COMMON     6     5      1
               _USBConfigureEndpoint
 ---------------------------------------------------------------------------------
 (10) _USBConfigureEndpoint                                7     6      1     400
                                              0 COMMON     7     6      1
 ---------------------------------------------------------------------------------
 (8) _USBCtrlTrfOutHandler                                 2     2      0     114
                                              6 COMMON     2     2      0
                _USBCtrlTrfRxService
 ---------------------------------------------------------------------------------
 (9) _USBCtrlTrfRxService                                  4     4      0     114
                                              2 COMMON     4     4      0
          _USBCtrlEPAllowStatusStage
 ---------------------------------------------------------------------------------
 (10) _USBCtrlEPAllowStatusStage                           2     2      0       0
                                              0 COMMON     2     2      0
 ---------------------------------------------------------------------------------
 (8) _USBCtrlTrfInHandler                                  3     3      0     115
                                              3 COMMON     3     3      0
                _USBCtrlTrfTxService
 ---------------------------------------------------------------------------------
 (11) _USBCtrlTrfTxService                                 3     3      0      92
                                              0 COMMON     3     3      0
 ---------------------------------------------------------------------------------
 (6) _TMR0_ISR                                             1     1      0       0
                                              0 COMMON     1     1      0
                   Absolute function *
       _TMR0_DefaultInterruptHandler *
 ---------------------------------------------------------------------------------
 (7) _TMR0_DefaultInterruptHandler                         0     0      0       0
 ---------------------------------------------------------------------------------
 (7) Absolute function(Fake)                               0     0      0       0
 ---------------------------------------------------------------------------------
 Estimated maximum stack depth 11
 ---------------------------------------------------------------------------------

 Call Graph Graphs:

 _main (ROOT)
   _CDCTxService
     _USBTransferOnePacket
   _I2C_Initialize
   _SYSTEM_Initialize
     _ADC_Initialize
     _OSCILLATOR_Initialize
     _PIN_MANAGER_Initialize
       _IOCAF5_SetInterruptHandler
     _TMR0_Initialize
       _TMR0_SetInterruptHandler
     _USBDeviceAttach
     _USBDeviceInit
     _WDT_Initialize
   _eeprom_readPage
     _I2C_MasterSendAck
       _I2C_WaitForCompletion
     _I2C_MasterSendNack
       _I2C_WaitForCompletion
     _I2C_MasterSetReceive
       _I2C_WaitForCompletion
     _I2C_MasterStart
       _I2C_WaitForCompletion
     _I2C_MasterStop
       _I2C_WaitForCompletion
     _I2C_MasterWrite
       _I2C_WaitForCompletion
   _eeprom_storeBurstGroup
     _ACK_Poll
       _I2C_MasterStart
         _I2C_WaitForCompletion
       _I2C_MasterStop
         _I2C_WaitForCompletion
       _I2C_MasterWrite
         _I2C_WaitForCompletion
     _I2C_MasterStart
       _I2C_WaitForCompletion
     _I2C_MasterStop
       _I2C_WaitForCompletion
     _I2C_MasterWrite
       _I2C_WaitForCompletion
   _getsUSBUSART
     _USBTransferOnePacket
   _putUSBUSART
   _putrsUSBUSART

 _INTERRUPT_InterruptManager (ROOT)
   _TMR0_ISR
     Absolute function(Fake) *
     _TMR0_DefaultInterruptHandler *
   _USBDeviceTasks
     _USBCtrlEPAllowStatusStage
     _USBCtrlEPService
       _USBCtrlTrfInHandler
         _USBCtrlTrfTxService
       _USBCtrlTrfOutHandler
         _USBCtrlTrfRxService
           _USBCtrlEPAllowStatusStage
       _USBCtrlTrfSetupHandler
         _USBCheckStdRequest
           _USBStdFeatureReqHandler
             _USER_USB_CALLBACK_EVENT_HANDLER
               _CDCInitEP
                 _USBEnableEndpoint
                   _USBConfigureEndpoint
                 i1_USBTransferOnePacket
               _USBCheckCDCRequest
           _USBStdGetDscHandler
           _USBStdGetStatusHandler
           _USBStdSetCfgHandler
             _USER_USB_CALLBACK_EVENT_HANDLER
               _CDCInitEP
                 _USBEnableEndpoint
                   _USBConfigureEndpoint
                 i1_USBTransferOnePacket
               _USBCheckCDCRequest
             _memset
           _USER_USB_CALLBACK_EVENT_HANDLER
             _CDCInitEP
               _USBEnableEndpoint
                 _USBConfigureEndpoint
               i1_USBTransferOnePacket
             _USBCheckCDCRequest
         _USBCtrlEPServiceComplete
           _USBCtrlEPAllowDataStage
             _USBCtrlTrfTxService
           _USBCtrlEPAllowStatusStage
         _USER_USB_CALLBACK_EVENT_HANDLER
           _CDCInitEP
             _USBEnableEndpoint
               _USBConfigureEndpoint
             i1_USBTransferOnePacket
           _USBCheckCDCRequest
       _memcpy
     _USBIncrement1msInternalTimers
     _USBStallHandler
     _USBSuspend
       _USER_USB_CALLBACK_EVENT_HANDLER
         _CDCInitEP
           _USBEnableEndpoint
             _USBConfigureEndpoint
           i1_USBTransferOnePacket
         _USBCheckCDCRequest
     _USBWakeFromSuspend
       _USER_USB_CALLBACK_EVENT_HANDLER
         _CDCInitEP
           _USBEnableEndpoint
             _USBConfigureEndpoint
           i1_USBTransferOnePacket
         _USBCheckCDCRequest
     _USER_USB_CALLBACK_EVENT_HANDLER
       _CDCInitEP
         _USBEnableEndpoint
           _USBConfigureEndpoint
         i1_USBTransferOnePacket
       _USBCheckCDCRequest
     i1_USBDeviceInit

 Address spaces:
Name               Size   Autos  Total    Cost      Usage
BIGRAM             3F0      0       0       0        0.0%
NULL                 0      0       0       0        0.0%
CODE                 0      0       0       0        0.0%
BITCOMMON            E      0       0       1        0.0%
BITSFR0              0      0       0       1        0.0%
SFR0                 0      0       0       1        0.0%
COMMON               E      E       E       2      100.0%
BITSFR1              0      0       0       2        0.0%
SFR1                 0      0       0       2        0.0%
BITSFR2              0      0       0       3        0.0%
SFR2                 0      0       0       3        0.0%
STACK                0      0       0       3        0.0%
BITBANK0            10      0       0       4        0.0%
BITSFR3              0      0       0       4        0.0%
SFR3                 0      0       0       4        0.0%
BANK0               10     10      10       5      100.0%
BITSFR4              0      0       0       5        0.0%
SFR4                 0      0       0       5        0.0%
BITBANK1            50      0       0       6        0.0%
BITSFR5              0      0       0       6        0.0%
SFR5                 0      0       0       6        0.0%
BANK1               30     21      26       7       79.2%
BITSFR6              0      0       0       7        0.0%
SFR6                 0      0       0       7        0.0%
BITBANK2            50      0       0       8        0.0%
BITSFR7              0      0       0       8        0.0%
SFR7                 0      0       0       8        0.0%
BITSFR8              0      0       0       9        0.0%
SFR8                 0      0       0       9        0.0%
BANK2                0      0       0       9        0.0%
BITBANK3            50      0       0      10        0.0%
BITSFR9              0      0       0      10        0.0%
SFR9                 0      0       0      10        0.0%
BANK3               40      0      40      11      100.0%
BITSFR10             0      0       0      11        0.0%
SFR10                0      0       0      11        0.0%
BITBANK4            50      0       0      12        0.0%
BITSFR11             0      0       0      12        0.0%
SFR11                0      0       0      12        0.0%
BANK4               50      A      41      13       81.2%
BITSFR12             0      0       0      13        0.0%
SFR12                0      0       0      13        0.0%
BITBANK5            50      0       0      14        0.0%
BITSFR13             0      0       0      14        0.0%
SFR13                0      0       0      14        0.0%
BANK5               50      0      40      15       80.0%
BITSFR14             0      0       0      15        0.0%
SFR14                0      0       0      15        0.0%
BITBANK6            50      0       0      16        0.0%
BITSFR15             0      0       0      16        0.0%
SFR15                0      0       0      16        0.0%
BANK6               50      0      40      17       80.0%
BITSFR16             0      0       0      17        0.0%
SFR16                0      0       0      17        0.0%
BITBANK7            50      0       0      18        0.0%
BITSFR17             0      0       0      18        0.0%
SFR17                0      0       0      18        0.0%
BANK7               20      0       0      19        0.0%
BITSFR18             0      0       0      19        0.0%
SFR18                0      0       0      19        0.0%
BITSFR19             0      0       0      20        0.0%
SFR19                0      0       0      20        0.0%
ABS                  0      0     145      20        0.0%
BITBANK8            50      0       0      21        0.0%
BITSFR20             0      0       0      21        0.0%
SFR20                0      0       0      21        0.0%
BITSFR21             0      0       0      22        0.0%
SFR21                0      0       0      22        0.0%
BANK8                0      0       0      22        0.0%
BITBANK9            50      0       0      23        0.0%
BITSFR22             0      0       0      23        0.0%
SFR22                0      0       0      23        0.0%
BITSFR23             0      0       0      24        0.0%
SFR23                0      0       0      24        0.0%
BANK9                0      0       0      24        0.0%
BITBANK10           50      0       0      25        0.0%
BITSFR24             0      0       0      25        0.0%
SFR24                0      0       0      25        0.0%
BITSFR25             0      0       0      26        0.0%
SFR25                0      0       0      26        0.0%
BANK10               0      0       0      26        0.0%
BITBANK11           50      0       0      27        0.0%
BITSFR26             0      0       0      27        0.0%
SFR26                0      0       0      27        0.0%
BITSFR27             0      0       0      28        0.0%
SFR27                0      0       0      28        0.0%
BANK11               0      0       0      28        0.0%
BITBANK12           30      0       0      29        0.0%
BITSFR28             0      0       0      29        0.0%
SFR28                0      0       0      29        0.0%
BITSFR29             0      0       0      30        0.0%
SFR29                0      0       0      30        0.0%
BANK12               0      0       0      30        0.0%
BITSFR30             0      0       0      31        0.0%
SFR30                0      0       0      31        0.0%
DATA                 0      0     145      31        0.0%
BITSFR31             0      0       0      32        0.0%
SFR31                0      0       0      32        0.0%


Microchip Technology PIC Macro Assembler V2.31 build 20201012212115 
Symbol Table                                                                                   Sun Apr 11 06:29:57 2021

               __size_of_I2C_MasterSendNack 0007                                  _USB_SD_Ptr 189F  
                  ??_eeprom_storeBurstGroup 00AA                               _USBDeviceInit 0F4C  
                        __size_of_CDCInitEP 0037                             _timer0ReloadVal 01D3  
      USER_USB_CALLBACK_EVENT_HANDLER@event 0060        USER_USB_CALLBACK_EVENT_HANDLER@pdata 0062  
                                       l141 0FFF                                         l136 0F8F  
               __end_of_USBStdGetDscHandler 0AFA                                         l177 0B84  
                                       l612 12ED                                         l196 137F  
                                       l197 137E                                         l615 12F2  
                                       l199 138A                                         l633 12A5  
                                       l609 1318                                         l618 1275  
                                       l474 16A3                                         l900 1288  
                                       l725 1331                                         l750 12B7  
                                       l902 128D                                         l478 136B  
                                       l903 128E                                         l496 06CD  
                                       l912 12C0                                         l921 129C  
                                       l489 1550                                         l906 1281  
                                       l915 127B                                         l676 13F0  
                                       _BDT 0020                                         l909 1287  
                                       l918 1295                                         l687 12AE  
                                       l936 0E9F                                         l856 0311  
                                       l892 12CC                                         l956 095C  
                                       l895 12F3                                         l897 1302  
                                       _UIE 0E92                                         _UIR 0E90  
             __size_of_I2C_MasterSetReceive 0006                                  _USBSuspend 138B  
                      USBStdSetCfgHandler@i 006A                        USBStdSetCfgHandler@p 0067  
                                       wreg 0009                              _USBDeviceTasks 04C1  
                            _USBDeviceState 01EB          __end_of_IOCAF5_SetInterruptHandler 12AF  
                _IOCAF5_SetInterruptHandler 12A6                       ??_USBCtrlTrfRxService 0072  
                            ??_getsUSBUSART 00B1                    USBEnableEndpoint@options 0077  
                USBConfigureEndpoint@handle 0076                                        l6001 0AFC  
                                      l6003 0B01                                        l6021 0B4F  
                                      l6013 0B1D                                        l6005 0B0B  
                                      l6101 12FF                                        l6023 0B68  
                                      l6015 0B2C                                        l6007 0B14  
                                      l6031 1372                                        l6111 1296  
                                      l6103 1276                                        l6025 0B80  
                                      l6017 0B38                                        l6009 0B1A  
                                      l6041 1384                                        l6033 1375  
                                      l6113 1299                                        l6105 1278  
                                      l7001 026E                                        l6019 0B4A  
                                      l6051 13D8                                        l6043 13CD  
                                      l6035 1377                                        l6107 128F  
                                      l7003 0273                                        l6301 0628  
                                      l6061 13E8                                        l6053 13E0  
                                      l6045 13D1                                        l6037 1379  
                                      l6029 136C                                        l6109 1292  
                                      l7021 02AF                                        l7013 0285  
                                      l7005 027E                                        l6311 0646  
                                      l6303 062D                                        l6063 12E5  
                                      l6055 13E4                                        l6047 13D4  
                                      l6039 137B                                        l6071 1272  
                                      l7023 02BB                                        l7007 0283  
                                      l7031 02D4                                        l6321 066C  
                                      l6313 064B                                        l6305 0633  
                                      l6081 12A3                                        l6073 129D  
                                      l6065 12E8                                        l6057 13E6  
                                      l6049 13D6                                        l6401 0E21  
                                      l6241 134F                                        l7041 02F1  
                                      l7033 02DA                                        l7025 02C1  
                                      l6331 068F                                        l6323 0670  
                                      l6307 0639                                        l6075 12A0  
                                      l6067 12E9                                        l6059 13E7  
                                      l6091 1328                                        l6083 1319  
                                      l6411 0E8F                                        l6403 0E7A  
                                      l6251 1369                                        l6243 1351  
                                      l7043 02FF                                        l7035 02E0  
                                      l7027 02C7                                        l7019 0286  
                                      l6341 06A9                                        l6333 0693  
                                      l6317 0657                                        l6325 0673  
                                      l6309 063E                                        l6077 12A1  
                                      l6069 12EB                                        l6093 1329  
                                      l6085 131E                                        l6421 08DF  
                                      l6413 0E92                                        l6405 0E7F  
                                      l6245 1357                                        l6261 1520  
                                      l6253 1513                                        l7061 0314  
                                      l7045 0304                                        l7037 02E6  
                                      l7029 02CD                                        l6343 06AF  
                                      l6327 067A                                        l6319 0667  
                                      l6335 0696                                        l6079 12A2  
                                      l6087 1321                                        l6351 130C  
                                      l6431 08F4                                        l6423 08E3  
                                      l6095 12F3                                        l6415 0E95  
                                      l6407 0E85                                        l6247 1365  
                                      l6271 153E                                        l6263 1524  
                                      l6255 1515                                        l7071 035B  
                                      l7063 033D                                        l7055 0313  
                                      l7047 030D                                        l7039 02EE  
                                      l6345 06B4                                        l6329 068A  
                                      l6337 069C                                        l6281 05E6  
                                      l6361 12C3                                        l6089 1327  
                                      l6353 130F                                        l6433 08F7  
                                      l6425 08E6                                        l6097 12F6  
                                      l6417 0E9A                                        l6409 0E89  
                                      l6249 1367                                        l6273 154B  
                                      l6265 1528                                        l6257 151B  
                                      l7065 0349                                        l7049 030F  
                                      l7073 0361                                        l6339 06A2  
                                      l6347 06CB                                        l6291 05FF  
                                      l6283 05ED                                        l6363 12C5  
                                      l6355 1312                                        l6451 090A  
                                      l6427 08EA                                        l6419 08DA  
                                      l6099 12FA                                        l6275 154C  
                                      l6259 151E                                        l7067 034F  
                                      l6293 0604                                        l6285 05F5  
                                      l6365 12C8                                        l6357 1315  
                                      l6349 1303                                        l6453 090D  
                                      l6445 08FE                                        l6429 08EF  
                                      l6381 0E09                                        l6373 0E04  
                                      l6277 154E                                        l6269 152E  
                                      l7069 0355                                        l6295 0607  
                                      l6287 05F8                                        l6279 05E4  
                                      l6367 12CA                                        l6359 12C1  
                                      l5911 0F6B                                        l5903 0F58  
                                      l6471 0953                                        l6463 0941  
                                      l6455 0931                                        l6447 0901  
                                      l6439 08FD                                        l6391 0E1E  
                                      l6383 0E0D                                        l6297 060D  
                                      l6289 05FE                                        l5921 0F85  
                                      l5913 0F72                                        l5905 0F5D  
                                      l6473 0959                                        l6465 0944  
                                      l6457 0936                                        l6449 0907  
                                      l6385 0E10                                        l6369 0DF6  
                                      l6299 0621                                        l5931 0F94  
                                      l5923 0F89                                        l5907 0F61  
                                      l6467 0949                                        l6459 093A  
                                      l6395 0E20                                        l6387 0E14  
                                      l6379 0E05                                        l5941 0FA4  
                                      l5933 0F9A                                        l5925 0F91  
                                      l5909 0F65                                        l6469 094F  
                                      l6389 0E19                                        l6901 1649  
                                      l5943 0FB0                                        l5935 0F9C  
                                      l5927 0F92                                        l5919 0F74  
                                      l6911 167F                                        l6903 1651  
                                      l5961 0FE0                                        l5953 0FB5  
                                      l5945 0FB1                                        l5937 0F9D  
                                      l5929 0F93                                        l5849 1288  
                                      l5881 127C                                        l6913 1684  
                                      l6905 165D                                        l5971 0FF1  
                                      l5963 0FE3                                        l5955 0FD1  
                                      l5947 0FB2                                        l5939 0F9F  
                                      l5883 127E                                        l5891 1284  
                                      l6915 168C                                        l6907 1668  
                                      l5877 12A6                                        l5973 0FF3  
                                      l5965 0FE8                                        l5957 0FD5  
                                      l5949 0FB3                                        l5893 0F4C  
                                      l5885 12BA                                        l6909 166B  
                                      l6917 16A2                                        l5879 12AF  
                                      l5975 0FFC                                        l5967 0FEA  
                                      l5959 0FDB                                        l5895 0F4E  
                                      l5887 12BD                                        l5977 0FFE  
                                      l5969 0FF0                                        l5897 0F52  
                                      l5889 1282                                        l6961 020F  
                                      l6971 021B                                        l6963 0212  
                                      l6981 0230                                        l6973 0220  
                                      l6965 0213                                        l6983 0239  
                                      l6991 0250                                        l6975 0224  
                                      l6967 0214                                        l6959 020C  
                                      l6897 1641                                        l6993 0257  
                                      l6985 023B                                        l6977 022A  
                                      l6969 021A                                        l6899 1643  
                                      l6995 025E                                        l6987 0249  
                                      l6979 022F                                        l6997 0264  
                                      l6989 024E                                        l6999 0267  
                                      STR_1 18AF                                        _LATA 010C  
                                      _LATB 010D                                        _LATC 010E  
                                      u5200 152D                                        u5201 152C  
                                      u5210 153E                                        u5211 153D  
                                      u5300 0679                                        u5220 05ED  
                                      u5301 0678                                        u5221 05EC  
                                      u5310 069C                                        u5230 05F5  
                                      u5311 069B                                        u5231 05F4  
                                      u5320 06A2                                        u5240 05FE  
                                      u5400 094F                                        u5321 06A1  
                                      u5241 05FD                                        u5401 094E  
                                      u5330 06A9                                        u5250 0604  
                                      u5410 0959                                        u5331 06A8  
                                      u5251 0603                                        u5411 0958  
                                      u5260 060D                                        u5340 0E03  
                                      u5180 1357                                        u5261 060C  
                                      u5341 0E02                                        u5181 1356  
                                      u5270 062D                                        u5350 0E85  
                                      u5190 151B                                        u5271 062C  
                                      u5351 0E84                                        u5191 151A  
                eeprom_storeBurstGroup@data 00A8                                        u5280 0633  
                                      u5360 0E8F                                        u5281 0632  
                                      u5361 0E8E                                        u5290 0656  
                                      u5370 0E9F                                        u5291 0655  
                                      u5371 0E9E                                        u4740 128D  
                                      u5380 0936                                        u4900 12FF  
                                      u4741 128C                                        u5381 0935  
                                      u4901 12FE                                        u4750 0F6B  
                                      u5390 0940                                        u4751 0F6A  
                                      u5391 093F                                        u4840 0B01  
                                      u4841 0B00                                        u4850 0B1A  
                                      u4770 0F8F                                        u5730 1649  
                                      u4851 0B19                                        u4771 0F8E  
                                      u5731 1648                                        u4860 0B4F  
                                      u4780 0FA4                                        u5740 1651  
                                      u5900 02D3                                        u5820 021A  
                                      u4861 0B4E                                        u4781 0FA3  
                                      u4765 0F77                                        u5741 1650  
                                      u5901 02D2                                        u5821 0219  
                                      u4870 1372                                        u4790 0FDB  
                                      u5750 165D                                        u5910 02DA  
                                      u5830 0220                                        u4871 1371  
                                      u4791 0FDA                                        u5751 165C  
                                      u5911 02D9                                        u5831 021F  
                     ??_USBCtrlTrfTxService 0070                                        u4880 1384  
                                      u5760 168C                                        u5920 02E6  
                                      u5840 022A                                        u4881 1383  
                                      u5761 168B                                        u5921 02E5  
                                      u5841 0229                                        u4890 12F2  
                                      u5930 030D                                        u5850 022F  
                                      u4891 12F1                                        u5931 030C  
                                      u5851 022E                                        u5940 0355  
                                      u5860 0239                                        u5941 0354  
                                      u5861 0238                                        u5950 0361  
                                      u5870 025E                                        u5951 0360  
                                      u5871 025D                                        _UCFG 0E91  
                                      u5880 0273                                        u5881 0272  
                                      u5890 02C7                                        u5891 02C6  
                                      _UEP0 0E98                                        _UEP1 0E99  
                                      _UEIE 0E97                                        _UEIR 0E93  
                                      _UCON 0E8E                                        _TMR0 0015  
                                      _WPUA 020C                                        _WPUB 020D  
                           _CDCDataInHandle 01CC      USBStdFeatureReqHandler@current_ep_data 006A  
                                      _pDst 01E8                                        _main 020C  
                                      fsr0h 0005                                        fsr1h 0007  
                                      indf0 0000                                        fsr0l 0004  
                                      indf1 0001                                 _BaudRateGen 0230  
                                      fsr1l 0006                             _USBDeviceAttach 136C  
                                      btemp 007E                                        start 0026  
                          __end_of_ACK_Poll 1303                  __end_of_USBCheckStdRequest 09E5  
                    ??_USBCtrlTrfOutHandler 0076                   ??_USBStdFeatureReqHandler 0066  
                    __size_of_putrsUSBUSART 003E                    ??_USBStdGetStatusHandler 0070  
                            ?_USBDeviceInit 0070                     __end_of_TMR0_Initialize 1332  
            ??_TMR0_DefaultInterruptHandler 0070              __size_of_OSCILLATOR_Initialize 000E  
                          ?_I2C_MasterStart 0070                            ?_I2C_MasterWrite 0070  
             __end_of_OSCILLATOR_Initialize 12F3                                 _writeBuffer 0320  
                                     ?_main 0070           __size_of_USBCtrlEPServiceComplete 009F  
                    __end_of_USBDeviceTasks 05E4                   ?_USBCtrlEPServiceComplete 0070  
                                     i1l203 17FF                                       i1l213 0861  
                                     i1l221 0CFA                                       i1l301 1442  
                                     i1l141 0DF5                                       i1l310 13CC  
                                     i1l207 17FF                                       i1l231 0D4B  
                                     i1l304 13AA                                       i1l136 0D8D  
                                     i1l321 15E7                                       i1l153 053C  
                                     i1l234 1737                                       i1l218 1594  
                                     i1l171 1415                                       i1l147 04EF  
                                     i1l148 05E3                                       i1l341 08D7  
                                     i1l157 0575                                       i1l246 1788  
                                     i1l342 08D9                                       i1l334 08D1  
                                     i1l318 163E                                       i1l158 05E1  
                                     i1l159 057C                                       i1l328 1512  
                                     i1l257 0F42                                       i1l249 0EB8  
                                     i1l177 0A6E                                       i1l442 1711  
                                     i1l282 0AF9                                       i1l290 07A6  
                                     i1l346 09E4                                       i1l259 0F4B  
                                     i1l291 07A9                                       i1l268 0C11  
                                     i1l348 0967                                       i1l357 099D  
                                     i1l382 0479                                       i1l286 079C  
                                     i1l455 14D9                                       i1l391 134E  
                                     i1l384 048C                                       i1l296 07FE  
                                     i1l289 07F0                                       i1l386 04C0  
                                     i1l549 14A2                                       i1l753 07FF  
                                     i1l747 0CAC                                       i1l773 0024  
                                     i1l774 0024                                       i1l768 0012  
                                     _UADDR 0E96                                       _TRISA 008C  
                                     _TRISB 008D                                       _TRISC 008E  
                                     _USTAT 0E8F           __size_of_TMR0_SetInterruptHandler 0009  
        __size_of_USBCtrlEPAllowStatusStage 0077                   ?_TMR0_SetInterruptHandler 00A5  
           __end_of_USBCtrlEPAllowDataStage 0862                            __end_of_TMR0_ISR 0CAD  
                                     _sd000 18B5                                       _sd001 1843  
                                     _sd002 1877                                       _sd003 18A7  
            ?_USBIncrement1msInternalTimers 0070                              _WDT_Initialize 1272  
                                     pclath 000A                                main@testvar1 0256  
                              main@testvar2 0258                           __end_of_CDCInitEP 14DA  
                                     status 0003                                       wtemp0 007E  
  eeprom_storeBurstGroup@storeburst_tempcol 00B8    eeprom_storeBurstGroup@storeburst_temprow 00B7  
                           putUSBUSART@data 00A5                __size_of_USBStdSetCfgHandler 008D  
                     main@PUTUSBUSART_COL_C 025D                             __initialization 0028  
                     main@PUTUSBUSART_COL_K 025B                                __end_of_main 0367  
                     main@PUTUSBUSART_ROW_C 025C                       main@PUTUSBUSART_ROW_K 025A  
                     _control_signal_bitmap 01D8             __size_of_eeprom_storeBurstGroup 00AA  
               ?_INTERRUPT_InterruptManager 0070                   __size_of_USBCtrlEPService 0057  
                                    ??_main 00B9                             ?_USBDeviceTasks 0070  
                               ?_USBSuspend 0070                             i1_USBDeviceInit 0D4C  
                    __end_of_WDT_Initialize 1276                                _cdc_mem_type 01D9  
                             _putrsUSBUSART 1513                     __end_of_USBDeviceAttach 138B  
                                    _ADCON0 009D                                      _ADCON1 009E  
                                    _ADCON2 009F                            _CDCDataOutHandle 01CE  
                                    _ACTCON 039B                                      _ADRESH 009C  
                                    _ADRESL 009B                                      _APFCON 011D  
                                    _ANSELA 018C                                      _ANSELB 018D  
                                    _ANSELC 018E                             getsUSBUSART@len 00B0  
                                    _BORCON 0116                       __size_of_CDCTxService 00EA  
                                    i1l4003 0AE5                                      i1l4101 044C  
                                    i1l4021 07C7                                      i1l4013 079E  
                                    i1l4111 0471                                      i1l4103 0451  
                                    i1l4031 07F5                                      i1l4023 07CF  
                                    i1l4015 07A3                                      i1l5001 0C72  
                                    i1l4201 0EEE                                      i1l4121 04AC  
                                    i1l4113 047D                                      i1l4105 0461  
                                    i1l4041 0367                                      i1l4033 07F9  
                                    i1l4025 07D7                                      i1l4017 07B0  
                                    i1l4009 0798                                      i1l5011 0CA4  
                                    i1l5003 0C75                                      i1l4211 0F27  
                                    i1l4203 0EFB                                      i1l4123 04B8  
                                    i1l4115 0485                                      i1l4107 0466  
                                    i1l4051 0383                                      i1l4043 036D  
                                    i1l4035 07FA                                      i1l4019 07BC  
                                    i1l4131 0CBC                                      i1l1491 1470  
                                    i1l5013 0CA9                                      i1l5005 0C79  
                                    i1l4221 0F48                                      i1l4213 0F34  
                                    i1l4205 0F02                                      i1l4117 0494  
                                    i1l4109 046D                                      i1l4061 03A2  
                                    i1l4045 0374                                      i1l4053 0385  
                                    i1l4029 07DC                                      i1l4141 0CD5  
                                    i1l4133 0CC1                                      i1l4125 0CAD  
                                    i1l5007 0C8B                                      i1l4215 0F3A  
                                    i1l4207 0F0E                                      i1l4311 14E6  
                                    i1l4119 04A4                                      i1l4071 03DE  
                                    i1l4063 03A9                                      i1l4055 038B  
                                    i1l4047 0376                                      i1l1495 0797  
                                    i1l4151 0CFF                                      i1l4143 0CE2  
                                    i1l4135 0CC4                                      i1l4127 0CB4  
                                    i1l5009 0C99                                      i1l4217 0F3F  
                                    i1l4209 0F1A                                      i1l4313 14EB  
                                    i1l4321 1511                                      i1l4305 14DA  
                                    i1l4081 040A                                      i1l4073 03E9  
                                    i1l4065 03AF                                      i1l4057 0392  
                                    i1l4049 037D                                      i1l4161 0D0F  
                                    i1l4153 0D04                                      i1l4145 0CE8  
                                    i1l4137 0CC6                                      i1l4129 0CB8  
                                    i1l4331 087C                                      i1l4323 0862  
                                    i1l4219 0F43                                      i1l4315 14F8  
                                    i1l4307 14E1                                      i1l4091 042B  
                                    i1l4083 0410                                      i1l4075 03EF  
                                    i1l4067 03C5                                      i1l4059 0399  
                                    i1l4171 0D37                                      i1l4163 0D14  
                                    i1l4155 0D09                                      i1l4147 0CED  
                                    i1l4139 0CC8                                      i1l4341 089E  
                                    i1l4333 0881                                      i1l4325 086B  
                                    i1l4181 0EA0                                      i1l4317 1505  
                                    i1l4309 14E5                                      i1l3701 16B6  
                                    i1l4093 0430                                      i1l4085 0418  
                                    i1l4077 03F3                                      i1l4069 03DA  
                                    i1l4173 0D3D                                      i1l4157 0D0C  
                                    i1l4165 0D18                                      i1l4149 0CF4  
                                    i1l4501 143C                                      i1l4351 08C5  
                                    i1l4343 08A1                                      i1l4335 0887  
                                    i1l4327 0871                                      i1l4191 0ECD  
                                    i1l4183 0EA6                                      i1l4319 150B  
                                    i1l3711 16CA                                      i1l3703 16BB  
                                    i1l4087 041C                                      i1l4095 0436  
                                    i1l4079 03FF                                      i1l4175 0D42  
                                    i1l4167 0D1D                                      i1l4159 0D0E  
                                    i1l4271 1455                                      i1l4503 143E  
                                    i1l3801 175E                                      i1l4353 08D5  
                                    i1l4345 08A8                                      i1l4329 0877  
                                    i1l4337 088C                                      i1l4193 0ED1  
                                    i1l4185 0EB4                                      i1l3641 156F  
                                    i1l3721 16DF                                      i1l3713 16CB  
                                    i1l4097 043C                                      i1l4089 0424  
                                    i1l4177 0D44                                      i1l4169 0D2A  
                                    i1l4273 1459                                      i1l6201 0597  
                                    i1l6121 04CD                                      i1l3811 1779  
                                    i1l3803 1762                                      i1l4355 08D8  
                                    i1l4347 08B4                                      i1l4339 0891  
                                    i1l4195 0ED5                                      i1l4187 0EBF  
                                    i1l3651 158F                                      i1l3643 1573  
                                    i1l3731 16F1                                      i1l3723 16E1  
                                    i1l3715 16CD                                      i1l3707 16C1  
                                    i1l4099 0444                                      i1l4275 1460  
                                    i1l4267 1444                                      i1l6211 05C7  
                                    i1l6203 059C                                      i1l6131 04DE  
                                    i1l6123 04CE                                      i1l6115 04C1  
                                    i1l3813 177D                                      i1l3805 1766  
                                    i1l4349 08B9                                      i1l4197 0EDB  
                                    i1l4189 0EC1                                      i1l3645 1578  
                                    i1l3637 1552                                      i1l3661 1405  
                                    i1l3653 13F2                                      i1l3733 16F6  
                                    i1l3725 16E3                                      i1l3717 16D2  
                                    i1l3709 16C6                                      i1l3901 080B  
                                    i1l4269 144D                                      i1l4277 1464  
                                    i1l4461 13AD                                      i1l4701 0DAD  
                                    i1l6213 05D6                                      i1l6205 05AD  
                                    i1l6141 04F7                                      i1l6133 04E4  
                                    i1l6125 04CF                                      i1l6117 04C7  
                                    i1l3815 1781                                      i1l3807 1768  
                                    i1l4199 0EE1                                      i1l3647 1582  
                                    i1l3639 1556                                      i1l3663 140F  
                                    i1l3655 13F6                                      i1l3671 09FE  
                                    i1l3751 14B4                                      i1l3743 14A3  
                                    i1l3727 16E8                                      i1l3719 16D4  
                                    i1l3911 083E                                      i1l3903 0818  
                                    i1l4471 13CA                                      i1l4463 13BC  
                                    i1l4711 0DDB                                      i1l4703 0DC9  
                                    i1l6215 05DB                                      i1l6207 05BD  
                                    i1l6151 050B                                      i1l6143 04FA  
                                    i1l6135 04E7                                      i1l6119 04CC  
                                    i1l6127 04D5                                      u300_20 0EDB  
                                    i1l3809 176E                                      i1l3817 1783  
                                    u300_21 0EDA                                      i1l3649 158B  
                                    i1l3657 13FB                                      i1l3681 0A22  
                                    i1l3673 0A04                                      i1l3665 09E6  
                                    i1l3753 14BC                                      i1l3745 14AC  
                                    i1l3729 16EC                                      i1l3737 16F8  
                                    i1l7201 1483                                      i1l3761 1471  
                                    i1l3913 0845                                      i1l3905 0825  
                                    i1l4481 139A                                      i1l4473 138B  
                                    i1l4465 13BE                                      i1l4721 0DE9  
                                    i1l4713 0DE0                                      i1l4705 0DCD  
                                    i1l4641 0D4C                                      i1l6209 05C3  
                                    i1l6161 052B                                      i1l6153 050F  
                                    i1l6145 04FC                                      i1l6137 04EC  
                                    i1l6129 04DA                                      i1l3659 13FF  
                                    i1l3683 0A34                                      i1l3667 09EB  
                                    i1l3755 14C4                                      i1l3747 14AD  
                                    i1l7203 149D                                      i1l3763 1472  
                                    i1l3915 0848                                      i1l3907 082B  
                                    i1l4491 134A                                      i1l4483 139B  
                                    i1l4475 138D                                      i1l4467 13C0  
                                    i1l4459 13AB                                      i1l4723 0DF2  
                                    i1l4715 0DE2                                      i1l4707 0DD3  
                                    i1l4651 0D57                                      i1l4643 0D4E  
                                    i1l6163 0531                                      i1l6171 0544  
                                    i1l6155 0512                                      i1l6147 0501  
                                    i1l6139 04F3                                      i1l3781 1720  
                                    i1l3861 1789                                      i1l3685 0A39  
                                    i1l3677 0A07                                      i1l3669 09F5  
                                    i1l3757 14D6                                      i1l3749 14B2  
                                    i1l7205 1700                                      i1l3693 16A4  
                                    i1l3765 1476                                      i1l3917 0856  
                                    i1l3909 0831                                      i1l4485 1332  
                                    i1l4493 1416                                      i1l4477 1393  
                                    i1l4469 13C6                                      i1l4725 0DF4  
                                    i1l4717 0DE6                                      i1l4709 0DD8  
                                    i1l4661 0D71                                      i1l4653 0D5C  
                                    i1l4645 0D52                                      i1l6181 0559  
                                    i1l6173 0549                                      i1l6165 0534  
                                    i1l6157 0517                                      i1l6149 0507  
                                    i1l3791 173E                                      i1l3783 1724  
                                    i1l3871 17A2                                      i1l3863 178F  
                                    i1l3687 0A52                                      i1l3679 0A16  
                                    i1l3759 14D8                                      i1l3919 085C  
                                    i1l4487 133B                                      i1l4495 141B  
                                    i1l4479 1394                                      i1l4719 0DE7  
                                    i1l4671 0D87                                      i1l4655 0D60  
                                    i1l6183 0569                                      i1l6175 054D  
                                    i1l6167 053A                                      i1l6159 051B  
                                    u301_20 0EE1                                      i1l3793 174A  
                                    i1l3785 1729                                      i1l3881 17BA  
                                    i1l3873 17A8                                      i1l3865 1793  
                                    u301_21 0EE0                                      i1l3689 0A6A  
                                    i1l3697 16AD                                      i1l3769 147A  
                                    i1l5721 06DF                                      i1l5713 06CE  
                                    i1l5801 0BF4                                      i1l4489 1341  
                                    i1l4497 1425                                      i1l4681 0D96  
                                    i1l4673 0D8F                                      i1l4657 0D64  
                                    i1l6185 056B                                      i1l6177 0550  
                                    i1l6169 0541                                      i1l3795 174E  
                                    i1l3787 172E                                      i1l3779 1712  
                                    i1l3891 17DE                                      i1l3883 17C2  
                                    i1l3875 17AE                                      i1l3867 1798  
                                    i1l5723 06F1                                      i1l5715 06D2  
                                    i1l5803 0BFB                                      i1l5811 0969  
                                    i1l4499 1430                                      i1l4691 0DA9  
                                    i1l4683 0D98                                      i1l4675 0D90  
                                    i1l4667 0D72                                      i1l4659 0D6A  
                                    i1l6195 0581                                      i1l6187 0572  
                                    i1l6179 0555                                      i1l6531 0006  
                                    i1l3789 1733                                      i1l3893 17EB  
                                    i1l3885 17CE                                      i1l3877 17B4  
                                    i1l3869 179C                                      i1l3981 0A86  
                                    i1l3973 0A6F                                      i1l5741 0776  
                                    i1l5733 0741                                      i1l5805 0C0B  
                                    i1l5821 097E                                      i1l5813 0970  
                                    i1l4693 0DAA                                      i1l4685 0D99  
                                    i1l4677 0D91                                      i1l4669 0D83  
                                    i1l6197 0587                                      i1l6189 057A  
                                    i1l6541 0020                                      i1l6533 000A  
                                    i1l3799 1753                                      i1l3895 17F8  
                                    i1l3887 17D5                                      i1l3879 17B9  
                                    i1l3991 0ABD                                      i1l3983 0A8B  
                                    i1l3975 0A76                                      i1l5751 078D  
                                    i1l5743 077A                                      i1l5735 075F  
                                    i1l5727 06FB                                      i1l5719 06D9  
                                    i1l5831 0994                                      i1l5823 0984  
                                    i1l5815 0974                                      i1l5807 095D  
                                    i1l4695 0DAB                                      i1l4687 0D9B  
                                    i1l4679 0D92                                      i1l6199 0591  
                                    i1l6535 000E                                      u310_20 0881  
                                    u302_20 0F02                                      u310_21 0880  
                                    i1l3889 17D9                                      u302_21 0F01  
                                    i1l3993 0AC3                                      i1l3985 0A9B  
                                    i1l3977 0A7C                                      i1l5753 0791  
                                    i1l5745 077E                                      i1l5729 0737  
                                    i1l5833 0995                                      i1l5825 0986  
                                    i1l5817 0978                                      i1l3897 0802  
                                    i1l4697 0DAC                                      i1l4689 0DA0  
                                    i1l6537 0016                                      i1l4971 0C12  
                                    i1l3995 0AD3                                      i1l3987 0AAA  
                                    i1l3979 0A81                                      i1l5747 0783  
                                    i1l5739 0769                                      i1l5771 0BA0  
                                    i1l5763 0B8D                                      i1l5755 0B85  
                                    i1l7195 09C1                                      i1l5835 099B  
                                    i1l5827 098A                                      i1l5819 097D  
                                    i1l5843 09B9                                      i1l3899 0805  
                                    i1l5851 1595                                      i1l6539 001B  
                                    i1l4981 0C29                                      i1l4973 0C13  
                                    i1l3997 0ADF                                      i1l3989 0ABA  
                                    i1l7197 07E5                                      i1l5749 0789  
                                    i1l5781 0BB2                                      i1l5773 0BAE  
                                    i1l5765 0B92                                      i1l5757 0B8C  
                                    i1l5837 099F                                      i1l5829 098E  
                                    i1l5861 15C0                                      i1l5853 159C  
                                    i1l4983 0C37                                      i1l4991 0C48  
                                    i1l4975 0C17                                      i1l7199 0AEE  
                                    i1l3999 0AE2                                      i1l5791 0BD8  
                                    i1l5783 0BBE                                      i1l5775 0BB0  
                                    i1l5767 0B96                                      i1l5839 09AA  
                                    i1l5871 15D2                                      i1l5863 15CB  
                                    i1l5855 15A7                                      u311_20 0891  
                                    u303_20 0F48                                      i1l4993 0C5A  
                                    i1l4985 0C39                                      i1l4977 0C1E  
                                    u311_21 0890                                      u303_21 0F47  
                                    i1l5793 0BDD                                      i1l5785 0BC2  
                                    i1l5769 0B9A                                      i1l5873 15D5  
                                    i1l5865 15CD                                      i1l5857 15AE  
                                    i1l4995 0C64                                      i1l4987 0C43  
                                    i1l4979 0C23                                      i1l5795 0BE3  
                                    i1l5787 0BC8                                      i1l5875 15E4  
                                    i1l5867 15CF                                      i1l5859 15B9  
                                    i1l4997 0C66                                      i1l4989 0C45  
                                    i1l5797 0BE9                                      i1l5789 0BD6  
                                    i1l5869 15D0                                      i1l5981 15EE  
                                    i1l4999 0C70                                      i1l5799 0BEF  
                                    i1l5991 1619                                      i1l5983 15F4  
                                    u312_20 08A8                                      u240_20 0A04  
                                    u320_20 13CA                                      u312_21 08A7  
                                    u240_21 0A03                                      i1l5993 1629  
                                    i1l5985 1602                                      u320_21 13C9  
                                    i1l5995 162D                                      i1l5987 1608  
                                    i1l5979 15E8                                      i1l5989 160E  
                                    i1l5997 1631                                      i1l5999 163B  
                                    u313_20 08B9                                      u241_20 0A39  
                                    u321_20 1341                                      u313_21 08B8  
                                    u241_21 0A38                                      u321_21 1340  
                                    u233_25 1559                                      u250_20 176D  
                                    u314_20 08D5                                      u242_20 16AC  
                                    u306_20 1470                                      u322_20 134A  
                                    u250_21 176C                                      u314_21 08D4  
                                    u242_21 16AB                                      u306_21 146F  
                                    u322_21 1349                                      u234_25 155F  
                                    u251_20 1788                                      u307_20 14E1  
                                    u243_20 16B5                                      u323_20 141B  
                                    u251_21 1787                                      u307_21 14E0  
                                    u243_21 16B4                                      u323_21 141A  
                                    u235_25 1567                                      u260_20 17B9  
                                    u308_20 14EB                                      u236_20 1578  
                                    u244_20 16BB                                      u324_20 1425  
                                    u340_20 0DA0                                      u500_20 0517  
                                    u260_21 17B8                                      u308_21 14EA  
                                    u236_21 1577                                      u244_21 16BA  
                                    u324_21 1424                                      u340_21 0D9F  
                                    u500_21 0516                                      u309_20 0877  
                                    u237_20 13F6                                      u245_20 16C0  
                                    u261_20 080B                                      u325_20 1430  
                                    u341_20 0DD3                                      u501_20 051B  
                                    u309_21 0876                                      u237_21 13F5  
                                    u245_21 16BF                                      u261_21 080A  
                                    u325_21 142F                                      u341_21 0DD2  
                                    u501_21 051A                                      u246_20 1720  
                                    u238_20 13FF                                      u270_20 07B0  
                                    u262_20 083E                                      u510_20 0581  
                                    u502_20 053A                                      u246_21 171F  
                                    u238_21 13FE                                      u270_21 07AF  
                                    u262_21 083D                                      u510_21 0580  
                                    u502_21 0539                                      u262_25 083A  
                                    u247_20 1729                                      u239_20 09EB  
                                    u271_20 07CF                                      u511_20 059C  
                                    u503_20 0541                                      u247_21 1728  
                                    u239_21 09EA                                      u271_21 07CE  
                                    u511_21 059B                                      u503_21 0540  
                                    u248_20 1733                                      u280_20 03A2  
                                    u272_20 07D7                                      u512_20 05C3  
                                    u504_20 0549                                      u248_21 1732  
                                    u280_21 03A1                                      u272_21 07D6  
                                    u512_21 05C2                                      u504_21 0548  
                                    u249_20 1752                                      u257_20 178F  
                                    u281_20 03A9                                      u273_20 07F5  
                                    u337_20 0D6A                                      u513_20 05E1  
                                    u505_20 054D                                      u249_21 1751  
                                    u257_21 178E                                      u281_21 03A8  
                                    u273_21 07F4                                      u337_21 0D69  
                                    u513_21 05E0                                      u505_21 054C  
                                    u258_20 1798                                      u290_20 0479  
                                    u282_20 03AF                                      u274_20 036D  
                                    u266_20 0A76                                      u506_20 0555  
                                    u258_21 1797                                      u290_21 0478  
                                    u282_21 03AE                                      u274_21 036C  
                                    u266_21 0A75                                      u506_21 0554  
                                    u338_25 0D75                                      u259_20 17A2  
                                    u291_20 047D                                      u283_20 03DE  
                                    u275_20 0374                                      u267_20 0A8B  
                                    u339_20 0D8D                                      u507_20 0559  
                                    u259_21 17A1                                      u291_21 047C  
                                    u283_21 03DD                                      u275_21 0373  
                                    u267_21 0A8A                                      u339_21 0D8C  
                                    u507_21 0558                                      u284_20 03F3  
                                    u276_20 037D                                      u268_20 0AC3  
                                    u292_20 0CB4                                      u508_20 0572  
                                    u284_21 03F2                                      u276_21 037C  
                                    u268_21 0AC2                                      u292_21 0CB3  
                                    u508_21 0571                                      u285_20 0410  
                                    u277_20 038B                                      u269_20 07A3  
                                    u293_20 0CB8                                      u509_20 057A  
                                    u285_21 040F                                      u277_21 038A  
                                    u269_21 07A2                                      u293_21 0CB7  
                                    u509_21 0579                                      u390_20 0C64  
                                    u286_20 0418                                      u278_20 0392  
                                    u470_20 0BA0                                      u294_20 0CC1  
                                    u550_20 000E                                      u390_21 0C63  
                                    u286_21 0417                                      u278_21 0391  
                                    u470_21 0B9F                                      u294_21 0CC0  
                                    u550_21 000D                                      u391_20 0C70  
                                    u287_20 041C                                      u279_20 0399  
                                    u471_20 0BC8                                      u295_20 0CFF  
                                    u551_20 0016                                      u391_21 0C6F  
                                    u287_21 041B                                      u279_21 0398  
                                    u471_21 0BC7                                      u295_21 0CFE  
                                    u551_21 0015                                      u392_20 0C8B  
                                    u288_20 0444                                      u472_20 0BF4  
                                    u296_20 0D09                                      u480_20 15F4  
                                    u552_20 001B                                      u392_21 0C8A  
                                    u288_21 0443                                      u472_21 0BF3  
                                    u296_21 0D08                                      u480_21 15F3  
                                    u552_21 001A                                      u392_25 0C87  
                                    u393_20 0C99                                      u385_20 0C1E  
                                    u289_20 0471                                      u465_20 06D8  
                                    u473_20 0966                                      u297_20 0D14  
                                    u553_20 0020                                      u393_21 0C98  
                                    u385_21 0C1D                                      u289_21 0470  
                                    u465_21 06D7                                      u473_21 0965  
                                    u297_21 0D13                                      u553_21 001F  
                                    u393_25 0C95                                      u481_25 15F9  
                                    u386_20 0C29                                      u466_20 06FA  
                                    u298_20 0D4A                                      u482_20 1619  
                                    _OSCCON 0099                                      u386_21 0C28  
                                    u466_21 06F9                                      u298_21 0D49  
                                    u482_21 1618                                      u387_20 0C37  
                                    u299_20 0EB4                                      u467_20 0740  
                                    u483_20 163B                                      u491_20 04C7  
                                    u387_21 0C36                                      u299_21 0EB3  
                                    u467_21 073F                                      u483_21 163A  
                                    u491_21 04C6                                      u299_25 0EB0  
                                    u388_20 0C43                                      u468_20 0768  
                                    u492_20 04CC                                      u388_21 0C42  
                                    u468_21 0767                                      u492_21 04CB  
                                    u389_20 0C5A                                      u469_20 0797  
                                    u493_20 04DA                                      u549_20 000A  
                                    u389_21 0C59                                      u469_21 0796  
                                    u493_21 04D9                                      u549_21 0009  
                                    u389_25 0C56                                      u494_20 04DE  
                                    u494_21 04DD                                      u495_20 04EC  
                                    u495_21 04EB                                      _PLLRDY 04D6  
                                    u496_20 04F3                                      u496_21 04F2  
                                    u497_20 04F7                                      u497_21 04F6  
                                    u498_20 050B                                      u498_21 050A  
                                    u499_20 050F                                      u499_21 050E  
                             CDCTxService@i 00B1                                      _WDTCON 0097  
                                    _SSPBUF 0211                i1USBTransferOnePacket@handle 0079  
                  __size_of_eeprom_readPage 0083                       _I2C_WaitForCompletion 1288  
                         _shortPacketStatus 01EA                             USBDeviceTasks@i 00A4  
               USBStdFeatureReqHandler@pUEP 0068                    USBTransferOnePacket@data 00A6  
                USBCtrlTrfInHandler@lastDTS 0075                             ??_USBDeviceInit 00A5  
                              ?_putUSBUSART 00A5                        __end_of_getsUSBUSART 16A4  
                         _USBEnableEndpoint 13F1             __size_of_USBStdGetStatusHandler 0067  
                                    _memcpy 1443                            ?_TMR0_Initialize 0070  
                                    _memset 06CE                     __size_of_I2C_MasterStop 0006  
                   __size_of_I2C_Initialize 000C                          ?_USBEnableEndpoint 0077  
             __size_of_USBTransferOnePacket 008B                                __pdataBIGRAM 2250  
                              _CDCTxService 05E4                             ?_WDT_Initialize 0070  
                                 ?_ACK_Poll 0070                              ?_putrsUSBUSART 00A5  
                       ??_USBEnableEndpoint 0078    TMR0_SetInterruptHandler@InterruptHandler 00A5  
IOCAF5_SetInterruptHandler@InterruptHandler 00A5                                 _CtrlTrfData 0058  
                    _eeprom_storeBurstGroup 0DF6                          main@write_complete 01D1  
                      _controlTransferState 01E9                           _SYSTEM_Initialize 1303  
                   __end_of__initialization 0068                   main@transferComplete_flag 01D0  
                i1USBTransferOnePacket@data 0071                          ?_SYSTEM_Initialize 0070  
                  __size_of_USBStallHandler 002D                         __size_of_USBSuspend 0020  
                      i1USBDeviceInit@i_665 0073                              __pcstackCOMMON 0070  
                 __end_of_USBEnableEndpoint 1416                               __end_of_sd000 18B9  
                             __end_of_sd001 1877                               __end_of_sd002 188D  
                             __end_of_sd003 18AF                         ??_SYSTEM_Initialize 00AA  
                                 ?_TMR0_ISR 0070            __size_of_USBCtrlEPAllowDataStage 0060  
             __size_of_USBConfigureEndpoint 0044                     __end_ofi1_USBDeviceInit 0DF6  
               __end_of_USBCtrlTrfInHandler 08DA                      _measurementburst_count 023A  
                            _OPTION_REGbits 0095                                  _cdc_notice 0220  
                                _cdc_rx_len 01DC                                  _cdc_tx_len 01DA  
                                ??_ACK_Poll 00A6                 ?_IOCAF5_SetInterruptHandler 00A5  
                  ??_USBCtrlTrfSetupHandler 006F                     _USBTicksSinceSuspendEnd 01DD  
                          ?_USBDeviceAttach 0070                   __end_of_SYSTEM_Initialize 1319  
                    _USBStdGetStatusHandler 0798                           _I2C_MasterSendAck 128F  
                                __pbssBANK1 00C1                                  __pbssBANK3 01B0  
                                __pbssBANK4 0220                                  __pbssBANK5 02A0  
                                __pbssBANK6 0320                          ?_I2C_MasterSendAck 0070  
              __end_of_I2C_MasterSetReceive 127C                      ?_I2C_WaitForCompletion 0070  
               __size_of_USBWakeFromSuspend 0022                                 _pBDTEntryIn 01B7  
                   _IOCAF5_InterruptHandler 025F                  __end_of_I2C_MasterSendNack 129D  
          __end_of_USBCtrlEPServiceComplete 0D4C                 __size_of_USBCheckCDCRequest 006E  
                                __pmaintext 020C                         ??_I2C_MasterSendAck 00A5  
                      USBCtrlTrfRxService@i 0074                   eeprom_readPage@addresslsb 00B0  
                 eeprom_readPage@addressmsb 00B1            __end_of_TMR0_SetInterruptHandler 12B8  
                                ??_TMR0_ISR 0070                                  __pintentry 0004  
                         ??_eeprom_readPage 00AA                                     ?_memcpy 0070  
                                   ?_memset 0070                                  _device_dsc 188D  
                          _USBCtrlEPService 15E8                                  _ep_data_in 01C5  
                   __size_of_ADC_Initialize 0009                 __end_of_USBCtrlTrfRxService 0F4C  
                        _USBCheckStdRequest 095D                           _configDescriptor1 1800  
                           ??_putrsUSBUSART 00A7                 __end_of_USBCtrlTrfTxService 1789  
                       _USBStdSetCfgHandler 0B85                   __end_of_I2C_MasterSendAck 1296  
                                   _OSCTUNE 0098                                     _SSP1ADD 0212  
                                   _SSP1BUF 0211                         ?_USBCheckStdRequest 0070  
              __size_of_USBStdGetDscHandler 008B                                     _UIEbits 0E92  
                                   _UIRbits 0E90                               _cdc_trf_state 01DB  
                  ??i1_USBTransferOnePacket 0074                                     _pCDCDst 0242  
                                   _pCDCSrc 0244                       __size_of_getsUSBUSART 0065  
                      _ADC_InterruptHandler 0240             ??_USBIncrement1msInternalTimers 0070  
                      ?_USBStdSetCfgHandler 0070                                   _CDCInitEP 14A3  
                __size_of_USBEnableEndpoint 0025                                  _readBuffer 02A0  
                      ??_USBCheckStdRequest 006D               __size_of_USBCtrlTrfOutHandler 0039  
                          ??_USBDeviceTasks 00A2                           ??_USBStallHandler 0070  
                          ?i1_USBDeviceInit 0070                        __size_of_putUSBUSART 001D  
                            _I2C_MasterStop 1282                          getsUSBUSART@buffer 00B3  
                           __size_of_memcpy 002E                              _I2C_Initialize 12C1  
                           __size_of_memset 00CA                   __end_of_configDescriptor1 1843  
                                   __ptext1 1513                                     __ptext2 134F  
                                   __ptext3 163F                                     __ptext4 0DF6  
                                   __ptext5 12F3                                     __ptext6 08DA  
                                   __ptext7 12B8                                     __ptext8 1282  
                                   __ptext9 127C                                     _inPipes 01BD  
               _USBDeferOUTDataStagePackets 01DE                                     _counter 023E  
                     _OSCILLATOR_Initialize 12E5                                ??_USBSuspend 0066  
                  ??_PIN_MANAGER_Initialize 00A7                                   _IOCAFbits 0393  
                                 _IOCANbits 0392                                   _IOCAPbits 0391  
                  __size_of_I2C_MasterStart 0006                    __size_of_I2C_MasterWrite 0009  
                        __end_of_USB_CD_Ptr 18BB                  __size_of_SYSTEM_Initialize 0016  
           __size_of_USBCtrlTrfSetupHandler 0053                                     clrloop0 12CE  
                             _writeout_flag 01D6                        end_of_initialization 0068  
                              _getsUSBUSART 163F                          __end_of_USB_SD_Ptr 18A7  
                                   memcpy@d 0079                                     memcpy@n 0072  
                                   memcpy@s 0075                         _pBDTEntryEP0OutNext 00C1  
                                   init_ram 12D9                                     memset@c 0072  
                                   memset@k 007A                                     memset@n 0074  
                                   memset@s 007C                                     initloop 12DA  
                           _USB1msTickCount 0234             _dummy_encapsulated_cmd_response 0246  
                  ?_USBStdFeatureReqHandler 0070                       ??_USBStdSetCfgHandler 0066  
                                ?_CDCInitEP 0070                          __end_of_USBSuspend 13AB  
                   _USBCtrlEPAllowDataStage 0802    eeprom_storeBurstGroup@burstgroup_address 00A6  
                                _sleep_flag 01D7                      __end_of_I2C_MasterStop 1288  
                    __end_of_I2C_Initialize 12CD                    _USBCtrlEPServiceComplete 0CAD  
                _USBStatusStageEnabledFlag1 01E1                  _USBStatusStageEnabledFlag2 01E0  
                          ??_WDT_Initialize 00A5                          USBEnableEndpoint@p 007A  
                  _TMR0_SetInterruptHandler 12AF                        _I2C_MasterSetReceive 1276  
                   ?_eeprom_storeBurstGroup 00A6                                   _TRISCbits 008E  
                        _BothEP0OutUOWNsSet 01E4                  __size_of_I2C_MasterSendAck 0007  
                 USBStdSetCfgHandler@i_1402 0069                     measurementBurst@measrow 00C4  
                 USBConfigureEndpoint@EPNum 0075                           __size_of_ACK_Poll 0010  
                ?_USBCtrlEPAllowStatusStage 0070         USER_USB_CALLBACK_EVENT_HANDLER@size 0064  
                                 _USTATcopy 01EE                    i1USBTransferOnePacket@ep 0078  
              __end_of_USBTransferOnePacket 0B85                                  main@buffer 025E  
           __size_ofi1_USBTransferOnePacket 008A                           putUSBUSART@length 00A7  
                        USBDeviceInit@i_665 00A8                      _USBCtrlTrfSetupHandler 1595  
                           ?_I2C_MasterStop 0070                             ?_I2C_Initialize 0070  
                     __end_of_USBDeviceInit 1000       __end_of_USBIncrement1msInternalTimers 134F  
    __size_of_USBIncrement1msInternalTimers 001D               _USBIncrement1msInternalTimers 1332  
                             __pidataBIGRAM 006C                           _heartbeat_counter 023C  
                         __size_of_TMR0_ISR 009B                              _ADC_Initialize 129D  
                            __end_of_memcpy 1471                      ?_OSCILLATOR_Initialize 0070  
                        putrsUSBUSART@pData 00AA                              __end_of_memset 0798  
                     ?_I2C_MasterSetReceive 0070                           _USBBusIsSuspended 01E6  
            __end_of_eeprom_storeBurstGroup 0EA0                         start_initialization 0028  
                   ?_USBStdGetStatusHandler 0070               USBCtrlTrfRxService@byteToRead 0075  
                  __size_of_TMR0_Initialize 0019             __size_of_PIN_MANAGER_Initialize 0024  
                               _cdc_data_rx 20C0                                 _cdc_data_tx 2080  
              __end_of_USBConfigureEndpoint 1595             __end_of_USBStdFeatureReqHandler 04C1  
                   ??_I2C_WaitForCompletion 00A5           __end_of_USBCtrlEPAllowStatusStage 1800  
                  __end_of_USBCtrlEPService 163F                           ??_I2C_MasterStart 00A5  
                         ??_I2C_MasterWrite 00A5                             _eeprom_readPage 08DA  
                 ??_USBCtrlEPAllowDataStage 0073                                 ??_CDCInitEP 007D  
                            USBDeviceInit@i 00A9                              USBDeviceInit@p 00A6  
                    _pBDTEntryEP0OutCurrent 00C5                     USBTransferOnePacket@dir 00A5  
                   USBTransferOnePacket@len 00A8             eeprom_readPage@readpage_address 00A6  
                       _USBStdGetDscHandler 0A6F                      __end_of_ADC_Initialize 12A6  
                                  ??_memcpy 0074                                    ??_memset 0076  
                                memset@dest 0070                      i1_USBTransferOnePacket 09E5  
            _IOCAF5_DefaultInterruptHandler 0000                          _I2C_MasterSendNack 1296  
                    _USBActiveConfiguration 01EF              __end_of_USBStdGetStatusHandler 07FF  
                 i1USBTransferOnePacket@dir 0070                   i1USBTransferOnePacket@len 0073  
           eeprom_readPage@readpage_temprow 00B3                                   ___latbits 0002  
                             __pcstackBANK0 0060                               __pcstackBANK1 00A0  
              __size_of_USBCtrlTrfInHandler 0078                               __pcstackBANK4 0255  
                       ?_I2C_MasterSendNack 0070                        ?_USBStdGetDscHandler 0070  
                __end_of_USBWakeFromSuspend 13CD                             _USBStallHandler 1416  
                              _pBDTEntryOut 022A                  __end_of_USBCheckCDCRequest 1712  
                     _TMR0_InterruptHandler 0238                                   __pnvBANK4 025F  
                  __size_of_USBDeviceAttach 001F                      _PIN_MANAGER_Initialize 13CD  
                      ??_I2C_MasterSendNack 00A5                             ?_ADC_Initialize 0070  
                    ??_I2C_MasterSetReceive 00A5                ??_INTERRUPT_InterruptManager 007E  
                      _USBTransferOnePacket 0AFA                                   _measarray 2250  
                     __end_of_putrsUSBUSART 1551                                    _ACK_Poll 12F3  
              __end_of_USBCtrlTrfOutHandler 1513                       ??_USBStdGetDscHandler 0070  
                               _ep_data_out 01C2                     __end_of_eeprom_readPage 095D  
              __size_of_USBCtrlTrfRxService 00AC               USBConfigureEndpoint@direction 0070  
              __size_of_USBCtrlTrfTxService 0077                           ??_TMR0_Initialize 00A7  
                ??_USBCtrlEPServiceComplete 0075                                   clear_ram0 12CD  
         eeprom_storeBurstGroup@pagewritten 00B6                                    _PIE2bits 0092  
       __size_of_INTERRUPT_InterruptManager 0022                  ??_TMR0_SetInterruptHandler 00A7  
                                  _PIR1bits 0011                                    _PIR2bits 0012  
                             ??_putUSBUSART 00A8                                    _UEP0bits 0E98  
                _USBDeferINDataStagePackets 01DF                                    _SSP1CON1 0215  
                                  _SSP1CON2 0216                                    _TMR0_ISR 0C12  
               __size_of_USBCheckStdRequest 0088                                    _SSP1STAT 0214  
                                  _UCONbits 0E8E                        _USBConfigureEndpoint 1551  
          eeprom_storeBurstGroup@addresslsb 00B5            eeprom_storeBurstGroup@addressmsb 00B4  
          __size_of_USBStdFeatureReqHandler 015A                                  _ADCON0bits 009D  
                           main@burst_count 01D2                       ?_USBTransferOnePacket 00A5  
                             ?_CDCTxService 0070                                _RemoteWakeup 01E7  
                  __size_ofi1_USBDeviceInit 00AA                     __end_of_USBStallHandler 1443  
                         putrsUSBUSART@data 00A5                 ??_USBCtrlEPAllowStatusStage 0070  
               __end_of_USBStdSetCfgHandler 0C12                  measurementBurst@meascolumn 00C3  
                        __end_of_device_dsc 189F                            ??_I2C_MasterStop 00A5  
                   ?_USBCtrlTrfSetupHandler 0070                            ??_I2C_Initialize 00A5  
                   USBStdGetStatusHandler@p 0072                                   memcpy@tmp 0077  
                    USBTransferOnePacket@ep 00AD                                    _SetupPkt 0050  
                   ??_OSCILLATOR_Initialize 00A5                       ?_USBConfigureEndpoint 0070  
                         ??_USBDeviceAttach 00A5                          _waitforsleep_count 01CA  
                       __end_of_putUSBUSART 136C                                 _line_coding 024E  
                            ??_CDCTxService 00B0                             _I2C_MasterStart 127C  
                           _I2C_MasterWrite 12B8                     __size_of_USBDeviceTasks 0123  
                                  __ptext10 1276                                    __ptext11 1296  
                                  __ptext20 13CD                                    __ptext12 128F  
                                  __ptext21 12A6                                    __ptext13 1288  
                                  __ptext30 13AB                                    __ptext22 12E5  
                                  __ptext14 1303                                    __ptext31 138B  
                                  __ptext23 129D                                    __ptext15 1272  
                                  __ptext40 0B85                                    __ptext32 1416  
                                  __ptext24 12C1                                    __ptext16 0F4C  
                                  __ptext41 06CE                                    __ptext33 1332  
                                  __ptext25 05E4                                    __ptext17 136C  
                                  __ptext50 1551                                    __ptext42 0798  
                                  __ptext34 15E8                                    __ptext26 0AFA  
                                  __ptext18 1319                                    __ptext51 14DA  
                                  __ptext43 0A6F                                    __ptext35 1443  
                                  __ptext19 12AF                                    __ptext52 0EA0  
                                  __ptext44 0367                                    __ptext36 1595  
                                  __ptext28 04C1                                    __ptext53 1789  
                                  __ptext45 1471                                    __ptext37 0CAD  
                                  __ptext29 0D4C                                    __ptext54 0862  
                                  __ptext46 16A4                                    __ptext38 0802  
                                  __ptext55 1712                                    __ptext47 14A3  
                                  __ptext39 095D                                    __ptext56 0C12  
                                  __ptext48 09E5                                    __ptext57 07FF  
                                  __ptext49 13F1                ??_IOCAF5_SetInterruptHandler 00A7  
                              _SSP1CON1bits 0215                                _SSP1CON2bits 0216  
                          ?_eeprom_readPage 00A6              __size_of_I2C_WaitForCompletion 0007  
            __end_of_USBCtrlTrfSetupHandler 15E8                               __size_of_main 015B  
                         ?_USBCtrlEPService 0070               __end_of_I2C_WaitForCompletion 128F  
      __end_of_TMR0_DefaultInterruptHandler 0800       __size_of_TMR0_DefaultInterruptHandler 0001  
              _TMR0_DefaultInterruptHandler 07FF                          ??_USBCtrlEPService 00A0  
                       _USBCtrlTrfInHandler 0862                         I2C_MasterWrite@data 00A5  
                                  _outPipes 01B0                        _USBCtrlTrfOutHandler 14DA  
                                  int$flags 007E                     ?i1_USBTransferOnePacket 0070  
                 _USBCtrlEPAllowStatusStage 1789          __end_of_INTERRUPT_InterruptManager 0026  
                _INTERRUPT_InterruptManager 0004                      ??_USBTransferOnePacket 00A9  
       __size_of_IOCAF5_SetInterruptHandler 0009                            putrsUSBUSART@len 00AC  
                          _measurement_flag 01D5                   _USBDeferStatusStagePacket 01E2  
                  CDCTxService@byte_to_send 00B2                            i1USBDeviceInit@i 0074  
                          i1USBDeviceInit@p 0071                    main@currentEepromAddress 01C8  
                                _INTCONbits 000B                        ?_USBCtrlTrfInHandler 0070  
                                  memcpy@d1 0078                                    memcpy@s1 0070  
             USBCtrlTrfTxService@byteToSend 0072                              __pstringtext10 0000  
                          ?_USBStallHandler 0070                    USBStdFeatureReqHandler@p 006B  
                   __size_of_WDT_Initialize 0004                                    intlevel1 0000  
                    __size_of_USBDeviceInit 00B4     __end_of_USER_USB_CALLBACK_EVENT_HANDLER 14A3  
  __size_of_USER_USB_CALLBACK_EVENT_HANDLER 0032            ?_USER_USB_CALLBACK_EVENT_HANDLER 0060  
         ??_USER_USB_CALLBACK_EVENT_HANDLER 007E             _USER_USB_CALLBACK_EVENT_HANDLER 1471  
                         ??i1_USBDeviceInit 0070                 eeprom_readPage@measarrayptr 00A8  
                   ?_PIN_MANAGER_Initialize 0070                            ??_ADC_Initialize 00A5  
             ?_TMR0_DefaultInterruptHandler 0070              __end_ofi1_USBTransferOnePacket 0A6F  
                              _usbInit_flag 01D4                      ??_USBConfigureEndpoint 0071  
                     ?_USBCtrlTrfOutHandler 0070                                 _putUSBUSART 134F  
                       _USBCtrlTrfRxService 0EA0      eeprom_readPage@eeprom_readpage_tempcol 00B2  
                        _USBWakeFromSuspend 13AB                     _USBStdFeatureReqHandler 0367  
                   __end_of_I2C_MasterStart 1282                     __end_of_I2C_MasterWrite 12C1  
                        _USBCheckCDCRequest 16A4                         _USBCtrlTrfTxService 1712  
                             __pstringtext1 189F                               __pstringtext2 18B9  
                             __pstringtext3 1800                               __pstringtext4 1843  
                             __pstringtext5 1877                               __pstringtext6 188D  
                             __pstringtext7 18A7                               __pstringtext8 18B5  
                             __pstringtext9 18AF                                  _OPTION_REG 0095  
                       ?_USBWakeFromSuspend 0070                             _TMR0_Initialize 1319  
                     ??_USBCtrlTrfInHandler 0073                       _USBAlternateInterface 01EC  
                       ?_USBCheckCDCRequest 0070                                 _SSPCON2bits 0216  
                       USBEnableEndpoint@ep 007C                             _endpoint_number 01E5  
                      ?_USBCtrlTrfRxService 0070                               ?_getsUSBUSART 00B0  
            __end_of_PIN_MANAGER_Initialize 13F1                    ?_USBCtrlEPAllowDataStage 0070  
                      ?_USBCtrlTrfTxService 0070                _USBStatusStageTimeoutCounter 01E3  
                      ??_USBWakeFromSuspend 0066                  USBTransferOnePacket@handle 00AE  
                      __end_of_CDCTxService 06CE                        ??_USBCheckCDCRequest 0070  
                                _USB_CD_Ptr 18B9  
