

Microchip MPLAB XC8 Assembler V2.31 build 20201012212115 
                                                                                               Sun Apr 04 16:47:41 2021

Microchip MPLAB XC8 C Compiler v2.31 (Free license) build 20201012212115 Og1 
     1                           	processor	16F1459
     2                           	pagewidth 120
     3                           	opt	flic
     4                           	psect	idataBIGRAM,global,class=CODE,delta=2,noexec
     5                           	psect	idataBANK4,global,class=CODE,delta=2,noexec
     6                           	psect	stringtext1,global,class=STRCODE,delta=2,noexec
     7                           	psect	stringtext2,global,class=STRCODE,delta=2,noexec
     8                           	psect	stringtext3,global,class=STRCODE,delta=2,noexec
     9                           	psect	stringtext4,global,class=STRCODE,delta=2,noexec
    10                           	psect	stringtext5,global,class=STRCODE,delta=2,noexec
    11                           	psect	stringtext6,global,class=STRCODE,delta=2,noexec
    12                           	psect	stringtext7,global,class=STRCODE,delta=2,noexec
    13                           	psect	stringtext8,global,class=STRCODE,delta=2,noexec
    14                           	psect	nvBANK3,global,class=BANK3,space=1,delta=1,noexec
    15                           	psect	cinit,global,class=CODE,merge=1,delta=2
    16                           	psect	bssBANK1,global,class=BANK1,space=1,delta=1,noexec
    17                           	psect	bssBANK3,global,class=BANK3,space=1,delta=1,noexec
    18                           	psect	bssBANK4,global,class=BANK4,space=1,delta=1,noexec
    19                           	psect	dataBANK4,global,class=BANK4,space=1,delta=1,noexec
    20                           	psect	bssBANK5,global,class=BANK5,space=1,delta=1,noexec
    21                           	psect	bssBANK6,global,class=BANK6,space=1,delta=1,noexec
    22                           	psect	inittext,global,class=CODE,delta=2
    23                           	psect	clrtext,global,class=CODE,delta=2
    24                           	psect	cstackBANK4,global,class=BANK4,space=1,delta=1,noexec
    25                           	psect	cstackBANK1,global,class=BANK1,space=1,delta=1,noexec
    26                           	psect	cstackCOMMON,global,class=COMMON,space=1,delta=1,noexec
    27                           	psect	cstackBANK0,global,class=BANK0,space=1,delta=1,noexec
    28                           	psect	maintext,global,class=CODE,merge=1,split=1,delta=2
    29                           	psect	text1,local,class=CODE,merge=1,delta=2
    30                           	psect	text2,local,class=CODE,merge=1,delta=2
    31                           	psect	text3,local,class=CODE,merge=1,delta=2
    32                           	psect	text4,local,class=CODE,merge=1,delta=2
    33                           	psect	text5,local,class=CODE,merge=1,delta=2
    34                           	psect	text6,local,class=CODE,merge=1,delta=2
    35                           	psect	text7,local,class=CODE,merge=1,delta=2
    36                           	psect	text8,local,class=CODE,merge=1,delta=2
    37                           	psect	text9,local,class=CODE,merge=1,delta=2
    38                           	psect	text10,local,class=CODE,merge=1,delta=2
    39                           	psect	text11,local,class=CODE,merge=1,delta=2
    40                           	psect	intentry,global,class=CODE,delta=2
    41                           	psect	text13,local,class=CODE,merge=1,delta=2
    42                           	psect	text14,local,class=CODE,merge=1,delta=2
    43                           	psect	text15,local,class=CODE,merge=1,delta=2
    44                           	psect	text16,local,class=CODE,merge=1,delta=2
    45                           	psect	text17,local,class=CODE,merge=1,delta=2
    46                           	psect	text18,local,class=CODE,merge=1,delta=2
    47                           	psect	text19,local,class=CODE,merge=1,delta=2
    48                           	psect	text20,local,class=CODE,merge=1,delta=2,group=2
    49                           	psect	text21,local,class=CODE,merge=1,delta=2
    50                           	psect	text22,local,class=CODE,merge=1,delta=2
    51                           	psect	text23,local,class=CODE,merge=1,delta=2
    52                           	psect	text24,local,class=CODE,merge=1,delta=2
    53                           	psect	text25,local,class=CODE,merge=1,delta=2
    54                           	psect	text26,local,class=CODE,merge=1,delta=2,group=2
    55                           	psect	text27,local,class=CODE,merge=1,delta=2
    56                           	psect	text28,local,class=CODE,merge=1,delta=2
    57                           	psect	text29,local,class=CODE,merge=1,delta=2
    58                           	psect	text30,local,class=CODE,merge=1,delta=2
    59                           	psect	text31,local,class=CODE,merge=1,delta=2
    60                           	psect	text32,local,class=CODE,merge=1,delta=2
    61                           	psect	text33,local,class=CODE,merge=1,delta=2
    62                           	psect	text34,local,class=CODE,merge=1,delta=2
    63                           	psect	text35,local,class=CODE,merge=1,delta=2
    64                           	psect	text36,local,class=CODE,merge=1,delta=2
    65                           	psect	text37,local,class=CODE,merge=1,delta=2
    66                           	psect	text38,local,class=CODE,merge=1,delta=2
    67                           	psect	text39,local,class=CODE,merge=1,delta=2
    68                           	psect	text40,local,class=CODE,merge=1,delta=2
    69                           	psect	text41,local,class=CODE,merge=1,delta=2
    70                           	psect	text42,local,class=CODE,merge=1,delta=2
    71                           	psect	config,global,abs,ovrld,class=CONFIG,space=4,delta=2,noexec
    72                           	dabs	1,0x1A0,16
    73                           	dabs	1,0x140,48
    74                           	dabs	1,0x120,32
    75                           	dabs	1,0xD0,32
    76                           	dabs	1,0x620,48
    77                           	dabs	1,0x5A0,80
    78                           	dabs	1,0x520,80
    79                           	dabs	1,0x4A0,80
    80                           	dabs	1,0x420,80
    81                           	dabs	1,0x3C0,48
    82                           	dabs	1,0x20,48,_BDT
    83                           	dabs	1,0x58,8,_CtrlTrfData
    84                           	dabs	1,0x50,8,_SetupPkt
    85                           	dabs	1,0x2250,0,_measarray
    86                           	dabs	1,0x7E,2
    87  0000                     
    88                           ; Version 2.20
    89                           ; Generated 12/02/2020 GMT
    90                           ; 
    91                           ; Copyright © 2020, Microchip Technology Inc. and its subsidiaries ("Microchip")
    92                           ; All rights reserved.
    93                           ; 
    94                           ; This software is developed by Microchip Technology Inc. and its subsidiaries ("Microch
      +                          ip").
    95                           ; 
    96                           ; Redistribution and use in source and binary forms, with or without modification, are
    97                           ; permitted provided that the following conditions are met:
    98                           ; 
    99                           ;     1. Redistributions of source code must retain the above copyright notice, this lis
      +                          t of
   100                           ;        conditions and the following disclaimer.
   101                           ; 
   102                           ;     2. Redistributions in binary form must reproduce the above copyright notice, this 
      +                          list
   103                           ;        of conditions and the following disclaimer in the documentation and/or other
   104                           ;        materials provided with the distribution.
   105                           ; 
   106                           ;     3. Microchip's name may not be used to endorse or promote products derived from th
      +                          is
   107                           ;        software without specific prior written permission.
   108                           ; 
   109                           ; THIS SOFTWARE IS PROVIDED BY MICROCHIP "AS IS" AND ANY EXPRESS OR IMPLIED WARRANTIES,
   110                           ; INCLUDING, BUT NOT LIMITED TO, THE IMPLIED WARRANTIES OF MERCHANTABILITY AND FITNESS F
      +                          OR
   111                           ; PURPOSE ARE DISCLAIMED.  IN NO EVENT SHALL MICROCHIP BE LIABLE FOR ANY DIRECT, INDIREC
      +                          T,
   112                           ; INCIDENTAL, SPECIAL, EXEMPLARY, OR CONSEQUENTIAL DAMAGES (INCLUDING BUT NOT LIMITED TO
   113                           ; PROCUREMENT OF SUBSTITUTE GOODS OR SERVICES; LOSS OF USE, DATA OR PROFITS; OR BUSINESS
   114                           ; INTERRUPTION) HOWSOEVER CAUSED AND ON ANY THEORY OF LIABILITY, WHETHER IN CONTRACT, ST
      +                          RICT
   115                           ; LIABILITY, OR TORT (INCLUDING NEGLIGENCE OR OTHERWISE) ARISING IN ANY WAY OUT OF THE U
      +                          SE OF
   116                           ; THIS SOFTWARE, EVEN IF ADVISED OF THE POSSIBILITY OF SUCH DAMAGE.
   117                           ; 
   118                           ; 
   119                           ; Code-generator required, PIC16F1459 Definitions
   120                           ; 
   121                           ; SFR Addresses
   122  0000                     	;# 
   123  0001                     	;# 
   124  0002                     	;# 
   125  0003                     	;# 
   126  0004                     	;# 
   127  0005                     	;# 
   128  0006                     	;# 
   129  0007                     	;# 
   130  0008                     	;# 
   131  0009                     	;# 
   132  000A                     	;# 
   133  000B                     	;# 
   134  000C                     	;# 
   135  000D                     	;# 
   136  000E                     	;# 
   137  0011                     	;# 
   138  0012                     	;# 
   139  0015                     	;# 
   140  0016                     	;# 
   141  0016                     	;# 
   142  0017                     	;# 
   143  0018                     	;# 
   144  0019                     	;# 
   145  001A                     	;# 
   146  001B                     	;# 
   147  001C                     	;# 
   148  008C                     	;# 
   149  008D                     	;# 
   150  008E                     	;# 
   151  0091                     	;# 
   152  0092                     	;# 
   153  0095                     	;# 
   154  0096                     	;# 
   155  0097                     	;# 
   156  0098                     	;# 
   157  0099                     	;# 
   158  009A                     	;# 
   159  009B                     	;# 
   160  009B                     	;# 
   161  009C                     	;# 
   162  009D                     	;# 
   163  009E                     	;# 
   164  009F                     	;# 
   165  010C                     	;# 
   166  010D                     	;# 
   167  010E                     	;# 
   168  0111                     	;# 
   169  0112                     	;# 
   170  0113                     	;# 
   171  0114                     	;# 
   172  0115                     	;# 
   173  0116                     	;# 
   174  0117                     	;# 
   175  0118                     	;# 
   176  0119                     	;# 
   177  011D                     	;# 
   178  018C                     	;# 
   179  018D                     	;# 
   180  018E                     	;# 
   181  0191                     	;# 
   182  0191                     	;# 
   183  0192                     	;# 
   184  0193                     	;# 
   185  0193                     	;# 
   186  0194                     	;# 
   187  0195                     	;# 
   188  0196                     	;# 
   189  0197                     	;# 
   190  0199                     	;# 
   191  019A                     	;# 
   192  019B                     	;# 
   193  019B                     	;# 
   194  019C                     	;# 
   195  019D                     	;# 
   196  019E                     	;# 
   197  019F                     	;# 
   198  020C                     	;# 
   199  020D                     	;# 
   200  0211                     	;# 
   201  0211                     	;# 
   202  0212                     	;# 
   203  0212                     	;# 
   204  0213                     	;# 
   205  0213                     	;# 
   206  0214                     	;# 
   207  0214                     	;# 
   208  0215                     	;# 
   209  0215                     	;# 
   210  0215                     	;# 
   211  0216                     	;# 
   212  0216                     	;# 
   213  0217                     	;# 
   214  0217                     	;# 
   215  0391                     	;# 
   216  0392                     	;# 
   217  0393                     	;# 
   218  0394                     	;# 
   219  0395                     	;# 
   220  0396                     	;# 
   221  039A                     	;# 
   222  039B                     	;# 
   223  0611                     	;# 
   224  0612                     	;# 
   225  0613                     	;# 
   226  0613                     	;# 
   227  0614                     	;# 
   228  0615                     	;# 
   229  0616                     	;# 
   230  0616                     	;# 
   231  0691                     	;# 
   232  0692                     	;# 
   233  0693                     	;# 
   234  0694                     	;# 
   235  0695                     	;# 
   236  0E8E                     	;# 
   237  0E8F                     	;# 
   238  0E90                     	;# 
   239  0E91                     	;# 
   240  0E92                     	;# 
   241  0E93                     	;# 
   242  0E94                     	;# 
   243  0E94                     	;# 
   244  0E95                     	;# 
   245  0E96                     	;# 
   246  0E97                     	;# 
   247  0E98                     	;# 
   248  0E99                     	;# 
   249  0E9A                     	;# 
   250  0E9B                     	;# 
   251  0E9C                     	;# 
   252  0E9D                     	;# 
   253  0E9E                     	;# 
   254  0E9F                     	;# 
   255  0FE4                     	;# 
   256  0FE5                     	;# 
   257  0FE6                     	;# 
   258  0FE7                     	;# 
   259  0FE8                     	;# 
   260  0FE9                     	;# 
   261  0FEA                     	;# 
   262  0FEB                     	;# 
   263  0FED                     	;# 
   264  0FEE                     	;# 
   265  0FEF                     	;# 
   266  0000                     	;# 
   267  0001                     	;# 
   268  0002                     	;# 
   269  0003                     	;# 
   270  0004                     	;# 
   271  0005                     	;# 
   272  0006                     	;# 
   273  0007                     	;# 
   274  0008                     	;# 
   275  0009                     	;# 
   276  000A                     	;# 
   277  000B                     	;# 
   278  000C                     	;# 
   279  000D                     	;# 
   280  000E                     	;# 
   281  0011                     	;# 
   282  0012                     	;# 
   283  0015                     	;# 
   284  0016                     	;# 
   285  0016                     	;# 
   286  0017                     	;# 
   287  0018                     	;# 
   288  0019                     	;# 
   289  001A                     	;# 
   290  001B                     	;# 
   291  001C                     	;# 
   292  008C                     	;# 
   293  008D                     	;# 
   294  008E                     	;# 
   295  0091                     	;# 
   296  0092                     	;# 
   297  0095                     	;# 
   298  0096                     	;# 
   299  0097                     	;# 
   300  0098                     	;# 
   301  0099                     	;# 
   302  009A                     	;# 
   303  009B                     	;# 
   304  009B                     	;# 
   305  009C                     	;# 
   306  009D                     	;# 
   307  009E                     	;# 
   308  009F                     	;# 
   309  010C                     	;# 
   310  010D                     	;# 
   311  010E                     	;# 
   312  0111                     	;# 
   313  0112                     	;# 
   314  0113                     	;# 
   315  0114                     	;# 
   316  0115                     	;# 
   317  0116                     	;# 
   318  0117                     	;# 
   319  0118                     	;# 
   320  0119                     	;# 
   321  011D                     	;# 
   322  018C                     	;# 
   323  018D                     	;# 
   324  018E                     	;# 
   325  0191                     	;# 
   326  0191                     	;# 
   327  0192                     	;# 
   328  0193                     	;# 
   329  0193                     	;# 
   330  0194                     	;# 
   331  0195                     	;# 
   332  0196                     	;# 
   333  0197                     	;# 
   334  0199                     	;# 
   335  019A                     	;# 
   336  019B                     	;# 
   337  019B                     	;# 
   338  019C                     	;# 
   339  019D                     	;# 
   340  019E                     	;# 
   341  019F                     	;# 
   342  020C                     	;# 
   343  020D                     	;# 
   344  0211                     	;# 
   345  0211                     	;# 
   346  0212                     	;# 
   347  0212                     	;# 
   348  0213                     	;# 
   349  0213                     	;# 
   350  0214                     	;# 
   351  0214                     	;# 
   352  0215                     	;# 
   353  0215                     	;# 
   354  0215                     	;# 
   355  0216                     	;# 
   356  0216                     	;# 
   357  0217                     	;# 
   358  0217                     	;# 
   359  0391                     	;# 
   360  0392                     	;# 
   361  0393                     	;# 
   362  0394                     	;# 
   363  0395                     	;# 
   364  0396                     	;# 
   365  039A                     	;# 
   366  039B                     	;# 
   367  0611                     	;# 
   368  0612                     	;# 
   369  0613                     	;# 
   370  0613                     	;# 
   371  0614                     	;# 
   372  0615                     	;# 
   373  0616                     	;# 
   374  0616                     	;# 
   375  0691                     	;# 
   376  0692                     	;# 
   377  0693                     	;# 
   378  0694                     	;# 
   379  0695                     	;# 
   380  0E8E                     	;# 
   381  0E8F                     	;# 
   382  0E90                     	;# 
   383  0E91                     	;# 
   384  0E92                     	;# 
   385  0E93                     	;# 
   386  0E94                     	;# 
   387  0E94                     	;# 
   388  0E95                     	;# 
   389  0E96                     	;# 
   390  0E97                     	;# 
   391  0E98                     	;# 
   392  0E99                     	;# 
   393  0E9A                     	;# 
   394  0E9B                     	;# 
   395  0E9C                     	;# 
   396  0E9D                     	;# 
   397  0E9E                     	;# 
   398  0E9F                     	;# 
   399  0FE4                     	;# 
   400  0FE5                     	;# 
   401  0FE6                     	;# 
   402  0FE7                     	;# 
   403  0FE8                     	;# 
   404  0FE9                     	;# 
   405  0FEA                     	;# 
   406  0FEB                     	;# 
   407  0FED                     	;# 
   408  0FEE                     	;# 
   409  0FEF                     	;# 
   410  0000                     	;# 
   411  0001                     	;# 
   412  0002                     	;# 
   413  0003                     	;# 
   414  0004                     	;# 
   415  0005                     	;# 
   416  0006                     	;# 
   417  0007                     	;# 
   418  0008                     	;# 
   419  0009                     	;# 
   420  000A                     	;# 
   421  000B                     	;# 
   422  000C                     	;# 
   423  000D                     	;# 
   424  000E                     	;# 
   425  0011                     	;# 
   426  0012                     	;# 
   427  0015                     	;# 
   428  0016                     	;# 
   429  0016                     	;# 
   430  0017                     	;# 
   431  0018                     	;# 
   432  0019                     	;# 
   433  001A                     	;# 
   434  001B                     	;# 
   435  001C                     	;# 
   436  008C                     	;# 
   437  008D                     	;# 
   438  008E                     	;# 
   439  0091                     	;# 
   440  0092                     	;# 
   441  0095                     	;# 
   442  0096                     	;# 
   443  0097                     	;# 
   444  0098                     	;# 
   445  0099                     	;# 
   446  009A                     	;# 
   447  009B                     	;# 
   448  009B                     	;# 
   449  009C                     	;# 
   450  009D                     	;# 
   451  009E                     	;# 
   452  009F                     	;# 
   453  010C                     	;# 
   454  010D                     	;# 
   455  010E                     	;# 
   456  0111                     	;# 
   457  0112                     	;# 
   458  0113                     	;# 
   459  0114                     	;# 
   460  0115                     	;# 
   461  0116                     	;# 
   462  0117                     	;# 
   463  0118                     	;# 
   464  0119                     	;# 
   465  011D                     	;# 
   466  018C                     	;# 
   467  018D                     	;# 
   468  018E                     	;# 
   469  0191                     	;# 
   470  0191                     	;# 
   471  0192                     	;# 
   472  0193                     	;# 
   473  0193                     	;# 
   474  0194                     	;# 
   475  0195                     	;# 
   476  0196                     	;# 
   477  0197                     	;# 
   478  0199                     	;# 
   479  019A                     	;# 
   480  019B                     	;# 
   481  019B                     	;# 
   482  019C                     	;# 
   483  019D                     	;# 
   484  019E                     	;# 
   485  019F                     	;# 
   486  020C                     	;# 
   487  020D                     	;# 
   488  0211                     	;# 
   489  0211                     	;# 
   490  0212                     	;# 
   491  0212                     	;# 
   492  0213                     	;# 
   493  0213                     	;# 
   494  0214                     	;# 
   495  0214                     	;# 
   496  0215                     	;# 
   497  0215                     	;# 
   498  0215                     	;# 
   499  0216                     	;# 
   500  0216                     	;# 
   501  0217                     	;# 
   502  0217                     	;# 
   503  0391                     	;# 
   504  0392                     	;# 
   505  0393                     	;# 
   506  0394                     	;# 
   507  0395                     	;# 
   508  0396                     	;# 
   509  039A                     	;# 
   510  039B                     	;# 
   511  0611                     	;# 
   512  0612                     	;# 
   513  0613                     	;# 
   514  0613                     	;# 
   515  0614                     	;# 
   516  0615                     	;# 
   517  0616                     	;# 
   518  0616                     	;# 
   519  0691                     	;# 
   520  0692                     	;# 
   521  0693                     	;# 
   522  0694                     	;# 
   523  0695                     	;# 
   524  0E8E                     	;# 
   525  0E8F                     	;# 
   526  0E90                     	;# 
   527  0E91                     	;# 
   528  0E92                     	;# 
   529  0E93                     	;# 
   530  0E94                     	;# 
   531  0E94                     	;# 
   532  0E95                     	;# 
   533  0E96                     	;# 
   534  0E97                     	;# 
   535  0E98                     	;# 
   536  0E99                     	;# 
   537  0E9A                     	;# 
   538  0E9B                     	;# 
   539  0E9C                     	;# 
   540  0E9D                     	;# 
   541  0E9E                     	;# 
   542  0E9F                     	;# 
   543  0FE4                     	;# 
   544  0FE5                     	;# 
   545  0FE6                     	;# 
   546  0FE7                     	;# 
   547  0FE8                     	;# 
   548  0FE9                     	;# 
   549  0FEA                     	;# 
   550  0FEB                     	;# 
   551  0FED                     	;# 
   552  0FEE                     	;# 
   553  0FEF                     	;# 
   554  0000                     	;# 
   555  0001                     	;# 
   556  0002                     	;# 
   557  0003                     	;# 
   558  0004                     	;# 
   559  0005                     	;# 
   560  0006                     	;# 
   561  0007                     	;# 
   562  0008                     	;# 
   563  0009                     	;# 
   564  000A                     	;# 
   565  000B                     	;# 
   566  000C                     	;# 
   567  000D                     	;# 
   568  000E                     	;# 
   569  0011                     	;# 
   570  0012                     	;# 
   571  0015                     	;# 
   572  0016                     	;# 
   573  0016                     	;# 
   574  0017                     	;# 
   575  0018                     	;# 
   576  0019                     	;# 
   577  001A                     	;# 
   578  001B                     	;# 
   579  001C                     	;# 
   580  008C                     	;# 
   581  008D                     	;# 
   582  008E                     	;# 
   583  0091                     	;# 
   584  0092                     	;# 
   585  0095                     	;# 
   586  0096                     	;# 
   587  0097                     	;# 
   588  0098                     	;# 
   589  0099                     	;# 
   590  009A                     	;# 
   591  009B                     	;# 
   592  009B                     	;# 
   593  009C                     	;# 
   594  009D                     	;# 
   595  009E                     	;# 
   596  009F                     	;# 
   597  010C                     	;# 
   598  010D                     	;# 
   599  010E                     	;# 
   600  0111                     	;# 
   601  0112                     	;# 
   602  0113                     	;# 
   603  0114                     	;# 
   604  0115                     	;# 
   605  0116                     	;# 
   606  0117                     	;# 
   607  0118                     	;# 
   608  0119                     	;# 
   609  011D                     	;# 
   610  018C                     	;# 
   611  018D                     	;# 
   612  018E                     	;# 
   613  0191                     	;# 
   614  0191                     	;# 
   615  0192                     	;# 
   616  0193                     	;# 
   617  0193                     	;# 
   618  0194                     	;# 
   619  0195                     	;# 
   620  0196                     	;# 
   621  0197                     	;# 
   622  0199                     	;# 
   623  019A                     	;# 
   624  019B                     	;# 
   625  019B                     	;# 
   626  019C                     	;# 
   627  019D                     	;# 
   628  019E                     	;# 
   629  019F                     	;# 
   630  020C                     	;# 
   631  020D                     	;# 
   632  0211                     	;# 
   633  0211                     	;# 
   634  0212                     	;# 
   635  0212                     	;# 
   636  0213                     	;# 
   637  0213                     	;# 
   638  0214                     	;# 
   639  0214                     	;# 
   640  0215                     	;# 
   641  0215                     	;# 
   642  0215                     	;# 
   643  0216                     	;# 
   644  0216                     	;# 
   645  0217                     	;# 
   646  0217                     	;# 
   647  0391                     	;# 
   648  0392                     	;# 
   649  0393                     	;# 
   650  0394                     	;# 
   651  0395                     	;# 
   652  0396                     	;# 
   653  039A                     	;# 
   654  039B                     	;# 
   655  0611                     	;# 
   656  0612                     	;# 
   657  0613                     	;# 
   658  0613                     	;# 
   659  0614                     	;# 
   660  0615                     	;# 
   661  0616                     	;# 
   662  0616                     	;# 
   663  0691                     	;# 
   664  0692                     	;# 
   665  0693                     	;# 
   666  0694                     	;# 
   667  0695                     	;# 
   668  0E8E                     	;# 
   669  0E8F                     	;# 
   670  0E90                     	;# 
   671  0E91                     	;# 
   672  0E92                     	;# 
   673  0E93                     	;# 
   674  0E94                     	;# 
   675  0E94                     	;# 
   676  0E95                     	;# 
   677  0E96                     	;# 
   678  0E97                     	;# 
   679  0E98                     	;# 
   680  0E99                     	;# 
   681  0E9A                     	;# 
   682  0E9B                     	;# 
   683  0E9C                     	;# 
   684  0E9D                     	;# 
   685  0E9E                     	;# 
   686  0E9F                     	;# 
   687  0FE4                     	;# 
   688  0FE5                     	;# 
   689  0FE6                     	;# 
   690  0FE7                     	;# 
   691  0FE8                     	;# 
   692  0FE9                     	;# 
   693  0FEA                     	;# 
   694  0FEB                     	;# 
   695  0FED                     	;# 
   696  0FEE                     	;# 
   697  0FEF                     	;# 
   698  0000                     	;# 
   699  0001                     	;# 
   700  0002                     	;# 
   701  0003                     	;# 
   702  0004                     	;# 
   703  0005                     	;# 
   704  0006                     	;# 
   705  0007                     	;# 
   706  0008                     	;# 
   707  0009                     	;# 
   708  000A                     	;# 
   709  000B                     	;# 
   710  000C                     	;# 
   711  000D                     	;# 
   712  000E                     	;# 
   713  0011                     	;# 
   714  0012                     	;# 
   715  0015                     	;# 
   716  0016                     	;# 
   717  0016                     	;# 
   718  0017                     	;# 
   719  0018                     	;# 
   720  0019                     	;# 
   721  001A                     	;# 
   722  001B                     	;# 
   723  001C                     	;# 
   724  008C                     	;# 
   725  008D                     	;# 
   726  008E                     	;# 
   727  0091                     	;# 
   728  0092                     	;# 
   729  0095                     	;# 
   730  0096                     	;# 
   731  0097                     	;# 
   732  0098                     	;# 
   733  0099                     	;# 
   734  009A                     	;# 
   735  009B                     	;# 
   736  009B                     	;# 
   737  009C                     	;# 
   738  009D                     	;# 
   739  009E                     	;# 
   740  009F                     	;# 
   741  010C                     	;# 
   742  010D                     	;# 
   743  010E                     	;# 
   744  0111                     	;# 
   745  0112                     	;# 
   746  0113                     	;# 
   747  0114                     	;# 
   748  0115                     	;# 
   749  0116                     	;# 
   750  0117                     	;# 
   751  0118                     	;# 
   752  0119                     	;# 
   753  011D                     	;# 
   754  018C                     	;# 
   755  018D                     	;# 
   756  018E                     	;# 
   757  0191                     	;# 
   758  0191                     	;# 
   759  0192                     	;# 
   760  0193                     	;# 
   761  0193                     	;# 
   762  0194                     	;# 
   763  0195                     	;# 
   764  0196                     	;# 
   765  0197                     	;# 
   766  0199                     	;# 
   767  019A                     	;# 
   768  019B                     	;# 
   769  019B                     	;# 
   770  019C                     	;# 
   771  019D                     	;# 
   772  019E                     	;# 
   773  019F                     	;# 
   774  020C                     	;# 
   775  020D                     	;# 
   776  0211                     	;# 
   777  0211                     	;# 
   778  0212                     	;# 
   779  0212                     	;# 
   780  0213                     	;# 
   781  0213                     	;# 
   782  0214                     	;# 
   783  0214                     	;# 
   784  0215                     	;# 
   785  0215                     	;# 
   786  0215                     	;# 
   787  0216                     	;# 
   788  0216                     	;# 
   789  0217                     	;# 
   790  0217                     	;# 
   791  0391                     	;# 
   792  0392                     	;# 
   793  0393                     	;# 
   794  0394                     	;# 
   795  0395                     	;# 
   796  0396                     	;# 
   797  039A                     	;# 
   798  039B                     	;# 
   799  0611                     	;# 
   800  0612                     	;# 
   801  0613                     	;# 
   802  0613                     	;# 
   803  0614                     	;# 
   804  0615                     	;# 
   805  0616                     	;# 
   806  0616                     	;# 
   807  0691                     	;# 
   808  0692                     	;# 
   809  0693                     	;# 
   810  0694                     	;# 
   811  0695                     	;# 
   812  0E8E                     	;# 
   813  0E8F                     	;# 
   814  0E90                     	;# 
   815  0E91                     	;# 
   816  0E92                     	;# 
   817  0E93                     	;# 
   818  0E94                     	;# 
   819  0E94                     	;# 
   820  0E95                     	;# 
   821  0E96                     	;# 
   822  0E97                     	;# 
   823  0E98                     	;# 
   824  0E99                     	;# 
   825  0E9A                     	;# 
   826  0E9B                     	;# 
   827  0E9C                     	;# 
   828  0E9D                     	;# 
   829  0E9E                     	;# 
   830  0E9F                     	;# 
   831  0FE4                     	;# 
   832  0FE5                     	;# 
   833  0FE6                     	;# 
   834  0FE7                     	;# 
   835  0FE8                     	;# 
   836  0FE9                     	;# 
   837  0FEA                     	;# 
   838  0FEB                     	;# 
   839  0FED                     	;# 
   840  0FEE                     	;# 
   841  0FEF                     	;# 
   842  0000                     	;# 
   843  0001                     	;# 
   844  0002                     	;# 
   845  0003                     	;# 
   846  0004                     	;# 
   847  0005                     	;# 
   848  0006                     	;# 
   849  0007                     	;# 
   850  0008                     	;# 
   851  0009                     	;# 
   852  000A                     	;# 
   853  000B                     	;# 
   854  000C                     	;# 
   855  000D                     	;# 
   856  000E                     	;# 
   857  0011                     	;# 
   858  0012                     	;# 
   859  0015                     	;# 
   860  0016                     	;# 
   861  0016                     	;# 
   862  0017                     	;# 
   863  0018                     	;# 
   864  0019                     	;# 
   865  001A                     	;# 
   866  001B                     	;# 
   867  001C                     	;# 
   868  008C                     	;# 
   869  008D                     	;# 
   870  008E                     	;# 
   871  0091                     	;# 
   872  0092                     	;# 
   873  0095                     	;# 
   874  0096                     	;# 
   875  0097                     	;# 
   876  0098                     	;# 
   877  0099                     	;# 
   878  009A                     	;# 
   879  009B                     	;# 
   880  009B                     	;# 
   881  009C                     	;# 
   882  009D                     	;# 
   883  009E                     	;# 
   884  009F                     	;# 
   885  010C                     	;# 
   886  010D                     	;# 
   887  010E                     	;# 
   888  0111                     	;# 
   889  0112                     	;# 
   890  0113                     	;# 
   891  0114                     	;# 
   892  0115                     	;# 
   893  0116                     	;# 
   894  0117                     	;# 
   895  0118                     	;# 
   896  0119                     	;# 
   897  011D                     	;# 
   898  018C                     	;# 
   899  018D                     	;# 
   900  018E                     	;# 
   901  0191                     	;# 
   902  0191                     	;# 
   903  0192                     	;# 
   904  0193                     	;# 
   905  0193                     	;# 
   906  0194                     	;# 
   907  0195                     	;# 
   908  0196                     	;# 
   909  0197                     	;# 
   910  0199                     	;# 
   911  019A                     	;# 
   912  019B                     	;# 
   913  019B                     	;# 
   914  019C                     	;# 
   915  019D                     	;# 
   916  019E                     	;# 
   917  019F                     	;# 
   918  020C                     	;# 
   919  020D                     	;# 
   920  0211                     	;# 
   921  0211                     	;# 
   922  0212                     	;# 
   923  0212                     	;# 
   924  0213                     	;# 
   925  0213                     	;# 
   926  0214                     	;# 
   927  0214                     	;# 
   928  0215                     	;# 
   929  0215                     	;# 
   930  0215                     	;# 
   931  0216                     	;# 
   932  0216                     	;# 
   933  0217                     	;# 
   934  0217                     	;# 
   935  0391                     	;# 
   936  0392                     	;# 
   937  0393                     	;# 
   938  0394                     	;# 
   939  0395                     	;# 
   940  0396                     	;# 
   941  039A                     	;# 
   942  039B                     	;# 
   943  0611                     	;# 
   944  0612                     	;# 
   945  0613                     	;# 
   946  0613                     	;# 
   947  0614                     	;# 
   948  0615                     	;# 
   949  0616                     	;# 
   950  0616                     	;# 
   951  0691                     	;# 
   952  0692                     	;# 
   953  0693                     	;# 
   954  0694                     	;# 
   955  0695                     	;# 
   956  0E8E                     	;# 
   957  0E8F                     	;# 
   958  0E90                     	;# 
   959  0E91                     	;# 
   960  0E92                     	;# 
   961  0E93                     	;# 
   962  0E94                     	;# 
   963  0E94                     	;# 
   964  0E95                     	;# 
   965  0E96                     	;# 
   966  0E97                     	;# 
   967  0E98                     	;# 
   968  0E99                     	;# 
   969  0E9A                     	;# 
   970  0E9B                     	;# 
   971  0E9C                     	;# 
   972  0E9D                     	;# 
   973  0E9E                     	;# 
   974  0E9F                     	;# 
   975  0FE4                     	;# 
   976  0FE5                     	;# 
   977  0FE6                     	;# 
   978  0FE7                     	;# 
   979  0FE8                     	;# 
   980  0FE9                     	;# 
   981  0FEA                     	;# 
   982  0FEB                     	;# 
   983  0FED                     	;# 
   984  0FEE                     	;# 
   985  0FEF                     	;# 
   986  0000                     	;# 
   987  0001                     	;# 
   988  0002                     	;# 
   989  0003                     	;# 
   990  0004                     	;# 
   991  0005                     	;# 
   992  0006                     	;# 
   993  0007                     	;# 
   994  0008                     	;# 
   995  0009                     	;# 
   996  000A                     	;# 
   997  000B                     	;# 
   998  000C                     	;# 
   999  000D                     	;# 
  1000  000E                     	;# 
  1001  0011                     	;# 
  1002  0012                     	;# 
  1003  0015                     	;# 
  1004  0016                     	;# 
  1005  0016                     	;# 
  1006  0017                     	;# 
  1007  0018                     	;# 
  1008  0019                     	;# 
  1009  001A                     	;# 
  1010  001B                     	;# 
  1011  001C                     	;# 
  1012  008C                     	;# 
  1013  008D                     	;# 
  1014  008E                     	;# 
  1015  0091                     	;# 
  1016  0092                     	;# 
  1017  0095                     	;# 
  1018  0096                     	;# 
  1019  0097                     	;# 
  1020  0098                     	;# 
  1021  0099                     	;# 
  1022  009A                     	;# 
  1023  009B                     	;# 
  1024  009B                     	;# 
  1025  009C                     	;# 
  1026  009D                     	;# 
  1027  009E                     	;# 
  1028  009F                     	;# 
  1029  010C                     	;# 
  1030  010D                     	;# 
  1031  010E                     	;# 
  1032  0111                     	;# 
  1033  0112                     	;# 
  1034  0113                     	;# 
  1035  0114                     	;# 
  1036  0115                     	;# 
  1037  0116                     	;# 
  1038  0117                     	;# 
  1039  0118                     	;# 
  1040  0119                     	;# 
  1041  011D                     	;# 
  1042  018C                     	;# 
  1043  018D                     	;# 
  1044  018E                     	;# 
  1045  0191                     	;# 
  1046  0191                     	;# 
  1047  0192                     	;# 
  1048  0193                     	;# 
  1049  0193                     	;# 
  1050  0194                     	;# 
  1051  0195                     	;# 
  1052  0196                     	;# 
  1053  0197                     	;# 
  1054  0199                     	;# 
  1055  019A                     	;# 
  1056  019B                     	;# 
  1057  019B                     	;# 
  1058  019C                     	;# 
  1059  019D                     	;# 
  1060  019E                     	;# 
  1061  019F                     	;# 
  1062  020C                     	;# 
  1063  020D                     	;# 
  1064  0211                     	;# 
  1065  0211                     	;# 
  1066  0212                     	;# 
  1067  0212                     	;# 
  1068  0213                     	;# 
  1069  0213                     	;# 
  1070  0214                     	;# 
  1071  0214                     	;# 
  1072  0215                     	;# 
  1073  0215                     	;# 
  1074  0215                     	;# 
  1075  0216                     	;# 
  1076  0216                     	;# 
  1077  0217                     	;# 
  1078  0217                     	;# 
  1079  0391                     	;# 
  1080  0392                     	;# 
  1081  0393                     	;# 
  1082  0394                     	;# 
  1083  0395                     	;# 
  1084  0396                     	;# 
  1085  039A                     	;# 
  1086  039B                     	;# 
  1087  0611                     	;# 
  1088  0612                     	;# 
  1089  0613                     	;# 
  1090  0613                     	;# 
  1091  0614                     	;# 
  1092  0615                     	;# 
  1093  0616                     	;# 
  1094  0616                     	;# 
  1095  0691                     	;# 
  1096  0692                     	;# 
  1097  0693                     	;# 
  1098  0694                     	;# 
  1099  0695                     	;# 
  1100  0E8E                     	;# 
  1101  0E8F                     	;# 
  1102  0E90                     	;# 
  1103  0E91                     	;# 
  1104  0E92                     	;# 
  1105  0E93                     	;# 
  1106  0E94                     	;# 
  1107  0E94                     	;# 
  1108  0E95                     	;# 
  1109  0E96                     	;# 
  1110  0E97                     	;# 
  1111  0E98                     	;# 
  1112  0E99                     	;# 
  1113  0E9A                     	;# 
  1114  0E9B                     	;# 
  1115  0E9C                     	;# 
  1116  0E9D                     	;# 
  1117  0E9E                     	;# 
  1118  0E9F                     	;# 
  1119  0FE4                     	;# 
  1120  0FE5                     	;# 
  1121  0FE6                     	;# 
  1122  0FE7                     	;# 
  1123  0FE8                     	;# 
  1124  0FE9                     	;# 
  1125  0FEA                     	;# 
  1126  0FEB                     	;# 
  1127  0FED                     	;# 
  1128  0FEE                     	;# 
  1129  0FEF                     	;# 
  1130  0000                     	;# 
  1131  0001                     	;# 
  1132  0002                     	;# 
  1133  0003                     	;# 
  1134  0004                     	;# 
  1135  0005                     	;# 
  1136  0006                     	;# 
  1137  0007                     	;# 
  1138  0008                     	;# 
  1139  0009                     	;# 
  1140  000A                     	;# 
  1141  000B                     	;# 
  1142  000C                     	;# 
  1143  000D                     	;# 
  1144  000E                     	;# 
  1145  0011                     	;# 
  1146  0012                     	;# 
  1147  0015                     	;# 
  1148  0016                     	;# 
  1149  0016                     	;# 
  1150  0017                     	;# 
  1151  0018                     	;# 
  1152  0019                     	;# 
  1153  001A                     	;# 
  1154  001B                     	;# 
  1155  001C                     	;# 
  1156  008C                     	;# 
  1157  008D                     	;# 
  1158  008E                     	;# 
  1159  0091                     	;# 
  1160  0092                     	;# 
  1161  0095                     	;# 
  1162  0096                     	;# 
  1163  0097                     	;# 
  1164  0098                     	;# 
  1165  0099                     	;# 
  1166  009A                     	;# 
  1167  009B                     	;# 
  1168  009B                     	;# 
  1169  009C                     	;# 
  1170  009D                     	;# 
  1171  009E                     	;# 
  1172  009F                     	;# 
  1173  010C                     	;# 
  1174  010D                     	;# 
  1175  010E                     	;# 
  1176  0111                     	;# 
  1177  0112                     	;# 
  1178  0113                     	;# 
  1179  0114                     	;# 
  1180  0115                     	;# 
  1181  0116                     	;# 
  1182  0117                     	;# 
  1183  0118                     	;# 
  1184  0119                     	;# 
  1185  011D                     	;# 
  1186  018C                     	;# 
  1187  018D                     	;# 
  1188  018E                     	;# 
  1189  0191                     	;# 
  1190  0191                     	;# 
  1191  0192                     	;# 
  1192  0193                     	;# 
  1193  0193                     	;# 
  1194  0194                     	;# 
  1195  0195                     	;# 
  1196  0196                     	;# 
  1197  0197                     	;# 
  1198  0199                     	;# 
  1199  019A                     	;# 
  1200  019B                     	;# 
  1201  019B                     	;# 
  1202  019C                     	;# 
  1203  019D                     	;# 
  1204  019E                     	;# 
  1205  019F                     	;# 
  1206  020C                     	;# 
  1207  020D                     	;# 
  1208  0211                     	;# 
  1209  0211                     	;# 
  1210  0212                     	;# 
  1211  0212                     	;# 
  1212  0213                     	;# 
  1213  0213                     	;# 
  1214  0214                     	;# 
  1215  0214                     	;# 
  1216  0215                     	;# 
  1217  0215                     	;# 
  1218  0215                     	;# 
  1219  0216                     	;# 
  1220  0216                     	;# 
  1221  0217                     	;# 
  1222  0217                     	;# 
  1223  0391                     	;# 
  1224  0392                     	;# 
  1225  0393                     	;# 
  1226  0394                     	;# 
  1227  0395                     	;# 
  1228  0396                     	;# 
  1229  039A                     	;# 
  1230  039B                     	;# 
  1231  0611                     	;# 
  1232  0612                     	;# 
  1233  0613                     	;# 
  1234  0613                     	;# 
  1235  0614                     	;# 
  1236  0615                     	;# 
  1237  0616                     	;# 
  1238  0616                     	;# 
  1239  0691                     	;# 
  1240  0692                     	;# 
  1241  0693                     	;# 
  1242  0694                     	;# 
  1243  0695                     	;# 
  1244  0E8E                     	;# 
  1245  0E8F                     	;# 
  1246  0E90                     	;# 
  1247  0E91                     	;# 
  1248  0E92                     	;# 
  1249  0E93                     	;# 
  1250  0E94                     	;# 
  1251  0E94                     	;# 
  1252  0E95                     	;# 
  1253  0E96                     	;# 
  1254  0E97                     	;# 
  1255  0E98                     	;# 
  1256  0E99                     	;# 
  1257  0E9A                     	;# 
  1258  0E9B                     	;# 
  1259  0E9C                     	;# 
  1260  0E9D                     	;# 
  1261  0E9E                     	;# 
  1262  0E9F                     	;# 
  1263  0FE4                     	;# 
  1264  0FE5                     	;# 
  1265  0FE6                     	;# 
  1266  0FE7                     	;# 
  1267  0FE8                     	;# 
  1268  0FE9                     	;# 
  1269  0FEA                     	;# 
  1270  0FEB                     	;# 
  1271  0FED                     	;# 
  1272  0FEE                     	;# 
  1273  0FEF                     	;# 
  1274  0000                     	;# 
  1275  0001                     	;# 
  1276  0002                     	;# 
  1277  0003                     	;# 
  1278  0004                     	;# 
  1279  0005                     	;# 
  1280  0006                     	;# 
  1281  0007                     	;# 
  1282  0008                     	;# 
  1283  0009                     	;# 
  1284  000A                     	;# 
  1285  000B                     	;# 
  1286  000C                     	;# 
  1287  000D                     	;# 
  1288  000E                     	;# 
  1289  0011                     	;# 
  1290  0012                     	;# 
  1291  0015                     	;# 
  1292  0016                     	;# 
  1293  0016                     	;# 
  1294  0017                     	;# 
  1295  0018                     	;# 
  1296  0019                     	;# 
  1297  001A                     	;# 
  1298  001B                     	;# 
  1299  001C                     	;# 
  1300  008C                     	;# 
  1301  008D                     	;# 
  1302  008E                     	;# 
  1303  0091                     	;# 
  1304  0092                     	;# 
  1305  0095                     	;# 
  1306  0096                     	;# 
  1307  0097                     	;# 
  1308  0098                     	;# 
  1309  0099                     	;# 
  1310  009A                     	;# 
  1311  009B                     	;# 
  1312  009B                     	;# 
  1313  009C                     	;# 
  1314  009D                     	;# 
  1315  009E                     	;# 
  1316  009F                     	;# 
  1317  010C                     	;# 
  1318  010D                     	;# 
  1319  010E                     	;# 
  1320  0111                     	;# 
  1321  0112                     	;# 
  1322  0113                     	;# 
  1323  0114                     	;# 
  1324  0115                     	;# 
  1325  0116                     	;# 
  1326  0117                     	;# 
  1327  0118                     	;# 
  1328  0119                     	;# 
  1329  011D                     	;# 
  1330  018C                     	;# 
  1331  018D                     	;# 
  1332  018E                     	;# 
  1333  0191                     	;# 
  1334  0191                     	;# 
  1335  0192                     	;# 
  1336  0193                     	;# 
  1337  0193                     	;# 
  1338  0194                     	;# 
  1339  0195                     	;# 
  1340  0196                     	;# 
  1341  0197                     	;# 
  1342  0199                     	;# 
  1343  019A                     	;# 
  1344  019B                     	;# 
  1345  019B                     	;# 
  1346  019C                     	;# 
  1347  019D                     	;# 
  1348  019E                     	;# 
  1349  019F                     	;# 
  1350  020C                     	;# 
  1351  020D                     	;# 
  1352  0211                     	;# 
  1353  0211                     	;# 
  1354  0212                     	;# 
  1355  0212                     	;# 
  1356  0213                     	;# 
  1357  0213                     	;# 
  1358  0214                     	;# 
  1359  0214                     	;# 
  1360  0215                     	;# 
  1361  0215                     	;# 
  1362  0215                     	;# 
  1363  0216                     	;# 
  1364  0216                     	;# 
  1365  0217                     	;# 
  1366  0217                     	;# 
  1367  0391                     	;# 
  1368  0392                     	;# 
  1369  0393                     	;# 
  1370  0394                     	;# 
  1371  0395                     	;# 
  1372  0396                     	;# 
  1373  039A                     	;# 
  1374  039B                     	;# 
  1375  0611                     	;# 
  1376  0612                     	;# 
  1377  0613                     	;# 
  1378  0613                     	;# 
  1379  0614                     	;# 
  1380  0615                     	;# 
  1381  0616                     	;# 
  1382  0616                     	;# 
  1383  0691                     	;# 
  1384  0692                     	;# 
  1385  0693                     	;# 
  1386  0694                     	;# 
  1387  0695                     	;# 
  1388  0E8E                     	;# 
  1389  0E8F                     	;# 
  1390  0E90                     	;# 
  1391  0E91                     	;# 
  1392  0E92                     	;# 
  1393  0E93                     	;# 
  1394  0E94                     	;# 
  1395  0E94                     	;# 
  1396  0E95                     	;# 
  1397  0E96                     	;# 
  1398  0E97                     	;# 
  1399  0E98                     	;# 
  1400  0E99                     	;# 
  1401  0E9A                     	;# 
  1402  0E9B                     	;# 
  1403  0E9C                     	;# 
  1404  0E9D                     	;# 
  1405  0E9E                     	;# 
  1406  0E9F                     	;# 
  1407  0FE4                     	;# 
  1408  0FE5                     	;# 
  1409  0FE6                     	;# 
  1410  0FE7                     	;# 
  1411  0FE8                     	;# 
  1412  0FE9                     	;# 
  1413  0FEA                     	;# 
  1414  0FEB                     	;# 
  1415  0FED                     	;# 
  1416  0FEE                     	;# 
  1417  0FEF                     	;# 
  1418  0000                     	;# 
  1419  0001                     	;# 
  1420  0002                     	;# 
  1421  0003                     	;# 
  1422  0004                     	;# 
  1423  0005                     	;# 
  1424  0006                     	;# 
  1425  0007                     	;# 
  1426  0008                     	;# 
  1427  0009                     	;# 
  1428  000A                     	;# 
  1429  000B                     	;# 
  1430  000C                     	;# 
  1431  000D                     	;# 
  1432  000E                     	;# 
  1433  0011                     	;# 
  1434  0012                     	;# 
  1435  0015                     	;# 
  1436  0016                     	;# 
  1437  0016                     	;# 
  1438  0017                     	;# 
  1439  0018                     	;# 
  1440  0019                     	;# 
  1441  001A                     	;# 
  1442  001B                     	;# 
  1443  001C                     	;# 
  1444  008C                     	;# 
  1445  008D                     	;# 
  1446  008E                     	;# 
  1447  0091                     	;# 
  1448  0092                     	;# 
  1449  0095                     	;# 
  1450  0096                     	;# 
  1451  0097                     	;# 
  1452  0098                     	;# 
  1453  0099                     	;# 
  1454  009A                     	;# 
  1455  009B                     	;# 
  1456  009B                     	;# 
  1457  009C                     	;# 
  1458  009D                     	;# 
  1459  009E                     	;# 
  1460  009F                     	;# 
  1461  010C                     	;# 
  1462  010D                     	;# 
  1463  010E                     	;# 
  1464  0111                     	;# 
  1465  0112                     	;# 
  1466  0113                     	;# 
  1467  0114                     	;# 
  1468  0115                     	;# 
  1469  0116                     	;# 
  1470  0117                     	;# 
  1471  0118                     	;# 
  1472  0119                     	;# 
  1473  011D                     	;# 
  1474  018C                     	;# 
  1475  018D                     	;# 
  1476  018E                     	;# 
  1477  0191                     	;# 
  1478  0191                     	;# 
  1479  0192                     	;# 
  1480  0193                     	;# 
  1481  0193                     	;# 
  1482  0194                     	;# 
  1483  0195                     	;# 
  1484  0196                     	;# 
  1485  0197                     	;# 
  1486  0199                     	;# 
  1487  019A                     	;# 
  1488  019B                     	;# 
  1489  019B                     	;# 
  1490  019C                     	;# 
  1491  019D                     	;# 
  1492  019E                     	;# 
  1493  019F                     	;# 
  1494  020C                     	;# 
  1495  020D                     	;# 
  1496  0211                     	;# 
  1497  0211                     	;# 
  1498  0212                     	;# 
  1499  0212                     	;# 
  1500  0213                     	;# 
  1501  0213                     	;# 
  1502  0214                     	;# 
  1503  0214                     	;# 
  1504  0215                     	;# 
  1505  0215                     	;# 
  1506  0215                     	;# 
  1507  0216                     	;# 
  1508  0216                     	;# 
  1509  0217                     	;# 
  1510  0217                     	;# 
  1511  0391                     	;# 
  1512  0392                     	;# 
  1513  0393                     	;# 
  1514  0394                     	;# 
  1515  0395                     	;# 
  1516  0396                     	;# 
  1517  039A                     	;# 
  1518  039B                     	;# 
  1519  0611                     	;# 
  1520  0612                     	;# 
  1521  0613                     	;# 
  1522  0613                     	;# 
  1523  0614                     	;# 
  1524  0615                     	;# 
  1525  0616                     	;# 
  1526  0616                     	;# 
  1527  0691                     	;# 
  1528  0692                     	;# 
  1529  0693                     	;# 
  1530  0694                     	;# 
  1531  0695                     	;# 
  1532  0E8E                     	;# 
  1533  0E8F                     	;# 
  1534  0E90                     	;# 
  1535  0E91                     	;# 
  1536  0E92                     	;# 
  1537  0E93                     	;# 
  1538  0E94                     	;# 
  1539  0E94                     	;# 
  1540  0E95                     	;# 
  1541  0E96                     	;# 
  1542  0E97                     	;# 
  1543  0E98                     	;# 
  1544  0E99                     	;# 
  1545  0E9A                     	;# 
  1546  0E9B                     	;# 
  1547  0E9C                     	;# 
  1548  0E9D                     	;# 
  1549  0E9E                     	;# 
  1550  0E9F                     	;# 
  1551  0FE4                     	;# 
  1552  0FE5                     	;# 
  1553  0FE6                     	;# 
  1554  0FE7                     	;# 
  1555  0FE8                     	;# 
  1556  0FE9                     	;# 
  1557  0FEA                     	;# 
  1558  0FEB                     	;# 
  1559  0FED                     	;# 
  1560  0FEE                     	;# 
  1561  0FEF                     	;# 
  1562  0000                     	;# 
  1563  0001                     	;# 
  1564  0002                     	;# 
  1565  0003                     	;# 
  1566  0004                     	;# 
  1567  0005                     	;# 
  1568  0006                     	;# 
  1569  0007                     	;# 
  1570  0008                     	;# 
  1571  0009                     	;# 
  1572  000A                     	;# 
  1573  000B                     	;# 
  1574  000C                     	;# 
  1575  000D                     	;# 
  1576  000E                     	;# 
  1577  0011                     	;# 
  1578  0012                     	;# 
  1579  0015                     	;# 
  1580  0016                     	;# 
  1581  0016                     	;# 
  1582  0017                     	;# 
  1583  0018                     	;# 
  1584  0019                     	;# 
  1585  001A                     	;# 
  1586  001B                     	;# 
  1587  001C                     	;# 
  1588  008C                     	;# 
  1589  008D                     	;# 
  1590  008E                     	;# 
  1591  0091                     	;# 
  1592  0092                     	;# 
  1593  0095                     	;# 
  1594  0096                     	;# 
  1595  0097                     	;# 
  1596  0098                     	;# 
  1597  0099                     	;# 
  1598  009A                     	;# 
  1599  009B                     	;# 
  1600  009B                     	;# 
  1601  009C                     	;# 
  1602  009D                     	;# 
  1603  009E                     	;# 
  1604  009F                     	;# 
  1605  010C                     	;# 
  1606  010D                     	;# 
  1607  010E                     	;# 
  1608  0111                     	;# 
  1609  0112                     	;# 
  1610  0113                     	;# 
  1611  0114                     	;# 
  1612  0115                     	;# 
  1613  0116                     	;# 
  1614  0117                     	;# 
  1615  0118                     	;# 
  1616  0119                     	;# 
  1617  011D                     	;# 
  1618  018C                     	;# 
  1619  018D                     	;# 
  1620  018E                     	;# 
  1621  0191                     	;# 
  1622  0191                     	;# 
  1623  0192                     	;# 
  1624  0193                     	;# 
  1625  0193                     	;# 
  1626  0194                     	;# 
  1627  0195                     	;# 
  1628  0196                     	;# 
  1629  0197                     	;# 
  1630  0199                     	;# 
  1631  019A                     	;# 
  1632  019B                     	;# 
  1633  019B                     	;# 
  1634  019C                     	;# 
  1635  019D                     	;# 
  1636  019E                     	;# 
  1637  019F                     	;# 
  1638  020C                     	;# 
  1639  020D                     	;# 
  1640  0211                     	;# 
  1641  0211                     	;# 
  1642  0212                     	;# 
  1643  0212                     	;# 
  1644  0213                     	;# 
  1645  0213                     	;# 
  1646  0214                     	;# 
  1647  0214                     	;# 
  1648  0215                     	;# 
  1649  0215                     	;# 
  1650  0215                     	;# 
  1651  0216                     	;# 
  1652  0216                     	;# 
  1653  0217                     	;# 
  1654  0217                     	;# 
  1655  0391                     	;# 
  1656  0392                     	;# 
  1657  0393                     	;# 
  1658  0394                     	;# 
  1659  0395                     	;# 
  1660  0396                     	;# 
  1661  039A                     	;# 
  1662  039B                     	;# 
  1663  0611                     	;# 
  1664  0612                     	;# 
  1665  0613                     	;# 
  1666  0613                     	;# 
  1667  0614                     	;# 
  1668  0615                     	;# 
  1669  0616                     	;# 
  1670  0616                     	;# 
  1671  0691                     	;# 
  1672  0692                     	;# 
  1673  0693                     	;# 
  1674  0694                     	;# 
  1675  0695                     	;# 
  1676  0E8E                     	;# 
  1677  0E8F                     	;# 
  1678  0E90                     	;# 
  1679  0E91                     	;# 
  1680  0E92                     	;# 
  1681  0E93                     	;# 
  1682  0E94                     	;# 
  1683  0E94                     	;# 
  1684  0E95                     	;# 
  1685  0E96                     	;# 
  1686  0E97                     	;# 
  1687  0E98                     	;# 
  1688  0E99                     	;# 
  1689  0E9A                     	;# 
  1690  0E9B                     	;# 
  1691  0E9C                     	;# 
  1692  0E9D                     	;# 
  1693  0E9E                     	;# 
  1694  0E9F                     	;# 
  1695  0FE4                     	;# 
  1696  0FE5                     	;# 
  1697  0FE6                     	;# 
  1698  0FE7                     	;# 
  1699  0FE8                     	;# 
  1700  0FE9                     	;# 
  1701  0FEA                     	;# 
  1702  0FEB                     	;# 
  1703  0FED                     	;# 
  1704  0FEE                     	;# 
  1705  0FEF                     	;# 
  1706  0000                     	;# 
  1707  0001                     	;# 
  1708  0002                     	;# 
  1709  0003                     	;# 
  1710  0004                     	;# 
  1711  0005                     	;# 
  1712  0006                     	;# 
  1713  0007                     	;# 
  1714  0008                     	;# 
  1715  0009                     	;# 
  1716  000A                     	;# 
  1717  000B                     	;# 
  1718  000C                     	;# 
  1719  000D                     	;# 
  1720  000E                     	;# 
  1721  0011                     	;# 
  1722  0012                     	;# 
  1723  0015                     	;# 
  1724  0016                     	;# 
  1725  0016                     	;# 
  1726  0017                     	;# 
  1727  0018                     	;# 
  1728  0019                     	;# 
  1729  001A                     	;# 
  1730  001B                     	;# 
  1731  001C                     	;# 
  1732  008C                     	;# 
  1733  008D                     	;# 
  1734  008E                     	;# 
  1735  0091                     	;# 
  1736  0092                     	;# 
  1737  0095                     	;# 
  1738  0096                     	;# 
  1739  0097                     	;# 
  1740  0098                     	;# 
  1741  0099                     	;# 
  1742  009A                     	;# 
  1743  009B                     	;# 
  1744  009B                     	;# 
  1745  009C                     	;# 
  1746  009D                     	;# 
  1747  009E                     	;# 
  1748  009F                     	;# 
  1749  010C                     	;# 
  1750  010D                     	;# 
  1751  010E                     	;# 
  1752  0111                     	;# 
  1753  0112                     	;# 
  1754  0113                     	;# 
  1755  0114                     	;# 
  1756  0115                     	;# 
  1757  0116                     	;# 
  1758  0117                     	;# 
  1759  0118                     	;# 
  1760  0119                     	;# 
  1761  011D                     	;# 
  1762  018C                     	;# 
  1763  018D                     	;# 
  1764  018E                     	;# 
  1765  0191                     	;# 
  1766  0191                     	;# 
  1767  0192                     	;# 
  1768  0193                     	;# 
  1769  0193                     	;# 
  1770  0194                     	;# 
  1771  0195                     	;# 
  1772  0196                     	;# 
  1773  0197                     	;# 
  1774  0199                     	;# 
  1775  019A                     	;# 
  1776  019B                     	;# 
  1777  019B                     	;# 
  1778  019C                     	;# 
  1779  019D                     	;# 
  1780  019E                     	;# 
  1781  019F                     	;# 
  1782  020C                     	;# 
  1783  020D                     	;# 
  1784  0211                     	;# 
  1785  0211                     	;# 
  1786  0212                     	;# 
  1787  0212                     	;# 
  1788  0213                     	;# 
  1789  0213                     	;# 
  1790  0214                     	;# 
  1791  0214                     	;# 
  1792  0215                     	;# 
  1793  0215                     	;# 
  1794  0215                     	;# 
  1795  0216                     	;# 
  1796  0216                     	;# 
  1797  0217                     	;# 
  1798  0217                     	;# 
  1799  0391                     	;# 
  1800  0392                     	;# 
  1801  0393                     	;# 
  1802  0394                     	;# 
  1803  0395                     	;# 
  1804  0396                     	;# 
  1805  039A                     	;# 
  1806  039B                     	;# 
  1807  0611                     	;# 
  1808  0612                     	;# 
  1809  0613                     	;# 
  1810  0613                     	;# 
  1811  0614                     	;# 
  1812  0615                     	;# 
  1813  0616                     	;# 
  1814  0616                     	;# 
  1815  0691                     	;# 
  1816  0692                     	;# 
  1817  0693                     	;# 
  1818  0694                     	;# 
  1819  0695                     	;# 
  1820  0E8E                     	;# 
  1821  0E8F                     	;# 
  1822  0E90                     	;# 
  1823  0E91                     	;# 
  1824  0E92                     	;# 
  1825  0E93                     	;# 
  1826  0E94                     	;# 
  1827  0E94                     	;# 
  1828  0E95                     	;# 
  1829  0E96                     	;# 
  1830  0E97                     	;# 
  1831  0E98                     	;# 
  1832  0E99                     	;# 
  1833  0E9A                     	;# 
  1834  0E9B                     	;# 
  1835  0E9C                     	;# 
  1836  0E9D                     	;# 
  1837  0E9E                     	;# 
  1838  0E9F                     	;# 
  1839  0FE4                     	;# 
  1840  0FE5                     	;# 
  1841  0FE6                     	;# 
  1842  0FE7                     	;# 
  1843  0FE8                     	;# 
  1844  0FE9                     	;# 
  1845  0FEA                     	;# 
  1846  0FEB                     	;# 
  1847  0FED                     	;# 
  1848  0FEE                     	;# 
  1849  0FEF                     	;_measarray
  1850                           
  1851 ;; Function _IOCAF5_DefaultInterruptHandler is unused but had its address taken
  1852  0000                     
  1853                           	psect	idataBIGRAM
  1854  007F                     __pidataBIGRAM:
  1855                           
  1856                           ;initializer for _measarray
  1857  007F  3400               	retlw	0
  1858  0080  3400               	retlw	0
  1859  0081  3401               	retlw	1
  1860  0082  3400               	retlw	0
  1861  0083  3402               	retlw	2
  1862  0084  3400               	retlw	0
  1863  0085  3403               	retlw	3
  1864  0086  3400               	retlw	0
  1865  0087  3404               	retlw	4
  1866  0088  3400               	retlw	0
  1867  0089  3405               	retlw	5
  1868  008A  3400               	retlw	0
  1869  008B  3406               	retlw	6
  1870  008C  3400               	retlw	0
  1871  008D  3407               	retlw	7
  1872  008E  3400               	retlw	0
  1873  008F  3408               	retlw	8
  1874  0090  3400               	retlw	0
  1875  0091  3409               	retlw	9
  1876  0092  3400               	retlw	0
  1877  0093  340A               	retlw	10
  1878  0094  3400               	retlw	0
  1879  0095  340B               	retlw	11
  1880  0096  3400               	retlw	0
  1881  0097  340C               	retlw	12
  1882  0098  3400               	retlw	0
  1883  0099  340D               	retlw	13
  1884  009A  3400               	retlw	0
  1885  009B  340E               	retlw	14
  1886  009C  3400               	retlw	0
  1887  009D  340F               	retlw	15
  1888  009E  3400               	retlw	0
  1889  009F  3410               	retlw	16
  1890  00A0  3400               	retlw	0
  1891  00A1  3411               	retlw	17
  1892  00A2  3400               	retlw	0
  1893  00A3  3412               	retlw	18
  1894  00A4  3400               	retlw	0
  1895  00A5  3413               	retlw	19
  1896  00A6  3400               	retlw	0
  1897  00A7  3414               	retlw	20
  1898  00A8  3400               	retlw	0
  1899  00A9  3415               	retlw	21
  1900  00AA  3400               	retlw	0
  1901  00AB  3416               	retlw	22
  1902  00AC  3400               	retlw	0
  1903  00AD  3417               	retlw	23
  1904  00AE  3400               	retlw	0
  1905  00AF  3418               	retlw	24
  1906  00B0  3400               	retlw	0
  1907  00B1  3419               	retlw	25
  1908  00B2  3400               	retlw	0
  1909  00B3  341A               	retlw	26
  1910  00B4  3400               	retlw	0
  1911  00B5  341B               	retlw	27
  1912  00B6  3400               	retlw	0
  1913  00B7  341C               	retlw	28
  1914  00B8  3400               	retlw	0
  1915  00B9  341D               	retlw	29
  1916  00BA  3400               	retlw	0
  1917  00BB  341E               	retlw	30
  1918  00BC  3400               	retlw	0
  1919  00BD  341F               	retlw	31
  1920  00BE  3400               	retlw	0
  1921  00BF  3420               	retlw	32
  1922  00C0  3400               	retlw	0
  1923  00C1  3421               	retlw	33
  1924  00C2  3400               	retlw	0
  1925  00C3  3422               	retlw	34
  1926  00C4  3400               	retlw	0
  1927  00C5  3423               	retlw	35
  1928  00C6  3400               	retlw	0
  1929  00C7  3424               	retlw	36
  1930  00C8  3400               	retlw	0
  1931  00C9  3425               	retlw	37
  1932  00CA  3400               	retlw	0
  1933  00CB  3426               	retlw	38
  1934  00CC  3400               	retlw	0
  1935  00CD  3427               	retlw	39
  1936  00CE  3400               	retlw	0
  1937  00CF  3428               	retlw	40
  1938  00D0  3400               	retlw	0
  1939  00D1  3429               	retlw	41
  1940  00D2  3400               	retlw	0
  1941  00D3  342A               	retlw	42
  1942  00D4  3400               	retlw	0
  1943  00D5  342B               	retlw	43
  1944  00D6  3400               	retlw	0
  1945  00D7  342C               	retlw	44
  1946  00D8  3400               	retlw	0
  1947  00D9  342D               	retlw	45
  1948  00DA  3400               	retlw	0
  1949  00DB  342E               	retlw	46
  1950  00DC  3400               	retlw	0
  1951  00DD  342F               	retlw	47
  1952  00DE  3400               	retlw	0
  1953  00DF  3430               	retlw	48
  1954  00E0  3400               	retlw	0
  1955  00E1  3431               	retlw	49
  1956  00E2  3400               	retlw	0
  1957  00E3  3432               	retlw	50
  1958  00E4  3400               	retlw	0
  1959  00E5  3433               	retlw	51
  1960  00E6  3400               	retlw	0
  1961  00E7  3434               	retlw	52
  1962  00E8  3400               	retlw	0
  1963  00E9  3435               	retlw	53
  1964  00EA  3400               	retlw	0
  1965  00EB  3436               	retlw	54
  1966  00EC  3400               	retlw	0
  1967  00ED  3437               	retlw	55
  1968  00EE  3400               	retlw	0
  1969  00EF  3438               	retlw	56
  1970  00F0  3400               	retlw	0
  1971  00F1  3439               	retlw	57
  1972  00F2  3400               	retlw	0
  1973  00F3  343A               	retlw	58
  1974  00F4  3400               	retlw	0
  1975  00F5  343B               	retlw	59
  1976  00F6  3400               	retlw	0
  1977  00F7  343C               	retlw	60
  1978  00F8  3400               	retlw	0
  1979  00F9  343D               	retlw	61
  1980  00FA  3400               	retlw	0
  1981  00FB  343E               	retlw	62
  1982  00FC  3400               	retlw	0
  1983  00FD  343F               	retlw	63
  1984  00FE  3400               	retlw	0
  1985  00FF  3440               	retlw	64
  1986  0100  3400               	retlw	0
  1987  0101  3441               	retlw	65
  1988  0102  3400               	retlw	0
  1989  0103  3442               	retlw	66
  1990  0104  3400               	retlw	0
  1991  0105  3443               	retlw	67
  1992  0106  3400               	retlw	0
  1993  0107  3444               	retlw	68
  1994  0108  3400               	retlw	0
  1995  0109  3445               	retlw	69
  1996  010A  3400               	retlw	0
  1997  010B  3446               	retlw	70
  1998  010C  3400               	retlw	0
  1999  010D  3447               	retlw	71
  2000  010E  3400               	retlw	0
  2001  010F  3448               	retlw	72
  2002  0110  3400               	retlw	0
  2003  0111  3449               	retlw	73
  2004  0112  3400               	retlw	0
  2005  0113  344A               	retlw	74
  2006  0114  3400               	retlw	0
  2007  0115  344B               	retlw	75
  2008  0116  3400               	retlw	0
  2009  0117  344C               	retlw	76
  2010  0118  3400               	retlw	0
  2011  0119  344D               	retlw	77
  2012  011A  3400               	retlw	0
  2013  011B  344E               	retlw	78
  2014  011C  3400               	retlw	0
  2015  011D  344F               	retlw	79
  2016  011E  3400               	retlw	0
  2017  011F  3450               	retlw	80
  2018  0120  3400               	retlw	0
  2019  0121  3451               	retlw	81
  2020  0122  3400               	retlw	0
  2021  0123  3452               	retlw	82
  2022  0124  3400               	retlw	0
  2023  0125  3453               	retlw	83
  2024  0126  3400               	retlw	0
  2025  0127  3454               	retlw	84
  2026  0128  3400               	retlw	0
  2027  0129  3455               	retlw	85
  2028  012A  3400               	retlw	0
  2029  012B  3456               	retlw	86
  2030  012C  3400               	retlw	0
  2031  012D  3457               	retlw	87
  2032  012E  3400               	retlw	0
  2033  012F  3458               	retlw	88
  2034  0130  3400               	retlw	0
  2035  0131  3459               	retlw	89
  2036  0132  3400               	retlw	0
  2037  0133  345A               	retlw	90
  2038  0134  3400               	retlw	0
  2039  0135  345B               	retlw	91
  2040  0136  3400               	retlw	0
  2041  0137  345C               	retlw	92
  2042  0138  3400               	retlw	0
  2043  0139  345D               	retlw	93
  2044  013A  3400               	retlw	0
  2045  013B  345E               	retlw	94
  2046  013C  3400               	retlw	0
  2047  013D  345F               	retlw	95
  2048  013E  3400               	retlw	0
  2049  013F  3460               	retlw	96
  2050  0140  3400               	retlw	0
  2051  0141  3461               	retlw	97
  2052  0142  3400               	retlw	0
  2053  0143  3462               	retlw	98
  2054  0144  3400               	retlw	0
  2055  0145  3463               	retlw	99
  2056  0146  3400               	retlw	0
  2057  0147  3464               	retlw	100
  2058  0148  3400               	retlw	0
  2059  0149  3465               	retlw	101
  2060  014A  3400               	retlw	0
  2061  014B  3466               	retlw	102
  2062  014C  3400               	retlw	0
  2063  014D  3467               	retlw	103
  2064  014E  3400               	retlw	0
  2065  014F  3468               	retlw	104
  2066  0150  3400               	retlw	0
  2067  0151  3469               	retlw	105
  2068  0152  3400               	retlw	0
  2069  0153  346A               	retlw	106
  2070  0154  3400               	retlw	0
  2071  0155  346B               	retlw	107
  2072  0156  3400               	retlw	0
  2073  0157  346C               	retlw	108
  2074  0158  3400               	retlw	0
  2075  0159  346D               	retlw	109
  2076  015A  3400               	retlw	0
  2077  015B  346E               	retlw	110
  2078  015C  3400               	retlw	0
  2079  015D  346F               	retlw	111
  2080  015E  3400               	retlw	0
  2081  015F  3470               	retlw	112
  2082  0160  3400               	retlw	0
  2083  0161  3471               	retlw	113
  2084  0162  3400               	retlw	0
  2085  0163  3472               	retlw	114
  2086  0164  3400               	retlw	0
  2087  0165  3473               	retlw	115
  2088  0166  3400               	retlw	0
  2089  0167  3474               	retlw	116
  2090  0168  3400               	retlw	0
  2091  0169  3475               	retlw	117
  2092  016A  3400               	retlw	0
  2093  016B  3476               	retlw	118
  2094  016C  3400               	retlw	0
  2095  016D  3477               	retlw	119
  2096  016E  3400               	retlw	0
  2097  016F  3478               	retlw	120
  2098  0170  3400               	retlw	0
  2099  0171  3479               	retlw	121
  2100  0172  3400               	retlw	0
  2101  0173  347A               	retlw	122
  2102  0174  3400               	retlw	0
  2103  0175  347B               	retlw	123
  2104  0176  3400               	retlw	0
  2105  0177  347C               	retlw	124
  2106  0178  3400               	retlw	0
  2107  0179  347D               	retlw	125
  2108  017A  3400               	retlw	0
  2109  017B  347E               	retlw	126
  2110  017C  3400               	retlw	0
  2111  017D  347F               	retlw	127
  2112  017E  3400               	retlw	0
  2113  017F  3480               	retlw	128
  2114  0180  3400               	retlw	0
  2115  0181  3481               	retlw	129
  2116  0182  3400               	retlw	0
  2117  0183  3482               	retlw	130
  2118  0184  3400               	retlw	0
  2119  0185  3483               	retlw	131
  2120  0186  3400               	retlw	0
  2121  0187  3484               	retlw	132
  2122  0188  3400               	retlw	0
  2123  0189  3485               	retlw	133
  2124  018A  3400               	retlw	0
  2125  018B  3486               	retlw	134
  2126  018C  3400               	retlw	0
  2127  018D  3487               	retlw	135
  2128  018E  3400               	retlw	0
  2129  018F  3488               	retlw	136
  2130  0190  3400               	retlw	0
  2131  0191  3489               	retlw	137
  2132  0192  3400               	retlw	0
  2133  0193  348A               	retlw	138
  2134  0194  3400               	retlw	0
  2135  0195  348B               	retlw	139
  2136  0196  3400               	retlw	0
  2137  0197  348C               	retlw	140
  2138  0198  3400               	retlw	0
  2139  0199  348D               	retlw	141
  2140  019A  3400               	retlw	0
  2141  019B  348E               	retlw	142
  2142  019C  3400               	retlw	0
  2143  019D  348F               	retlw	143
  2144  019E  3400               	retlw	0
  2145  019F  3490               	retlw	144
  2146  01A0  3400               	retlw	0
  2147  01A1  3491               	retlw	145
  2148  01A2  3400               	retlw	0
  2149  01A3  3492               	retlw	146
  2150  01A4  3400               	retlw	0
  2151  01A5  3493               	retlw	147
  2152  01A6  3400               	retlw	0
  2153  01A7  3494               	retlw	148
  2154  01A8  3400               	retlw	0
  2155  01A9  3495               	retlw	149
  2156  01AA  3400               	retlw	0
  2157  01AB  3496               	retlw	150
  2158  01AC  3400               	retlw	0
  2159  01AD  3497               	retlw	151
  2160  01AE  3400               	retlw	0
  2161  01AF  3498               	retlw	152
  2162  01B0  3400               	retlw	0
  2163  01B1  3499               	retlw	153
  2164  01B2  3400               	retlw	0
  2165  01B3  349A               	retlw	154
  2166  01B4  3400               	retlw	0
  2167  01B5  349B               	retlw	155
  2168  01B6  3400               	retlw	0
  2169  01B7  349C               	retlw	156
  2170  01B8  3400               	retlw	0
  2171  01B9  349D               	retlw	157
  2172  01BA  3400               	retlw	0
  2173  01BB  349E               	retlw	158
  2174  01BC  3400               	retlw	0
  2175  01BD  349F               	retlw	159
  2176  01BE  3400               	retlw	0
  2177  01BF  34A0               	retlw	160
  2178  01C0  3400               	retlw	0
  2179  01C1  34A1               	retlw	161
  2180  01C2  3400               	retlw	0
  2181  01C3  34A2               	retlw	162
  2182  01C4  3400               	retlw	0
  2183  01C5  34A3               	retlw	163
  2184  01C6  3400               	retlw	0
  2185  01C7  34A4               	retlw	164
  2186  01C8  3400               	retlw	0
  2187  01C9  34A5               	retlw	165
  2188  01CA  3400               	retlw	0
  2189  01CB  34A6               	retlw	166
  2190  01CC  3400               	retlw	0
  2191  01CD  34A7               	retlw	167
  2192  01CE  3400               	retlw	0
  2193  01CF  34A8               	retlw	168
  2194  01D0  3400               	retlw	0
  2195  01D1  34A9               	retlw	169
  2196  01D2  3400               	retlw	0
  2197  01D3  34AA               	retlw	170
  2198  01D4  3400               	retlw	0
  2199  01D5  34AB               	retlw	171
  2200  01D6  3400               	retlw	0
  2201  01D7  34AC               	retlw	172
  2202  01D8  3400               	retlw	0
  2203  01D9  34AD               	retlw	173
  2204  01DA  3400               	retlw	0
  2205  01DB  34AE               	retlw	174
  2206  01DC  3400               	retlw	0
  2207  01DD  34AF               	retlw	175
  2208  01DE  3400               	retlw	0
  2209  01DF  34B0               	retlw	176
  2210  01E0  3400               	retlw	0
  2211  01E1  34B1               	retlw	177
  2212  01E2  3400               	retlw	0
  2213  01E3  34B2               	retlw	178
  2214  01E4  3400               	retlw	0
  2215  01E5  34B3               	retlw	179
  2216  01E6  3400               	retlw	0
  2217  01E7  34B4               	retlw	180
  2218  01E8  3400               	retlw	0
  2219  01E9  34B5               	retlw	181
  2220  01EA  3400               	retlw	0
  2221  01EB  34B6               	retlw	182
  2222  01EC  3400               	retlw	0
  2223  01ED  34B7               	retlw	183
  2224  01EE  3400               	retlw	0
  2225  01EF  34B8               	retlw	184
  2226  01F0  3400               	retlw	0
  2227  01F1  34B9               	retlw	185
  2228  01F2  3400               	retlw	0
  2229  01F3  34BA               	retlw	186
  2230  01F4  3400               	retlw	0
  2231  01F5  34BB               	retlw	187
  2232  01F6  3400               	retlw	0
  2233  01F7  34BC               	retlw	188
  2234  01F8  3400               	retlw	0
  2235  01F9  34BD               	retlw	189
  2236  01FA  3400               	retlw	0
  2237  01FB  34BE               	retlw	190
  2238  01FC  3400               	retlw	0
  2239  01FD  34BF               	retlw	191
  2240  01FE  3400               	retlw	0
  2241  01FF  34C0               	retlw	192
  2242  0200  3400               	retlw	0
  2243  0201  34C1               	retlw	193
  2244  0202  3400               	retlw	0
  2245  0203  34C2               	retlw	194
  2246  0204  3400               	retlw	0
  2247  0205  34C3               	retlw	195
  2248  0206  3400               	retlw	0
  2249  0207  34C4               	retlw	196
  2250  0208  3400               	retlw	0
  2251  0209  34C5               	retlw	197
  2252  020A  3400               	retlw	0
  2253  020B  34C6               	retlw	198
  2254  020C  3400               	retlw	0
  2255  020D  34C7               	retlw	199
  2256  020E  3400               	retlw	0
  2257  020F  34C8               	retlw	200
  2258  0210  3400               	retlw	0
  2259  0211  34C9               	retlw	201
  2260  0212  3400               	retlw	0
  2261  0213  34CA               	retlw	202
  2262  0214  3400               	retlw	0
  2263  0215  34CB               	retlw	203
  2264  0216  3400               	retlw	0
  2265  0217  34CC               	retlw	204
  2266  0218  3400               	retlw	0
  2267  0219  34CD               	retlw	205
  2268  021A  3400               	retlw	0
  2269  021B  34CE               	retlw	206
  2270  021C  3400               	retlw	0
  2271  021D  34CF               	retlw	207
  2272  021E  3400               	retlw	0
  2273                           
  2274                           	psect	idataBANK4
  2275  1747                     __pidataBANK4:
  2276                           
  2277                           ;initializer for _data
  2278  1747  3400               	retlw	0
  2279  1748  3401               	retlw	1
  2280  1749  3402               	retlw	2
  2281  174A  3403               	retlw	3
  2282  174B  3404               	retlw	4
  2283  174C  3405               	retlw	5
  2284  174D  3406               	retlw	6
  2285  174E  3407               	retlw	7
  2286  174F  3408               	retlw	8
  2287  1750  3409               	retlw	9
  2288  1751  340A               	retlw	10
  2289  1752  340B               	retlw	11
  2290  1753  340C               	retlw	12
  2291  1754  340D               	retlw	13
  2292  1755  340E               	retlw	14
  2293  1756  340F               	retlw	15
  2294  1757  3410               	retlw	16
  2295  1758  3411               	retlw	17
  2296  1759  3412               	retlw	18
  2297  175A  3413               	retlw	19
  2298  175B  3414               	retlw	20
  2299  175C  3415               	retlw	21
  2300  175D  3416               	retlw	22
  2301  175E  3417               	retlw	23
  2302  175F  3418               	retlw	24
  2303  1760  3419               	retlw	25
  2304  1761  341A               	retlw	26
  2305  1762  341B               	retlw	27
  2306  1763  341C               	retlw	28
  2307  1764  341D               	retlw	29
  2308  1765  341E               	retlw	30
  2309  1766  341F               	retlw	31
  2310                           
  2311                           	psect	stringtext1
  2312  1828                     __pstringtext1:
  2313  1828                     _USB_SD_Ptr:
  2314  1828  3438               	retlw	low (_sd000| (0+32768))
  2315  1829  3498               	retlw	high (_sd000| (0+32768))
  2316  182A  3443               	retlw	low (_sd001| (0+32768))
  2317  182B  3490               	retlw	high (_sd001| (0+32768))
  2318  182C  3400               	retlw	low (_sd002| (0+32768))
  2319  182D  3498               	retlw	high (_sd002| (0+32768))
  2320  182E  3430               	retlw	low (_sd003| (0+32768))
  2321  182F  3498               	retlw	high (_sd003| (0+32768))
  2322  1830                     __end_of_USB_SD_Ptr:
  2323                           
  2324                           	psect	stringtext2
  2325  183C                     __pstringtext2:
  2326  183C                     _USB_CD_Ptr:
  2327  183C  3400               	retlw	low (_configDescriptor1| (0+32768))
  2328  183D  3490               	retlw	high (_configDescriptor1| (0+32768))
  2329  183E                     __end_of_USB_CD_Ptr:
  2330                           
  2331                           	psect	stringtext3
  2332  1000                     __pstringtext3:
  2333  1000                     _configDescriptor1:
  2334  1000  3409               	retlw	9
  2335  1001  3402               	retlw	2
  2336  1002  3443               	retlw	67
  2337  1003  3400               	retlw	0
  2338  1004  3402               	retlw	2
  2339  1005  3401               	retlw	1
  2340  1006  3400               	retlw	0
  2341  1007  34C0               	retlw	192
  2342  1008  3432               	retlw	50
  2343  1009  3409               	retlw	9
  2344  100A  3404               	retlw	4
  2345  100B  3400               	retlw	0
  2346  100C  3400               	retlw	0
  2347  100D  3401               	retlw	1
  2348  100E  3402               	retlw	2
  2349  100F  3402               	retlw	2
  2350  1010  3401               	retlw	1
  2351  1011  3400               	retlw	0
  2352  1012  3405               	retlw	5
  2353  1013  3424               	retlw	36
  2354  1014  3400               	retlw	0
  2355  1015  3410               	retlw	16
  2356  1016  3401               	retlw	1
  2357  1017  3404               	retlw	4
  2358  1018  3424               	retlw	36
  2359  1019  3402               	retlw	2
  2360  101A  3402               	retlw	2
  2361  101B  3405               	retlw	5
  2362  101C  3424               	retlw	36
  2363  101D  3406               	retlw	6
  2364  101E  3400               	retlw	0
  2365  101F  3401               	retlw	1
  2366  1020  3405               	retlw	5
  2367  1021  3424               	retlw	36
  2368  1022  3401               	retlw	1
  2369  1023  3400               	retlw	0
  2370  1024  3401               	retlw	1
  2371  1025  3407               	retlw	7
  2372  1026  3405               	retlw	5
  2373  1027  3481               	retlw	129
  2374  1028  3403               	retlw	3
  2375  1029  340A               	retlw	10
  2376  102A  3400               	retlw	0
  2377  102B  3402               	retlw	2
  2378  102C  3409               	retlw	9
  2379  102D  3404               	retlw	4
  2380  102E  3401               	retlw	1
  2381  102F  3400               	retlw	0
  2382  1030  3402               	retlw	2
  2383  1031  340A               	retlw	10
  2384  1032  3400               	retlw	0
  2385  1033  3400               	retlw	0
  2386  1034  3400               	retlw	0
  2387  1035  3407               	retlw	7
  2388  1036  3405               	retlw	5
  2389  1037  3402               	retlw	2
  2390  1038  3402               	retlw	2
  2391  1039  3440               	retlw	64
  2392  103A  3400               	retlw	0
  2393  103B  3400               	retlw	0
  2394  103C  3407               	retlw	7
  2395  103D  3405               	retlw	5
  2396  103E  3482               	retlw	130
  2397  103F  3402               	retlw	2
  2398  1040  3440               	retlw	64
  2399  1041  3400               	retlw	0
  2400  1042  3400               	retlw	0
  2401  1043                     __end_of_configDescriptor1:
  2402                           
  2403                           	psect	stringtext4
  2404  1043                     __pstringtext4:
  2405  1043                     _sd001:
  2406  1043  3434               	retlw	52
  2407  1044  3403               	retlw	3
  2408  1045  344D               	retlw	77
  2409  1046  3400               	retlw	0
  2410  1047  3469               	retlw	105
  2411  1048  3400               	retlw	0
  2412  1049  3463               	retlw	99
  2413  104A  3400               	retlw	0
  2414  104B  3472               	retlw	114
  2415  104C  3400               	retlw	0
  2416  104D  346F               	retlw	111
  2417  104E  3400               	retlw	0
  2418  104F  3463               	retlw	99
  2419  1050  3400               	retlw	0
  2420  1051  3468               	retlw	104
  2421  1052  3400               	retlw	0
  2422  1053  3469               	retlw	105
  2423  1054  3400               	retlw	0
  2424  1055  3470               	retlw	112
  2425  1056  3400               	retlw	0
  2426  1057  3420               	retlw	32
  2427  1058  3400               	retlw	0
  2428  1059  3454               	retlw	84
  2429  105A  3400               	retlw	0
  2430  105B  3465               	retlw	101
  2431  105C  3400               	retlw	0
  2432  105D  3463               	retlw	99
  2433  105E  3400               	retlw	0
  2434  105F  3468               	retlw	104
  2435  1060  3400               	retlw	0
  2436  1061  346E               	retlw	110
  2437  1062  3400               	retlw	0
  2438  1063  346F               	retlw	111
  2439  1064  3400               	retlw	0
  2440  1065  346C               	retlw	108
  2441  1066  3400               	retlw	0
  2442  1067  346F               	retlw	111
  2443  1068  3400               	retlw	0
  2444  1069  3467               	retlw	103
  2445  106A  3400               	retlw	0
  2446  106B  3479               	retlw	121
  2447  106C  3400               	retlw	0
  2448  106D  3420               	retlw	32
  2449  106E  3400               	retlw	0
  2450  106F  3449               	retlw	73
  2451  1070  3400               	retlw	0
  2452  1071  346E               	retlw	110
  2453  1072  3400               	retlw	0
  2454  1073  3463               	retlw	99
  2455  1074  3400               	retlw	0
  2456  1075  342E               	retlw	46
  2457  1076  3400               	retlw	0
  2458  1077                     __end_of_sd001:
  2459                           
  2460                           	psect	stringtext5
  2461  1800                     __pstringtext5:
  2462  1800                     _sd002:
  2463  1800  3416               	retlw	22
  2464  1801  3403               	retlw	3
  2465  1802  3453               	retlw	83
  2466  1803  3400               	retlw	0
  2467  1804  346D               	retlw	109
  2468  1805  3400               	retlw	0
  2469  1806  3461               	retlw	97
  2470  1807  3400               	retlw	0
  2471  1808  3472               	retlw	114
  2472  1809  3400               	retlw	0
  2473  180A  3474               	retlw	116
  2474  180B  3400               	retlw	0
  2475  180C  3420               	retlw	32
  2476  180D  3400               	retlw	0
  2477  180E  3453               	retlw	83
  2478  180F  3400               	retlw	0
  2479  1810  3468               	retlw	104
  2480  1811  3400               	retlw	0
  2481  1812  346F               	retlw	111
  2482  1813  3400               	retlw	0
  2483  1814  3465               	retlw	101
  2484  1815  3400               	retlw	0
  2485  1816                     __end_of_sd002:
  2486                           
  2487                           	psect	stringtext6
  2488  1816                     __pstringtext6:
  2489  1816                     _device_dsc:
  2490  1816  3412               	retlw	18
  2491  1817  3401               	retlw	1
  2492  1818  3400               	retlw	0
  2493  1819  3402               	retlw	2
  2494  181A  3402               	retlw	2
  2495  181B  3400               	retlw	0
  2496  181C  3400               	retlw	0
  2497  181D  3408               	retlw	8
  2498  181E  34D8               	retlw	216
  2499  181F  3404               	retlw	4
  2500  1820  340A               	retlw	10
  2501  1821  3400               	retlw	0
  2502  1822  3400               	retlw	0
  2503  1823  3401               	retlw	1
  2504  1824  3401               	retlw	1
  2505  1825  3402               	retlw	2
  2506  1826  3403               	retlw	3
  2507  1827  3401               	retlw	1
  2508  1828                     __end_of_device_dsc:
  2509                           
  2510                           	psect	stringtext7
  2511  1830                     __pstringtext7:
  2512  1830                     _sd003:
  2513  1830  3408               	retlw	8
  2514  1831  3403               	retlw	3
  2515  1832  3431               	retlw	49
  2516  1833  3400               	retlw	0
  2517  1834  3432               	retlw	50
  2518  1835  3400               	retlw	0
  2519  1836  3434               	retlw	52
  2520  1837  3400               	retlw	0
  2521  1838                     __end_of_sd003:
  2522                           
  2523                           	psect	stringtext8
  2524  1838                     __pstringtext8:
  2525  1838                     _sd000:
  2526  1838  3404               	retlw	4
  2527  1839  3403               	retlw	3
  2528  183A  3409               	retlw	9
  2529  183B  3404               	retlw	4
  2530  183C                     __end_of_sd000:
  2531                           
  2532                           	psect	nvBANK3
  2533  01EE                     __pnvBANK3:
  2534  01EE                     _IOCAF5_InterruptHandler:
  2535  01EE                     	ds	2
  2536  20C0                     _cdc_data_rx	set	8384
  2537  2080                     _cdc_data_tx	set	8320
  2538  0011                     _PIR1bits	set	17
  2539  000B                     _INTCONbits	set	11
  2540  0015                     _TMR0	set	21
  2541  0012                     _PIR2bits	set	18
  2542  008E                     _TRISCbits	set	142
  2543  0095                     _OPTION_REG	set	149
  2544  0095                     _OPTION_REGbits	set	149
  2545  008E                     _TRISC	set	142
  2546  008D                     _TRISB	set	141
  2547  008C                     _TRISA	set	140
  2548  009D                     _ADCON0bits	set	157
  2549  009D                     _ADCON0	set	157
  2550  009C                     _ADRESH	set	156
  2551  009B                     _ADRESL	set	155
  2552  009F                     _ADCON2	set	159
  2553  009E                     _ADCON1	set	158
  2554  0097                     _WDTCON	set	151
  2555  0098                     _OSCTUNE	set	152
  2556  0099                     _OSCCON	set	153
  2557  0092                     _PIE2bits	set	146
  2558  04D6                     _PLLRDY	set	1238
  2559  011D                     _APFCON	set	285
  2560  010E                     _LATC	set	270
  2561  010D                     _LATB	set	269
  2562  010C                     _LATA	set	268
  2563  0116                     _BORCON	set	278
  2564  018C                     _ANSELA	set	396
  2565  018D                     _ANSELB	set	397
  2566  018E                     _ANSELC	set	398
  2567  0211                     _SSPBUF	set	529
  2568  0216                     _SSPCON2bits	set	534
  2569  0211                     _SSP1BUF	set	529
  2570  0216                     _SSP1CON2bits	set	534
  2571  0215                     _SSP1CON1bits	set	533
  2572  0212                     _SSP1ADD	set	530
  2573  0216                     _SSP1CON2	set	534
  2574  0215                     _SSP1CON1	set	533
  2575  0214                     _SSP1STAT	set	532
  2576  020C                     _WPUA	set	524
  2577  020D                     _WPUB	set	525
  2578  0391                     _IOCAPbits	set	913
  2579  0392                     _IOCANbits	set	914
  2580  0393                     _IOCAFbits	set	915
  2581  039B                     _ACTCON	set	923
  2582  0E98                     _UEP0bits	set	3736
  2583  0E8E                     _UCON	set	3726
  2584  0E8F                     _USTAT	set	3727
  2585  0E92                     _UIEbits	set	3730
  2586  0E90                     _UIRbits	set	3728
  2587  0E96                     _UADDR	set	3734
  2588  0E8E                     _UCONbits	set	3726
  2589  0E92                     _UIE	set	3730
  2590  0E97                     _UEIE	set	3735
  2591  0E91                     _UCFG	set	3729
  2592  0E90                     _UIR	set	3728
  2593  0E93                     _UEIR	set	3731
  2594  0E99                     _UEP1	set	3737
  2595  0E98                     _UEP0	set	3736
  2596                           
  2597                           	psect	cinit
  2598  0028                     start_initialization:	
  2599                           ; #config settings
  2600                           
  2601  0028                     __initialization:	;BIGRAM
  2602                           
  2603                           ; Initialize objects allocated to BIGRAM
  2604  0028  307F               	movlw	low __pidataBIGRAM
  2605  0029  0084               	movwf	4
  2606  002A  3080               	movlw	(high __pidataBIGRAM)| (0+128)
  2607  002B  0085               	movwf	5
  2608  002C  3050               	movlw	low (0+8784)
  2609  002D  0086               	movwf	6
  2610  002E  3022               	movlw	high (0+8784)
  2611  002F  0087               	movwf	7
  2612  0030  3001               	movlw	1
  2613  0031  00FF               	movwf	btemp+1
  2614  0032  30A0               	movlw	160
  2615  0033  3188  2000  3180   	fcall	init_ram
  2616                           
  2617                           ; Initialize objects allocated to BANK4
  2618  0036  3047               	movlw	low __pidataBANK4
  2619  0037  0084               	movwf	4
  2620  0038  3097               	movlw	(high __pidataBANK4)| (0+128)
  2621  0039  0085               	movwf	5
  2622  003A  3020               	movlw	low __pdataBANK4
  2623  003B  0086               	movwf	6
  2624  003C  3002               	movlw	high __pdataBANK4
  2625  003D  0087               	movwf	7
  2626  003E  3000               	movlw	0
  2627  003F  00FF               	movwf	btemp+1
  2628  0040  3020               	movlw	32
  2629  0041  3188  2000  3180   	fcall	init_ram
  2630                           
  2631                           ; Clear objects allocated to BANK1
  2632  0044  30A0               	movlw	low __pbssBANK1
  2633  0045  0084               	movwf	4
  2634  0046  3000               	movlw	high __pbssBANK1
  2635  0047  0085               	movwf	5
  2636  0048  301E               	movlw	30
  2637  0049  00FE               	movwf	btemp
  2638  004A  3000               	movlw	0
  2639  004B  00FF               	movwf	btemp+1
  2640  004C  3196  26A4  3180   	fcall	clear_ram0
  2641                           
  2642                           ; Clear objects allocated to BANK3
  2643  004F  30B0               	movlw	low __pbssBANK3
  2644  0050  0084               	movwf	4
  2645  0051  3001               	movlw	high __pbssBANK3
  2646  0052  0085               	movwf	5
  2647  0053  303E               	movlw	62
  2648  0054  00FE               	movwf	btemp
  2649  0055  3000               	movlw	0
  2650  0056  00FF               	movwf	btemp+1
  2651  0057  3196  26A4  3180   	fcall	clear_ram0
  2652                           
  2653                           ; Clear objects allocated to BANK4
  2654  005A  3040               	movlw	low __pbssBANK4
  2655  005B  0084               	movwf	4
  2656  005C  3002               	movlw	high __pbssBANK4
  2657  005D  0085               	movwf	5
  2658  005E  3019               	movlw	25
  2659  005F  00FE               	movwf	btemp
  2660  0060  3000               	movlw	0
  2661  0061  00FF               	movwf	btemp+1
  2662  0062  3196  26A4  3180   	fcall	clear_ram0
  2663                           
  2664                           ; Clear objects allocated to BANK5
  2665  0065  30A0               	movlw	low __pbssBANK5
  2666  0066  0084               	movwf	4
  2667  0067  3002               	movlw	high __pbssBANK5
  2668  0068  0085               	movwf	5
  2669  0069  3040               	movlw	64
  2670  006A  00FE               	movwf	btemp
  2671  006B  3000               	movlw	0
  2672  006C  00FF               	movwf	btemp+1
  2673  006D  3196  26A4  3180   	fcall	clear_ram0
  2674                           
  2675                           ; Clear objects allocated to BANK6
  2676  0070  3020               	movlw	low __pbssBANK6
  2677  0071  0084               	movwf	4
  2678  0072  3003               	movlw	high __pbssBANK6
  2679  0073  0085               	movwf	5
  2680  0074  3040               	movlw	64
  2681  0075  00FE               	movwf	btemp
  2682  0076  3000               	movlw	0
  2683  0077  00FF               	movwf	btemp+1
  2684  0078  3196  26A4  3180   	fcall	clear_ram0
  2685  007B                     end_of_initialization:	
  2686                           ;End of C runtime variable initialization code
  2687                           
  2688  007B                     __end_of__initialization:
  2689  007B  107E               	bcf	int$flags,0	;clear compiler interrupt flag (level 1)
  2690  007C  0020               	movlb	0
  2691  007D  3183  2B77         	ljmp	_main	;jump to C main() function
  2692                           
  2693                           	psect	bssBANK1
  2694  00A0                     __pbssBANK1:
  2695  00A0                     _outPipes:
  2696  00A0                     	ds	7
  2697  00A7                     _pBDTEntryIn:
  2698  00A7                     	ds	6
  2699  00AD                     _inPipes:
  2700  00AD                     	ds	5
  2701  00B2                     _pBDTEntryEP0OutNext:
  2702  00B2                     	ds	2
  2703  00B4                     _cdc_trf_state:
  2704  00B4                     	ds	1
  2705  00B5                     _USBDeferStatusStagePacket:
  2706  00B5                     	ds	1
  2707  00B6                     _USBStatusStageTimeoutCounter:
  2708  00B6                     	ds	1
  2709  00B7                     _endpoint_number:
  2710  00B7                     	ds	1
  2711  00B8                     _controlTransferState:
  2712  00B8                     	ds	1
  2713  00B9                     _shortPacketStatus:
  2714  00B9                     	ds	1
  2715  00BA                     _pBDTEntryEP0OutCurrent:
  2716  00BA                     	ds	1
  2717  00BB                     _USBDeviceState:
  2718  00BB                     	ds	1
  2719  00BC                     _USTATcopy:
  2720  00BC                     	ds	1
  2721  00BD                     _USBActiveConfiguration:
  2722  00BD                     	ds	1
  2723                           
  2724                           	psect	bssBANK3
  2725  01B0                     __pbssBANK3:
  2726  01B0                     _pBDTEntryOut:
  2727  01B0                     	ds	6
  2728  01B6                     _BaudRateGen:
  2729  01B6                     	ds	4
  2730  01BA                     _USB1msTickCount:
  2731  01BA                     	ds	4
  2732  01BE                     _ep_data_out:
  2733  01BE                     	ds	3
  2734  01C1                     _ep_data_in:
  2735  01C1                     	ds	3
  2736  01C4                     _currentEepromAddress:
  2737  01C4                     	ds	2
  2738  01C6                     _TMR0_InterruptHandler:
  2739  01C6                     	ds	2
  2740  01C8                     _waitforsleep_count:
  2741  01C8                     	ds	2
  2742  01CA                     _counter:
  2743  01CA                     	ds	2
  2744  01CC                     _ADC_InterruptHandler:
  2745  01CC                     	ds	2
  2746  01CE                     _CDCDataInHandle:
  2747  01CE                     	ds	2
  2748  01D0                     _CDCDataOutHandle:
  2749  01D0                     	ds	2
  2750  01D2                     _pCDCDst:
  2751  01D2                     	ds	2
  2752  01D4                     _pCDCSrc:
  2753  01D4                     	ds	2
  2754  01D6                     _writecomplete:
  2755  01D6                     	ds	1
  2756  01D7                     _column:
  2757  01D7                     	ds	1
  2758  01D8                     _row:
  2759  01D8                     	ds	1
  2760  01D9                     _byte:
  2761  01D9                     	ds	1
  2762  01DA                     _timer0ReloadVal:
  2763  01DA                     	ds	1
  2764  01DB                     _measurement_flag:
  2765  01DB                     	ds	1
  2766  01DC                     _measurement_count:
  2767  01DC                     	ds	1
  2768  01DD                     _writeout_flag:
  2769  01DD                     	ds	1
  2770  01DE                     _sleep_flag:
  2771  01DE                     	ds	1
  2772  01DF                     _control_signal_bitmap:
  2773  01DF                     	ds	1
  2774  01E0                     _cdc_mem_type:
  2775  01E0                     	ds	1
  2776  01E1                     _cdc_tx_len:
  2777  01E1                     	ds	1
  2778  01E2                     _cdc_rx_len:
  2779  01E2                     	ds	1
  2780  01E3                     _USBTicksSinceSuspendEnd:
  2781  01E3                     	ds	1
  2782  01E4                     _USBDeferOUTDataStagePackets:
  2783  01E4                     	ds	1
  2784  01E5                     _USBDeferINDataStagePackets:
  2785  01E5                     	ds	1
  2786  01E6                     _USBStatusStageEnabledFlag2:
  2787  01E6                     	ds	1
  2788  01E7                     _USBStatusStageEnabledFlag1:
  2789  01E7                     	ds	1
  2790  01E8                     _BothEP0OutUOWNsSet:
  2791  01E8                     	ds	1
  2792  01E9                     _USBBusIsSuspended:
  2793  01E9                     	ds	1
  2794  01EA                     _RemoteWakeup:
  2795  01EA                     	ds	1
  2796  01EB                     _pDst:
  2797  01EB                     	ds	1
  2798  01EC                     _USBAlternateInterface:
  2799  01EC                     	ds	2
  2800                           
  2801                           	psect	bssBANK4
  2802  0240                     __pbssBANK4:
  2803  0240                     _cdc_notice:
  2804  0240                     	ds	10
  2805  024A                     _dummy_encapsulated_cmd_response:
  2806  024A                     	ds	8
  2807  0252                     _line_coding:
  2808  0252                     	ds	7
  2809                           
  2810                           	psect	dataBANK4
  2811  0220                     __pdataBANK4:
  2812  0220                     _data:
  2813  0220                     	ds	32
  2814                           
  2815                           	psect	bssBANK5
  2816  02A0                     __pbssBANK5:
  2817  02A0                     _readBuffer:
  2818  02A0                     	ds	64
  2819                           
  2820                           	psect	bssBANK6
  2821  0320                     __pbssBANK6:
  2822  0320                     _writeBuffer:
  2823  0320                     	ds	64
  2824                           
  2825                           	psect	inittext
  2826  0800                     init_ram:
  2827  0800  00FE               	movwf	btemp
  2828  0801                     initloop:
  2829  0801  0012               	moviw fsr0++
  2830  0802  001E               	movwi fsr1++
  2831  0803  3001               	movlw	1
  2832  0804  02FE               	subwf	btemp,f
  2833  0805  3000               	movlw	0
  2834  0806  3BFF               	subwfb	btemp+1,f
  2835  0807  087F               	movf	btemp+1,w
  2836  0808  047E               	iorwf	btemp,w
  2837  0809  1D03               	skipz
  2838  080A  2801               	goto	initloop
  2839  080B  3400               	retlw	0
  2840                           
  2841                           	psect	clrtext
  2842  16A4                     clear_ram0:	
  2843                           ;	Called with FSR0 containing the base address, and
  2844                           ;	btemp/btemp+1 has the size to clear
  2845                           
  2846  16A4  0064               	clrwdt	;clear the watchdog before getting into this loop
  2847  16A5                     clrloop0:
  2848  16A5  0180               	clrf	0	;clear RAM location pointed to by FSR
  2849  16A6  3101               	addfsr 0,1
  2850  16A7  3001               	movlw	1
  2851  16A8  02FE               	subwf	btemp,f
  2852  16A9  3000               	movlw	0
  2853  16AA  3BFF               	subwfb	btemp+1,f
  2854  16AB  087F               	movf	btemp+1,w
  2855  16AC  047E               	iorwf	btemp,w
  2856  16AD  1D03               	skipz
  2857  16AE  2EA5               	goto	clrloop0	;have we reached the end yet?
  2858  16AF  3400               	retlw	0	;all done for this memory range, return
  2859                           
  2860                           	psect	cstackBANK4
  2861  0259                     __pcstackBANK4:
  2862  0259                     ??_main:
  2863                           
  2864                           ; 1 bytes @ 0x0
  2865  0259                     	ds	8
  2866                           
  2867                           	psect	cstackBANK1
  2868  00BE                     __pcstackBANK1:
  2869  00BE                     ??_USBCtrlEPService:
  2870                           
  2871                           ; 1 bytes @ 0x0
  2872  00BE                     	ds	2
  2873  00C0                     ??_USBDeviceTasks:
  2874                           
  2875                           ; 1 bytes @ 0x2
  2876  00C0                     	ds	2
  2877  00C2                     USBDeviceTasks@i:
  2878                           
  2879                           ; 1 bytes @ 0x4
  2880  00C2                     	ds	1
  2881  00C3                     ??_OSCILLATOR_Initialize:
  2882  00C3                     ??_WDT_Initialize:	
  2883                           ; 1 bytes @ 0x5
  2884                           
  2885  00C3                     ??_ADC_Initialize:	
  2886                           ; 1 bytes @ 0x5
  2887                           
  2888  00C3                     ?_IOCAF5_SetInterruptHandler:	
  2889                           ; 1 bytes @ 0x5
  2890                           
  2891  00C3                     ?_TMR0_SetInterruptHandler:	
  2892                           ; 1 bytes @ 0x5
  2893                           
  2894  00C3                     ??_I2C_Initialize:	
  2895                           ; 1 bytes @ 0x5
  2896                           
  2897  00C3                     ??_USBDeviceInit:	
  2898                           ; 1 bytes @ 0x5
  2899                           
  2900  00C3                     ??_USBDeviceAttach:	
  2901                           ; 1 bytes @ 0x5
  2902                           
  2903  00C3                     IOCAF5_SetInterruptHandler@InterruptHandler:	
  2904                           ; 1 bytes @ 0x5
  2905                           
  2906  00C3                     TMR0_SetInterruptHandler@InterruptHandler:	
  2907                           ; 2 bytes @ 0x5
  2908                           
  2909                           
  2910                           ; 2 bytes @ 0x5
  2911  00C3                     	ds	1
  2912  00C4                     USBDeviceInit@p:
  2913                           
  2914                           ; 2 bytes @ 0x6
  2915  00C4                     	ds	1
  2916  00C5                     ??_PIN_MANAGER_Initialize:
  2917  00C5                     ??_TMR0_Initialize:	
  2918                           ; 1 bytes @ 0x7
  2919                           
  2920  00C5                     ??_IOCAF5_SetInterruptHandler:	
  2921                           ; 1 bytes @ 0x7
  2922                           
  2923  00C5                     ??_TMR0_SetInterruptHandler:	
  2924                           ; 1 bytes @ 0x7
  2925                           
  2926                           
  2927                           ; 1 bytes @ 0x7
  2928  00C5                     	ds	1
  2929  00C6                     USBDeviceInit@i_665:
  2930                           
  2931                           ; 1 bytes @ 0x8
  2932  00C6                     	ds	1
  2933  00C7                     USBDeviceInit@i:
  2934                           
  2935                           ; 1 bytes @ 0x9
  2936  00C7                     	ds	1
  2937  00C8                     ??_SYSTEM_Initialize:
  2938                           
  2939                           	psect	cstackCOMMON
  2940  0070                     __pcstackCOMMON:	
  2941                           ; 1 bytes @ 0xA
  2942                           
  2943  0070                     ?_USBWakeFromSuspend:
  2944  0070                     ?_USBSuspend:	
  2945                           ; 1 bytes @ 0x0
  2946                           
  2947  0070                     ?_USBIncrement1msInternalTimers:	
  2948                           ; 1 bytes @ 0x0
  2949                           
  2950  0070                     ??_USBIncrement1msInternalTimers:	
  2951                           ; 1 bytes @ 0x0
  2952                           
  2953  0070                     ?_USBCtrlEPAllowStatusStage:	
  2954                           ; 1 bytes @ 0x0
  2955                           
  2956  0070                     ??_USBCtrlEPAllowStatusStage:	
  2957                           ; 1 bytes @ 0x0
  2958                           
  2959  0070                     ?_USBStallHandler:	
  2960                           ; 1 bytes @ 0x0
  2961                           
  2962  0070                     ??_USBStallHandler:	
  2963                           ; 1 bytes @ 0x0
  2964                           
  2965  0070                     ?_USBCtrlEPService:	
  2966                           ; 1 bytes @ 0x0
  2967                           
  2968  0070                     ?_USBConfigureEndpoint:	
  2969                           ; 1 bytes @ 0x0
  2970                           
  2971  0070                     ?_USBCtrlTrfTxService:	
  2972                           ; 1 bytes @ 0x0
  2973                           
  2974  0070                     ??_USBCtrlTrfTxService:	
  2975                           ; 1 bytes @ 0x0
  2976                           
  2977  0070                     ?_memcpy:	
  2978                           ; 1 bytes @ 0x0
  2979                           
  2980  0070                     ?_USBCtrlTrfSetupHandler:	
  2981                           ; 1 bytes @ 0x0
  2982                           
  2983  0070                     ?_USBCtrlTrfOutHandler:	
  2984                           ; 1 bytes @ 0x0
  2985                           
  2986  0070                     ?_USBCtrlTrfInHandler:	
  2987                           ; 1 bytes @ 0x0
  2988                           
  2989  0070                     ?_USBCheckStdRequest:	
  2990                           ; 1 bytes @ 0x0
  2991                           
  2992  0070                     ?_USBStdFeatureReqHandler:	
  2993                           ; 1 bytes @ 0x0
  2994                           
  2995  0070                     ?_PIN_MANAGER_Initialize:	
  2996                           ; 1 bytes @ 0x0
  2997                           
  2998  0070                     ?_OSCILLATOR_Initialize:	
  2999                           ; 1 bytes @ 0x0
  3000                           
  3001  0070                     ?_WDT_Initialize:	
  3002                           ; 1 bytes @ 0x0
  3003                           
  3004  0070                     ?_ADC_Initialize:	
  3005                           ; 1 bytes @ 0x0
  3006                           
  3007  0070                     ?_TMR0_Initialize:	
  3008                           ; 1 bytes @ 0x0
  3009                           
  3010  0070                     ?_TMR0_DefaultInterruptHandler:	
  3011                           ; 1 bytes @ 0x0
  3012                           
  3013  0070                     ??_TMR0_DefaultInterruptHandler:	
  3014                           ; 1 bytes @ 0x0
  3015                           
  3016  0070                     ?_I2C_Initialize:	
  3017                           ; 1 bytes @ 0x0
  3018                           
  3019  0070                     ?_USBDeviceInit:	
  3020                           ; 1 bytes @ 0x0
  3021                           
  3022  0070                     ?_USBDeviceTasks:	
  3023                           ; 1 bytes @ 0x0
  3024                           
  3025  0070                     ?_USBDeviceAttach:	
  3026                           ; 1 bytes @ 0x0
  3027                           
  3028  0070                     ?_USBCtrlEPAllowDataStage:	
  3029                           ; 1 bytes @ 0x0
  3030                           
  3031  0070                     ?_USBCtrlEPServiceComplete:	
  3032                           ; 1 bytes @ 0x0
  3033                           
  3034  0070                     ?_USBCtrlTrfRxService:	
  3035                           ; 1 bytes @ 0x0
  3036                           
  3037  0070                     ?_USBStdSetCfgHandler:	
  3038                           ; 1 bytes @ 0x0
  3039                           
  3040  0070                     ?_USBStdGetDscHandler:	
  3041                           ; 1 bytes @ 0x0
  3042                           
  3043  0070                     ??_USBStdGetDscHandler:	
  3044                           ; 1 bytes @ 0x0
  3045                           
  3046  0070                     ?_USBStdGetStatusHandler:	
  3047                           ; 1 bytes @ 0x0
  3048                           
  3049  0070                     ??_USBStdGetStatusHandler:	
  3050                           ; 1 bytes @ 0x0
  3051                           
  3052  0070                     ?_USBCheckCDCRequest:	
  3053                           ; 1 bytes @ 0x0
  3054                           
  3055  0070                     ??_USBCheckCDCRequest:	
  3056                           ; 1 bytes @ 0x0
  3057                           
  3058  0070                     ?_CDCInitEP:	
  3059                           ; 1 bytes @ 0x0
  3060                           
  3061  0070                     ?_SYSTEM_Initialize:	
  3062                           ; 1 bytes @ 0x0
  3063                           
  3064  0070                     ?_TMR0_ISR:	
  3065                           ; 1 bytes @ 0x0
  3066                           
  3067  0070                     ??_TMR0_ISR:	
  3068                           ; 1 bytes @ 0x0
  3069                           
  3070  0070                     ?_INTERRUPT_InterruptManager:	
  3071                           ; 1 bytes @ 0x0
  3072                           
  3073  0070                     ?_main:	
  3074                           ; 1 bytes @ 0x0
  3075                           
  3076  0070                     ?i1_USBDeviceInit:	
  3077                           ; 1 bytes @ 0x0
  3078                           
  3079  0070                     ??i1_USBDeviceInit:	
  3080                           ; 1 bytes @ 0x0
  3081                           
  3082  0070                     ?_memset:	
  3083                           ; 1 bytes @ 0x0
  3084                           
  3085  0070                     ?_USBTransferOnePacket:	
  3086                           ; 2 bytes @ 0x0
  3087                           
  3088  0070                     USBTransferOnePacket@dir:	
  3089                           ; 2 bytes @ 0x0
  3090                           
  3091  0070                     USBConfigureEndpoint@direction:	
  3092                           ; 1 bytes @ 0x0
  3093                           
  3094  0070                     memcpy@s1:	
  3095                           ; 1 bytes @ 0x0
  3096                           
  3097  0070                     memset@dest:	
  3098                           ; 2 bytes @ 0x0
  3099                           
  3100                           
  3101                           ; 2 bytes @ 0x0
  3102  0070                     	ds	1
  3103  0071                     ??_USBConfigureEndpoint:
  3104  0071                     USBTransferOnePacket@data:	
  3105                           ; 1 bytes @ 0x1
  3106                           
  3107  0071                     i1USBDeviceInit@p:	
  3108                           ; 2 bytes @ 0x1
  3109                           
  3110                           
  3111                           ; 2 bytes @ 0x1
  3112  0071                     	ds	1
  3113  0072                     ??_USBCtrlTrfRxService:
  3114  0072                     USBCtrlTrfTxService@byteToSend:	
  3115                           ; 1 bytes @ 0x2
  3116                           
  3117  0072                     USBStdGetStatusHandler@p:	
  3118                           ; 1 bytes @ 0x2
  3119                           
  3120  0072                     memcpy@n:	
  3121                           ; 2 bytes @ 0x2
  3122                           
  3123  0072                     memset@c:	
  3124                           ; 2 bytes @ 0x2
  3125                           
  3126                           
  3127                           ; 2 bytes @ 0x2
  3128  0072                     	ds	1
  3129  0073                     ??_USBCtrlTrfInHandler:
  3130  0073                     ??_USBCtrlEPAllowDataStage:	
  3131                           ; 1 bytes @ 0x3
  3132                           
  3133  0073                     USBTransferOnePacket@len:	
  3134                           ; 1 bytes @ 0x3
  3135                           
  3136  0073                     i1USBDeviceInit@i_665:	
  3137                           ; 1 bytes @ 0x3
  3138                           
  3139                           
  3140                           ; 1 bytes @ 0x3
  3141  0073                     	ds	1
  3142  0074                     ??_memcpy:
  3143  0074                     ??_USBTransferOnePacket:	
  3144                           ; 1 bytes @ 0x4
  3145                           
  3146  0074                     USBCtrlTrfRxService@i:	
  3147                           ; 1 bytes @ 0x4
  3148                           
  3149  0074                     i1USBDeviceInit@i:	
  3150                           ; 1 bytes @ 0x4
  3151                           
  3152  0074                     memset@n:	
  3153                           ; 1 bytes @ 0x4
  3154                           
  3155                           
  3156                           ; 2 bytes @ 0x4
  3157  0074                     	ds	1
  3158  0075                     ??_USBCtrlEPServiceComplete:
  3159  0075                     USBConfigureEndpoint@EPNum:	
  3160                           ; 1 bytes @ 0x5
  3161                           
  3162  0075                     USBCtrlTrfRxService@byteToRead:	
  3163                           ; 1 bytes @ 0x5
  3164                           
  3165  0075                     USBCtrlTrfInHandler@lastDTS:	
  3166                           ; 1 bytes @ 0x5
  3167                           
  3168  0075                     memcpy@s:	
  3169                           ; 1 bytes @ 0x5
  3170                           
  3171                           
  3172                           ; 2 bytes @ 0x5
  3173  0075                     	ds	1
  3174  0076                     ??_memset:
  3175  0076                     ??_USBCtrlTrfOutHandler:	
  3176                           ; 1 bytes @ 0x6
  3177                           
  3178  0076                     USBConfigureEndpoint@handle:	
  3179                           ; 1 bytes @ 0x6
  3180                           
  3181                           
  3182                           ; 1 bytes @ 0x6
  3183  0076                     	ds	1
  3184  0077                     ?_USBEnableEndpoint:
  3185  0077                     USBEnableEndpoint@options:	
  3186                           ; 1 bytes @ 0x7
  3187                           
  3188  0077                     memcpy@tmp:	
  3189                           ; 1 bytes @ 0x7
  3190                           
  3191                           
  3192                           ; 1 bytes @ 0x7
  3193  0077                     	ds	1
  3194  0078                     ??_USBEnableEndpoint:
  3195  0078                     USBTransferOnePacket@ep:	
  3196                           ; 1 bytes @ 0x8
  3197                           
  3198  0078                     memcpy@d1:	
  3199                           ; 1 bytes @ 0x8
  3200                           
  3201                           
  3202                           ; 1 bytes @ 0x8
  3203  0078                     	ds	1
  3204  0079                     memcpy@d:
  3205  0079                     USBTransferOnePacket@handle:	
  3206                           ; 1 bytes @ 0x9
  3207                           
  3208                           
  3209                           ; 2 bytes @ 0x9
  3210  0079                     	ds	1
  3211  007A                     USBEnableEndpoint@p:
  3212  007A                     memset@k:	
  3213                           ; 2 bytes @ 0xA
  3214                           
  3215                           
  3216                           ; 2 bytes @ 0xA
  3217  007A                     	ds	2
  3218  007C                     USBEnableEndpoint@ep:
  3219  007C                     memset@s:	
  3220                           ; 1 bytes @ 0xC
  3221                           
  3222                           
  3223                           ; 2 bytes @ 0xC
  3224  007C                     	ds	1
  3225  007D                     ??_CDCInitEP:
  3226                           
  3227                           ; 1 bytes @ 0xD
  3228  007D                     	ds	1
  3229  007E                     ??_USER_USB_CALLBACK_EVENT_HANDLER:
  3230  007E                     ??_INTERRUPT_InterruptManager:	
  3231                           ; 1 bytes @ 0xE
  3232                           
  3233                           
  3234                           	psect	cstackBANK0
  3235  0060                     __pcstackBANK0:	
  3236                           ; 1 bytes @ 0xE
  3237                           
  3238  0060                     ?_USER_USB_CALLBACK_EVENT_HANDLER:
  3239  0060                     USER_USB_CALLBACK_EVENT_HANDLER@event:	
  3240                           ; 1 bytes @ 0x0
  3241                           
  3242                           
  3243                           ; 2 bytes @ 0x0
  3244  0060                     	ds	2
  3245  0062                     USER_USB_CALLBACK_EVENT_HANDLER@pdata:
  3246                           
  3247                           ; 2 bytes @ 0x2
  3248  0062                     	ds	2
  3249  0064                     USER_USB_CALLBACK_EVENT_HANDLER@size:
  3250                           
  3251                           ; 2 bytes @ 0x4
  3252  0064                     	ds	2
  3253  0066                     ??_USBWakeFromSuspend:
  3254  0066                     ??_USBSuspend:	
  3255                           ; 1 bytes @ 0x6
  3256                           
  3257  0066                     ??_USBStdFeatureReqHandler:	
  3258                           ; 1 bytes @ 0x6
  3259                           
  3260  0066                     ??_USBStdSetCfgHandler:	
  3261                           ; 1 bytes @ 0x6
  3262                           
  3263                           
  3264                           ; 1 bytes @ 0x6
  3265  0066                     	ds	1
  3266  0067                     USBStdSetCfgHandler@p:
  3267                           
  3268                           ; 2 bytes @ 0x7
  3269  0067                     	ds	1
  3270  0068                     USBStdFeatureReqHandler@pUEP:
  3271                           
  3272                           ; 2 bytes @ 0x8
  3273  0068                     	ds	1
  3274  0069                     USBStdSetCfgHandler@i_1402:
  3275                           
  3276                           ; 1 bytes @ 0x9
  3277  0069                     	ds	1
  3278  006A                     USBStdSetCfgHandler@i:
  3279  006A                     USBStdFeatureReqHandler@current_ep_data:	
  3280                           ; 1 bytes @ 0xA
  3281                           
  3282                           
  3283                           ; 1 bytes @ 0xA
  3284  006A                     	ds	1
  3285  006B                     USBStdFeatureReqHandler@p:
  3286                           
  3287                           ; 2 bytes @ 0xB
  3288  006B                     	ds	2
  3289  006D                     ??_USBCheckStdRequest:
  3290                           
  3291                           ; 1 bytes @ 0xD
  3292  006D                     	ds	2
  3293  006F                     ??_USBCtrlTrfSetupHandler:
  3294                           
  3295                           ; 1 bytes @ 0xF
  3296  006F                     	ds	1
  3297                           
  3298                           	psect	maintext
  3299  0377                     __pmaintext:	
  3300 ;;
  3301 ;;Main: autosize = 0, tempsize = 8, incstack = 0, save=0
  3302 ;;
  3303 ;; *************** function _main *****************
  3304 ;; Defined at:
  3305 ;;		line 68 in file "main.c"
  3306 ;; Parameters:    Size  Location     Type
  3307 ;;		None
  3308 ;; Auto vars:     Size  Location     Type
  3309 ;;		None
  3310 ;; Return value:  Size  Location     Type
  3311 ;;                  1    wreg      void 
  3312 ;; Registers used:
  3313 ;;		wreg, fsr1l, fsr1h, status,2, status,0, pclath, cstack
  3314 ;; Tracked objects:
  3315 ;;		On entry : B1F/0
  3316 ;;		On exit  : 0/0
  3317 ;;		Unchanged: 0/0
  3318 ;; Data sizes:     COMMON   BANK0   BANK1   BANK2   BANK3   BANK4   BANK5   BANK6   BANK7   BANK8   BANK9  BANK10  BANK1
      +1  BANK12
  3319 ;;      Params:         0       0       0       0       0       0       0       0       0       0       0       0       
      +0       0
  3320 ;;      Locals:         0       0       0       0       0       0       0       0       0       0       0       0       
      +0       0
  3321 ;;      Temps:          0       0       0       0       0       8       0       0       0       0       0       0       
      +0       0
  3322 ;;      Totals:         0       0       0       0       0       8       0       0       0       0       0       0       
      +0       0
  3323 ;;Total ram usage:        8 bytes
  3324 ;; Hardware stack levels required when called:   13
  3325 ;; This function calls:
  3326 ;;		_I2C_Initialize
  3327 ;;		_SYSTEM_Initialize
  3328 ;; This function is called by:
  3329 ;;		Startup code after reset
  3330 ;; This function uses a non-reentrant model
  3331 ;;
  3332                           
  3333                           
  3334                           ;psect for function _main
  3335  0377                     _main:
  3336  0377                     l5346:	
  3337                           ;incstack = 0
  3338                           ; Regs used in _main: [wreg+fsr1l+fsr1h+status,2+status,0+pclath+cstack]
  3339                           
  3340                           
  3341                           ;main.c: 70:     SYSTEM_Initialize();
  3342  0377  3196  26BE  3183   	fcall	_SYSTEM_Initialize
  3343  037A                     l5348:
  3344                           
  3345                           ;main.c: 71:     I2C_Initialize();
  3346  037A  3196  2698  3183   	fcall	_I2C_Initialize
  3347  037D                     l5350:
  3348                           
  3349                           ;main.c: 72:     (INTCONbits.GIE = 1);
  3350  037D  178B               	bsf	11,7	;volatile
  3351  037E                     l5352:
  3352                           
  3353                           ;main.c: 73:     (INTCONbits.PEIE = 1);
  3354  037E  170B               	bsf	11,6	;volatile
  3355  037F                     l5354:
  3356                           
  3357                           ;main.c: 75:     {;main.c: 76:         if(measurement_flag)
  3358  037F  0023               	movlb	3	; select bank3
  3359  0380  085B               	movf	_measurement_flag^(0+384),w
  3360  0381  1903               	btfsc	3,2
  3361  0382  2B84               	goto	u4301
  3362  0383  2B85               	goto	u4300
  3363  0384                     u4301:
  3364  0384  2C73               	goto	l5402
  3365  0385                     u4300:
  3366  0385                     l5356:
  3367                           
  3368                           ;main.c: 77:         {;main.c: 78:             column = 0;
  3369  0385  01D7               	clrf	_column^(0+384)
  3370                           
  3371                           ;main.c: 79:             measurement_flag = 0;
  3372  0386  01DB               	clrf	_measurement_flag^(0+384)
  3373  0387                     l5358:
  3374                           
  3375                           ;main.c: 80:             ADCON0bits.CHS = 9;
  3376  0387  0021               	movlb	1	; select bank1
  3377  0388  081D               	movf	29,w	;volatile
  3378  0389  3983               	andlw	-125
  3379  038A  3824               	iorlw	36
  3380  038B  009D               	movwf	29	;volatile
  3381  038C                     l5360:
  3382                           
  3383                           ;main.c: 81:             ADCON0bits.ADON = 1;
  3384  038C  141D               	bsf	29,0	;volatile
  3385  038D                     l5362:
  3386                           
  3387                           ;main.c: 82:             ADCON0bits.ADGO = 1;
  3388  038D  149D               	bsf	29,1	;volatile
  3389  038E                     l831:	
  3390                           ;main.c: 83:             while(ADCON0bits.GO_nDONE);
  3391                           
  3392  038E  189D               	btfsc	29,1	;volatile
  3393  038F  2B91               	goto	u4311
  3394  0390  2B92               	goto	u4310
  3395  0391                     u4311:
  3396  0391  2B8E               	goto	l831
  3397  0392                     u4310:
  3398  0392                     l833:
  3399                           
  3400                           ;main.c: 84:             ADCON0bits.ADGO = 1;
  3401  0392  149D               	bsf	29,1	;volatile
  3402  0393                     l834:	
  3403                           ;main.c: 85:             while(ADCON0bits.GO_nDONE);
  3404                           
  3405  0393  189D               	btfsc	29,1	;volatile
  3406  0394  2B96               	goto	u4321
  3407  0395  2B97               	goto	u4320
  3408  0396                     u4321:
  3409  0396  2B93               	goto	l834
  3410  0397                     u4320:
  3411  0397                     l836:
  3412                           
  3413                           ;main.c: 86:             ADCON0bits.ADON = 0;
  3414  0397  101D               	bcf	29,0	;volatile
  3415  0398                     l5364:
  3416                           
  3417                           ;main.c: 87:             measarray[row][column++] = (ADRESH << 8) | ADRESL;
  3418  0398  0023               	movlb	3	; select bank3
  3419  0399  0858               	movf	_row^(0+384),w
  3420  039A  0024               	movlb	4	; select bank4
  3421  039B  00D9               	movwf	??_main^(0+512)
  3422  039C  01DA               	clrf	(??_main^(0+512)+1)
  3423  039D  35D9               	lslf	??_main^(0+512),f
  3424  039E  0DDA               	rlf	(??_main^(0+512)+1),f
  3425  039F  35D9               	lslf	??_main^(0+512),f
  3426  03A0  0DDA               	rlf	(??_main^(0+512)+1),f
  3427  03A1  35D9               	lslf	??_main^(0+512),f
  3428  03A2  0DDA               	rlf	(??_main^(0+512)+1),f
  3429  03A3  3050               	movlw	80
  3430  03A4  00DB               	movwf	(??_main+2)^(0+512)
  3431  03A5  3022               	movlw	34
  3432  03A6  00DC               	movwf	((??_main+2)^(0+512)+1)
  3433  03A7  0859               	movf	??_main^(0+512),w
  3434  03A8  075B               	addwf	(??_main+2)^(0+512),w
  3435  03A9  0086               	movwf	6
  3436  03AA  085A               	movf	(??_main+1)^(0+512),w
  3437  03AB  3D5C               	addwfc	(??_main+3)^(0+512),w
  3438  03AC  0087               	movwf	7
  3439  03AD  0021               	movlb	1	; select bank1
  3440  03AE  081B               	movf	27,w	;volatile
  3441  03AF  3FC0               	movwi [0]fsr1
  3442  03B0  081C               	movf	28,w	;volatile
  3443  03B1  3FC1               	movwi [1]fsr1
  3444  03B2                     l5366:
  3445  03B2  3001               	movlw	1
  3446  03B3  0024               	movlb	4	; select bank4
  3447  03B4  00D9               	movwf	??_main^(0+512)
  3448  03B5  0859               	movf	??_main^(0+512),w
  3449  03B6  0023               	movlb	3	; select bank3
  3450  03B7  07D7               	addwf	_column^(0+384),f
  3451  03B8                     l5368:
  3452                           
  3453                           ;main.c: 89:             ADCON0bits.CHS = 8;
  3454  03B8  0021               	movlb	1	; select bank1
  3455  03B9  081D               	movf	29,w	;volatile
  3456  03BA  3983               	andlw	-125
  3457  03BB  3820               	iorlw	32
  3458  03BC  009D               	movwf	29	;volatile
  3459  03BD                     l5370:
  3460                           
  3461                           ;main.c: 90:             ADCON0bits.ADON = 1;
  3462  03BD  141D               	bsf	29,0	;volatile
  3463  03BE                     l5372:
  3464                           
  3465                           ;main.c: 91:             ADCON0bits.ADGO = 1;
  3466  03BE  149D               	bsf	29,1	;volatile
  3467  03BF                     l837:	
  3468                           ;main.c: 92:             while(ADCON0bits.GO_nDONE);
  3469                           
  3470  03BF  189D               	btfsc	29,1	;volatile
  3471  03C0  2BC2               	goto	u4331
  3472  03C1  2BC3               	goto	u4330
  3473  03C2                     u4331:
  3474  03C2  2BBF               	goto	l837
  3475  03C3                     u4330:
  3476  03C3                     l839:
  3477                           
  3478                           ;main.c: 93:             ADCON0bits.ADGO = 1;
  3479  03C3  149D               	bsf	29,1	;volatile
  3480  03C4                     l840:	
  3481                           ;main.c: 94:             while(ADCON0bits.GO_nDONE);
  3482                           
  3483  03C4  189D               	btfsc	29,1	;volatile
  3484  03C5  2BC7               	goto	u4341
  3485  03C6  2BC8               	goto	u4340
  3486  03C7                     u4341:
  3487  03C7  2BC4               	goto	l840
  3488  03C8                     u4340:
  3489  03C8                     l842:
  3490                           
  3491                           ;main.c: 95:             ADCON0bits.ADON = 0;
  3492  03C8  101D               	bcf	29,0	;volatile
  3493  03C9                     l5374:
  3494                           
  3495                           ;main.c: 96:             measarray[row][column++] = (ADRESH << 8) | ADRESL;
  3496  03C9  0023               	movlb	3	; select bank3
  3497  03CA  0857               	movf	_column^(0+384),w
  3498  03CB  0024               	movlb	4	; select bank4
  3499  03CC  00D9               	movwf	??_main^(0+512)
  3500  03CD  01DA               	clrf	(??_main^(0+512)+1)
  3501  03CE  35D9               	lslf	??_main^(0+512),f
  3502  03CF  0DDA               	rlf	(??_main^(0+512)+1),f
  3503  03D0  0023               	movlb	3	; select bank3
  3504  03D1  0858               	movf	_row^(0+384),w
  3505  03D2  0024               	movlb	4	; select bank4
  3506  03D3  00DB               	movwf	(??_main+2)^(0+512)
  3507  03D4  01DC               	clrf	((??_main+2)^(0+512)+1)
  3508  03D5  35DB               	lslf	(??_main+2)^(0+512),f
  3509  03D6  0DDC               	rlf	((??_main+2)^(0+512)+1),f
  3510  03D7  35DB               	lslf	(??_main+2)^(0+512),f
  3511  03D8  0DDC               	rlf	((??_main+2)^(0+512)+1),f
  3512  03D9  35DB               	lslf	(??_main+2)^(0+512),f
  3513  03DA  0DDC               	rlf	((??_main+2)^(0+512)+1),f
  3514  03DB  3050               	movlw	80
  3515  03DC  00DD               	movwf	(??_main+4)^(0+512)
  3516  03DD  3022               	movlw	34
  3517  03DE  00DE               	movwf	((??_main+4)^(0+512)+1)
  3518  03DF  085B               	movf	(??_main+2)^(0+512),w
  3519  03E0  075D               	addwf	(??_main+4)^(0+512),w
  3520  03E1  00DF               	movwf	(??_main+6)^(0+512)
  3521  03E2  085C               	movf	(??_main+3)^(0+512),w
  3522  03E3  3D5E               	addwfc	(??_main+5)^(0+512),w
  3523  03E4  00E0               	movwf	(??_main+7)^(0+512)
  3524  03E5  0859               	movf	??_main^(0+512),w
  3525  03E6  075F               	addwf	(??_main+6)^(0+512),w
  3526  03E7  0086               	movwf	6
  3527  03E8  085A               	movf	(??_main+1)^(0+512),w
  3528  03E9  3D60               	addwfc	(??_main+7)^(0+512),w
  3529  03EA  0087               	movwf	7
  3530  03EB  0021               	movlb	1	; select bank1
  3531  03EC  081B               	movf	27,w	;volatile
  3532  03ED  3FC0               	movwi [0]fsr1
  3533  03EE  081C               	movf	28,w	;volatile
  3534  03EF  3FC1               	movwi [1]fsr1
  3535  03F0                     l5376:
  3536  03F0  3001               	movlw	1
  3537  03F1  0024               	movlb	4	; select bank4
  3538  03F2  00D9               	movwf	??_main^(0+512)
  3539  03F3  0859               	movf	??_main^(0+512),w
  3540  03F4  0023               	movlb	3	; select bank3
  3541  03F5  07D7               	addwf	_column^(0+384),f
  3542  03F6                     l5378:
  3543                           
  3544                           ;main.c: 98:             ADCON0bits.CHS = 7;
  3545  03F6  0021               	movlb	1	; select bank1
  3546  03F7  081D               	movf	29,w	;volatile
  3547  03F8  3983               	andlw	-125
  3548  03F9  381C               	iorlw	28
  3549  03FA  009D               	movwf	29	;volatile
  3550  03FB                     l5380:
  3551                           
  3552                           ;main.c: 99:             ADCON0bits.ADON = 1;
  3553  03FB  141D               	bsf	29,0	;volatile
  3554  03FC                     l5382:
  3555                           
  3556                           ;main.c: 100:             ADCON0bits.ADGO = 1;
  3557  03FC  149D               	bsf	29,1	;volatile
  3558  03FD                     l843:	
  3559                           ;main.c: 101:             while(ADCON0bits.GO_nDONE);
  3560                           
  3561  03FD  189D               	btfsc	29,1	;volatile
  3562  03FE  2C00               	goto	u4351
  3563  03FF  2C01               	goto	u4350
  3564  0400                     u4351:
  3565  0400  2BFD               	goto	l843
  3566  0401                     u4350:
  3567  0401                     l845:
  3568                           
  3569                           ;main.c: 102:             ADCON0bits.ADGO = 1;
  3570  0401  149D               	bsf	29,1	;volatile
  3571  0402                     l846:	
  3572                           ;main.c: 103:             while(ADCON0bits.GO_nDONE);
  3573                           
  3574  0402  189D               	btfsc	29,1	;volatile
  3575  0403  2C05               	goto	u4361
  3576  0404  2C06               	goto	u4360
  3577  0405                     u4361:
  3578  0405  2C02               	goto	l846
  3579  0406                     u4360:
  3580  0406                     l5384:
  3581                           
  3582                           ;main.c: 104:             measarray[row][column++] = (ADRESH << 8) | ADRESL;
  3583  0406  0023               	movlb	3	; select bank3
  3584  0407  0857               	movf	_column^(0+384),w
  3585  0408  0024               	movlb	4	; select bank4
  3586  0409  00D9               	movwf	??_main^(0+512)
  3587  040A  01DA               	clrf	(??_main^(0+512)+1)
  3588  040B  35D9               	lslf	??_main^(0+512),f
  3589  040C  0DDA               	rlf	(??_main^(0+512)+1),f
  3590  040D  0023               	movlb	3	; select bank3
  3591  040E  0858               	movf	_row^(0+384),w
  3592  040F  0024               	movlb	4	; select bank4
  3593  0410  00DB               	movwf	(??_main+2)^(0+512)
  3594  0411  01DC               	clrf	((??_main+2)^(0+512)+1)
  3595  0412  35DB               	lslf	(??_main+2)^(0+512),f
  3596  0413  0DDC               	rlf	((??_main+2)^(0+512)+1),f
  3597  0414  35DB               	lslf	(??_main+2)^(0+512),f
  3598  0415  0DDC               	rlf	((??_main+2)^(0+512)+1),f
  3599  0416  35DB               	lslf	(??_main+2)^(0+512),f
  3600  0417  0DDC               	rlf	((??_main+2)^(0+512)+1),f
  3601  0418  3050               	movlw	80
  3602  0419  00DD               	movwf	(??_main+4)^(0+512)
  3603  041A  3022               	movlw	34
  3604  041B  00DE               	movwf	((??_main+4)^(0+512)+1)
  3605  041C  085B               	movf	(??_main+2)^(0+512),w
  3606  041D  075D               	addwf	(??_main+4)^(0+512),w
  3607  041E  00DF               	movwf	(??_main+6)^(0+512)
  3608  041F  085C               	movf	(??_main+3)^(0+512),w
  3609  0420  3D5E               	addwfc	(??_main+5)^(0+512),w
  3610  0421  00E0               	movwf	(??_main+7)^(0+512)
  3611  0422  0859               	movf	??_main^(0+512),w
  3612  0423  075F               	addwf	(??_main+6)^(0+512),w
  3613  0424  0086               	movwf	6
  3614  0425  085A               	movf	(??_main+1)^(0+512),w
  3615  0426  3D60               	addwfc	(??_main+7)^(0+512),w
  3616  0427  0087               	movwf	7
  3617  0428  0021               	movlb	1	; select bank1
  3618  0429  081B               	movf	27,w	;volatile
  3619  042A  3FC0               	movwi [0]fsr1
  3620  042B  081C               	movf	28,w	;volatile
  3621  042C  3FC1               	movwi [1]fsr1
  3622  042D                     l5386:
  3623  042D  3001               	movlw	1
  3624  042E  0024               	movlb	4	; select bank4
  3625  042F  00D9               	movwf	??_main^(0+512)
  3626  0430  0859               	movf	??_main^(0+512),w
  3627  0431  0023               	movlb	3	; select bank3
  3628  0432  07D7               	addwf	_column^(0+384),f
  3629  0433                     l5388:
  3630                           
  3631                           ;main.c: 105:             ADCON0bits.ADON = 0;
  3632  0433  0021               	movlb	1	; select bank1
  3633  0434  101D               	bcf	29,0	;volatile
  3634  0435                     l5390:
  3635                           
  3636                           ;main.c: 107:             ADCON0bits.CHS = 6;
  3637  0435  081D               	movf	29,w	;volatile
  3638  0436  3983               	andlw	-125
  3639  0437  3818               	iorlw	24
  3640  0438  009D               	movwf	29	;volatile
  3641  0439                     l5392:
  3642                           
  3643                           ;main.c: 108:             ADCON0bits.ADON = 1;
  3644  0439  141D               	bsf	29,0	;volatile
  3645  043A                     l5394:
  3646                           
  3647                           ;main.c: 109:             ADCON0bits.ADGO = 1;
  3648  043A  149D               	bsf	29,1	;volatile
  3649  043B                     l849:	
  3650                           ;main.c: 110:             while(ADCON0bits.GO_nDONE);
  3651                           
  3652  043B  189D               	btfsc	29,1	;volatile
  3653  043C  2C3E               	goto	u4371
  3654  043D  2C3F               	goto	u4370
  3655  043E                     u4371:
  3656  043E  2C3B               	goto	l849
  3657  043F                     u4370:
  3658  043F                     l851:
  3659                           
  3660                           ;main.c: 111:             ADCON0bits.ADGO = 1;
  3661  043F  149D               	bsf	29,1	;volatile
  3662  0440                     l852:	
  3663                           ;main.c: 112:             while(ADCON0bits.GO_nDONE);
  3664                           
  3665  0440  189D               	btfsc	29,1	;volatile
  3666  0441  2C43               	goto	u4381
  3667  0442  2C44               	goto	u4380
  3668  0443                     u4381:
  3669  0443  2C40               	goto	l852
  3670  0444                     u4380:
  3671  0444                     l5396:
  3672                           
  3673                           ;main.c: 113:             measarray[row++][column] = (ADRESH << 8) | ADRESL;
  3674  0444  0023               	movlb	3	; select bank3
  3675  0445  0857               	movf	_column^(0+384),w
  3676  0446  0024               	movlb	4	; select bank4
  3677  0447  00D9               	movwf	??_main^(0+512)
  3678  0448  01DA               	clrf	(??_main^(0+512)+1)
  3679  0449  35D9               	lslf	??_main^(0+512),f
  3680  044A  0DDA               	rlf	(??_main^(0+512)+1),f
  3681  044B  0023               	movlb	3	; select bank3
  3682  044C  0858               	movf	_row^(0+384),w
  3683  044D  0024               	movlb	4	; select bank4
  3684  044E  00DB               	movwf	(??_main+2)^(0+512)
  3685  044F  01DC               	clrf	((??_main+2)^(0+512)+1)
  3686  0450  35DB               	lslf	(??_main+2)^(0+512),f
  3687  0451  0DDC               	rlf	((??_main+2)^(0+512)+1),f
  3688  0452  35DB               	lslf	(??_main+2)^(0+512),f
  3689  0453  0DDC               	rlf	((??_main+2)^(0+512)+1),f
  3690  0454  35DB               	lslf	(??_main+2)^(0+512),f
  3691  0455  0DDC               	rlf	((??_main+2)^(0+512)+1),f
  3692  0456  3050               	movlw	80
  3693  0457  00DD               	movwf	(??_main+4)^(0+512)
  3694  0458  3022               	movlw	34
  3695  0459  00DE               	movwf	((??_main+4)^(0+512)+1)
  3696  045A  085B               	movf	(??_main+2)^(0+512),w
  3697  045B  075D               	addwf	(??_main+4)^(0+512),w
  3698  045C  00DF               	movwf	(??_main+6)^(0+512)
  3699  045D  085C               	movf	(??_main+3)^(0+512),w
  3700  045E  3D5E               	addwfc	(??_main+5)^(0+512),w
  3701  045F  00E0               	movwf	(??_main+7)^(0+512)
  3702  0460  0859               	movf	??_main^(0+512),w
  3703  0461  075F               	addwf	(??_main+6)^(0+512),w
  3704  0462  0086               	movwf	6
  3705  0463  085A               	movf	(??_main+1)^(0+512),w
  3706  0464  3D60               	addwfc	(??_main+7)^(0+512),w
  3707  0465  0087               	movwf	7
  3708  0466  0021               	movlb	1	; select bank1
  3709  0467  081B               	movf	27,w	;volatile
  3710  0468  3FC0               	movwi [0]fsr1
  3711  0469  081C               	movf	28,w	;volatile
  3712  046A  3FC1               	movwi [1]fsr1
  3713  046B                     l5398:
  3714  046B  3001               	movlw	1
  3715  046C  0024               	movlb	4	; select bank4
  3716  046D  00D9               	movwf	??_main^(0+512)
  3717  046E  0859               	movf	??_main^(0+512),w
  3718  046F  0023               	movlb	3	; select bank3
  3719  0470  07D8               	addwf	_row^(0+384),f
  3720  0471                     l5400:
  3721                           
  3722                           ;main.c: 114:             ADCON0bits.ADON = 0;
  3723  0471  0021               	movlb	1	; select bank1
  3724  0472  101D               	bcf	29,0	;volatile
  3725  0473                     l5402:
  3726                           
  3727                           ;main.c: 117:         if(sleep_flag)
  3728  0473  0023               	movlb	3	; select bank3
  3729  0474  085E               	movf	_sleep_flag^(0+384),w
  3730  0475  1903               	btfsc	3,2
  3731  0476  2C78               	goto	u4391
  3732  0477  2C79               	goto	u4390
  3733  0478                     u4391:
  3734  0478  2C85               	goto	l5414
  3735  0479                     u4390:
  3736  0479                     l5404:
  3737                           
  3738                           ;main.c: 118:         {;main.c: 119:             sleep_flag = 0;
  3739  0479  01DE               	clrf	_sleep_flag^(0+384)
  3740  047A                     l5406:
  3741                           
  3742                           ;main.c: 120:             TRISCbits.TRISC5 = 0;
  3743  047A  0021               	movlb	1	; select bank1
  3744  047B  128E               	bcf	14,5	;volatile
  3745  047C                     l5408:
  3746                           
  3747                           ;main.c: 121:             INTCONbits.IOCIE = 1;
  3748  047C  158B               	bsf	11,3	;volatile
  3749  047D  0063               	sleep	;# 
  3750  047E                     l5410:
  3751                           
  3752                           ;main.c: 123:             INTCONbits.IOCIE = 0;
  3753  047E  118B               	bcf	11,3	;volatile
  3754  047F                     l5412:
  3755                           
  3756                           ;main.c: 124:             TRISCbits.TRISC5 = 1;
  3757  047F  0021               	movlb	1	; select bank1
  3758  0480  168E               	bsf	14,5	;volatile
  3759                           
  3760                           ;main.c: 125:             writecomplete = 0;
  3761  0481  0023               	movlb	3	; select bank3
  3762  0482  01D6               	clrf	_writecomplete^(0+384)
  3763                           
  3764                           ;main.c: 126:             writeout_flag = 0;
  3765  0483  01DD               	clrf	_writeout_flag^(0+384)
  3766                           
  3767                           ;main.c: 127:             measurement_count = 0;
  3768  0484  01DC               	clrf	_measurement_count^(0+384)
  3769  0485                     l5414:
  3770                           
  3771                           ;main.c: 129:         if(writeout_flag && !writecomplete)
  3772  0485  085D               	movf	_writeout_flag^(0+384),w
  3773  0486  1903               	btfsc	3,2
  3774  0487  2C89               	goto	u4401
  3775  0488  2C8A               	goto	u4400
  3776  0489                     u4401:
  3777  0489  2B7F               	goto	l5354
  3778  048A                     u4400:
  3779  048A                     l5416:
  3780  048A  0856               	movf	_writecomplete^(0+384),w
  3781  048B  1D03               	btfss	3,2
  3782  048C  2C8E               	goto	u4411
  3783  048D  2C8F               	goto	u4410
  3784  048E                     u4411:
  3785  048E  2B7F               	goto	l5354
  3786  048F                     u4410:
  3787  048F                     l5418:
  3788                           
  3789                           ;main.c: 130:         {;main.c: 132:             writeout_flag = 0;
  3790  048F  01DD               	clrf	_writeout_flag^(0+384)
  3791  0490                     l5420:
  3792                           
  3793                           ;main.c: 136:             writecomplete = 1;
  3794  0490  01D6               	clrf	_writecomplete^(0+384)
  3795  0491  0AD6               	incf	_writecomplete^(0+384),f
  3796  0492  2B7F               	goto	l5354
  3797  0493  3180  2826         	ljmp	start
  3798  0495                     __end_of_main:
  3799                           
  3800                           	psect	text1
  3801  16BE                     __ptext1:	
  3802 ;; *************** function _SYSTEM_Initialize *****************
  3803 ;; Defined at:
  3804 ;;		line 50 in file "mcc_generated_files/mcc.c"
  3805 ;; Parameters:    Size  Location     Type
  3806 ;;		None
  3807 ;; Auto vars:     Size  Location     Type
  3808 ;;		None
  3809 ;; Return value:  Size  Location     Type
  3810 ;;                  1    wreg      void 
  3811 ;; Registers used:
  3812 ;;		wreg, fsr1l, fsr1h, status,2, status,0, pclath, cstack
  3813 ;; Tracked objects:
  3814 ;;		On entry : 0/0
  3815 ;;		On exit  : 0/0
  3816 ;;		Unchanged: 0/0
  3817 ;; Data sizes:     COMMON   BANK0   BANK1   BANK2   BANK3   BANK4   BANK5   BANK6   BANK7   BANK8   BANK9  BANK10  BANK1
      +1  BANK12
  3818 ;;      Params:         0       0       0       0       0       0       0       0       0       0       0       0       
      +0       0
  3819 ;;      Locals:         0       0       0       0       0       0       0       0       0       0       0       0       
      +0       0
  3820 ;;      Temps:          0       0       0       0       0       0       0       0       0       0       0       0       
      +0       0
  3821 ;;      Totals:         0       0       0       0       0       0       0       0       0       0       0       0       
      +0       0
  3822 ;;Total ram usage:        0 bytes
  3823 ;; Hardware stack levels used:    1
  3824 ;; Hardware stack levels required when called:   12
  3825 ;; This function calls:
  3826 ;;		_ADC_Initialize
  3827 ;;		_OSCILLATOR_Initialize
  3828 ;;		_PIN_MANAGER_Initialize
  3829 ;;		_TMR0_Initialize
  3830 ;;		_USBDeviceAttach
  3831 ;;		_USBDeviceInit
  3832 ;;		_WDT_Initialize
  3833 ;; This function is called by:
  3834 ;;		_main
  3835 ;; This function uses a non-reentrant model
  3836 ;;
  3837                           
  3838                           
  3839                           ;psect for function _SYSTEM_Initialize
  3840  16BE                     _SYSTEM_Initialize:
  3841  16BE                     l4642:	
  3842                           ;incstack = 0
  3843                           ; Regs used in _SYSTEM_Initialize: [wreg+fsr1l+fsr1h+status,2+status,0+pclath+cstack]
  3844                           
  3845                           
  3846                           ;mcc_generated_files/mcc.c: 53:     PIN_MANAGER_Initialize();
  3847  16BE  3197  2789  3196   	fcall	_PIN_MANAGER_Initialize
  3848                           
  3849                           ;mcc_generated_files/mcc.c: 54:     OSCILLATOR_Initialize();
  3850  16C1  3196  26B0  3196   	fcall	_OSCILLATOR_Initialize
  3851                           
  3852                           ;mcc_generated_files/mcc.c: 55:     WDT_Initialize();
  3853  16C4  3196  2679  3196   	fcall	_WDT_Initialize
  3854  16C7                     l4644:
  3855                           
  3856                           ;mcc_generated_files/mcc.c: 56:     USBDeviceInit();
  3857  16C7  3186  2678  3196   	fcall	_USBDeviceInit
  3858  16CA                     l4646:
  3859                           
  3860                           ;mcc_generated_files/mcc.c: 57:     ADC_Initialize();
  3861  16CA  3196  267D  3196   	fcall	_ADC_Initialize
  3862  16CD                     l4648:
  3863                           
  3864                           ;mcc_generated_files/mcc.c: 58:     TMR0_Initialize();
  3865  16CD  3196  26D4  3196   	fcall	_TMR0_Initialize
  3866  16D0                     l4650:
  3867                           
  3868                           ;mcc_generated_files/mcc.c: 59:     USBDeviceAttach();
  3869  16D0  3197  2709  3196   	fcall	_USBDeviceAttach
  3870  16D3                     l609:
  3871  16D3  0008               	return
  3872  16D4                     __end_of_SYSTEM_Initialize:
  3873                           
  3874                           	psect	text2
  3875  1679                     __ptext2:	
  3876 ;; *************** function _WDT_Initialize *****************
  3877 ;; Defined at:
  3878 ;;		line 78 in file "mcc_generated_files/mcc.c"
  3879 ;; Parameters:    Size  Location     Type
  3880 ;;		None
  3881 ;; Auto vars:     Size  Location     Type
  3882 ;;		None
  3883 ;; Return value:  Size  Location     Type
  3884 ;;                  1    wreg      void 
  3885 ;; Registers used:
  3886 ;;		wreg
  3887 ;; Tracked objects:
  3888 ;;		On entry : 0/0
  3889 ;;		On exit  : 0/0
  3890 ;;		Unchanged: 0/0
  3891 ;; Data sizes:     COMMON   BANK0   BANK1   BANK2   BANK3   BANK4   BANK5   BANK6   BANK7   BANK8   BANK9  BANK10  BANK1
      +1  BANK12
  3892 ;;      Params:         0       0       0       0       0       0       0       0       0       0       0       0       
      +0       0
  3893 ;;      Locals:         0       0       0       0       0       0       0       0       0       0       0       0       
      +0       0
  3894 ;;      Temps:          0       0       0       0       0       0       0       0       0       0       0       0       
      +0       0
  3895 ;;      Totals:         0       0       0       0       0       0       0       0       0       0       0       0       
      +0       0
  3896 ;;Total ram usage:        0 bytes
  3897 ;; Hardware stack levels used:    1
  3898 ;; Hardware stack levels required when called:   10
  3899 ;; This function calls:
  3900 ;;		Nothing
  3901 ;; This function is called by:
  3902 ;;		_SYSTEM_Initialize
  3903 ;; This function uses a non-reentrant model
  3904 ;;
  3905                           
  3906                           
  3907                           ;psect for function _WDT_Initialize
  3908  1679                     _WDT_Initialize:
  3909  1679                     l4324:	
  3910                           ;incstack = 0
  3911                           ; Regs used in _WDT_Initialize: [wreg]
  3912                           
  3913                           
  3914                           ;mcc_generated_files/mcc.c: 81:     WDTCON = 0x16;
  3915  1679  3016               	movlw	22
  3916  167A  0021               	movlb	1	; select bank1
  3917  167B  0097               	movwf	23	;volatile
  3918  167C                     l618:
  3919  167C  0008               	return
  3920  167D                     __end_of_WDT_Initialize:
  3921                           
  3922                           	psect	text3
  3923  0678                     __ptext3:	
  3924 ;; *************** function _USBDeviceInit *****************
  3925 ;; Defined at:
  3926 ;;		line 281 in file "mcc_generated_files/usb/usb_device.c"
  3927 ;; Parameters:    Size  Location     Type
  3928 ;;		None
  3929 ;; Auto vars:     Size  Location     Type
  3930 ;;  p               2    6[BANK1 ] PTR unsigned char 
  3931 ;;		 -> UEP1(1), 
  3932 ;;  i               1    8[BANK1 ] unsigned char 
  3933 ;;  i               1    9[BANK1 ] unsigned char 
  3934 ;; Return value:  Size  Location     Type
  3935 ;;                  1    wreg      void 
  3936 ;; Registers used:
  3937 ;;		wreg, fsr1l, fsr1h, status,2, status,0
  3938 ;; Tracked objects:
  3939 ;;		On entry : 0/0
  3940 ;;		On exit  : 0/0
  3941 ;;		Unchanged: 0/0
  3942 ;; Data sizes:     COMMON   BANK0   BANK1   BANK2   BANK3   BANK4   BANK5   BANK6   BANK7   BANK8   BANK9  BANK10  BANK1
      +1  BANK12
  3943 ;;      Params:         0       0       0       0       0       0       0       0       0       0       0       0       
      +0       0
  3944 ;;      Locals:         0       0       4       0       0       0       0       0       0       0       0       0       
      +0       0
  3945 ;;      Temps:          0       0       1       0       0       0       0       0       0       0       0       0       
      +0       0
  3946 ;;      Totals:         0       0       5       0       0       0       0       0       0       0       0       0       
      +0       0
  3947 ;;Total ram usage:        5 bytes
  3948 ;; Hardware stack levels used:    1
  3949 ;; Hardware stack levels required when called:   10
  3950 ;; This function calls:
  3951 ;;		Nothing
  3952 ;; This function is called by:
  3953 ;;		_SYSTEM_Initialize
  3954 ;; This function uses a non-reentrant model
  3955 ;;
  3956                           
  3957                           
  3958                           ;psect for function _USBDeviceInit
  3959  0678                     _USBDeviceInit:
  3960  0678                     l4128:	
  3961                           ;incstack = 0
  3962                           ; Regs used in _USBDeviceInit: [wreg+fsr1l+fsr1h+status,2+status,0]
  3963                           
  3964                           
  3965                           ;mcc_generated_files/usb/usb_device.c: 283:     uint8_t i;;mcc_generated_files/usb/usb_d
      +                          evice.c: 285:     {PIE2bits.USBIE = 0;};
  3966  0678  0021               	movlb	1	; select bank1
  3967  0679  1112               	bcf	18,2	;volatile
  3968  067A                     l4130:
  3969                           
  3970                           ;mcc_generated_files/usb/usb_device.c: 292:     {UEIR = 0;};
  3971  067A  003D               	movlb	29	; select bank29
  3972  067B  0193               	clrf	19	;volatile
  3973                           
  3974                           ;mcc_generated_files/usb/usb_device.c: 295:     {UIR = 0;};
  3975  067C  0190               	clrf	16	;volatile
  3976                           
  3977                           ;mcc_generated_files/usb/usb_device.c: 298:     UEP0 = 0;
  3978  067D  0198               	clrf	24	;volatile
  3979  067E                     l4132:
  3980                           
  3981                           ;mcc_generated_files/usb/usb_device.c: 300:     { uint8_t i; uint8_t* p = (uint8_t*)&UEP
      +                          1; for(i=0;i<2;i++) *p++ = 0; };
  3982  067E  300E               	movlw	14
  3983  067F  0021               	movlb	1	; select bank1
  3984  0680  00C5               	movwf	(USBDeviceInit@p+1)^(0+128)
  3985  0681  3099               	movlw	153
  3986  0682  00C4               	movwf	USBDeviceInit@p^(0+128)
  3987  0683  01C6               	clrf	USBDeviceInit@i_665^(0+128)
  3988  0684                     l4138:
  3989  0684  0844               	movf	USBDeviceInit@p^(0+128),w
  3990  0685  0086               	movwf	6
  3991  0686  0845               	movf	(USBDeviceInit@p+1)^(0+128),w
  3992  0687  0087               	movwf	7
  3993  0688  0181               	clrf	1
  3994  0689                     l4140:
  3995  0689  3001               	movlw	1
  3996  068A  07C4               	addwf	USBDeviceInit@p^(0+128),f
  3997  068B  3000               	movlw	0
  3998  068C  3DC5               	addwfc	(USBDeviceInit@p+1)^(0+128),f
  3999  068D                     l4142:
  4000  068D  3001               	movlw	1
  4001  068E  00C3               	movwf	??_USBDeviceInit^(0+128)
  4002  068F  0843               	movf	??_USBDeviceInit^(0+128),w
  4003  0690  07C6               	addwf	USBDeviceInit@i_665^(0+128),f
  4004  0691                     l4144:
  4005  0691  3002               	movlw	2
  4006  0692  0246               	subwf	USBDeviceInit@i_665^(0+128),w
  4007  0693  1C03               	skipc
  4008  0694  2E96               	goto	u2831
  4009  0695  2E97               	goto	u2830
  4010  0696                     u2831:
  4011  0696  2E84               	goto	l4138
  4012  0697                     u2830:
  4013  0697                     l4146:
  4014                           
  4015                           ;mcc_generated_files/usb/usb_device.c: 302:     { UCFG = 0x10 | 0x00 | 0x04 | 0x02; UEIE
      +                           = 0x9F; UIE = 0x39 | 0x40 | 0x02; };
  4016  0697  3016               	movlw	22
  4017  0698  003D               	movlb	29	; select bank29
  4018  0699  0091               	movwf	17	;volatile
  4019  069A  309F               	movlw	159
  4020  069B  0097               	movwf	23	;volatile
  4021  069C  307B               	movlw	123
  4022  069D  0092               	movwf	18	;volatile
  4023  069E                     l4148:
  4024                           
  4025                           ;mcc_generated_files/usb/usb_device.c: 311:     for(i = 0; i < (sizeof(BDT)/sizeof(BDT_E
      +                          NTRY)); i++)
  4026  069E  0021               	movlb	1	; select bank1
  4027  069F  01C7               	clrf	USBDeviceInit@i^(0+128)
  4028  06A0                     l4154:
  4029                           
  4030                           ;mcc_generated_files/usb/usb_device.c: 312:     {;mcc_generated_files/usb/usb_device.c: 
      +                          313:         BDT[i].Val = 0x00;
  4031  06A0  0847               	movf	USBDeviceInit@i^(0+128),w
  4032  06A1  00C3               	movwf	??_USBDeviceInit^(0+128)
  4033  06A2  3001               	movlw	1
  4034  06A3                     u2845:
  4035  06A3  35C3               	lslf	??_USBDeviceInit^(0+128),f
  4036  06A4  3EFF               	addlw	-1
  4037  06A5  1D03               	skipz
  4038  06A6  2EA3               	goto	u2845
  4039  06A7  3543               	lslf	??_USBDeviceInit^(0+128),w
  4040  06A8  3E20               	addlw	32
  4041  06A9  0086               	movwf	6
  4042  06AA  0187               	clrf	7
  4043  06AB  3000               	movlw	0
  4044  06AC  3FC0               	movwi [0]fsr1
  4045  06AD  3000               	movlw	0
  4046  06AE  3FC1               	movwi [1]fsr1
  4047  06AF  3FC2               	movwi [2]fsr1
  4048  06B0  3FC3               	movwi [3]fsr1
  4049  06B1                     l4156:
  4050                           
  4051                           ;mcc_generated_files/usb/usb_device.c: 314:     }
  4052  06B1  3001               	movlw	1
  4053  06B2  00C3               	movwf	??_USBDeviceInit^(0+128)
  4054  06B3  0843               	movf	??_USBDeviceInit^(0+128),w
  4055  06B4  07C7               	addwf	USBDeviceInit@i^(0+128),f
  4056  06B5                     l4158:
  4057  06B5  300C               	movlw	12
  4058  06B6  0247               	subwf	USBDeviceInit@i^(0+128),w
  4059  06B7  1C03               	skipc
  4060  06B8  2EBA               	goto	u2851
  4061  06B9  2EBB               	goto	u2850
  4062  06BA                     u2851:
  4063  06BA  2EA0               	goto	l4154
  4064  06BB                     u2850:
  4065  06BB                     l136:
  4066                           
  4067                           ;mcc_generated_files/usb/usb_device.c: 317:     UCONbits.PPBRST = 1;
  4068  06BB  003D               	movlb	29	; select bank29
  4069  06BC  170E               	bsf	14,6	;volatile
  4070  06BD                     l4160:
  4071                           
  4072                           ;mcc_generated_files/usb/usb_device.c: 320:     UADDR = 0x00;
  4073  06BD  0196               	clrf	22	;volatile
  4074  06BE                     l4162:
  4075                           
  4076                           ;mcc_generated_files/usb/usb_device.c: 323:     UCONbits.PKTDIS = 0;
  4077  06BE  120E               	bcf	14,4	;volatile
  4078  06BF                     l4164:
  4079                           
  4080                           ;mcc_generated_files/usb/usb_device.c: 326:     UCONbits.PPBRST = 0;
  4081  06BF  130E               	bcf	14,6	;volatile
  4082  06C0                     l4166:
  4083                           
  4084                           ;mcc_generated_files/usb/usb_device.c: 330:     {;mcc_generated_files/usb/usb_device.c: 
      +                          331:         (UIR &= 0xF7);
  4085  06C0  30F7               	movlw	247
  4086  06C1  0021               	movlb	1	; select bank1
  4087  06C2  00C3               	movwf	??_USBDeviceInit^(0+128)
  4088  06C3  0843               	movf	??_USBDeviceInit^(0+128),w
  4089  06C4  003D               	movlb	29	; select bank29
  4090  06C5  0590               	andwf	16,f	;volatile
  4091  06C6                     l4168:
  4092                           
  4093                           ;mcc_generated_files/usb/usb_device.c: 333:         inPipes[0].info.Val = 0;
  4094  06C6  0021               	movlb	1	; select bank1
  4095  06C7  01AF               	clrf	(_inPipes^(0+128)+2)	;volatile
  4096  06C8                     l4170:
  4097                           
  4098                           ;mcc_generated_files/usb/usb_device.c: 334:         outPipes[0].info.Val = 0;
  4099  06C8  01A2               	clrf	(_outPipes^(0+128)+2)	;volatile
  4100  06C9                     l4172:
  4101                           
  4102                           ;mcc_generated_files/usb/usb_device.c: 335:         outPipes[0].wCount.Val = 0;
  4103  06C9  01A3               	clrf	(_outPipes^(0+128)+3)	;volatile
  4104  06CA  01A4               	clrf	((_outPipes+1)^(0+128)+3)	;volatile
  4105  06CB                     l4174:
  4106                           
  4107                           ;mcc_generated_files/usb/usb_device.c: 336:     }while(UIRbits.TRNIF == 1);
  4108  06CB  003D               	movlb	29	; select bank29
  4109  06CC  1990               	btfsc	16,3	;volatile
  4110  06CD  2ECF               	goto	u2861
  4111  06CE  2ED0               	goto	u2860
  4112  06CF                     u2861:
  4113  06CF  2EC0               	goto	l4166
  4114  06D0                     u2860:
  4115  06D0                     l4176:
  4116                           
  4117                           ;mcc_generated_files/usb/usb_device.c: 340:     USBStatusStageEnabledFlag1 = 1;
  4118  06D0  3001               	movlw	1
  4119  06D1  0021               	movlb	1	; select bank1
  4120  06D2  00C3               	movwf	??_USBDeviceInit^(0+128)
  4121  06D3  0843               	movf	??_USBDeviceInit^(0+128),w
  4122  06D4  0023               	movlb	3	; select bank3
  4123  06D5  00E7               	movwf	_USBStatusStageEnabledFlag1^(0+384)	;volatile
  4124                           
  4125                           ;mcc_generated_files/usb/usb_device.c: 341:     USBStatusStageEnabledFlag2 = 1;
  4126  06D6  3001               	movlw	1
  4127  06D7  0021               	movlb	1	; select bank1
  4128  06D8  00C3               	movwf	??_USBDeviceInit^(0+128)
  4129  06D9  0843               	movf	??_USBDeviceInit^(0+128),w
  4130  06DA  0023               	movlb	3	; select bank3
  4131  06DB  00E6               	movwf	_USBStatusStageEnabledFlag2^(0+384)	;volatile
  4132  06DC                     l4178:
  4133                           
  4134                           ;mcc_generated_files/usb/usb_device.c: 343:     USBDeferINDataStagePackets = 0;
  4135  06DC  01E5               	clrf	_USBDeferINDataStagePackets^(0+384)	;volatile
  4136  06DD                     l4180:
  4137                           
  4138                           ;mcc_generated_files/usb/usb_device.c: 344:     USBDeferOUTDataStagePackets = 0;
  4139  06DD  01E4               	clrf	_USBDeferOUTDataStagePackets^(0+384)	;volatile
  4140  06DE                     l4182:
  4141                           
  4142                           ;mcc_generated_files/usb/usb_device.c: 345:     USBBusIsSuspended = 0;
  4143  06DE  01E9               	clrf	_USBBusIsSuspended^(0+384)	;volatile
  4144  06DF                     l4184:
  4145                           
  4146                           ;mcc_generated_files/usb/usb_device.c: 349:     for(i = 0; i < (uint8_t)(2 +1u); i++)
  4147  06DF  0021               	movlb	1	; select bank1
  4148  06E0  01C7               	clrf	USBDeviceInit@i^(0+128)
  4149  06E1                     l4188:
  4150                           
  4151                           ;mcc_generated_files/usb/usb_device.c: 350:     {;mcc_generated_files/usb/usb_device.c: 
      +                          351:         pBDTEntryIn[i] = 0u;
  4152  06E1  3547               	lslf	USBDeviceInit@i^(0+128),w
  4153  06E2  3EA7               	addlw	(low (_pBDTEntryIn| 0))& (0+255)
  4154  06E3  0086               	movwf	6
  4155  06E4  0187               	clrf	7
  4156  06E5  3000               	movlw	0
  4157  06E6  3FC0               	movwi [0]fsr1
  4158  06E7  3FC1               	movwi [1]fsr1
  4159                           
  4160                           ;mcc_generated_files/usb/usb_device.c: 352:         pBDTEntryOut[i] = 0u;
  4161  06E8  3547               	lslf	USBDeviceInit@i^(0+128),w
  4162  06E9  3EB0               	addlw	(low (_pBDTEntryOut| (0+256)))& (0+255)
  4163  06EA  0086               	movwf	6
  4164  06EB  3001               	movlw	1	; select bank3/4
  4165  06EC  0087               	movwf	7
  4166  06ED  3000               	movlw	0
  4167  06EE  3FC0               	movwi [0]fsr1
  4168  06EF  3FC1               	movwi [1]fsr1
  4169                           
  4170                           ;mcc_generated_files/usb/usb_device.c: 353:         ep_data_in[i].Val = 0u;
  4171  06F0  0847               	movf	USBDeviceInit@i^(0+128),w
  4172  06F1  3EC1               	addlw	(low (_ep_data_in| (0+256)))& (0+255)
  4173  06F2  0086               	movwf	6
  4174  06F3  3001               	movlw	1	; select bank3/4
  4175  06F4  0087               	movwf	7
  4176  06F5  0181               	clrf	1
  4177                           
  4178                           ;mcc_generated_files/usb/usb_device.c: 354:         ep_data_out[i].Val = 0u;
  4179  06F6  0847               	movf	USBDeviceInit@i^(0+128),w
  4180  06F7  3EBE               	addlw	(low (_ep_data_out| (0+256)))& (0+255)
  4181  06F8  0086               	movwf	6
  4182  06F9  3001               	movlw	1	; select bank3/4
  4183  06FA  0087               	movwf	7
  4184  06FB  0181               	clrf	1
  4185  06FC                     l4190:
  4186                           
  4187                           ;mcc_generated_files/usb/usb_device.c: 355:     }
  4188  06FC  3001               	movlw	1
  4189  06FD  00C3               	movwf	??_USBDeviceInit^(0+128)
  4190  06FE  0843               	movf	??_USBDeviceInit^(0+128),w
  4191  06FF  07C7               	addwf	USBDeviceInit@i^(0+128),f
  4192  0700                     l4192:
  4193  0700  3003               	movlw	3
  4194  0701  0247               	subwf	USBDeviceInit@i^(0+128),w
  4195  0702  1C03               	skipc
  4196  0703  2F05               	goto	u2871
  4197  0704  2F06               	goto	u2870
  4198  0705                     u2871:
  4199  0705  2EE1               	goto	l4188
  4200  0706                     u2870:
  4201  0706                     l4194:
  4202                           
  4203                           ;mcc_generated_files/usb/usb_device.c: 358:     pBDTEntryIn[0] = (volatile BDT_ENTRY*)&B
      +                          DT[2];
  4204  0706  3028               	movlw	40
  4205  0707  00A7               	movwf	_pBDTEntryIn^(0+128)
  4206  0708  3000               	movlw	0
  4207  0709  00A8               	movwf	(_pBDTEntryIn+1)^(0+128)
  4208  070A                     l4196:
  4209                           
  4210                           ;mcc_generated_files/usb/usb_device.c: 360:     UEP0 = 0x06|0x10;
  4211  070A  3016               	movlw	22
  4212  070B  003D               	movlb	29	; select bank29
  4213  070C  0098               	movwf	24	;volatile
  4214  070D                     l4198:
  4215                           
  4216                           ;mcc_generated_files/usb/usb_device.c: 362:     BDT[0].ADR = (((uint16_t)(&SetupPkt)) & 
      +                          0x7FFF);
  4217  070D  3000               	movlw	0
  4218  070E  0020               	movlb	0	; select bank0
  4219  070F  00A3               	movwf	35	;volatile
  4220  0710  3050               	movlw	80
  4221  0711  00A2               	movwf	34	;volatile
  4222  0712                     l4200:
  4223                           
  4224                           ;mcc_generated_files/usb/usb_device.c: 363:     BDT[0].CNT = 8;
  4225  0712  3008               	movlw	8
  4226  0713  00A1               	movwf	33	;volatile
  4227  0714                     l4202:
  4228                           
  4229                           ;mcc_generated_files/usb/usb_device.c: 364:     BDT[0].STAT.Val = 0x00|0x04;
  4230  0714  3004               	movlw	4
  4231  0715  0021               	movlb	1	; select bank1
  4232  0716  00C3               	movwf	??_USBDeviceInit^(0+128)
  4233  0717  0843               	movf	??_USBDeviceInit^(0+128),w
  4234  0718  0020               	movlb	0	; select bank0
  4235  0719  00A0               	movwf	32	;volatile
  4236  071A                     l4204:
  4237                           
  4238                           ;mcc_generated_files/usb/usb_device.c: 365:     BDT[0].STAT.Val |= 0x80;
  4239  071A  17A0               	bsf	32,7	;volatile
  4240  071B                     l4206:
  4241                           
  4242                           ;mcc_generated_files/usb/usb_device.c: 368:     USBActiveConfiguration = 0;
  4243  071B  0021               	movlb	1	; select bank1
  4244  071C  01BD               	clrf	_USBActiveConfiguration^(0+128)	;volatile
  4245  071D                     l4208:
  4246                           
  4247                           ;mcc_generated_files/usb/usb_device.c: 370:     USB1msTickCount = 0;
  4248  071D  3000               	movlw	0
  4249  071E  0023               	movlb	3	; select bank3
  4250  071F  00BD               	movwf	(_USB1msTickCount+3)^(0+384)	;volatile
  4251  0720  3000               	movlw	0
  4252  0721  00BC               	movwf	(_USB1msTickCount+2)^(0+384)	;volatile
  4253  0722  3000               	movlw	0
  4254  0723  00BB               	movwf	(_USB1msTickCount+1)^(0+384)	;volatile
  4255  0724  3000               	movlw	0
  4256  0725  00BA               	movwf	_USB1msTickCount^(0+384)	;volatile
  4257  0726                     l4210:
  4258                           
  4259                           ;mcc_generated_files/usb/usb_device.c: 371:     USBTicksSinceSuspendEnd = 0;
  4260  0726  01E3               	clrf	_USBTicksSinceSuspendEnd^(0+384)	;volatile
  4261  0727                     l4212:
  4262                           
  4263                           ;mcc_generated_files/usb/usb_device.c: 374:     USBDeviceState = DETACHED_STATE;
  4264  0727  0021               	movlb	1	; select bank1
  4265  0728  01BB               	clrf	_USBDeviceState^(0+128)	;volatile
  4266  0729                     l141:
  4267  0729  0008               	return
  4268  072A                     __end_of_USBDeviceInit:
  4269                           
  4270                           	psect	text4
  4271  1709                     __ptext4:	
  4272 ;; *************** function _USBDeviceAttach *****************
  4273 ;; Defined at:
  4274 ;;		line 1356 in file "mcc_generated_files/usb/usb_device.c"
  4275 ;; Parameters:    Size  Location     Type
  4276 ;;		None
  4277 ;; Auto vars:     Size  Location     Type
  4278 ;;		None
  4279 ;; Return value:  Size  Location     Type
  4280 ;;                  1    wreg      void 
  4281 ;; Registers used:
  4282 ;;		wreg, status,2, status,0
  4283 ;; Tracked objects:
  4284 ;;		On entry : 0/0
  4285 ;;		On exit  : 0/0
  4286 ;;		Unchanged: 0/0
  4287 ;; Data sizes:     COMMON   BANK0   BANK1   BANK2   BANK3   BANK4   BANK5   BANK6   BANK7   BANK8   BANK9  BANK10  BANK1
      +1  BANK12
  4288 ;;      Params:         0       0       0       0       0       0       0       0       0       0       0       0       
      +0       0
  4289 ;;      Locals:         0       0       0       0       0       0       0       0       0       0       0       0       
      +0       0
  4290 ;;      Temps:          0       0       1       0       0       0       0       0       0       0       0       0       
      +0       0
  4291 ;;      Totals:         0       0       1       0       0       0       0       0       0       0       0       0       
      +0       0
  4292 ;;Total ram usage:        1 bytes
  4293 ;; Hardware stack levels used:    1
  4294 ;; Hardware stack levels required when called:   10
  4295 ;; This function calls:
  4296 ;;		Nothing
  4297 ;; This function is called by:
  4298 ;;		_SYSTEM_Initialize
  4299 ;; This function uses a non-reentrant model
  4300 ;;
  4301                           
  4302                           
  4303                           ;psect for function _USBDeviceAttach
  4304  1709                     _USBDeviceAttach:
  4305  1709                     l4282:	
  4306                           ;incstack = 0
  4307                           ; Regs used in _USBDeviceAttach: [wreg+status,2+status,0]
  4308                           
  4309                           
  4310                           ;mcc_generated_files/usb/usb_device.c: 1360:     {;mcc_generated_files/usb/usb_device.c:
      +                           1361:         if(1 == 1)
  4311  1709  0021               	movlb	1	; select bank1
  4312  170A  083B               	movf	_USBDeviceState^(0+128),w	;volatile
  4313  170B  1D03               	btfss	3,2
  4314  170C  2F0E               	goto	u2981
  4315  170D  2F0F               	goto	u2980
  4316  170E                     u2981:
  4317  170E  2F26               	goto	l199
  4318  170F                     u2980:
  4319  170F                     l4284:
  4320                           
  4321                           ;mcc_generated_files/usb/usb_device.c: 1362:         {;mcc_generated_files/usb/usb_devic
      +                          e.c: 1364:             UCON = 0;
  4322  170F  003D               	movlb	29	; select bank29
  4323  1710  018E               	clrf	14	;volatile
  4324                           
  4325                           ;mcc_generated_files/usb/usb_device.c: 1367:             UIE = 0;
  4326  1711  0192               	clrf	18	;volatile
  4327  1712                     l4286:
  4328                           
  4329                           ;mcc_generated_files/usb/usb_device.c: 1371:             { UCFG = 0x10 | 0x00 | 0x04 | 0
      +                          x02; UEIE = 0x9F; UIE = 0x39 | 0x40 | 0x02; };
  4330  1712  3016               	movlw	22
  4331  1713  0091               	movwf	17	;volatile
  4332  1714                     l4288:
  4333  1714  309F               	movlw	159
  4334  1715  0097               	movwf	23	;volatile
  4335  1716                     l4290:
  4336  1716  307B               	movlw	123
  4337  1717  0092               	movwf	18	;volatile
  4338  1718                     l4292:
  4339                           
  4340                           ;mcc_generated_files/usb/usb_device.c: 1373:             {PIE2bits.USBIE = 1;};
  4341  1718  0021               	movlb	1	; select bank1
  4342  1719  1512               	bsf	18,2	;volatile
  4343                           
  4344                           ;mcc_generated_files/usb/usb_device.c: 1376:             while(!UCONbits.USBEN){UCONbits
      +                          .USBEN = 1;}
  4345  171A  2F1C               	goto	l196
  4346  171B                     l197:
  4347  171B  158E               	bsf	14,3	;volatile
  4348  171C                     l196:
  4349  171C  003D               	movlb	29	; select bank29
  4350  171D  1D8E               	btfss	14,3	;volatile
  4351  171E  2F20               	goto	u2991
  4352  171F  2F21               	goto	u2990
  4353  1720                     u2991:
  4354  1720  2F1B               	goto	l197
  4355  1721                     u2990:
  4356  1721                     l4294:
  4357                           
  4358                           ;mcc_generated_files/usb/usb_device.c: 1379:             USBDeviceState = ATTACHED_STATE
      +                          ;
  4359  1721  3001               	movlw	1
  4360  1722  0021               	movlb	1	; select bank1
  4361  1723  00C3               	movwf	??_USBDeviceAttach^(0+128)
  4362  1724  0843               	movf	??_USBDeviceAttach^(0+128),w
  4363  1725  00BB               	movwf	_USBDeviceState^(0+128)	;volatile
  4364  1726                     l199:
  4365  1726  0008               	return
  4366  1727                     __end_of_USBDeviceAttach:
  4367                           
  4368                           	psect	text5
  4369  16D4                     __ptext5:	
  4370 ;; *************** function _TMR0_Initialize *****************
  4371 ;; Defined at:
  4372 ;;		line 69 in file "mcc_generated_files/tmr0.c"
  4373 ;; Parameters:    Size  Location     Type
  4374 ;;		None
  4375 ;; Auto vars:     Size  Location     Type
  4376 ;;		None
  4377 ;; Return value:  Size  Location     Type
  4378 ;;                  1    wreg      void 
  4379 ;; Registers used:
  4380 ;;		wreg, status,2, status,0, pclath, cstack
  4381 ;; Tracked objects:
  4382 ;;		On entry : 0/0
  4383 ;;		On exit  : 0/0
  4384 ;;		Unchanged: 0/0
  4385 ;; Data sizes:     COMMON   BANK0   BANK1   BANK2   BANK3   BANK4   BANK5   BANK6   BANK7   BANK8   BANK9  BANK10  BANK1
      +1  BANK12
  4386 ;;      Params:         0       0       0       0       0       0       0       0       0       0       0       0       
      +0       0
  4387 ;;      Locals:         0       0       0       0       0       0       0       0       0       0       0       0       
      +0       0
  4388 ;;      Temps:          0       0       1       0       0       0       0       0       0       0       0       0       
      +0       0
  4389 ;;      Totals:         0       0       1       0       0       0       0       0       0       0       0       0       
      +0       0
  4390 ;;Total ram usage:        1 bytes
  4391 ;; Hardware stack levels used:    1
  4392 ;; Hardware stack levels required when called:   11
  4393 ;; This function calls:
  4394 ;;		_TMR0_SetInterruptHandler
  4395 ;; This function is called by:
  4396 ;;		_SYSTEM_Initialize
  4397 ;; This function uses a non-reentrant model
  4398 ;;
  4399                           
  4400                           
  4401                           ;psect for function _TMR0_Initialize
  4402  16D4                     _TMR0_Initialize:
  4403  16D4                     l4336:	
  4404                           ;incstack = 0
  4405                           ; Regs used in _TMR0_Initialize: [wreg+status,2+status,0+pclath+cstack]
  4406                           
  4407                           
  4408                           ;mcc_generated_files/tmr0.c: 74:     OPTION_REG = (uint8_t)((OPTION_REG & 0xC0) | (0xD2 
      +                          & 0x3F));
  4409  16D4  0021               	movlb	1	; select bank1
  4410  16D5  0815               	movf	21,w	;volatile
  4411  16D6  39C0               	andlw	192
  4412  16D7  3812               	iorlw	18
  4413  16D8  0095               	movwf	21	;volatile
  4414  16D9                     l4338:
  4415                           
  4416                           ;mcc_generated_files/tmr0.c: 77:     TMR0 = 0x06;
  4417  16D9  3006               	movlw	6
  4418  16DA  0020               	movlb	0	; select bank0
  4419  16DB  0095               	movwf	21	;volatile
  4420  16DC                     l4340:
  4421                           
  4422                           ;mcc_generated_files/tmr0.c: 80:     timer0ReloadVal= 6;
  4423  16DC  3006               	movlw	6
  4424  16DD  0021               	movlb	1	; select bank1
  4425  16DE  00C5               	movwf	??_TMR0_Initialize^(0+128)
  4426  16DF  0845               	movf	??_TMR0_Initialize^(0+128),w
  4427  16E0  0023               	movlb	3	; select bank3
  4428  16E1  00DA               	movwf	_timer0ReloadVal^(0+384)	;volatile
  4429  16E2                     l4342:
  4430                           
  4431                           ;mcc_generated_files/tmr0.c: 83:     INTCONbits.TMR0IF = 0;
  4432  16E2  110B               	bcf	11,2	;volatile
  4433  16E3                     l4344:
  4434                           
  4435                           ;mcc_generated_files/tmr0.c: 86:     INTCONbits.TMR0IE = 1;
  4436  16E3  168B               	bsf	11,5	;volatile
  4437  16E4                     l4346:
  4438                           
  4439                           ;mcc_generated_files/tmr0.c: 89:     TMR0_SetInterruptHandler(TMR0_DefaultInterruptHandl
      +                          er);
  4440  16E4  30FE               	movlw	low _TMR0_DefaultInterruptHandler
  4441  16E5  0021               	movlb	1	; select bank1
  4442  16E6  00C3               	movwf	TMR0_SetInterruptHandler@InterruptHandler^(0+128)
  4443  16E7  3007               	movlw	high _TMR0_DefaultInterruptHandler
  4444  16E8  00C4               	movwf	(TMR0_SetInterruptHandler@InterruptHandler^(0+128)+1)
  4445  16E9  3196  268F  3196   	fcall	_TMR0_SetInterruptHandler
  4446  16EC                     l744:
  4447  16EC  0008               	return
  4448  16ED                     __end_of_TMR0_Initialize:
  4449                           
  4450                           	psect	text6
  4451  168F                     __ptext6:	
  4452 ;; *************** function _TMR0_SetInterruptHandler *****************
  4453 ;; Defined at:
  4454 ;;		line 148 in file "mcc_generated_files/tmr0.c"
  4455 ;; Parameters:    Size  Location     Type
  4456 ;;  InterruptHan    2    5[BANK1 ] PTR FTN()void 
  4457 ;;		 -> TMR0_DefaultInterruptHandler(1), 
  4458 ;; Auto vars:     Size  Location     Type
  4459 ;;		None
  4460 ;; Return value:  Size  Location     Type
  4461 ;;                  1    wreg      void 
  4462 ;; Registers used:
  4463 ;;		wreg
  4464 ;; Tracked objects:
  4465 ;;		On entry : 0/0
  4466 ;;		On exit  : 0/0
  4467 ;;		Unchanged: 0/0
  4468 ;; Data sizes:     COMMON   BANK0   BANK1   BANK2   BANK3   BANK4   BANK5   BANK6   BANK7   BANK8   BANK9  BANK10  BANK1
      +1  BANK12
  4469 ;;      Params:         0       0       2       0       0       0       0       0       0       0       0       0       
      +0       0
  4470 ;;      Locals:         0       0       0       0       0       0       0       0       0       0       0       0       
      +0       0
  4471 ;;      Temps:          0       0       0       0       0       0       0       0       0       0       0       0       
      +0       0
  4472 ;;      Totals:         0       0       2       0       0       0       0       0       0       0       0       0       
      +0       0
  4473 ;;Total ram usage:        2 bytes
  4474 ;; Hardware stack levels used:    1
  4475 ;; Hardware stack levels required when called:   10
  4476 ;; This function calls:
  4477 ;;		Nothing
  4478 ;; This function is called by:
  4479 ;;		_TMR0_Initialize
  4480 ;; This function uses a non-reentrant model
  4481 ;;
  4482                           
  4483                           
  4484                           ;psect for function _TMR0_SetInterruptHandler
  4485  168F                     _TMR0_SetInterruptHandler:
  4486  168F                     l4126:	
  4487                           ;incstack = 0
  4488                           ; Regs used in _TMR0_SetInterruptHandler: [wreg]
  4489                           
  4490                           
  4491                           ;mcc_generated_files/tmr0.c: 149:     TMR0_InterruptHandler = InterruptHandler;
  4492  168F  0021               	movlb	1	; select bank1
  4493  1690  0844               	movf	(TMR0_SetInterruptHandler@InterruptHandler+1)^(0+128),w
  4494  1691  0023               	movlb	3	; select bank3
  4495  1692  00C7               	movwf	(_TMR0_InterruptHandler+1)^(0+384)
  4496  1693  0021               	movlb	1	; select bank1
  4497  1694  0843               	movf	TMR0_SetInterruptHandler@InterruptHandler^(0+128),w
  4498  1695  0023               	movlb	3	; select bank3
  4499  1696  00C6               	movwf	_TMR0_InterruptHandler^(0+384)
  4500  1697                     l764:
  4501  1697  0008               	return
  4502  1698                     __end_of_TMR0_SetInterruptHandler:
  4503                           
  4504                           	psect	text7
  4505  1789                     __ptext7:	
  4506 ;; *************** function _PIN_MANAGER_Initialize *****************
  4507 ;; Defined at:
  4508 ;;		line 57 in file "mcc_generated_files/pin_manager.c"
  4509 ;; Parameters:    Size  Location     Type
  4510 ;;		None
  4511 ;; Auto vars:     Size  Location     Type
  4512 ;;		None
  4513 ;; Return value:  Size  Location     Type
  4514 ;;                  1    wreg      void 
  4515 ;; Registers used:
  4516 ;;		wreg, status,2, status,0, pclath, cstack
  4517 ;; Tracked objects:
  4518 ;;		On entry : 0/0
  4519 ;;		On exit  : 0/0
  4520 ;;		Unchanged: 0/0
  4521 ;; Data sizes:     COMMON   BANK0   BANK1   BANK2   BANK3   BANK4   BANK5   BANK6   BANK7   BANK8   BANK9  BANK10  BANK1
      +1  BANK12
  4522 ;;      Params:         0       0       0       0       0       0       0       0       0       0       0       0       
      +0       0
  4523 ;;      Locals:         0       0       0       0       0       0       0       0       0       0       0       0       
      +0       0
  4524 ;;      Temps:          0       0       0       0       0       0       0       0       0       0       0       0       
      +0       0
  4525 ;;      Totals:         0       0       0       0       0       0       0       0       0       0       0       0       
      +0       0
  4526 ;;Total ram usage:        0 bytes
  4527 ;; Hardware stack levels used:    1
  4528 ;; Hardware stack levels required when called:   11
  4529 ;; This function calls:
  4530 ;;		_IOCAF5_SetInterruptHandler
  4531 ;; This function is called by:
  4532 ;;		_SYSTEM_Initialize
  4533 ;; This function uses a non-reentrant model
  4534 ;;
  4535                           
  4536                           
  4537                           ;psect for function _PIN_MANAGER_Initialize
  4538  1789                     _PIN_MANAGER_Initialize:
  4539  1789                     l4296:	
  4540                           ;incstack = 0
  4541                           ; Regs used in _PIN_MANAGER_Initialize: [wreg+status,2+status,0+pclath+cstack]
  4542                           
  4543                           
  4544                           ;mcc_generated_files/pin_manager.c: 62:     LATA = 0x00;
  4545  1789  0022               	movlb	2	; select bank2
  4546  178A  018C               	clrf	12	;volatile
  4547                           
  4548                           ;mcc_generated_files/pin_manager.c: 63:     LATB = 0x00;
  4549  178B  018D               	clrf	13	;volatile
  4550                           
  4551                           ;mcc_generated_files/pin_manager.c: 64:     LATC = 0x00;
  4552  178C  018E               	clrf	14	;volatile
  4553  178D                     l4298:
  4554                           
  4555                           ;mcc_generated_files/pin_manager.c: 69:     TRISA = 0x30;
  4556  178D  3030               	movlw	48
  4557  178E  0021               	movlb	1	; select bank1
  4558  178F  008C               	movwf	12	;volatile
  4559  1790                     l4300:
  4560                           
  4561                           ;mcc_generated_files/pin_manager.c: 70:     TRISB = 0xF0;
  4562  1790  30F0               	movlw	240
  4563  1791  008D               	movwf	13	;volatile
  4564  1792                     l4302:
  4565                           
  4566                           ;mcc_generated_files/pin_manager.c: 71:     TRISC = 0xFF;
  4567  1792  30FF               	movlw	255
  4568  1793  008E               	movwf	14	;volatile
  4569  1794                     l4304:
  4570                           
  4571                           ;mcc_generated_files/pin_manager.c: 76:     ANSELC = 0xCC;
  4572  1794  30CC               	movlw	204
  4573  1795  0023               	movlb	3	; select bank3
  4574  1796  008E               	movwf	14	;volatile
  4575                           
  4576                           ;mcc_generated_files/pin_manager.c: 77:     ANSELB = 0x00;
  4577  1797  018D               	clrf	13	;volatile
  4578                           
  4579                           ;mcc_generated_files/pin_manager.c: 78:     ANSELA = 0x00;
  4580  1798  018C               	clrf	12	;volatile
  4581                           
  4582                           ;mcc_generated_files/pin_manager.c: 83:     WPUB = 0x00;
  4583  1799  0024               	movlb	4	; select bank4
  4584  179A  018D               	clrf	13	;volatile
  4585                           
  4586                           ;mcc_generated_files/pin_manager.c: 84:     WPUA = 0x00;
  4587  179B  018C               	clrf	12	;volatile
  4588  179C                     l4306:
  4589                           
  4590                           ;mcc_generated_files/pin_manager.c: 85:     OPTION_REGbits.nWPUEN = 1;
  4591  179C  0021               	movlb	1	; select bank1
  4592  179D  1795               	bsf	21,7	;volatile
  4593                           
  4594                           ;mcc_generated_files/pin_manager.c: 91:     APFCON = 0x00;
  4595  179E  0022               	movlb	2	; select bank2
  4596  179F  019D               	clrf	29	;volatile
  4597  17A0                     l4308:
  4598                           
  4599                           ;mcc_generated_files/pin_manager.c: 97:     IOCAFbits.IOCAF5 = 0;
  4600  17A0  0027               	movlb	7	; select bank7
  4601  17A1  1293               	bcf	19,5	;volatile
  4602  17A2                     l4310:
  4603                           
  4604                           ;mcc_generated_files/pin_manager.c: 99:     IOCANbits.IOCAN5 = 1;
  4605  17A2  1692               	bsf	18,5	;volatile
  4606  17A3                     l4312:
  4607                           
  4608                           ;mcc_generated_files/pin_manager.c: 101:     IOCAPbits.IOCAP5 = 1;
  4609  17A3  1691               	bsf	17,5	;volatile
  4610  17A4                     l4314:
  4611                           
  4612                           ;mcc_generated_files/pin_manager.c: 106:     IOCAF5_SetInterruptHandler(IOCAF5_DefaultIn
      +                          terruptHandler);
  4613  17A4  3000               	movlw	0
  4614  17A5  0021               	movlb	1	; select bank1
  4615  17A6  00C3               	movwf	IOCAF5_SetInterruptHandler@InterruptHandler^(0+128)
  4616  17A7  3000               	movlw	0
  4617  17A8  00C4               	movwf	(IOCAF5_SetInterruptHandler@InterruptHandler^(0+128)+1)
  4618  17A9  3196  2686  3197   	fcall	_IOCAF5_SetInterruptHandler
  4619  17AC                     l701:
  4620  17AC  0008               	return
  4621  17AD                     __end_of_PIN_MANAGER_Initialize:
  4622                           
  4623                           	psect	text8
  4624  1686                     __ptext8:	
  4625 ;; *************** function _IOCAF5_SetInterruptHandler *****************
  4626 ;; Defined at:
  4627 ;;		line 138 in file "mcc_generated_files/pin_manager.c"
  4628 ;; Parameters:    Size  Location     Type
  4629 ;;  InterruptHan    2    5[BANK1 ] PTR FTN()void 
  4630 ;;		 -> IOCAF5_DefaultInterruptHandler(1), 
  4631 ;; Auto vars:     Size  Location     Type
  4632 ;;		None
  4633 ;; Return value:  Size  Location     Type
  4634 ;;                  1    wreg      void 
  4635 ;; Registers used:
  4636 ;;		wreg
  4637 ;; Tracked objects:
  4638 ;;		On entry : 0/0
  4639 ;;		On exit  : 0/0
  4640 ;;		Unchanged: 0/0
  4641 ;; Data sizes:     COMMON   BANK0   BANK1   BANK2   BANK3   BANK4   BANK5   BANK6   BANK7   BANK8   BANK9  BANK10  BANK1
      +1  BANK12
  4642 ;;      Params:         0       0       2       0       0       0       0       0       0       0       0       0       
      +0       0
  4643 ;;      Locals:         0       0       0       0       0       0       0       0       0       0       0       0       
      +0       0
  4644 ;;      Temps:          0       0       0       0       0       0       0       0       0       0       0       0       
      +0       0
  4645 ;;      Totals:         0       0       2       0       0       0       0       0       0       0       0       0       
      +0       0
  4646 ;;Total ram usage:        2 bytes
  4647 ;; Hardware stack levels used:    1
  4648 ;; Hardware stack levels required when called:   10
  4649 ;; This function calls:
  4650 ;;		Nothing
  4651 ;; This function is called by:
  4652 ;;		_PIN_MANAGER_Initialize
  4653 ;; This function uses a non-reentrant model
  4654 ;;
  4655                           
  4656                           
  4657                           ;psect for function _IOCAF5_SetInterruptHandler
  4658  1686                     _IOCAF5_SetInterruptHandler:
  4659  1686                     l4124:	
  4660                           ;incstack = 0
  4661                           ; Regs used in _IOCAF5_SetInterruptHandler: [wreg]
  4662                           
  4663                           
  4664                           ;mcc_generated_files/pin_manager.c: 139:     IOCAF5_InterruptHandler = InterruptHandler;
  4665  1686  0021               	movlb	1	; select bank1
  4666  1687  0844               	movf	(IOCAF5_SetInterruptHandler@InterruptHandler+1)^(0+128),w
  4667  1688  0023               	movlb	3	; select bank3
  4668  1689  00EF               	movwf	(_IOCAF5_InterruptHandler+1)^(0+384)
  4669  168A  0021               	movlb	1	; select bank1
  4670  168B  0843               	movf	IOCAF5_SetInterruptHandler@InterruptHandler^(0+128),w
  4671  168C  0023               	movlb	3	; select bank3
  4672  168D  00EE               	movwf	_IOCAF5_InterruptHandler^(0+384)
  4673  168E                     l712:
  4674  168E  0008               	return
  4675  168F                     __end_of_IOCAF5_SetInterruptHandler:
  4676                           
  4677                           	psect	text9
  4678  16B0                     __ptext9:	
  4679 ;; *************** function _OSCILLATOR_Initialize *****************
  4680 ;; Defined at:
  4681 ;;		line 62 in file "mcc_generated_files/mcc.c"
  4682 ;; Parameters:    Size  Location     Type
  4683 ;;		None
  4684 ;; Auto vars:     Size  Location     Type
  4685 ;;		None
  4686 ;; Return value:  Size  Location     Type
  4687 ;;                  1    wreg      void 
  4688 ;; Registers used:
  4689 ;;		wreg, status,2
  4690 ;; Tracked objects:
  4691 ;;		On entry : 0/0
  4692 ;;		On exit  : 0/0
  4693 ;;		Unchanged: 0/0
  4694 ;; Data sizes:     COMMON   BANK0   BANK1   BANK2   BANK3   BANK4   BANK5   BANK6   BANK7   BANK8   BANK9  BANK10  BANK1
      +1  BANK12
  4695 ;;      Params:         0       0       0       0       0       0       0       0       0       0       0       0       
      +0       0
  4696 ;;      Locals:         0       0       0       0       0       0       0       0       0       0       0       0       
      +0       0
  4697 ;;      Temps:          0       0       0       0       0       0       0       0       0       0       0       0       
      +0       0
  4698 ;;      Totals:         0       0       0       0       0       0       0       0       0       0       0       0       
      +0       0
  4699 ;;Total ram usage:        0 bytes
  4700 ;; Hardware stack levels used:    1
  4701 ;; Hardware stack levels required when called:   10
  4702 ;; This function calls:
  4703 ;;		Nothing
  4704 ;; This function is called by:
  4705 ;;		_SYSTEM_Initialize
  4706 ;; This function uses a non-reentrant model
  4707 ;;
  4708                           
  4709                           
  4710                           ;psect for function _OSCILLATOR_Initialize
  4711  16B0                     _OSCILLATOR_Initialize:
  4712  16B0                     l4316:	
  4713                           ;incstack = 0
  4714                           ; Regs used in _OSCILLATOR_Initialize: [wreg+status,2]
  4715                           
  4716                           
  4717                           ;mcc_generated_files/mcc.c: 65:     OSCCON = 0x7C;
  4718  16B0  307C               	movlw	124
  4719  16B1  0021               	movlb	1	; select bank1
  4720  16B2  0099               	movwf	25	;volatile
  4721  16B3                     l4318:
  4722                           
  4723                           ;mcc_generated_files/mcc.c: 67:     OSCTUNE = 0x00;
  4724  16B3  0198               	clrf	24	;volatile
  4725  16B4                     l4320:
  4726                           
  4727                           ;mcc_generated_files/mcc.c: 69:     ACTCON = 0x00;
  4728  16B4  0027               	movlb	7	; select bank7
  4729  16B5  019B               	clrf	27	;volatile
  4730  16B6                     l4322:
  4731                           
  4732                           ;mcc_generated_files/mcc.c: 71:     BORCON = 0x00;
  4733  16B6  0022               	movlb	2	; select bank2
  4734  16B7  0196               	clrf	22	;volatile
  4735  16B8                     l612:	
  4736                           ;mcc_generated_files/mcc.c: 74:     {;mcc_generated_files/mcc.c: 75:     }
  4737                           
  4738                           
  4739                           ;mcc_generated_files/mcc.c: 73:     while(PLLRDY == 0)
  4740  16B8  0021               	movlb	1	; select bank1
  4741  16B9  1F1A               	btfss	26,6	;volatile
  4742  16BA  2EBC               	goto	u3001
  4743  16BB  2EBD               	goto	u3000
  4744  16BC                     u3001:
  4745  16BC  2EB8               	goto	l612
  4746  16BD                     u3000:
  4747  16BD                     l615:
  4748  16BD  0008               	return
  4749  16BE                     __end_of_OSCILLATOR_Initialize:
  4750                           
  4751                           	psect	text10
  4752  167D                     __ptext10:	
  4753 ;; *************** function _ADC_Initialize *****************
  4754 ;; Defined at:
  4755 ;;		line 67 in file "mcc_generated_files/adc.c"
  4756 ;; Parameters:    Size  Location     Type
  4757 ;;		None
  4758 ;; Auto vars:     Size  Location     Type
  4759 ;;		None
  4760 ;; Return value:  Size  Location     Type
  4761 ;;                  1    wreg      void 
  4762 ;; Registers used:
  4763 ;;		wreg, status,2
  4764 ;; Tracked objects:
  4765 ;;		On entry : 0/0
  4766 ;;		On exit  : 0/0
  4767 ;;		Unchanged: 0/0
  4768 ;; Data sizes:     COMMON   BANK0   BANK1   BANK2   BANK3   BANK4   BANK5   BANK6   BANK7   BANK8   BANK9  BANK10  BANK1
      +1  BANK12
  4769 ;;      Params:         0       0       0       0       0       0       0       0       0       0       0       0       
      +0       0
  4770 ;;      Locals:         0       0       0       0       0       0       0       0       0       0       0       0       
      +0       0
  4771 ;;      Temps:          0       0       0       0       0       0       0       0       0       0       0       0       
      +0       0
  4772 ;;      Totals:         0       0       0       0       0       0       0       0       0       0       0       0       
      +0       0
  4773 ;;Total ram usage:        0 bytes
  4774 ;; Hardware stack levels used:    1
  4775 ;; Hardware stack levels required when called:   10
  4776 ;; This function calls:
  4777 ;;		Nothing
  4778 ;; This function is called by:
  4779 ;;		_SYSTEM_Initialize
  4780 ;; This function uses a non-reentrant model
  4781 ;;
  4782                           
  4783                           
  4784                           ;psect for function _ADC_Initialize
  4785  167D                     _ADC_Initialize:
  4786  167D                     l4326:	
  4787                           ;incstack = 0
  4788                           ; Regs used in _ADC_Initialize: [wreg+status,2]
  4789                           
  4790                           
  4791                           ;mcc_generated_files/adc.c: 72:     ADCON1 = 0xA0;
  4792  167D  30A0               	movlw	160
  4793  167E  0021               	movlb	1	; select bank1
  4794  167F  009E               	movwf	30	;volatile
  4795  1680                     l4328:
  4796                           
  4797                           ;mcc_generated_files/adc.c: 75:     ADCON2 = 0x00;
  4798  1680  019F               	clrf	31	;volatile
  4799  1681                     l4330:
  4800                           
  4801                           ;mcc_generated_files/adc.c: 78:     ADRESL = 0x00;
  4802  1681  019B               	clrf	27	;volatile
  4803  1682                     l4332:
  4804                           
  4805                           ;mcc_generated_files/adc.c: 81:     ADRESH = 0x00;
  4806  1682  019C               	clrf	28	;volatile
  4807  1683                     l4334:
  4808                           
  4809                           ;mcc_generated_files/adc.c: 84:     ADCON0 = 0x01;
  4810  1683  3001               	movlw	1
  4811  1684  009D               	movwf	29	;volatile
  4812  1685                     l637:
  4813  1685  0008               	return
  4814  1686                     __end_of_ADC_Initialize:
  4815                           
  4816                           	psect	text11
  4817  1698                     __ptext11:	
  4818 ;; *************** function _I2C_Initialize *****************
  4819 ;; Defined at:
  4820 ;;		line 6 in file "24aa32a.c"
  4821 ;; Parameters:    Size  Location     Type
  4822 ;;		None
  4823 ;; Auto vars:     Size  Location     Type
  4824 ;;		None
  4825 ;; Return value:  Size  Location     Type
  4826 ;;                  1    wreg      void 
  4827 ;; Registers used:
  4828 ;;		wreg, status,2
  4829 ;; Tracked objects:
  4830 ;;		On entry : 0/0
  4831 ;;		On exit  : 0/0
  4832 ;;		Unchanged: 0/0
  4833 ;; Data sizes:     COMMON   BANK0   BANK1   BANK2   BANK3   BANK4   BANK5   BANK6   BANK7   BANK8   BANK9  BANK10  BANK1
      +1  BANK12
  4834 ;;      Params:         0       0       0       0       0       0       0       0       0       0       0       0       
      +0       0
  4835 ;;      Locals:         0       0       0       0       0       0       0       0       0       0       0       0       
      +0       0
  4836 ;;      Temps:          0       0       0       0       0       0       0       0       0       0       0       0       
      +0       0
  4837 ;;      Totals:         0       0       0       0       0       0       0       0       0       0       0       0       
      +0       0
  4838 ;;Total ram usage:        0 bytes
  4839 ;; Hardware stack levels used:    1
  4840 ;; Hardware stack levels required when called:   10
  4841 ;; This function calls:
  4842 ;;		Nothing
  4843 ;; This function is called by:
  4844 ;;		_main
  4845 ;; This function uses a non-reentrant model
  4846 ;;
  4847                           
  4848                           
  4849                           ;psect for function _I2C_Initialize
  4850  1698                     _I2C_Initialize:
  4851  1698                     l4676:	
  4852                           ;incstack = 0
  4853                           ; Regs used in _I2C_Initialize: [wreg+status,2]
  4854                           
  4855  1698  0024               	movlb	4	; select bank4
  4856  1699  0194               	clrf	20	;volatile
  4857  169A                     l4678:
  4858  169A  3008               	movlw	8
  4859  169B  0095               	movwf	21	;volatile
  4860  169C                     l4680:
  4861  169C  0196               	clrf	22	;volatile
  4862  169D  3013               	movlw	19
  4863  169E  0092               	movwf	18	;volatile
  4864  169F                     l4682:
  4865  169F  0020               	movlb	0	; select bank0
  4866  16A0  1191               	bcf	17,3	;volatile
  4867  16A1                     l4684:
  4868  16A1  0024               	movlb	4	; select bank4
  4869  16A2  1695               	bsf	21,5	;volatile
  4870  16A3                     l888:
  4871  16A3  0008               	return
  4872  16A4                     __end_of_I2C_Initialize:
  4873                           
  4874                           	psect	intentry
  4875  0004                     __pintentry:	
  4876 ;; *************** function _INTERRUPT_InterruptManager *****************
  4877 ;; Defined at:
  4878 ;;		line 52 in file "mcc_generated_files/interrupt_manager.c"
  4879 ;; Parameters:    Size  Location     Type
  4880 ;;		None
  4881 ;; Auto vars:     Size  Location     Type
  4882 ;;		None
  4883 ;; Return value:  Size  Location     Type
  4884 ;;                  1    wreg      void 
  4885 ;; Registers used:
  4886 ;;		wreg, fsr0l, fsr0h, fsr1l, fsr1h, status,2, status,0, pclath, cstack
  4887 ;; Tracked objects:
  4888 ;;		On entry : 0/0
  4889 ;;		On exit  : 0/0
  4890 ;;		Unchanged: 0/0
  4891 ;; Data sizes:     COMMON   BANK0   BANK1   BANK2   BANK3   BANK4   BANK5   BANK6   BANK7   BANK8   BANK9  BANK10  BANK1
      +1  BANK12
  4892 ;;      Params:         0       0       0       0       0       0       0       0       0       0       0       0       
      +0       0
  4893 ;;      Locals:         0       0       0       0       0       0       0       0       0       0       0       0       
      +0       0
  4894 ;;      Temps:          0       0       0       0       0       0       0       0       0       0       0       0       
      +0       0
  4895 ;;      Totals:         0       0       0       0       0       0       0       0       0       0       0       0       
      +0       0
  4896 ;;Total ram usage:        0 bytes
  4897 ;; Hardware stack levels used:    1
  4898 ;; Hardware stack levels required when called:    9
  4899 ;; This function calls:
  4900 ;;		_TMR0_ISR
  4901 ;;		_USBDeviceTasks
  4902 ;; This function is called by:
  4903 ;;		Interrupt level 1
  4904 ;; This function uses a non-reentrant model
  4905 ;;
  4906                           
  4907  0004                     _INTERRUPT_InterruptManager:
  4908                           
  4909                           ;incstack = 0
  4910  0004  147E               	bsf	int$flags,0	;set compiler interrupt flag (level 1)
  4911                           
  4912                           ; Regs used in _INTERRUPT_InterruptManager: [wreg-fsr1h+status,2+status,0+pclath+cstack]
  4913  0005  3180               	pagesel	$
  4914  0006                     i1l5334:
  4915                           
  4916                           ;mcc_generated_files/interrupt_manager.c: 55:     if(INTCONbits.TMR0IE == 1 && INTCONbit
      +                          s.TMR0IF == 1)
  4917  0006  1E8B               	btfss	11,5	;volatile
  4918  0007  2809               	goto	u425_21
  4919  0008  280A               	goto	u425_20
  4920  0009                     u425_21:
  4921  0009  2812               	goto	i1l782
  4922  000A                     u425_20:
  4923  000A                     i1l5336:
  4924  000A  1D0B               	btfss	11,2	;volatile
  4925  000B  280D               	goto	u426_21
  4926  000C  280E               	goto	u426_20
  4927  000D                     u426_21:
  4928  000D  2812               	goto	i1l782
  4929  000E                     u426_20:
  4930  000E                     i1l5338:
  4931                           
  4932                           ;mcc_generated_files/interrupt_manager.c: 56:     {;mcc_generated_files/interrupt_manage
      +                          r.c: 57:         TMR0_ISR();
  4933  000E  3188  20F3  3180   	fcall	_TMR0_ISR
  4934                           
  4935                           ;mcc_generated_files/interrupt_manager.c: 58:     }
  4936  0011  2824               	goto	i1l788
  4937  0012                     i1l782:	
  4938                           ;mcc_generated_files/interrupt_manager.c: 59:     else if(INTCONbits.PEIE == 1)
  4939                           
  4940  0012  1F0B               	btfss	11,6	;volatile
  4941  0013  2815               	goto	u427_21
  4942  0014  2816               	goto	u427_20
  4943  0015                     u427_21:
  4944  0015  2824               	goto	i1l788
  4945  0016                     u427_20:
  4946  0016                     i1l5340:
  4947                           
  4948                           ;mcc_generated_files/interrupt_manager.c: 60:     {;mcc_generated_files/interrupt_manage
      +                          r.c: 61:         if(PIE2bits.USBIE == 1 && PIR2bits.USBIF == 1)
  4949  0016  0021               	movlb	1	; select bank1
  4950  0017  1D12               	btfss	18,2	;volatile
  4951  0018  281A               	goto	u428_21
  4952  0019  281B               	goto	u428_20
  4953  001A                     u428_21:
  4954  001A  2824               	goto	i1l787
  4955  001B                     u428_20:
  4956  001B                     i1l5342:
  4957  001B  0020               	movlb	0	; select bank0
  4958  001C  1D12               	btfss	18,2	;volatile
  4959  001D  281F               	goto	u429_21
  4960  001E  2820               	goto	u429_20
  4961  001F                     u429_21:
  4962  001F  2824               	goto	i1l787
  4963  0020                     u429_20:
  4964  0020                     i1l5344:
  4965                           
  4966                           ;mcc_generated_files/interrupt_manager.c: 62:         {;mcc_generated_files/interrupt_ma
      +                          nager.c: 63:             USBDeviceTasks();
  4967  0020  3184  2495  3180   	fcall	_USBDeviceTasks
  4968                           
  4969                           ;mcc_generated_files/interrupt_manager.c: 64:         }
  4970  0023  2824               	goto	i1l788
  4971  0024                     i1l787:	
  4972                           ;mcc_generated_files/interrupt_manager.c: 71:     {;mcc_generated_files/interrupt_manage
      +                          r.c: 73:     }
  4973                           
  4974  0024                     i1l788:
  4975  0024  107E               	bcf	int$flags,0	;clear compiler interrupt flag (level 1)
  4976  0025  0009               	retfie
  4977  0026                     __end_of_INTERRUPT_InterruptManager:
  4978                           
  4979                           	psect	text13
  4980  0495                     __ptext13:	
  4981 ;; *************** function _USBDeviceTasks *****************
  4982 ;; Defined at:
  4983 ;;		line 481 in file "mcc_generated_files/usb/usb_device.c"
  4984 ;; Parameters:    Size  Location     Type
  4985 ;;		None
  4986 ;; Auto vars:     Size  Location     Type
  4987 ;;  i               1    4[BANK1 ] unsigned char 
  4988 ;; Return value:  Size  Location     Type
  4989 ;;                  1    wreg      void 
  4990 ;; Registers used:
  4991 ;;		wreg, fsr0l, fsr0h, fsr1l, fsr1h, status,2, status,0, pclath, cstack
  4992 ;; Tracked objects:
  4993 ;;		On entry : 0/0
  4994 ;;		On exit  : 0/0
  4995 ;;		Unchanged: 0/0
  4996 ;; Data sizes:     COMMON   BANK0   BANK1   BANK2   BANK3   BANK4   BANK5   BANK6   BANK7   BANK8   BANK9  BANK10  BANK1
      +1  BANK12
  4997 ;;      Params:         0       0       0       0       0       0       0       0       0       0       0       0       
      +0       0
  4998 ;;      Locals:         0       0       1       0       0       0       0       0       0       0       0       0       
      +0       0
  4999 ;;      Temps:          0       0       2       0       0       0       0       0       0       0       0       0       
      +0       0
  5000 ;;      Totals:         0       0       3       0       0       0       0       0       0       0       0       0       
      +0       0
  5001 ;;Total ram usage:        3 bytes
  5002 ;; Hardware stack levels used:    1
  5003 ;; Hardware stack levels required when called:    8
  5004 ;; This function calls:
  5005 ;;		_USBCtrlEPAllowStatusStage
  5006 ;;		_USBCtrlEPService
  5007 ;;		_USBIncrement1msInternalTimers
  5008 ;;		_USBStallHandler
  5009 ;;		_USBSuspend
  5010 ;;		_USBWakeFromSuspend
  5011 ;;		_USER_USB_CALLBACK_EVENT_HANDLER
  5012 ;;		i1_USBDeviceInit
  5013 ;; This function is called by:
  5014 ;;		_INTERRUPT_InterruptManager
  5015 ;; This function uses a non-reentrant model
  5016 ;;
  5017                           
  5018                           
  5019                           ;psect for function _USBDeviceTasks
  5020  0495                     _USBDeviceTasks:
  5021  0495                     i1l5232:	
  5022                           ;incstack = 0
  5023                           ; Regs used in _USBDeviceTasks: [wreg-fsr1h+status,2+status,0+pclath+cstack]
  5024                           
  5025                           
  5026                           ;mcc_generated_files/usb/usb_device.c: 483:     uint8_t i;;mcc_generated_files/usb/usb_d
      +                          evice.c: 594:     if(USBDeviceState == ATTACHED_STATE)
  5027  0495  0021               	movlb	1	; select bank1
  5028  0496  033B               	decf	_USBDeviceState^(0+128),w	;volatile
  5029  0497  1D03               	btfss	3,2
  5030  0498  2C9A               	goto	u402_21
  5031  0499  2C9B               	goto	u402_20
  5032  049A                     u402_21:
  5033  049A  2CA8               	goto	i1l5244
  5034  049B                     u402_20:
  5035  049B                     i1l5234:
  5036                           
  5037                           ;mcc_generated_files/usb/usb_device.c: 595:     {;mcc_generated_files/usb/usb_device.c: 
      +                          605:         if(!UCONbits.SE0)
  5038  049B  003D               	movlb	29	; select bank29
  5039  049C  1A8E               	btfsc	14,5	;volatile
  5040  049D  2C9F               	goto	u403_21
  5041  049E  2CA0               	goto	u403_20
  5042  049F                     u403_21:
  5043  049F  2CA8               	goto	i1l5244
  5044  04A0                     u403_20:
  5045  04A0                     i1l5236:
  5046                           
  5047                           ;mcc_generated_files/usb/usb_device.c: 606:         {;mcc_generated_files/usb/usb_device
      +                          .c: 612:                 {UIR = 0;};
  5048  04A0  0190               	clrf	16	;volatile
  5049  04A1                     i1l5238:
  5050                           
  5051                           ;mcc_generated_files/usb/usb_device.c: 618:             UIEbits.URSTIE = 1;
  5052  04A1  1412               	bsf	18,0	;volatile
  5053  04A2                     i1l5240:
  5054                           
  5055                           ;mcc_generated_files/usb/usb_device.c: 619:             UIEbits.IDLEIE = 1;
  5056  04A2  1612               	bsf	18,4	;volatile
  5057  04A3                     i1l5242:
  5058                           
  5059                           ;mcc_generated_files/usb/usb_device.c: 620:             USBDeviceState = POWERED_STATE;
  5060  04A3  3002               	movlw	2
  5061  04A4  0021               	movlb	1	; select bank1
  5062  04A5  00C0               	movwf	??_USBDeviceTasks^(0+128)
  5063  04A6  0840               	movf	??_USBDeviceTasks^(0+128),w
  5064  04A7  00BB               	movwf	_USBDeviceState^(0+128)	;volatile
  5065  04A8                     i1l5244:
  5066                           
  5067                           ;mcc_generated_files/usb/usb_device.c: 638:     if(UIRbits.ACTVIF && UIEbits.ACTVIE)
  5068  04A8  003D               	movlb	29	; select bank29
  5069  04A9  1D10               	btfss	16,2	;volatile
  5070  04AA  2CAC               	goto	u404_21
  5071  04AB  2CAD               	goto	u404_20
  5072  04AC                     u404_21:
  5073  04AC  2CBA               	goto	i1l5252
  5074  04AD                     u404_20:
  5075  04AD                     i1l5246:
  5076  04AD  1D12               	btfss	18,2	;volatile
  5077  04AE  2CB0               	goto	u405_21
  5078  04AF  2CB1               	goto	u405_20
  5079  04B0                     u405_21:
  5080  04B0  2CBA               	goto	i1l5252
  5081  04B1                     u405_20:
  5082  04B1                     i1l5248:
  5083                           
  5084                           ;mcc_generated_files/usb/usb_device.c: 639:     {;mcc_generated_files/usb/usb_device.c: 
      +                          640:         (UIR &= 0xFB);
  5085  04B1  30FB               	movlw	251
  5086  04B2  0021               	movlb	1	; select bank1
  5087  04B3  00C0               	movwf	??_USBDeviceTasks^(0+128)
  5088  04B4  0840               	movf	??_USBDeviceTasks^(0+128),w
  5089  04B5  003D               	movlb	29	; select bank29
  5090  04B6  0590               	andwf	16,f	;volatile
  5091  04B7                     i1l5250:
  5092                           
  5093                           ;mcc_generated_files/usb/usb_device.c: 644:             USBWakeFromSuspend();
  5094  04B7  3197  2767  3184   	fcall	_USBWakeFromSuspend
  5095  04BA                     i1l5252:
  5096                           
  5097                           ;mcc_generated_files/usb/usb_device.c: 651:     if(UCONbits.SUSPND==1)
  5098  04BA  003D               	movlb	29	; select bank29
  5099  04BB  1C8E               	btfss	14,1	;volatile
  5100  04BC  2CBE               	goto	u406_21
  5101  04BD  2CBF               	goto	u406_20
  5102  04BE                     u406_21:
  5103  04BE  2CC2               	goto	i1l147
  5104  04BF                     u406_20:
  5105  04BF                     i1l5254:
  5106                           
  5107                           ;mcc_generated_files/usb/usb_device.c: 652:     {;mcc_generated_files/usb/usb_device.c: 
      +                          653:         PIR2bits.USBIF = 0;;
  5108  04BF  0020               	movlb	0	; select bank0
  5109  04C0  1112               	bcf	18,2	;volatile
  5110                           
  5111                           ;mcc_generated_files/usb/usb_device.c: 654:         return;
  5112  04C1  2DAD               	goto	i1l148
  5113  04C2                     i1l147:	
  5114                           ;mcc_generated_files/usb/usb_device.c: 655:     }
  5115                           
  5116                           
  5117                           ;mcc_generated_files/usb/usb_device.c: 667:     if(UIRbits.URSTIF && UIEbits.URSTIE)
  5118  04C2  1C10               	btfss	16,0	;volatile
  5119  04C3  2CC5               	goto	u407_21
  5120  04C4  2CC6               	goto	u407_20
  5121  04C5                     u407_21:
  5122  04C5  2CD8               	goto	i1l5266
  5123  04C6                     u407_20:
  5124  04C6                     i1l5256:
  5125  04C6  1C12               	btfss	18,0	;volatile
  5126  04C7  2CC9               	goto	u408_21
  5127  04C8  2CCA               	goto	u408_20
  5128  04C9                     u408_21:
  5129  04C9  2CD8               	goto	i1l5266
  5130  04CA                     u408_20:
  5131  04CA                     i1l5258:
  5132                           
  5133                           ;mcc_generated_files/usb/usb_device.c: 668:     {;mcc_generated_files/usb/usb_device.c: 
      +                          669:         USBDeviceInit();
  5134  04CA  3187  272A  3184   	fcall	i1_USBDeviceInit
  5135  04CD                     i1l5260:
  5136                           
  5137                           ;mcc_generated_files/usb/usb_device.c: 673:         {PIE2bits.USBIE = 1;};
  5138  04CD  0021               	movlb	1	; select bank1
  5139  04CE  1512               	bsf	18,2	;volatile
  5140  04CF                     i1l5262:
  5141                           
  5142                           ;mcc_generated_files/usb/usb_device.c: 675:         USBDeviceState = DEFAULT_STATE;
  5143  04CF  3004               	movlw	4
  5144  04D0  00C0               	movwf	??_USBDeviceTasks^(0+128)
  5145  04D1  0840               	movf	??_USBDeviceTasks^(0+128),w
  5146  04D2  00BB               	movwf	_USBDeviceState^(0+128)	;volatile
  5147  04D3                     i1l5264:
  5148                           
  5149                           ;mcc_generated_files/usb/usb_device.c: 685:         (UIR &= 0xFE);
  5150  04D3  30FE               	movlw	254
  5151  04D4  00C0               	movwf	??_USBDeviceTasks^(0+128)
  5152  04D5  0840               	movf	??_USBDeviceTasks^(0+128),w
  5153  04D6  003D               	movlb	29	; select bank29
  5154  04D7  0590               	andwf	16,f	;volatile
  5155  04D8                     i1l5266:
  5156                           
  5157                           ;mcc_generated_files/usb/usb_device.c: 691:     if(UIRbits.IDLEIF && UIEbits.IDLEIE)
  5158  04D8  1E10               	btfss	16,4	;volatile
  5159  04D9  2CDB               	goto	u409_21
  5160  04DA  2CDC               	goto	u409_20
  5161  04DB                     u409_21:
  5162  04DB  2CE3               	goto	i1l5272
  5163  04DC                     u409_20:
  5164  04DC                     i1l5268:
  5165  04DC  1E12               	btfss	18,4	;volatile
  5166  04DD  2CDF               	goto	u410_21
  5167  04DE  2CE0               	goto	u410_20
  5168  04DF                     u410_21:
  5169  04DF  2CE3               	goto	i1l5272
  5170  04E0                     u410_20:
  5171  04E0                     i1l5270:
  5172                           
  5173                           ;mcc_generated_files/usb/usb_device.c: 692:     {;mcc_generated_files/usb/usb_device.c: 
      +                          698:             USBSuspend();
  5174  04E0  3197  2727  3184   	fcall	_USBSuspend
  5175  04E3                     i1l5272:
  5176                           
  5177                           ;mcc_generated_files/usb/usb_device.c: 712:     if(UIRbits.SOFIF)
  5178  04E3  003D               	movlb	29	; select bank29
  5179  04E4  1F10               	btfss	16,6	;volatile
  5180  04E5  2CE7               	goto	u411_21
  5181  04E6  2CE8               	goto	u411_20
  5182  04E7                     u411_21:
  5183  04E7  2D15               	goto	i1l5288
  5184  04E8                     u411_20:
  5185  04E8                     i1l5274:
  5186                           
  5187                           ;mcc_generated_files/usb/usb_device.c: 713:     {;mcc_generated_files/usb/usb_device.c: 
      +                          715:         if(UIEbits.SOFIE)
  5188  04E8  1F12               	btfss	18,6	;volatile
  5189  04E9  2CEB               	goto	u412_21
  5190  04EA  2CEC               	goto	u412_20
  5191  04EB                     u412_21:
  5192  04EB  2CFC               	goto	i1l5278
  5193  04EC                     u412_20:
  5194  04EC                     i1l5276:
  5195                           
  5196                           ;mcc_generated_files/usb/usb_device.c: 716:         {;mcc_generated_files/usb/usb_device
      +                          .c: 717:             USER_USB_CALLBACK_EVENT_HANDLER((USB_EVENT)EVENT_SOF,0,1);
  5197  04EC  3073               	movlw	115
  5198  04ED  0020               	movlb	0	; select bank0
  5199  04EE  00E0               	movwf	USER_USB_CALLBACK_EVENT_HANDLER@event
  5200  04EF  3000               	movlw	0
  5201  04F0  00E1               	movwf	USER_USB_CALLBACK_EVENT_HANDLER@event+1
  5202  04F1  3000               	movlw	0
  5203  04F2  00E2               	movwf	USER_USB_CALLBACK_EVENT_HANDLER@pdata
  5204  04F3  3000               	movlw	0
  5205  04F4  00E3               	movwf	USER_USB_CALLBACK_EVENT_HANDLER@pdata+1
  5206  04F5  3001               	movlw	1
  5207  04F6  00E4               	movwf	USER_USB_CALLBACK_EVENT_HANDLER@size
  5208  04F7  3000               	movlw	0
  5209  04F8  00E5               	movwf	USER_USB_CALLBACK_EVENT_HANDLER@size+1
  5210  04F9  3188  200C  3184   	fcall	_USER_USB_CALLBACK_EVENT_HANDLER
  5211  04FC                     i1l5278:
  5212                           
  5213                           ;mcc_generated_files/usb/usb_device.c: 719:         (UIR &= 0xBF);
  5214  04FC  30BF               	movlw	191
  5215  04FD  0021               	movlb	1	; select bank1
  5216  04FE  00C0               	movwf	??_USBDeviceTasks^(0+128)
  5217  04FF  0840               	movf	??_USBDeviceTasks^(0+128),w
  5218  0500  003D               	movlb	29	; select bank29
  5219  0501  0590               	andwf	16,f	;volatile
  5220  0502                     i1l5280:
  5221                           
  5222                           ;mcc_generated_files/usb/usb_device.c: 722:             USBIncrement1msInternalTimers();
  5223  0502  3196  26ED  3184   	fcall	_USBIncrement1msInternalTimers
  5224  0505                     i1l5282:
  5225                           
  5226                           ;mcc_generated_files/usb/usb_device.c: 739:             if(USBStatusStageTimeoutCounter 
      +                          != 0u)
  5227  0505  0021               	movlb	1	; select bank1
  5228  0506  0836               	movf	_USBStatusStageTimeoutCounter^(0+128),w	;volatile
  5229  0507  1903               	btfsc	3,2
  5230  0508  2D0A               	goto	u413_21
  5231  0509  2D0B               	goto	u413_20
  5232  050A                     u413_21:
  5233  050A  2D0D               	goto	i1l153
  5234  050B                     u413_20:
  5235  050B                     i1l5284:
  5236                           
  5237                           ;mcc_generated_files/usb/usb_device.c: 740:             {;mcc_generated_files/usb/usb_de
      +                          vice.c: 741:                 USBStatusStageTimeoutCounter--;
  5238  050B  3001               	movlw	1
  5239  050C  02B6               	subwf	_USBStatusStageTimeoutCounter^(0+128),f	;volatile
  5240  050D                     i1l153:	
  5241                           ;mcc_generated_files/usb/usb_device.c: 742:             }
  5242                           
  5243                           
  5244                           ;mcc_generated_files/usb/usb_device.c: 748:             if(USBStatusStageTimeoutCounter 
      +                          == 0)
  5245  050D  0836               	movf	_USBStatusStageTimeoutCounter^(0+128),w	;volatile
  5246  050E  1D03               	btfss	3,2
  5247  050F  2D11               	goto	u414_21
  5248  0510  2D12               	goto	u414_20
  5249  0511                     u414_21:
  5250  0511  2D15               	goto	i1l5288
  5251  0512                     u414_20:
  5252  0512                     i1l5286:
  5253                           
  5254                           ;mcc_generated_files/usb/usb_device.c: 749:             {;mcc_generated_files/usb/usb_de
      +                          vice.c: 750:                 USBCtrlEPAllowStatusStage();
  5255  0512  318B  2397  3184   	fcall	_USBCtrlEPAllowStatusStage
  5256  0515                     i1l5288:
  5257                           
  5258                           ;mcc_generated_files/usb/usb_device.c: 755:     if(UIRbits.STALLIF && UIEbits.STALLIE)
  5259  0515  003D               	movlb	29	; select bank29
  5260  0516  1E90               	btfss	16,5	;volatile
  5261  0517  2D19               	goto	u415_21
  5262  0518  2D1A               	goto	u415_20
  5263  0519                     u415_21:
  5264  0519  2D21               	goto	i1l5294
  5265  051A                     u415_20:
  5266  051A                     i1l5290:
  5267  051A  1E92               	btfss	18,5	;volatile
  5268  051B  2D1D               	goto	u416_21
  5269  051C  2D1E               	goto	u416_20
  5270  051D                     u416_21:
  5271  051D  2D21               	goto	i1l5294
  5272  051E                     u416_20:
  5273  051E                     i1l5292:
  5274                           
  5275                           ;mcc_generated_files/usb/usb_device.c: 756:     {;mcc_generated_files/usb/usb_device.c: 
      +                          757:         USBStallHandler();
  5276  051E  3187  27D3  3184   	fcall	_USBStallHandler
  5277  0521                     i1l5294:
  5278                           
  5279                           ;mcc_generated_files/usb/usb_device.c: 760:     if(UIRbits.UERRIF && UIEbits.UERRIE)
  5280  0521  003D               	movlb	29	; select bank29
  5281  0522  1C90               	btfss	16,1	;volatile
  5282  0523  2D25               	goto	u417_21
  5283  0524  2D26               	goto	u417_20
  5284  0525                     u417_21:
  5285  0525  2D3C               	goto	i1l5302
  5286  0526                     u417_20:
  5287  0526                     i1l5296:
  5288  0526  1C92               	btfss	18,1	;volatile
  5289  0527  2D29               	goto	u418_21
  5290  0528  2D2A               	goto	u418_20
  5291  0529                     u418_21:
  5292  0529  2D3C               	goto	i1l5302
  5293  052A                     u418_20:
  5294  052A                     i1l5298:
  5295                           
  5296                           ;mcc_generated_files/usb/usb_device.c: 761:     {;mcc_generated_files/usb/usb_device.c: 
      +                          762:         USER_USB_CALLBACK_EVENT_HANDLER((USB_EVENT)EVENT_BUS_ERROR,0,1);
  5297  052A  30FF               	movlw	255
  5298  052B  0020               	movlb	0	; select bank0
  5299  052C  00E0               	movwf	USER_USB_CALLBACK_EVENT_HANDLER@event
  5300  052D  307F               	movlw	127
  5301  052E  00E1               	movwf	USER_USB_CALLBACK_EVENT_HANDLER@event+1
  5302  052F  3000               	movlw	0
  5303  0530  00E2               	movwf	USER_USB_CALLBACK_EVENT_HANDLER@pdata
  5304  0531  3000               	movlw	0
  5305  0532  00E3               	movwf	USER_USB_CALLBACK_EVENT_HANDLER@pdata+1
  5306  0533  3001               	movlw	1
  5307  0534  00E4               	movwf	USER_USB_CALLBACK_EVENT_HANDLER@size
  5308  0535  3000               	movlw	0
  5309  0536  00E5               	movwf	USER_USB_CALLBACK_EVENT_HANDLER@size+1
  5310  0537  3188  200C  3184   	fcall	_USER_USB_CALLBACK_EVENT_HANDLER
  5311  053A                     i1l5300:
  5312                           
  5313                           ;mcc_generated_files/usb/usb_device.c: 763:         {UEIR = 0;};
  5314  053A  003D               	movlb	29	; select bank29
  5315  053B  0193               	clrf	19	;volatile
  5316  053C                     i1l5302:
  5317                           
  5318                           ;mcc_generated_files/usb/usb_device.c: 778:     if(USBDeviceState < DEFAULT_STATE)
  5319  053C  3004               	movlw	4
  5320  053D  0021               	movlb	1	; select bank1
  5321  053E  023B               	subwf	_USBDeviceState^(0+128),w	;volatile
  5322  053F  1803               	skipnc
  5323  0540  2D42               	goto	u419_21
  5324  0541  2D43               	goto	u419_20
  5325  0542                     u419_21:
  5326  0542  2D46               	goto	i1l157
  5327  0543                     u419_20:
  5328  0543                     i1l5304:
  5329                           
  5330                           ;mcc_generated_files/usb/usb_device.c: 779:     {;mcc_generated_files/usb/usb_device.c: 
      +                          780:         PIR2bits.USBIF = 0;;
  5331  0543  0020               	movlb	0	; select bank0
  5332  0544  1112               	bcf	18,2	;volatile
  5333                           
  5334                           ;mcc_generated_files/usb/usb_device.c: 781:         return;
  5335  0545  2DAD               	goto	i1l148
  5336  0546                     i1l157:	
  5337                           ;mcc_generated_files/usb/usb_device.c: 782:     }
  5338                           
  5339                           
  5340                           ;mcc_generated_files/usb/usb_device.c: 787:     if(UIEbits.TRNIE)
  5341  0546  003D               	movlb	29	; select bank29
  5342  0547  1D92               	btfss	18,3	;volatile
  5343  0548  2D4A               	goto	u420_21
  5344  0549  2D4B               	goto	u420_20
  5345  054A                     u420_21:
  5346  054A  2DAB               	goto	i1l158
  5347  054B                     u420_20:
  5348  054B                     i1l5306:
  5349                           
  5350                           ;mcc_generated_files/usb/usb_device.c: 788:     {;mcc_generated_files/usb/usb_device.c: 
      +                          789:         for(i = 0; i < 4u; i++)
  5351  054B  0021               	movlb	1	; select bank1
  5352  054C  01C2               	clrf	USBDeviceTasks@i^(0+128)
  5353  054D                     i1l159:
  5354                           
  5355                           ;mcc_generated_files/usb/usb_device.c: 790:         {;mcc_generated_files/usb/usb_device
      +                          .c: 791:             if(UIRbits.TRNIF)
  5356  054D  003D               	movlb	29	; select bank29
  5357  054E  1D90               	btfss	16,3	;volatile
  5358  054F  2D51               	goto	u421_21
  5359  0550  2D52               	goto	u421_20
  5360  0551                     u421_21:
  5361  0551  2DAB               	goto	i1l158
  5362  0552                     u421_20:
  5363  0552                     i1l5312:
  5364                           
  5365                           ;mcc_generated_files/usb/usb_device.c: 792:             {;mcc_generated_files/usb/usb_de
      +                          vice.c: 794:                 USTATcopy.Val = USTAT;
  5366  0552  080F               	movf	15,w	;volatile
  5367  0553  0021               	movlb	1	; select bank1
  5368  0554  00C0               	movwf	??_USBDeviceTasks^(0+128)
  5369  0555  0840               	movf	??_USBDeviceTasks^(0+128),w
  5370  0556  00BC               	movwf	_USTATcopy^(0+128)	;volatile
  5371  0557                     i1l5314:
  5372                           
  5373                           ;mcc_generated_files/usb/usb_device.c: 795:                 endpoint_number = USTATcopy.
      +                          endpoint_number;
  5374  0557  0C3C               	rrf	_USTATcopy^(0+128),w	;volatile
  5375  0558  00C0               	movwf	??_USBDeviceTasks^(0+128)
  5376  0559  0CC0               	rrf	??_USBDeviceTasks^(0+128),f
  5377  055A  0C40               	rrf	??_USBDeviceTasks^(0+128),w
  5378  055B  390F               	andlw	15
  5379  055C  00C1               	movwf	(??_USBDeviceTasks+1)^(0+128)
  5380  055D  0841               	movf	(??_USBDeviceTasks+1)^(0+128),w
  5381  055E  00B7               	movwf	_endpoint_number^(0+128)	;volatile
  5382  055F                     i1l5316:
  5383                           
  5384                           ;mcc_generated_files/usb/usb_device.c: 797:                 (UIR &= 0xF7);
  5385  055F  30F7               	movlw	247
  5386  0560  00C0               	movwf	??_USBDeviceTasks^(0+128)
  5387  0561  0840               	movf	??_USBDeviceTasks^(0+128),w
  5388  0562  003D               	movlb	29	; select bank29
  5389  0563  0590               	andwf	16,f	;volatile
  5390  0564                     i1l5318:
  5391                           
  5392                           ;mcc_generated_files/usb/usb_device.c: 802:                 if(USTATcopy.direction == 0)
  5393  0564  0021               	movlb	1	; select bank1
  5394  0565  193C               	btfsc	_USTATcopy^(0+128),2	;volatile
  5395  0566  2D68               	goto	u422_21
  5396  0567  2D69               	goto	u422_20
  5397  0568                     u422_21:
  5398  0568  2D79               	goto	i1l5322
  5399  0569                     u422_20:
  5400  0569                     i1l5320:
  5401                           
  5402                           ;mcc_generated_files/usb/usb_device.c: 803:                 {;mcc_generated_files/usb/us
      +                          b_device.c: 804:                     ep_data_out[endpoint_number].bits.ping_pong_state ^
      +                          = 1;
  5403  0569  0837               	movf	_endpoint_number^(0+128),w	;volatile
  5404  056A  3EBE               	addlw	(low (_ep_data_out| (0+256)))& (0+255)
  5405  056B  0086               	movwf	6
  5406  056C  3001               	movlw	1	; select bank3/4
  5407  056D  0087               	movwf	7
  5408  056E  0801               	movf	1,w
  5409  056F  3901               	andlw	1
  5410  0570  00C0               	movwf	??_USBDeviceTasks^(0+128)
  5411  0571  3001               	movlw	1
  5412  0572  06C0               	xorwf	??_USBDeviceTasks^(0+128),f
  5413  0573  0801               	movf	1,w
  5414  0574  0640               	xorwf	??_USBDeviceTasks^(0+128),w
  5415  0575  39FE               	andlw	-2
  5416  0576  0640               	xorwf	??_USBDeviceTasks^(0+128),w
  5417  0577  0081               	movwf	1
  5418                           
  5419                           ;mcc_generated_files/usb/usb_device.c: 805:                 }
  5420  0578  2D88               	goto	i1l5324
  5421  0579                     i1l5322:
  5422                           
  5423                           ;mcc_generated_files/usb/usb_device.c: 807:                 {;mcc_generated_files/usb/us
      +                          b_device.c: 808:                     ep_data_in[endpoint_number].bits.ping_pong_state ^=
      +                           1;
  5424  0579  0837               	movf	_endpoint_number^(0+128),w	;volatile
  5425  057A  3EC1               	addlw	(low (_ep_data_in| (0+256)))& (0+255)
  5426  057B  0086               	movwf	6
  5427  057C  3001               	movlw	1	; select bank3/4
  5428  057D  0087               	movwf	7
  5429  057E  0801               	movf	1,w
  5430  057F  3901               	andlw	1
  5431  0580  00C0               	movwf	??_USBDeviceTasks^(0+128)
  5432  0581  3001               	movlw	1
  5433  0582  06C0               	xorwf	??_USBDeviceTasks^(0+128),f
  5434  0583  0801               	movf	1,w
  5435  0584  0640               	xorwf	??_USBDeviceTasks^(0+128),w
  5436  0585  39FE               	andlw	-2
  5437  0586  0640               	xorwf	??_USBDeviceTasks^(0+128),w
  5438  0587  0081               	movwf	1
  5439  0588                     i1l5324:
  5440                           
  5441                           ;mcc_generated_files/usb/usb_device.c: 814:                 if(endpoint_number == 0)
  5442  0588  0837               	movf	_endpoint_number^(0+128),w	;volatile
  5443  0589  1D03               	btfss	3,2
  5444  058A  2D8C               	goto	u423_21
  5445  058B  2D8D               	goto	u423_20
  5446  058C                     u423_21:
  5447  058C  2D91               	goto	i1l5328
  5448  058D                     u423_20:
  5449  058D                     i1l5326:
  5450                           
  5451                           ;mcc_generated_files/usb/usb_device.c: 815:                 {;mcc_generated_files/usb/us
      +                          b_device.c: 816:                     USBCtrlEPService();
  5452  058D  3189  2140  3184   	fcall	_USBCtrlEPService
  5453                           
  5454                           ;mcc_generated_files/usb/usb_device.c: 817:                 }
  5455  0590  2DA0               	goto	i1l5330
  5456  0591                     i1l5328:
  5457                           
  5458                           ;mcc_generated_files/usb/usb_device.c: 819:                 {;mcc_generated_files/usb/us
      +                          b_device.c: 820:                     USER_USB_CALLBACK_EVENT_HANDLER((USB_EVENT)EVENT_TR
      +                          ANSFER,(uint8_t*)&USTATcopy.Val,0);
  5459  0591  3072               	movlw	114
  5460  0592  0020               	movlb	0	; select bank0
  5461  0593  00E0               	movwf	USER_USB_CALLBACK_EVENT_HANDLER@event
  5462  0594  3000               	movlw	0
  5463  0595  00E1               	movwf	USER_USB_CALLBACK_EVENT_HANDLER@event+1
  5464  0596  30BC               	movlw	low _USTATcopy
  5465  0597  00E2               	movwf	USER_USB_CALLBACK_EVENT_HANDLER@pdata
  5466  0598  3000               	movlw	high _USTATcopy
  5467  0599  00E3               	movwf	USER_USB_CALLBACK_EVENT_HANDLER@pdata+1
  5468  059A  3000               	movlw	0
  5469  059B  00E4               	movwf	USER_USB_CALLBACK_EVENT_HANDLER@size
  5470  059C  00E5               	movwf	USER_USB_CALLBACK_EVENT_HANDLER@size+1
  5471  059D  3188  200C  3184   	fcall	_USER_USB_CALLBACK_EVENT_HANDLER
  5472  05A0                     i1l5330:
  5473                           
  5474                           ;mcc_generated_files/usb/usb_device.c: 827:         }
  5475  05A0  3001               	movlw	1
  5476  05A1  0021               	movlb	1	; select bank1
  5477  05A2  00C0               	movwf	??_USBDeviceTasks^(0+128)
  5478  05A3  0840               	movf	??_USBDeviceTasks^(0+128),w
  5479  05A4  07C2               	addwf	USBDeviceTasks@i^(0+128),f
  5480  05A5                     i1l5332:
  5481  05A5  3004               	movlw	4
  5482  05A6  0242               	subwf	USBDeviceTasks@i^(0+128),w
  5483  05A7  1C03               	skipc
  5484  05A8  2DAA               	goto	u424_21
  5485  05A9  2DAB               	goto	u424_20
  5486  05AA                     u424_21:
  5487  05AA  2D4D               	goto	i1l159
  5488  05AB                     u424_20:
  5489  05AB                     i1l158:	
  5490                           ;mcc_generated_files/usb/usb_device.c: 828:     }
  5491                           
  5492                           
  5493                           ;mcc_generated_files/usb/usb_device.c: 830:     PIR2bits.USBIF = 0;;
  5494  05AB  0020               	movlb	0	; select bank0
  5495  05AC  1112               	bcf	18,2	;volatile
  5496  05AD                     i1l148:
  5497  05AD  0008               	return
  5498  05AE                     __end_of_USBDeviceTasks:
  5499                           
  5500                           	psect	text14
  5501  072A                     __ptext14:	
  5502 ;; *************** function i1_USBDeviceInit *****************
  5503 ;; Defined at:
  5504 ;;		line 281 in file "mcc_generated_files/usb/usb_device.c"
  5505 ;; Parameters:    Size  Location     Type
  5506 ;;		None
  5507 ;; Auto vars:     Size  Location     Type
  5508 ;;  p               2    1[COMMON] PTR unsigned char 
  5509 ;;		 -> UEP1(1), 
  5510 ;;  i               1    4[COMMON] unsigned char 
  5511 ;;  i               1    3[COMMON] unsigned char 
  5512 ;; Return value:  Size  Location     Type
  5513 ;;                  1    wreg      void 
  5514 ;; Registers used:
  5515 ;;		wreg, fsr1l, fsr1h, status,2, status,0
  5516 ;; Tracked objects:
  5517 ;;		On entry : 0/0
  5518 ;;		On exit  : 0/0
  5519 ;;		Unchanged: 0/0
  5520 ;; Data sizes:     COMMON   BANK0   BANK1   BANK2   BANK3   BANK4   BANK5   BANK6   BANK7   BANK8   BANK9  BANK10  BANK1
      +1  BANK12
  5521 ;;      Params:         0       0       0       0       0       0       0       0       0       0       0       0       
      +0       0
  5522 ;;      Locals:         4       0       0       0       0       0       0       0       0       0       0       0       
      +0       0
  5523 ;;      Temps:          1       0       0       0       0       0       0       0       0       0       0       0       
      +0       0
  5524 ;;      Totals:         5       0       0       0       0       0       0       0       0       0       0       0       
      +0       0
  5525 ;;Total ram usage:        5 bytes
  5526 ;; Hardware stack levels used:    1
  5527 ;; This function calls:
  5528 ;;		Nothing
  5529 ;; This function is called by:
  5530 ;;		_USBDeviceTasks
  5531 ;; This function uses a non-reentrant model
  5532 ;;
  5533                           
  5534                           
  5535                           ;psect for function i1_USBDeviceInit
  5536  072A                     i1_USBDeviceInit:
  5537  072A                     i1l4348:	
  5538                           ;incstack = 0
  5539                           ; Regs used in i1_USBDeviceInit: [wreg+fsr1l+fsr1h+status,2+status,0]
  5540                           
  5541                           
  5542                           ;mcc_generated_files/usb/usb_device.c: 283:     uint8_t i;;mcc_generated_files/usb/usb_d
      +                          evice.c: 285:     {PIE2bits.USBIE = 0;};
  5543  072A  0021               	movlb	1	; select bank1
  5544  072B  1112               	bcf	18,2	;volatile
  5545  072C                     i1l4350:
  5546                           
  5547                           ;mcc_generated_files/usb/usb_device.c: 292:     {UEIR = 0;};
  5548  072C  003D               	movlb	29	; select bank29
  5549  072D  0193               	clrf	19	;volatile
  5550                           
  5551                           ;mcc_generated_files/usb/usb_device.c: 295:     {UIR = 0;};
  5552  072E  0190               	clrf	16	;volatile
  5553                           
  5554                           ;mcc_generated_files/usb/usb_device.c: 298:     UEP0 = 0;
  5555  072F  0198               	clrf	24	;volatile
  5556  0730                     i1l4352:
  5557                           
  5558                           ;mcc_generated_files/usb/usb_device.c: 300:     { uint8_t i; uint8_t* p = (uint8_t*)&UEP
      +                          1; for(i=0;i<2;i++) *p++ = 0; };
  5559  0730  300E               	movlw	14
  5560  0731  00F2               	movwf	i1USBDeviceInit@p+1
  5561  0732  3099               	movlw	153
  5562  0733  00F1               	movwf	i1USBDeviceInit@p
  5563  0734  01F3               	clrf	i1USBDeviceInit@i_665
  5564  0735                     i1l4358:
  5565  0735  0871               	movf	i1USBDeviceInit@p,w
  5566  0736  0086               	movwf	6
  5567  0737  0872               	movf	i1USBDeviceInit@p+1,w
  5568  0738  0087               	movwf	7
  5569  0739  0181               	clrf	1
  5570  073A                     i1l4360:
  5571  073A  3001               	movlw	1
  5572  073B  07F1               	addwf	i1USBDeviceInit@p,f
  5573  073C  3000               	movlw	0
  5574  073D  3DF2               	addwfc	i1USBDeviceInit@p+1,f
  5575  073E                     i1l4362:
  5576  073E  3001               	movlw	1
  5577  073F  00F0               	movwf	??i1_USBDeviceInit
  5578  0740  0870               	movf	??i1_USBDeviceInit,w
  5579  0741  07F3               	addwf	i1USBDeviceInit@i_665,f
  5580  0742                     i1l4364:
  5581  0742  3002               	movlw	2
  5582  0743  0273               	subwf	i1USBDeviceInit@i_665,w
  5583  0744  1C03               	skipc
  5584  0745  2F47               	goto	u301_21
  5585  0746  2F48               	goto	u301_20
  5586  0747                     u301_21:
  5587  0747  2F35               	goto	i1l4358
  5588  0748                     u301_20:
  5589  0748                     i1l4366:
  5590                           
  5591                           ;mcc_generated_files/usb/usb_device.c: 302:     { UCFG = 0x10 | 0x00 | 0x04 | 0x02; UEIE
      +                           = 0x9F; UIE = 0x39 | 0x40 | 0x02; };
  5592  0748  3016               	movlw	22
  5593  0749  003D               	movlb	29	; select bank29
  5594  074A  0091               	movwf	17	;volatile
  5595  074B  309F               	movlw	159
  5596  074C  0097               	movwf	23	;volatile
  5597  074D  307B               	movlw	123
  5598  074E  0092               	movwf	18	;volatile
  5599  074F                     i1l4368:
  5600                           
  5601                           ;mcc_generated_files/usb/usb_device.c: 311:     for(i = 0; i < (sizeof(BDT)/sizeof(BDT_E
      +                          NTRY)); i++)
  5602  074F  01F4               	clrf	i1USBDeviceInit@i
  5603  0750                     i1l4374:
  5604                           
  5605                           ;mcc_generated_files/usb/usb_device.c: 312:     {;mcc_generated_files/usb/usb_device.c: 
      +                          313:         BDT[i].Val = 0x00;
  5606  0750  0874               	movf	i1USBDeviceInit@i,w
  5607  0751  00F0               	movwf	??i1_USBDeviceInit
  5608  0752  3001               	movlw	1
  5609  0753                     u302_25:
  5610  0753  35F0               	lslf	??i1_USBDeviceInit,f
  5611  0754  3EFF               	addlw	-1
  5612  0755  1D03               	skipz
  5613  0756  2F53               	goto	u302_25
  5614  0757  3570               	lslf	??i1_USBDeviceInit,w
  5615  0758  3E20               	addlw	32
  5616  0759  0086               	movwf	6
  5617  075A  0187               	clrf	7
  5618  075B  3000               	movlw	0
  5619  075C  3FC0               	movwi [0]fsr1
  5620  075D  3000               	movlw	0
  5621  075E  3FC1               	movwi [1]fsr1
  5622  075F  3FC2               	movwi [2]fsr1
  5623  0760  3FC3               	movwi [3]fsr1
  5624  0761                     i1l4376:
  5625                           
  5626                           ;mcc_generated_files/usb/usb_device.c: 314:     }
  5627  0761  3001               	movlw	1
  5628  0762  00F0               	movwf	??i1_USBDeviceInit
  5629  0763  0870               	movf	??i1_USBDeviceInit,w
  5630  0764  07F4               	addwf	i1USBDeviceInit@i,f
  5631  0765                     i1l4378:
  5632  0765  300C               	movlw	12
  5633  0766  0274               	subwf	i1USBDeviceInit@i,w
  5634  0767  1C03               	skipc
  5635  0768  2F6A               	goto	u303_21
  5636  0769  2F6B               	goto	u303_20
  5637  076A                     u303_21:
  5638  076A  2F50               	goto	i1l4374
  5639  076B                     u303_20:
  5640  076B                     i1l136:
  5641                           
  5642                           ;mcc_generated_files/usb/usb_device.c: 317:     UCONbits.PPBRST = 1;
  5643  076B  003D               	movlb	29	; select bank29
  5644  076C  170E               	bsf	14,6	;volatile
  5645  076D                     i1l4380:
  5646                           
  5647                           ;mcc_generated_files/usb/usb_device.c: 320:     UADDR = 0x00;
  5648  076D  0196               	clrf	22	;volatile
  5649  076E                     i1l4382:
  5650                           
  5651                           ;mcc_generated_files/usb/usb_device.c: 323:     UCONbits.PKTDIS = 0;
  5652  076E  120E               	bcf	14,4	;volatile
  5653  076F                     i1l4384:
  5654                           
  5655                           ;mcc_generated_files/usb/usb_device.c: 326:     UCONbits.PPBRST = 0;
  5656  076F  130E               	bcf	14,6	;volatile
  5657  0770                     i1l4386:
  5658                           
  5659                           ;mcc_generated_files/usb/usb_device.c: 330:     {;mcc_generated_files/usb/usb_device.c: 
      +                          331:         (UIR &= 0xF7);
  5660  0770  30F7               	movlw	247
  5661  0771  00F0               	movwf	??i1_USBDeviceInit
  5662  0772  0870               	movf	??i1_USBDeviceInit,w
  5663  0773  0590               	andwf	16,f	;volatile
  5664  0774                     i1l4388:
  5665                           
  5666                           ;mcc_generated_files/usb/usb_device.c: 333:         inPipes[0].info.Val = 0;
  5667  0774  0021               	movlb	1	; select bank1
  5668  0775  01AF               	clrf	(_inPipes^(0+128)+2)	;volatile
  5669  0776                     i1l4390:
  5670                           
  5671                           ;mcc_generated_files/usb/usb_device.c: 334:         outPipes[0].info.Val = 0;
  5672  0776  01A2               	clrf	(_outPipes^(0+128)+2)	;volatile
  5673  0777                     i1l4392:
  5674                           
  5675                           ;mcc_generated_files/usb/usb_device.c: 335:         outPipes[0].wCount.Val = 0;
  5676  0777  01A3               	clrf	(_outPipes^(0+128)+3)	;volatile
  5677  0778  01A4               	clrf	((_outPipes+1)^(0+128)+3)	;volatile
  5678  0779                     i1l4394:
  5679                           
  5680                           ;mcc_generated_files/usb/usb_device.c: 336:     }while(UIRbits.TRNIF == 1);
  5681  0779  003D               	movlb	29	; select bank29
  5682  077A  1990               	btfsc	16,3	;volatile
  5683  077B  2F7D               	goto	u304_21
  5684  077C  2F7E               	goto	u304_20
  5685  077D                     u304_21:
  5686  077D  2F70               	goto	i1l4386
  5687  077E                     u304_20:
  5688  077E                     i1l4396:
  5689                           
  5690                           ;mcc_generated_files/usb/usb_device.c: 340:     USBStatusStageEnabledFlag1 = 1;
  5691  077E  3001               	movlw	1
  5692  077F  00F0               	movwf	??i1_USBDeviceInit
  5693  0780  0870               	movf	??i1_USBDeviceInit,w
  5694  0781  0023               	movlb	3	; select bank3
  5695  0782  00E7               	movwf	_USBStatusStageEnabledFlag1^(0+384)	;volatile
  5696                           
  5697                           ;mcc_generated_files/usb/usb_device.c: 341:     USBStatusStageEnabledFlag2 = 1;
  5698  0783  3001               	movlw	1
  5699  0784  00F0               	movwf	??i1_USBDeviceInit
  5700  0785  0870               	movf	??i1_USBDeviceInit,w
  5701  0786  00E6               	movwf	_USBStatusStageEnabledFlag2^(0+384)	;volatile
  5702  0787                     i1l4398:
  5703                           
  5704                           ;mcc_generated_files/usb/usb_device.c: 343:     USBDeferINDataStagePackets = 0;
  5705  0787  01E5               	clrf	_USBDeferINDataStagePackets^(0+384)	;volatile
  5706  0788                     i1l4400:
  5707                           
  5708                           ;mcc_generated_files/usb/usb_device.c: 344:     USBDeferOUTDataStagePackets = 0;
  5709  0788  01E4               	clrf	_USBDeferOUTDataStagePackets^(0+384)	;volatile
  5710  0789                     i1l4402:
  5711                           
  5712                           ;mcc_generated_files/usb/usb_device.c: 345:     USBBusIsSuspended = 0;
  5713  0789  01E9               	clrf	_USBBusIsSuspended^(0+384)	;volatile
  5714  078A                     i1l4404:
  5715                           
  5716                           ;mcc_generated_files/usb/usb_device.c: 349:     for(i = 0; i < (uint8_t)(2 +1u); i++)
  5717  078A  01F4               	clrf	i1USBDeviceInit@i
  5718  078B                     i1l4408:
  5719                           
  5720                           ;mcc_generated_files/usb/usb_device.c: 350:     {;mcc_generated_files/usb/usb_device.c: 
      +                          351:         pBDTEntryIn[i] = 0u;
  5721  078B  3574               	lslf	i1USBDeviceInit@i,w
  5722  078C  3EA7               	addlw	(low (_pBDTEntryIn| 0))& (0+255)
  5723  078D  0086               	movwf	6
  5724  078E  0187               	clrf	7
  5725  078F  3000               	movlw	0
  5726  0790  3FC0               	movwi [0]fsr1
  5727  0791  3FC1               	movwi [1]fsr1
  5728                           
  5729                           ;mcc_generated_files/usb/usb_device.c: 352:         pBDTEntryOut[i] = 0u;
  5730  0792  3574               	lslf	i1USBDeviceInit@i,w
  5731  0793  3EB0               	addlw	(low (_pBDTEntryOut| (0+256)))& (0+255)
  5732  0794  0086               	movwf	6
  5733  0795  3001               	movlw	1	; select bank3/4
  5734  0796  0087               	movwf	7
  5735  0797  3000               	movlw	0
  5736  0798  3FC0               	movwi [0]fsr1
  5737  0799  3FC1               	movwi [1]fsr1
  5738                           
  5739                           ;mcc_generated_files/usb/usb_device.c: 353:         ep_data_in[i].Val = 0u;
  5740  079A  0874               	movf	i1USBDeviceInit@i,w
  5741  079B  3EC1               	addlw	(low (_ep_data_in| (0+256)))& (0+255)
  5742  079C  0086               	movwf	6
  5743  079D  3001               	movlw	1	; select bank3/4
  5744  079E  0087               	movwf	7
  5745  079F  0181               	clrf	1
  5746                           
  5747                           ;mcc_generated_files/usb/usb_device.c: 354:         ep_data_out[i].Val = 0u;
  5748  07A0  0874               	movf	i1USBDeviceInit@i,w
  5749  07A1  3EBE               	addlw	(low (_ep_data_out| (0+256)))& (0+255)
  5750  07A2  0086               	movwf	6
  5751  07A3  3001               	movlw	1	; select bank3/4
  5752  07A4  0087               	movwf	7
  5753  07A5  0181               	clrf	1
  5754  07A6                     i1l4410:
  5755                           
  5756                           ;mcc_generated_files/usb/usb_device.c: 355:     }
  5757  07A6  3001               	movlw	1
  5758  07A7  00F0               	movwf	??i1_USBDeviceInit
  5759  07A8  0870               	movf	??i1_USBDeviceInit,w
  5760  07A9  07F4               	addwf	i1USBDeviceInit@i,f
  5761  07AA                     i1l4412:
  5762  07AA  3003               	movlw	3
  5763  07AB  0274               	subwf	i1USBDeviceInit@i,w
  5764  07AC  1C03               	skipc
  5765  07AD  2FAF               	goto	u305_21
  5766  07AE  2FB0               	goto	u305_20
  5767  07AF                     u305_21:
  5768  07AF  2F8B               	goto	i1l4408
  5769  07B0                     u305_20:
  5770  07B0                     i1l4414:
  5771                           
  5772                           ;mcc_generated_files/usb/usb_device.c: 358:     pBDTEntryIn[0] = (volatile BDT_ENTRY*)&B
      +                          DT[2];
  5773  07B0  3028               	movlw	40
  5774  07B1  0021               	movlb	1	; select bank1
  5775  07B2  00A7               	movwf	_pBDTEntryIn^(0+128)
  5776  07B3  3000               	movlw	0
  5777  07B4  00A8               	movwf	(_pBDTEntryIn+1)^(0+128)
  5778  07B5                     i1l4416:
  5779                           
  5780                           ;mcc_generated_files/usb/usb_device.c: 360:     UEP0 = 0x06|0x10;
  5781  07B5  3016               	movlw	22
  5782  07B6  003D               	movlb	29	; select bank29
  5783  07B7  0098               	movwf	24	;volatile
  5784  07B8                     i1l4418:
  5785                           
  5786                           ;mcc_generated_files/usb/usb_device.c: 362:     BDT[0].ADR = (((uint16_t)(&SetupPkt)) & 
      +                          0x7FFF);
  5787  07B8  3000               	movlw	0
  5788  07B9  0020               	movlb	0	; select bank0
  5789  07BA  00A3               	movwf	35	;volatile
  5790  07BB  3050               	movlw	80
  5791  07BC  00A2               	movwf	34	;volatile
  5792  07BD                     i1l4420:
  5793                           
  5794                           ;mcc_generated_files/usb/usb_device.c: 363:     BDT[0].CNT = 8;
  5795  07BD  3008               	movlw	8
  5796  07BE  00A1               	movwf	33	;volatile
  5797  07BF                     i1l4422:
  5798                           
  5799                           ;mcc_generated_files/usb/usb_device.c: 364:     BDT[0].STAT.Val = 0x00|0x04;
  5800  07BF  3004               	movlw	4
  5801  07C0  00F0               	movwf	??i1_USBDeviceInit
  5802  07C1  0870               	movf	??i1_USBDeviceInit,w
  5803  07C2  00A0               	movwf	32	;volatile
  5804  07C3                     i1l4424:
  5805                           
  5806                           ;mcc_generated_files/usb/usb_device.c: 365:     BDT[0].STAT.Val |= 0x80;
  5807  07C3  17A0               	bsf	32,7	;volatile
  5808  07C4                     i1l4426:
  5809                           
  5810                           ;mcc_generated_files/usb/usb_device.c: 368:     USBActiveConfiguration = 0;
  5811  07C4  0021               	movlb	1	; select bank1
  5812  07C5  01BD               	clrf	_USBActiveConfiguration^(0+128)	;volatile
  5813  07C6                     i1l4428:
  5814                           
  5815                           ;mcc_generated_files/usb/usb_device.c: 370:     USB1msTickCount = 0;
  5816  07C6  3000               	movlw	0
  5817  07C7  0023               	movlb	3	; select bank3
  5818  07C8  00BD               	movwf	(_USB1msTickCount+3)^(0+384)	;volatile
  5819  07C9  3000               	movlw	0
  5820  07CA  00BC               	movwf	(_USB1msTickCount+2)^(0+384)	;volatile
  5821  07CB  3000               	movlw	0
  5822  07CC  00BB               	movwf	(_USB1msTickCount+1)^(0+384)	;volatile
  5823  07CD  3000               	movlw	0
  5824  07CE  00BA               	movwf	_USB1msTickCount^(0+384)	;volatile
  5825  07CF                     i1l4430:
  5826                           
  5827                           ;mcc_generated_files/usb/usb_device.c: 371:     USBTicksSinceSuspendEnd = 0;
  5828  07CF  01E3               	clrf	_USBTicksSinceSuspendEnd^(0+384)	;volatile
  5829  07D0                     i1l4432:
  5830                           
  5831                           ;mcc_generated_files/usb/usb_device.c: 374:     USBDeviceState = DETACHED_STATE;
  5832  07D0  0021               	movlb	1	; select bank1
  5833  07D1  01BB               	clrf	_USBDeviceState^(0+128)	;volatile
  5834  07D2                     i1l141:
  5835  07D2  0008               	return
  5836  07D3                     __end_ofi1_USBDeviceInit:
  5837                           
  5838                           	psect	text15
  5839  1767                     __ptext15:	
  5840 ;; *************** function _USBWakeFromSuspend *****************
  5841 ;; Defined at:
  5842 ;;		line 2307 in file "mcc_generated_files/usb/usb_device.c"
  5843 ;; Parameters:    Size  Location     Type
  5844 ;;		None
  5845 ;; Auto vars:     Size  Location     Type
  5846 ;;		None
  5847 ;; Return value:  Size  Location     Type
  5848 ;;                  1    wreg      void 
  5849 ;; Registers used:
  5850 ;;		wreg, fsr0l, fsr0h, fsr1l, fsr1h, status,2, status,0, pclath, cstack
  5851 ;; Tracked objects:
  5852 ;;		On entry : 0/0
  5853 ;;		On exit  : 0/0
  5854 ;;		Unchanged: 0/0
  5855 ;; Data sizes:     COMMON   BANK0   BANK1   BANK2   BANK3   BANK4   BANK5   BANK6   BANK7   BANK8   BANK9  BANK10  BANK1
      +1  BANK12
  5856 ;;      Params:         0       0       0       0       0       0       0       0       0       0       0       0       
      +0       0
  5857 ;;      Locals:         0       0       0       0       0       0       0       0       0       0       0       0       
      +0       0
  5858 ;;      Temps:          0       1       0       0       0       0       0       0       0       0       0       0       
      +0       0
  5859 ;;      Totals:         0       1       0       0       0       0       0       0       0       0       0       0       
      +0       0
  5860 ;;Total ram usage:        1 bytes
  5861 ;; Hardware stack levels used:    1
  5862 ;; Hardware stack levels required when called:    4
  5863 ;; This function calls:
  5864 ;;		_USER_USB_CALLBACK_EVENT_HANDLER
  5865 ;; This function is called by:
  5866 ;;		_USBDeviceTasks
  5867 ;; This function uses a non-reentrant model
  5868 ;;
  5869                           
  5870                           
  5871                           ;psect for function _USBWakeFromSuspend
  5872  1767                     _USBWakeFromSuspend:
  5873  1767                     i1l4214:	
  5874                           ;incstack = 0
  5875                           ; Regs used in _USBWakeFromSuspend: [wreg-fsr1h+status,2+status,0+pclath+cstack]
  5876                           
  5877                           
  5878                           ;mcc_generated_files/usb/usb_device.c: 2309:     USBBusIsSuspended = 0;
  5879  1767  0023               	movlb	3	; select bank3
  5880  1768  01E9               	clrf	_USBBusIsSuspended^(0+384)	;volatile
  5881  1769                     i1l4216:
  5882                           
  5883                           ;mcc_generated_files/usb/usb_device.c: 2315:     USER_USB_CALLBACK_EVENT_HANDLER((USB_EV
      +                          ENT)EVENT_RESUME,0,0);
  5884  1769  3074               	movlw	116
  5885  176A  0020               	movlb	0	; select bank0
  5886  176B  00E0               	movwf	USER_USB_CALLBACK_EVENT_HANDLER@event
  5887  176C  3000               	movlw	0
  5888  176D  00E1               	movwf	USER_USB_CALLBACK_EVENT_HANDLER@event+1
  5889  176E  3000               	movlw	0
  5890  176F  00E2               	movwf	USER_USB_CALLBACK_EVENT_HANDLER@pdata
  5891  1770  3000               	movlw	0
  5892  1771  00E3               	movwf	USER_USB_CALLBACK_EVENT_HANDLER@pdata+1
  5893  1772  3000               	movlw	0
  5894  1773  00E4               	movwf	USER_USB_CALLBACK_EVENT_HANDLER@size
  5895  1774  00E5               	movwf	USER_USB_CALLBACK_EVENT_HANDLER@size+1
  5896  1775  3188  200C  3197   	fcall	_USER_USB_CALLBACK_EVENT_HANDLER
  5897  1778                     i1l4218:
  5898                           
  5899                           ;mcc_generated_files/usb/usb_device.c: 2322:         UCONbits.SUSPND = 0;
  5900  1778  003D               	movlb	29	; select bank29
  5901  1779  108E               	bcf	14,1	;volatile
  5902  177A                     i1l4220:
  5903                           
  5904                           ;mcc_generated_files/usb/usb_device.c: 2327:     UIEbits.ACTVIE = 0;
  5905  177A  1112               	bcf	18,2	;volatile
  5906                           
  5907                           ;mcc_generated_files/usb/usb_device.c: 2345:     while(UIRbits.ACTVIF)
  5908  177B  2F82               	goto	i1l4224
  5909  177C                     i1l4222:
  5910                           
  5911                           ;mcc_generated_files/usb/usb_device.c: 2347:     {;mcc_generated_files/usb/usb_device.c:
      +                           2348:         (UIR &= 0xFB);
  5912  177C  30FB               	movlw	251
  5913  177D  0020               	movlb	0	; select bank0
  5914  177E  00E6               	movwf	??_USBWakeFromSuspend
  5915  177F  0866               	movf	??_USBWakeFromSuspend,w
  5916  1780  003D               	movlb	29	; select bank29
  5917  1781  0590               	andwf	16,f	;volatile
  5918  1782                     i1l4224:
  5919                           
  5920                           ;mcc_generated_files/usb/usb_device.c: 2345:     while(UIRbits.ACTVIF)
  5921  1782  1910               	btfsc	16,2	;volatile
  5922  1783  2F85               	goto	u288_21
  5923  1784  2F86               	goto	u288_20
  5924  1785                     u288_21:
  5925  1785  2F7C               	goto	i1l4222
  5926  1786                     u288_20:
  5927  1786                     i1l4226:
  5928                           
  5929                           ;mcc_generated_files/usb/usb_device.c: 2351:     USBTicksSinceSuspendEnd = 0;
  5930  1786  0023               	movlb	3	; select bank3
  5931  1787  01E3               	clrf	_USBTicksSinceSuspendEnd^(0+384)	;volatile
  5932  1788                     i1l310:
  5933  1788  0008               	return
  5934  1789                     __end_of_USBWakeFromSuspend:
  5935                           
  5936                           	psect	text16
  5937  1727                     __ptext16:	
  5938 ;; *************** function _USBSuspend *****************
  5939 ;; Defined at:
  5940 ;;		line 2249 in file "mcc_generated_files/usb/usb_device.c"
  5941 ;; Parameters:    Size  Location     Type
  5942 ;;		None
  5943 ;; Auto vars:     Size  Location     Type
  5944 ;;		None
  5945 ;; Return value:  Size  Location     Type
  5946 ;;                  1    wreg      void 
  5947 ;; Registers used:
  5948 ;;		wreg, fsr0l, fsr0h, fsr1l, fsr1h, status,2, status,0, pclath, cstack
  5949 ;; Tracked objects:
  5950 ;;		On entry : 0/0
  5951 ;;		On exit  : 0/0
  5952 ;;		Unchanged: 0/0
  5953 ;; Data sizes:     COMMON   BANK0   BANK1   BANK2   BANK3   BANK4   BANK5   BANK6   BANK7   BANK8   BANK9  BANK10  BANK1
      +1  BANK12
  5954 ;;      Params:         0       0       0       0       0       0       0       0       0       0       0       0       
      +0       0
  5955 ;;      Locals:         0       0       0       0       0       0       0       0       0       0       0       0       
      +0       0
  5956 ;;      Temps:          0       1       0       0       0       0       0       0       0       0       0       0       
      +0       0
  5957 ;;      Totals:         0       1       0       0       0       0       0       0       0       0       0       0       
      +0       0
  5958 ;;Total ram usage:        1 bytes
  5959 ;; Hardware stack levels used:    1
  5960 ;; Hardware stack levels required when called:    4
  5961 ;; This function calls:
  5962 ;;		_USER_USB_CALLBACK_EVENT_HANDLER
  5963 ;; This function is called by:
  5964 ;;		_USBDeviceTasks
  5965 ;; This function uses a non-reentrant model
  5966 ;;
  5967                           
  5968                           
  5969                           ;psect for function _USBSuspend
  5970  1727                     _USBSuspend:
  5971  1727                     i1l4228:	
  5972                           ;incstack = 0
  5973                           ; Regs used in _USBSuspend: [wreg-fsr1h+status,2+status,0+pclath+cstack]
  5974                           
  5975                           
  5976                           ;mcc_generated_files/usb/usb_device.c: 2274:     UIEbits.ACTVIE = 1;
  5977  1727  003D               	movlb	29	; select bank29
  5978  1728  1512               	bsf	18,2	;volatile
  5979  1729                     i1l4230:
  5980                           
  5981                           ;mcc_generated_files/usb/usb_device.c: 2275:     (UIR &= 0xEF);
  5982  1729  30EF               	movlw	239
  5983  172A  0020               	movlb	0	; select bank0
  5984  172B  00E6               	movwf	??_USBSuspend
  5985  172C  0866               	movf	??_USBSuspend,w
  5986  172D  003D               	movlb	29	; select bank29
  5987  172E  0590               	andwf	16,f	;volatile
  5988  172F                     i1l4232:
  5989                           
  5990                           ;mcc_generated_files/usb/usb_device.c: 2278:         UCONbits.SUSPND = 1;
  5991  172F  148E               	bsf	14,1	;volatile
  5992  1730                     i1l4234:
  5993                           
  5994                           ;mcc_generated_files/usb/usb_device.c: 2281:     USBBusIsSuspended = 1;
  5995  1730  3001               	movlw	1
  5996  1731  0020               	movlb	0	; select bank0
  5997  1732  00E6               	movwf	??_USBSuspend
  5998  1733  0866               	movf	??_USBSuspend,w
  5999  1734  0023               	movlb	3	; select bank3
  6000  1735  00E9               	movwf	_USBBusIsSuspended^(0+384)	;volatile
  6001  1736                     i1l4236:
  6002                           
  6003                           ;mcc_generated_files/usb/usb_device.c: 2282:     USBTicksSinceSuspendEnd = 0;
  6004  1736  01E3               	clrf	_USBTicksSinceSuspendEnd^(0+384)	;volatile
  6005  1737                     i1l4238:
  6006                           
  6007                           ;mcc_generated_files/usb/usb_device.c: 2289:     USER_USB_CALLBACK_EVENT_HANDLER((USB_EV
      +                          ENT)EVENT_SUSPEND,0,0);
  6008  1737  3075               	movlw	117
  6009  1738  0020               	movlb	0	; select bank0
  6010  1739  00E0               	movwf	USER_USB_CALLBACK_EVENT_HANDLER@event
  6011  173A  3000               	movlw	0
  6012  173B  00E1               	movwf	USER_USB_CALLBACK_EVENT_HANDLER@event+1
  6013  173C  3000               	movlw	0
  6014  173D  00E2               	movwf	USER_USB_CALLBACK_EVENT_HANDLER@pdata
  6015  173E  3000               	movlw	0
  6016  173F  00E3               	movwf	USER_USB_CALLBACK_EVENT_HANDLER@pdata+1
  6017  1740  3000               	movlw	0
  6018  1741  00E4               	movwf	USER_USB_CALLBACK_EVENT_HANDLER@size
  6019  1742  00E5               	movwf	USER_USB_CALLBACK_EVENT_HANDLER@size+1
  6020  1743  3188  200C  3197   	fcall	_USER_USB_CALLBACK_EVENT_HANDLER
  6021  1746                     i1l304:
  6022  1746  0008               	return
  6023  1747                     __end_of_USBSuspend:
  6024                           
  6025                           	psect	text17
  6026  07D3                     __ptext17:	
  6027 ;; *************** function _USBStallHandler *****************
  6028 ;; Defined at:
  6029 ;;		line 2206 in file "mcc_generated_files/usb/usb_device.c"
  6030 ;; Parameters:    Size  Location     Type
  6031 ;;		None
  6032 ;; Auto vars:     Size  Location     Type
  6033 ;;		None
  6034 ;; Return value:  Size  Location     Type
  6035 ;;                  1    wreg      void 
  6036 ;; Registers used:
  6037 ;;		wreg, fsr1l, fsr1h, status,2, status,0
  6038 ;; Tracked objects:
  6039 ;;		On entry : 0/0
  6040 ;;		On exit  : 0/0
  6041 ;;		Unchanged: 0/0
  6042 ;; Data sizes:     COMMON   BANK0   BANK1   BANK2   BANK3   BANK4   BANK5   BANK6   BANK7   BANK8   BANK9  BANK10  BANK1
      +1  BANK12
  6043 ;;      Params:         0       0       0       0       0       0       0       0       0       0       0       0       
      +0       0
  6044 ;;      Locals:         0       0       0       0       0       0       0       0       0       0       0       0       
      +0       0
  6045 ;;      Temps:          1       0       0       0       0       0       0       0       0       0       0       0       
      +0       0
  6046 ;;      Totals:         1       0       0       0       0       0       0       0       0       0       0       0       
      +0       0
  6047 ;;Total ram usage:        1 bytes
  6048 ;; Hardware stack levels used:    1
  6049 ;; This function calls:
  6050 ;;		Nothing
  6051 ;; This function is called by:
  6052 ;;		_USBDeviceTasks
  6053 ;; This function uses a non-reentrant model
  6054 ;;
  6055                           
  6056                           
  6057                           ;psect for function _USBStallHandler
  6058  07D3                     _USBStallHandler:
  6059  07D3                     i1l4248:	
  6060                           ;incstack = 0
  6061                           ; Regs used in _USBStallHandler: [wreg+fsr1l+fsr1h+status,2+status,0]
  6062                           
  6063                           
  6064                           ;mcc_generated_files/usb/usb_device.c: 2218:     if(UEP0bits.EPSTALL == 1)
  6065  07D3  003D               	movlb	29	; select bank29
  6066  07D4  1C18               	btfss	24,0	;volatile
  6067  07D5  2FD7               	goto	u291_21
  6068  07D6  2FD8               	goto	u291_20
  6069  07D7                     u291_21:
  6070  07D7  2FF9               	goto	i1l4258
  6071  07D8                     u291_20:
  6072  07D8                     i1l4250:
  6073                           
  6074                           ;mcc_generated_files/usb/usb_device.c: 2219:     {;mcc_generated_files/usb/usb_device.c:
      +                           2221:         if((pBDTEntryEP0OutCurrent->STAT.Val == 0x80) && (pBDTEntryIn[0]->STAT.Va
      +                          l == (0x80|0x04)))
  6075  07D8  0021               	movlb	1	; select bank1
  6076  07D9  083A               	movf	_pBDTEntryEP0OutCurrent^(0+128),w
  6077  07DA  0086               	movwf	6
  6078  07DB  0187               	clrf	7
  6079  07DC  3080               	movlw	128
  6080  07DD  0601               	xorwf	1,w
  6081  07DE  1D03               	btfss	3,2
  6082  07DF  2FE1               	goto	u292_21
  6083  07E0  2FE2               	goto	u292_20
  6084  07E1                     u292_21:
  6085  07E1  2FF7               	goto	i1l4256
  6086  07E2                     u292_20:
  6087  07E2                     i1l4252:
  6088  07E2  0827               	movf	_pBDTEntryIn^(0+128),w
  6089  07E3  0086               	movwf	6
  6090  07E4  0828               	movf	(_pBDTEntryIn+1)^(0+128),w
  6091  07E5  0087               	movwf	7
  6092  07E6  3084               	movlw	132
  6093  07E7  0601               	xorwf	1,w
  6094  07E8  1D03               	btfss	3,2
  6095  07E9  2FEB               	goto	u293_21
  6096  07EA  2FEC               	goto	u293_20
  6097  07EB                     u293_21:
  6098  07EB  2FF7               	goto	i1l4256
  6099  07EC                     u293_20:
  6100  07EC                     i1l4254:
  6101                           
  6102                           ;mcc_generated_files/usb/usb_device.c: 2222:         {;mcc_generated_files/usb/usb_devic
      +                          e.c: 2224:             pBDTEntryEP0OutCurrent->STAT.Val = 0x00|(0x08 & 0x08)|0x04;
  6103  07EC  300C               	movlw	12
  6104  07ED  00F0               	movwf	??_USBStallHandler
  6105  07EE  083A               	movf	_pBDTEntryEP0OutCurrent^(0+128),w
  6106  07EF  0086               	movwf	6
  6107  07F0  0187               	clrf	7
  6108  07F1  0870               	movf	??_USBStallHandler,w
  6109  07F2  0081               	movwf	1
  6110                           
  6111                           ;mcc_generated_files/usb/usb_device.c: 2225:             pBDTEntryEP0OutCurrent->STAT.Va
      +                          l |= 0x80;
  6112  07F3  083A               	movf	_pBDTEntryEP0OutCurrent^(0+128),w
  6113  07F4  0086               	movwf	6
  6114  07F5  0187               	clrf	7
  6115  07F6  1781               	bsf	1,7
  6116  07F7                     i1l4256:
  6117                           
  6118                           ;mcc_generated_files/usb/usb_device.c: 2227:         UEP0bits.EPSTALL = 0;
  6119  07F7  003D               	movlb	29	; select bank29
  6120  07F8  1018               	bcf	24,0	;volatile
  6121  07F9                     i1l4258:
  6122                           
  6123                           ;mcc_generated_files/usb/usb_device.c: 2230:     (UIR &= 0xDF);
  6124  07F9  30DF               	movlw	223
  6125  07FA  00F0               	movwf	??_USBStallHandler
  6126  07FB  0870               	movf	??_USBStallHandler,w
  6127  07FC  0590               	andwf	16,f	;volatile
  6128  07FD                     i1l301:
  6129  07FD  0008               	return
  6130  07FE                     __end_of_USBStallHandler:
  6131                           
  6132                           	psect	text18
  6133  16ED                     __ptext18:	
  6134 ;; *************** function _USBIncrement1msInternalTimers *****************
  6135 ;; Defined at:
  6136 ;;		line 3029 in file "mcc_generated_files/usb/usb_device.c"
  6137 ;; Parameters:    Size  Location     Type
  6138 ;;		None
  6139 ;; Auto vars:     Size  Location     Type
  6140 ;;		None
  6141 ;; Return value:  Size  Location     Type
  6142 ;;                  1    wreg      void 
  6143 ;; Registers used:
  6144 ;;		wreg, status,2, status,0
  6145 ;; Tracked objects:
  6146 ;;		On entry : 0/0
  6147 ;;		On exit  : 0/0
  6148 ;;		Unchanged: 0/0
  6149 ;; Data sizes:     COMMON   BANK0   BANK1   BANK2   BANK3   BANK4   BANK5   BANK6   BANK7   BANK8   BANK9  BANK10  BANK1
      +1  BANK12
  6150 ;;      Params:         0       0       0       0       0       0       0       0       0       0       0       0       
      +0       0
  6151 ;;      Locals:         0       0       0       0       0       0       0       0       0       0       0       0       
      +0       0
  6152 ;;      Temps:          1       0       0       0       0       0       0       0       0       0       0       0       
      +0       0
  6153 ;;      Totals:         1       0       0       0       0       0       0       0       0       0       0       0       
      +0       0
  6154 ;;Total ram usage:        1 bytes
  6155 ;; Hardware stack levels used:    1
  6156 ;; This function calls:
  6157 ;;		Nothing
  6158 ;; This function is called by:
  6159 ;;		_USBDeviceTasks
  6160 ;; This function uses a non-reentrant model
  6161 ;;
  6162                           
  6163                           
  6164                           ;psect for function _USBIncrement1msInternalTimers
  6165  16ED                     _USBIncrement1msInternalTimers:
  6166  16ED                     i1l4240:	
  6167                           ;incstack = 0
  6168                           ; Regs used in _USBIncrement1msInternalTimers: [wreg+status,2+status,0]
  6169                           
  6170                           
  6171                           ;mcc_generated_files/usb/usb_device.c: 3037:     USB1msTickCount++;
  6172  16ED  3001               	movlw	1
  6173  16EE  0023               	movlb	3	; select bank3
  6174  16EF  07BA               	addwf	_USB1msTickCount^(0+384),f	;volatile
  6175  16F0  3000               	movlw	0
  6176  16F1  3DBB               	addwfc	(_USB1msTickCount+1)^(0+384),f	;volatile
  6177  16F2  3000               	movlw	0
  6178  16F3  3DBC               	addwfc	(_USB1msTickCount+2)^(0+384),f	;volatile
  6179  16F4  3000               	movlw	0
  6180  16F5  3DBD               	addwfc	(_USB1msTickCount+3)^(0+384),f	;volatile
  6181  16F6                     i1l4242:
  6182                           
  6183                           ;mcc_generated_files/usb/usb_device.c: 3038:     if(USBBusIsSuspended == 0)
  6184  16F6  0869               	movf	_USBBusIsSuspended^(0+384),w	;volatile
  6185  16F7  1D03               	btfss	3,2
  6186  16F8  2EFA               	goto	u289_21
  6187  16F9  2EFB               	goto	u289_20
  6188  16FA                     u289_21:
  6189  16FA  2F08               	goto	i1l391
  6190  16FB                     u289_20:
  6191  16FB                     i1l4244:
  6192                           
  6193                           ;mcc_generated_files/usb/usb_device.c: 3039:     {;mcc_generated_files/usb/usb_device.c:
      +                           3040:         USBTicksSinceSuspendEnd++;
  6194  16FB  3001               	movlw	1
  6195  16FC  00F0               	movwf	??_USBIncrement1msInternalTimers
  6196  16FD  0870               	movf	??_USBIncrement1msInternalTimers,w
  6197  16FE  07E3               	addwf	_USBTicksSinceSuspendEnd^(0+384),f	;volatile
  6198                           
  6199                           ;mcc_generated_files/usb/usb_device.c: 3042:         if(USBTicksSinceSuspendEnd == 0)
  6200  16FF  0863               	movf	_USBTicksSinceSuspendEnd^(0+384),w	;volatile
  6201  1700  1D03               	btfss	3,2
  6202  1701  2F03               	goto	u290_21
  6203  1702  2F04               	goto	u290_20
  6204  1703                     u290_21:
  6205  1703  2F08               	goto	i1l391
  6206  1704                     u290_20:
  6207  1704                     i1l4246:
  6208                           
  6209                           ;mcc_generated_files/usb/usb_device.c: 3043:         {;mcc_generated_files/usb/usb_devic
      +                          e.c: 3044:             USBTicksSinceSuspendEnd = 255;
  6210  1704  30FF               	movlw	255
  6211  1705  00F0               	movwf	??_USBIncrement1msInternalTimers
  6212  1706  0870               	movf	??_USBIncrement1msInternalTimers,w
  6213  1707  00E3               	movwf	_USBTicksSinceSuspendEnd^(0+384)	;volatile
  6214  1708                     i1l391:
  6215  1708  0008               	return
  6216  1709                     __end_of_USBIncrement1msInternalTimers:
  6217                           
  6218                           	psect	text19
  6219  0940                     __ptext19:	
  6220 ;; *************** function _USBCtrlEPService *****************
  6221 ;; Defined at:
  6222 ;;		line 2376 in file "mcc_generated_files/usb/usb_device.c"
  6223 ;; Parameters:    Size  Location     Type
  6224 ;;		None
  6225 ;; Auto vars:     Size  Location     Type
  6226 ;;		None
  6227 ;; Return value:  Size  Location     Type
  6228 ;;                  1    wreg      void 
  6229 ;; Registers used:
  6230 ;;		wreg, fsr0l, fsr0h, fsr1l, fsr1h, status,2, status,0, pclath, cstack
  6231 ;; Tracked objects:
  6232 ;;		On entry : 0/0
  6233 ;;		On exit  : 0/0
  6234 ;;		Unchanged: 0/0
  6235 ;; Data sizes:     COMMON   BANK0   BANK1   BANK2   BANK3   BANK4   BANK5   BANK6   BANK7   BANK8   BANK9  BANK10  BANK1
      +1  BANK12
  6236 ;;      Params:         0       0       0       0       0       0       0       0       0       0       0       0       
      +0       0
  6237 ;;      Locals:         0       0       0       0       0       0       0       0       0       0       0       0       
      +0       0
  6238 ;;      Temps:          0       0       2       0       0       0       0       0       0       0       0       0       
      +0       0
  6239 ;;      Totals:         0       0       2       0       0       0       0       0       0       0       0       0       
      +0       0
  6240 ;;Total ram usage:        2 bytes
  6241 ;; Hardware stack levels used:    1
  6242 ;; Hardware stack levels required when called:    7
  6243 ;; This function calls:
  6244 ;;		_USBCtrlTrfInHandler
  6245 ;;		_USBCtrlTrfOutHandler
  6246 ;;		_USBCtrlTrfSetupHandler
  6247 ;;		_memcpy
  6248 ;; This function is called by:
  6249 ;;		_USBDeviceTasks
  6250 ;; This function uses a non-reentrant model
  6251 ;;
  6252                           
  6253                           
  6254                           ;psect for function _USBCtrlEPService
  6255  0940                     _USBCtrlEPService:
  6256  0940                     i1l5210:	
  6257                           ;incstack = 0
  6258                           ; Regs used in _USBCtrlEPService: [wreg-fsr1h+status,2+status,0+pclath+cstack]
  6259                           
  6260                           
  6261                           ;mcc_generated_files/usb/usb_device.c: 2382:         USBStatusStageTimeoutCounter = (uin
      +                          t8_t)45;
  6262  0940  302D               	movlw	45
  6263  0941  0021               	movlb	1	; select bank1
  6264  0942  00BE               	movwf	??_USBCtrlEPService^(0+128)
  6265  0943  083E               	movf	??_USBCtrlEPService^(0+128),w
  6266  0944  00B6               	movwf	_USBStatusStageTimeoutCounter^(0+128)	;volatile
  6267  0945                     i1l5212:
  6268                           
  6269                           ;mcc_generated_files/usb/usb_device.c: 2386:     if((USTATcopy.Val & ~0x02) == 0x00)
  6270  0945  083C               	movf	_USTATcopy^(0+128),w	;volatile
  6271  0946  39FD               	andlw	253
  6272  0947  1D03               	btfss	3,2
  6273  0948  294A               	goto	u398_21
  6274  0949  294B               	goto	u398_20
  6275  094A                     u398_21:
  6276  094A  2987               	goto	i1l5228
  6277  094B                     u398_20:
  6278  094B                     i1l5214:
  6279                           
  6280                           ;mcc_generated_files/usb/usb_device.c: 2387:     {;mcc_generated_files/usb/usb_device.c:
      +                           2390:             pBDTEntryEP0OutCurrent = (volatile BDT_ENTRY*)&BDT[(USTATcopy.Val & 0
      +                          x7E)>>1];
  6281  094B  363C               	lsrf	_USTATcopy^(0+128),w	;volatile
  6282  094C  393F               	andlw	63
  6283  094D  00BE               	movwf	??_USBCtrlEPService^(0+128)
  6284  094E  3001               	movlw	1
  6285  094F                     u399_25:
  6286  094F  35BE               	lslf	??_USBCtrlEPService^(0+128),f
  6287  0950  3EFF               	addlw	-1
  6288  0951  1D03               	skipz
  6289  0952  294F               	goto	u399_25
  6290  0953  353E               	lslf	??_USBCtrlEPService^(0+128),w
  6291  0954  3E20               	addlw	32
  6292  0955  00BF               	movwf	(??_USBCtrlEPService+1)^(0+128)
  6293  0956  083F               	movf	(??_USBCtrlEPService+1)^(0+128),w
  6294  0957  00BA               	movwf	_pBDTEntryEP0OutCurrent^(0+128)
  6295  0958                     i1l5216:
  6296                           
  6297                           ;mcc_generated_files/usb/usb_device.c: 2398:         pBDTEntryEP0OutNext = pBDTEntryEP0O
      +                          utCurrent;
  6298  0958  083A               	movf	_pBDTEntryEP0OutCurrent^(0+128),w
  6299  0959  00B2               	movwf	_pBDTEntryEP0OutNext^(0+128)
  6300  095A  39FF               	andlw	255
  6301  095B  1D03               	skipz
  6302  095C  3000               	movlw	0
  6303  095D  00B3               	movwf	(_pBDTEntryEP0OutNext+1)^(0+128)
  6304  095E                     i1l5218:
  6305                           
  6306                           ;mcc_generated_files/usb/usb_device.c: 2400:         pBDTEntryEP0OutNext = (volatile BDT
      +                          _ENTRY*)(((uint16_t)pBDTEntryEP0OutNext) ^ 0x0004);
  6307  095E  3004               	movlw	4
  6308  095F  0632               	xorwf	_pBDTEntryEP0OutNext^(0+128),w
  6309  0960  00B2               	movwf	_pBDTEntryEP0OutNext^(0+128)
  6310  0961  3000               	movlw	0
  6311  0962  0633               	xorwf	(_pBDTEntryEP0OutNext+1)^(0+128),w
  6312  0963  00B3               	movwf	(_pBDTEntryEP0OutNext+1)^(0+128)
  6313  0964                     i1l5220:
  6314                           
  6315                           ;mcc_generated_files/usb/usb_device.c: 2403:         if(pBDTEntryEP0OutCurrent->STAT.PID
      +                           == 0xD)
  6316  0964  083A               	movf	_pBDTEntryEP0OutCurrent^(0+128),w
  6317  0965  0086               	movwf	6
  6318  0966  0187               	clrf	7
  6319  0967  0C01               	rrf	1,w
  6320  0968  0C89               	rrf	9,f
  6321  0969  390F               	andlw	15
  6322  096A  3A0D               	xorlw	13
  6323  096B  1D03               	skipz
  6324  096C  296E               	goto	u400_21
  6325  096D  296F               	goto	u400_20
  6326  096E                     u400_21:
  6327  096E  2983               	goto	i1l5226
  6328  096F                     u400_20:
  6329  096F                     i1l5222:
  6330                           
  6331                           ;mcc_generated_files/usb/usb_device.c: 2404:         {;mcc_generated_files/usb/usb_devic
      +                          e.c: 2409:             memcpy((uint8_t*)&SetupPkt, (uint8_t*)((void *)(pBDTEntryEP0OutCu
      +                          rrent->ADR)), 8);
  6332  096F  083A               	movf	_pBDTEntryEP0OutCurrent^(0+128),w
  6333  0970  3E02               	addlw	2
  6334  0971  0086               	movwf	6
  6335  0972  0187               	clrf	7
  6336  0973  3F40               	moviw [0]fsr1
  6337  0974  00F0               	movwf	memcpy@s1
  6338  0975  3F41               	moviw [1]fsr1
  6339  0976  00F1               	movwf	memcpy@s1+1
  6340  0977  3008               	movlw	8
  6341  0978  00F2               	movwf	memcpy@n
  6342  0979  3000               	movlw	0
  6343  097A  00F3               	movwf	memcpy@n+1
  6344  097B  3050               	movlw	80
  6345  097C  3197  27D2  3189   	fcall	_memcpy
  6346  097F                     i1l5224:
  6347                           
  6348                           ;mcc_generated_files/usb/usb_device.c: 2412:             USBCtrlTrfSetupHandler();
  6349  097F  3189  2194  3189   	fcall	_USBCtrlTrfSetupHandler
  6350                           
  6351                           ;mcc_generated_files/usb/usb_device.c: 2413:         }
  6352  0982  2993               	goto	i1l318
  6353  0983                     i1l5226:
  6354                           
  6355                           ;mcc_generated_files/usb/usb_device.c: 2415:         {;mcc_generated_files/usb/usb_devic
      +                          e.c: 2417:             USBCtrlTrfOutHandler();
  6356  0983  3188  2076  3189   	fcall	_USBCtrlTrfOutHandler
  6357  0986  2993               	goto	i1l318
  6358  0987                     i1l5228:
  6359  0987  30FD               	movlw	253
  6360  0988  053C               	andwf	_USTATcopy^(0+128),w	;volatile
  6361  0989  00BE               	movwf	??_USBCtrlEPService^(0+128)
  6362  098A  3004               	movlw	4
  6363  098B  063E               	xorwf	??_USBCtrlEPService^(0+128),w
  6364  098C  1D03               	btfss	3,2
  6365  098D  298F               	goto	u401_21
  6366  098E  2990               	goto	u401_20
  6367  098F                     u401_21:
  6368  098F  2993               	goto	i1l318
  6369  0990                     u401_20:
  6370  0990                     i1l5230:
  6371                           
  6372                           ;mcc_generated_files/usb/usb_device.c: 2421:     {;mcc_generated_files/usb/usb_device.c:
      +                           2424:         USBCtrlTrfInHandler();
  6373  0990  318B  231F  3189   	fcall	_USBCtrlTrfInHandler
  6374  0993                     i1l318:
  6375  0993  0008               	return
  6376  0994                     __end_of_USBCtrlEPService:
  6377                           
  6378                           	psect	text20
  6379  17D2                     __ptext20:	
  6380 ;; *************** function _memcpy *****************
  6381 ;; Defined at:
  6382 ;;		line 4 in file "C:\Program Files\Microchip\xc8\v2.31\pic\sources\c99\common\memcpy.c"
  6383 ;; Parameters:    Size  Location     Type
  6384 ;;  d1              1    wreg     PTR void 
  6385 ;;		 -> SetupPkt(8), 
  6386 ;;  s1              2    0[COMMON] PTR const void 
  6387 ;;		 -> CtrlTrfData(8), RAM(4096), SetupPkt(8), 
  6388 ;;  n               2    2[COMMON] unsigned int 
  6389 ;; Auto vars:     Size  Location     Type
  6390 ;;  d1              1    8[COMMON] PTR void 
  6391 ;;		 -> SetupPkt(8), 
  6392 ;;  s               2    5[COMMON] PTR const unsigned char 
  6393 ;;		 -> CtrlTrfData(8), RAM(4096), SetupPkt(8), 
  6394 ;;  d               1    9[COMMON] PTR unsigned char 
  6395 ;;		 -> SetupPkt(8), 
  6396 ;;  tmp             1    7[COMMON] unsigned char 
  6397 ;; Return value:  Size  Location     Type
  6398 ;;                  1    wreg      PTR void 
  6399 ;; Registers used:
  6400 ;;		wreg, fsr1l, fsr1h, status,2, status,0
  6401 ;; Tracked objects:
  6402 ;;		On entry : 0/0
  6403 ;;		On exit  : 0/0
  6404 ;;		Unchanged: 0/0
  6405 ;; Data sizes:     COMMON   BANK0   BANK1   BANK2   BANK3   BANK4   BANK5   BANK6   BANK7   BANK8   BANK9  BANK10  BANK1
      +1  BANK12
  6406 ;;      Params:         4       0       0       0       0       0       0       0       0       0       0       0       
      +0       0
  6407 ;;      Locals:         5       0       0       0       0       0       0       0       0       0       0       0       
      +0       0
  6408 ;;      Temps:          1       0       0       0       0       0       0       0       0       0       0       0       
      +0       0
  6409 ;;      Totals:        10       0       0       0       0       0       0       0       0       0       0       0       
      +0       0
  6410 ;;Total ram usage:       10 bytes
  6411 ;; Hardware stack levels used:    1
  6412 ;; This function calls:
  6413 ;;		Nothing
  6414 ;; This function is called by:
  6415 ;;		_USBCtrlEPService
  6416 ;; This function uses a non-reentrant model
  6417 ;;
  6418                           
  6419                           
  6420                           ;psect for function _memcpy
  6421  17D2                     _memcpy:
  6422                           
  6423                           ;incstack = 0
  6424                           ; Regs used in _memcpy: [wreg+fsr1l+fsr1h+status,2+status,0]
  6425                           ;memcpy@d1 stored from wreg
  6426  17D2  00F8               	movwf	memcpy@d1
  6427  17D3                     i1l4034:
  6428  17D3  0871               	movf	memcpy@s1+1,w
  6429  17D4  00F6               	movwf	memcpy@s+1
  6430  17D5  0870               	movf	memcpy@s1,w
  6431  17D6  00F5               	movwf	memcpy@s
  6432  17D7  0878               	movf	memcpy@d1,w
  6433  17D8  00F4               	movwf	??_memcpy
  6434  17D9  0874               	movf	??_memcpy,w
  6435  17DA  00F9               	movwf	memcpy@d
  6436  17DB  2FF3               	goto	i1l4044
  6437  17DC                     i1l4036:
  6438  17DC  0875               	movf	memcpy@s,w
  6439  17DD  0086               	movwf	6
  6440  17DE  0876               	movf	memcpy@s+1,w
  6441  17DF  0087               	movwf	7
  6442  17E0  0801               	movf	1,w
  6443  17E1  00F4               	movwf	??_memcpy
  6444  17E2  0874               	movf	??_memcpy,w
  6445  17E3  00F7               	movwf	memcpy@tmp
  6446  17E4                     i1l4038:
  6447  17E4  3001               	movlw	1
  6448  17E5  07F5               	addwf	memcpy@s,f
  6449  17E6  3000               	movlw	0
  6450  17E7  3DF6               	addwfc	memcpy@s+1,f
  6451  17E8                     i1l4040:
  6452  17E8  0877               	movf	memcpy@tmp,w
  6453  17E9  00F4               	movwf	??_memcpy
  6454  17EA  0879               	movf	memcpy@d,w
  6455  17EB  0086               	movwf	6
  6456  17EC  0187               	clrf	7
  6457  17ED  0874               	movf	??_memcpy,w
  6458  17EE  0081               	movwf	1
  6459  17EF                     i1l4042:
  6460  17EF  3001               	movlw	1
  6461  17F0  00F4               	movwf	??_memcpy
  6462  17F1  0874               	movf	??_memcpy,w
  6463  17F2  07F9               	addwf	memcpy@d,f
  6464  17F3                     i1l4044:
  6465  17F3  3001               	movlw	1
  6466  17F4  02F2               	subwf	memcpy@n,f
  6467  17F5  3000               	movlw	0
  6468  17F6  3BF3               	subwfb	memcpy@n+1,f
  6469  17F7  0A72               	incf	memcpy@n,w
  6470  17F8  1D03               	skipz
  6471  17F9  2FFE               	goto	u274_21
  6472  17FA  0A73               	incf	memcpy@n+1,w
  6473  17FB  1D03               	btfss	3,2
  6474  17FC  2FFE               	goto	u274_21
  6475  17FD  2FFF               	goto	u274_20
  6476  17FE                     u274_21:
  6477  17FE  2FDC               	goto	i1l4036
  6478  17FF                     u274_20:
  6479  17FF                     i1l1474:
  6480  17FF  0008               	return
  6481  1800                     __end_of_memcpy:
  6482                           
  6483                           	psect	text21
  6484  0994                     __ptext21:	
  6485 ;; *************** function _USBCtrlTrfSetupHandler *****************
  6486 ;; Defined at:
  6487 ;;		line 2469 in file "mcc_generated_files/usb/usb_device.c"
  6488 ;; Parameters:    Size  Location     Type
  6489 ;;		None
  6490 ;; Auto vars:     Size  Location     Type
  6491 ;;		None
  6492 ;; Return value:  Size  Location     Type
  6493 ;;                  1    wreg      void 
  6494 ;; Registers used:
  6495 ;;		wreg, fsr0l, fsr0h, fsr1l, fsr1h, status,2, status,0, pclath, cstack
  6496 ;; Tracked objects:
  6497 ;;		On entry : 0/0
  6498 ;;		On exit  : 0/0
  6499 ;;		Unchanged: 0/0
  6500 ;; Data sizes:     COMMON   BANK0   BANK1   BANK2   BANK3   BANK4   BANK5   BANK6   BANK7   BANK8   BANK9  BANK10  BANK1
      +1  BANK12
  6501 ;;      Params:         0       0       0       0       0       0       0       0       0       0       0       0       
      +0       0
  6502 ;;      Locals:         0       0       0       0       0       0       0       0       0       0       0       0       
      +0       0
  6503 ;;      Temps:          0       1       0       0       0       0       0       0       0       0       0       0       
      +0       0
  6504 ;;      Totals:         0       1       0       0       0       0       0       0       0       0       0       0       
      +0       0
  6505 ;;Total ram usage:        1 bytes
  6506 ;; Hardware stack levels used:    1
  6507 ;; Hardware stack levels required when called:    6
  6508 ;; This function calls:
  6509 ;;		_USBCheckStdRequest
  6510 ;;		_USBCtrlEPServiceComplete
  6511 ;;		_USER_USB_CALLBACK_EVENT_HANDLER
  6512 ;; This function is called by:
  6513 ;;		_USBCtrlEPService
  6514 ;; This function uses a non-reentrant model
  6515 ;;
  6516                           
  6517                           
  6518                           ;psect for function _USBCtrlTrfSetupHandler
  6519  0994                     _USBCtrlTrfSetupHandler:
  6520  0994                     i1l5184:	
  6521                           ;incstack = 0
  6522                           ; Regs used in _USBCtrlTrfSetupHandler: [wreg-fsr1h+status,2+status,0+pclath+cstack]
  6523                           
  6524                           
  6525                           ;mcc_generated_files/usb/usb_device.c: 2474:     shortPacketStatus = 0;
  6526  0994  0021               	movlb	1	; select bank1
  6527  0995  01B9               	clrf	_shortPacketStatus^(0+128)	;volatile
  6528                           
  6529                           ;mcc_generated_files/usb/usb_device.c: 2475:     USBDeferStatusStagePacket = 0;
  6530  0996  01B5               	clrf	_USBDeferStatusStagePacket^(0+128)	;volatile
  6531                           
  6532                           ;mcc_generated_files/usb/usb_device.c: 2476:     USBDeferINDataStagePackets = 0;
  6533  0997  0023               	movlb	3	; select bank3
  6534  0998  01E5               	clrf	_USBDeferINDataStagePackets^(0+384)	;volatile
  6535                           
  6536                           ;mcc_generated_files/usb/usb_device.c: 2477:     USBDeferOUTDataStagePackets = 0;
  6537  0999  01E4               	clrf	_USBDeferOUTDataStagePackets^(0+384)	;volatile
  6538                           
  6539                           ;mcc_generated_files/usb/usb_device.c: 2478:     BothEP0OutUOWNsSet = 0;
  6540  099A  01E8               	clrf	_BothEP0OutUOWNsSet^(0+384)	;volatile
  6541                           
  6542                           ;mcc_generated_files/usb/usb_device.c: 2479:     controlTransferState = 0;
  6543  099B  0021               	movlb	1	; select bank1
  6544  099C  01B8               	clrf	_controlTransferState^(0+128)	;volatile
  6545  099D                     i1l5186:
  6546                           
  6547                           ;mcc_generated_files/usb/usb_device.c: 2488:     pBDTEntryIn[0]->STAT.Val &= ~(0x80);
  6548  099D  307F               	movlw	127
  6549  099E  0020               	movlb	0	; select bank0
  6550  099F  00EF               	movwf	??_USBCtrlTrfSetupHandler
  6551  09A0  0021               	movlb	1	; select bank1
  6552  09A1  0827               	movf	_pBDTEntryIn^(0+128),w
  6553  09A2  0086               	movwf	6
  6554  09A3  0828               	movf	(_pBDTEntryIn+1)^(0+128),w
  6555  09A4  0087               	movwf	7
  6556  09A5  0020               	movlb	0	; select bank0
  6557  09A6  086F               	movf	??_USBCtrlTrfSetupHandler,w
  6558  09A7  0581               	andwf	1,f
  6559  09A8                     i1l5188:
  6560                           
  6561                           ;mcc_generated_files/usb/usb_device.c: 2490:     pBDTEntryIn[0] = (volatile BDT_ENTRY*)(
      +                          ((uint16_t)pBDTEntryIn[0]) ^ 0x0004);
  6562  09A8  3004               	movlw	4
  6563  09A9  0021               	movlb	1	; select bank1
  6564  09AA  0627               	xorwf	_pBDTEntryIn^(0+128),w
  6565  09AB  00A7               	movwf	_pBDTEntryIn^(0+128)
  6566  09AC  3000               	movlw	0
  6567  09AD  0628               	xorwf	(_pBDTEntryIn+1)^(0+128),w
  6568  09AE  00A8               	movwf	(_pBDTEntryIn+1)^(0+128)
  6569  09AF                     i1l5190:
  6570                           
  6571                           ;mcc_generated_files/usb/usb_device.c: 2491:     pBDTEntryIn[0]->STAT.Val &= ~(0x80);
  6572  09AF  307F               	movlw	127
  6573  09B0  0020               	movlb	0	; select bank0
  6574  09B1  00EF               	movwf	??_USBCtrlTrfSetupHandler
  6575  09B2  0021               	movlb	1	; select bank1
  6576  09B3  0827               	movf	_pBDTEntryIn^(0+128),w
  6577  09B4  0086               	movwf	6
  6578  09B5  0828               	movf	(_pBDTEntryIn+1)^(0+128),w
  6579  09B6  0087               	movwf	7
  6580  09B7  0020               	movlb	0	; select bank0
  6581  09B8  086F               	movf	??_USBCtrlTrfSetupHandler,w
  6582  09B9  0581               	andwf	1,f
  6583  09BA                     i1l5192:
  6584                           
  6585                           ;mcc_generated_files/usb/usb_device.c: 2492:     pBDTEntryIn[0] = (volatile BDT_ENTRY*)(
      +                          ((uint16_t)pBDTEntryIn[0]) ^ 0x0004);
  6586  09BA  3004               	movlw	4
  6587  09BB  0021               	movlb	1	; select bank1
  6588  09BC  0627               	xorwf	_pBDTEntryIn^(0+128),w
  6589  09BD  00A7               	movwf	_pBDTEntryIn^(0+128)
  6590  09BE  3000               	movlw	0
  6591  09BF  0628               	xorwf	(_pBDTEntryIn+1)^(0+128),w
  6592  09C0  00A8               	movwf	(_pBDTEntryIn+1)^(0+128)
  6593  09C1                     i1l5194:
  6594                           
  6595                           ;mcc_generated_files/usb/usb_device.c: 2493:     pBDTEntryEP0OutNext->STAT.Val &= ~(0x80
      +                          );
  6596  09C1  307F               	movlw	127
  6597  09C2  0020               	movlb	0	; select bank0
  6598  09C3  00EF               	movwf	??_USBCtrlTrfSetupHandler
  6599  09C4  0021               	movlb	1	; select bank1
  6600  09C5  0832               	movf	_pBDTEntryEP0OutNext^(0+128),w
  6601  09C6  0086               	movwf	6
  6602  09C7  0833               	movf	(_pBDTEntryEP0OutNext+1)^(0+128),w
  6603  09C8  0087               	movwf	7
  6604  09C9  0020               	movlb	0	; select bank0
  6605  09CA  086F               	movf	??_USBCtrlTrfSetupHandler,w
  6606  09CB  0581               	andwf	1,f
  6607  09CC                     i1l5196:
  6608                           
  6609                           ;mcc_generated_files/usb/usb_device.c: 2495:     inPipes[0].info.Val = 0;
  6610  09CC  0021               	movlb	1	; select bank1
  6611  09CD  01AF               	clrf	(_inPipes^(0+128)+2)	;volatile
  6612  09CE                     i1l5198:
  6613                           
  6614                           ;mcc_generated_files/usb/usb_device.c: 2496:     inPipes[0].wCount.Val = 0;
  6615  09CE  01B0               	clrf	(_inPipes^(0+128)+3)	;volatile
  6616  09CF  01B1               	clrf	((_inPipes+1)^(0+128)+3)	;volatile
  6617  09D0                     i1l5200:
  6618                           
  6619                           ;mcc_generated_files/usb/usb_device.c: 2497:     outPipes[0].info.Val = 0;
  6620  09D0  01A2               	clrf	(_outPipes^(0+128)+2)	;volatile
  6621  09D1                     i1l5202:
  6622                           
  6623                           ;mcc_generated_files/usb/usb_device.c: 2498:     outPipes[0].wCount.Val = 0;
  6624  09D1  01A3               	clrf	(_outPipes^(0+128)+3)	;volatile
  6625  09D2  01A4               	clrf	((_outPipes+1)^(0+128)+3)	;volatile
  6626  09D3                     i1l5204:
  6627                           
  6628                           ;mcc_generated_files/usb/usb_device.c: 2504:     USBCheckStdRequest();
  6629  09D3  318D  2518  3189   	fcall	_USBCheckStdRequest
  6630  09D6                     i1l5206:
  6631                           
  6632                           ;mcc_generated_files/usb/usb_device.c: 2505:     USER_USB_CALLBACK_EVENT_HANDLER((USB_EV
      +                          ENT)EVENT_EP0_REQUEST,0,0);
  6633  09D6  3003               	movlw	3
  6634  09D7  0020               	movlb	0	; select bank0
  6635  09D8  00E0               	movwf	USER_USB_CALLBACK_EVENT_HANDLER@event
  6636  09D9  3000               	movlw	0
  6637  09DA  00E1               	movwf	USER_USB_CALLBACK_EVENT_HANDLER@event+1
  6638  09DB  3000               	movlw	0
  6639  09DC  00E2               	movwf	USER_USB_CALLBACK_EVENT_HANDLER@pdata
  6640  09DD  3000               	movlw	0
  6641  09DE  00E3               	movwf	USER_USB_CALLBACK_EVENT_HANDLER@pdata+1
  6642  09DF  3000               	movlw	0
  6643  09E0  00E4               	movwf	USER_USB_CALLBACK_EVENT_HANDLER@size
  6644  09E1  00E5               	movwf	USER_USB_CALLBACK_EVENT_HANDLER@size+1
  6645  09E2  3188  200C  3189   	fcall	_USER_USB_CALLBACK_EVENT_HANDLER
  6646  09E5                     i1l5208:
  6647                           
  6648                           ;mcc_generated_files/usb/usb_device.c: 2518:     USBCtrlEPServiceComplete();
  6649  09E5  318E  26B8  3189   	fcall	_USBCtrlEPServiceComplete
  6650  09E8                     i1l321:
  6651  09E8  0008               	return
  6652  09E9                     __end_of_USBCtrlTrfSetupHandler:
  6653                           
  6654                           	psect	text22
  6655  0EB8                     __ptext22:	
  6656 ;; *************** function _USBCtrlEPServiceComplete *****************
  6657 ;; Defined at:
  6658 ;;		line 1620 in file "mcc_generated_files/usb/usb_device.c"
  6659 ;; Parameters:    Size  Location     Type
  6660 ;;		None
  6661 ;; Auto vars:     Size  Location     Type
  6662 ;;		None
  6663 ;; Return value:  Size  Location     Type
  6664 ;;                  1    wreg      void 
  6665 ;; Registers used:
  6666 ;;		wreg, fsr0l, fsr0h, fsr1l, fsr1h, status,2, status,0, pclath, cstack
  6667 ;; Tracked objects:
  6668 ;;		On entry : 0/0
  6669 ;;		On exit  : 0/0
  6670 ;;		Unchanged: 0/0
  6671 ;; Data sizes:     COMMON   BANK0   BANK1   BANK2   BANK3   BANK4   BANK5   BANK6   BANK7   BANK8   BANK9  BANK10  BANK1
      +1  BANK12
  6672 ;;      Params:         0       0       0       0       0       0       0       0       0       0       0       0       
      +0       0
  6673 ;;      Locals:         0       0       0       0       0       0       0       0       0       0       0       0       
      +0       0
  6674 ;;      Temps:          2       0       0       0       0       0       0       0       0       0       0       0       
      +0       0
  6675 ;;      Totals:         2       0       0       0       0       0       0       0       0       0       0       0       
      +0       0
  6676 ;;Total ram usage:        2 bytes
  6677 ;; Hardware stack levels used:    1
  6678 ;; Hardware stack levels required when called:    2
  6679 ;; This function calls:
  6680 ;;		_USBCtrlEPAllowDataStage
  6681 ;;		_USBCtrlEPAllowStatusStage
  6682 ;; This function is called by:
  6683 ;;		_USBCtrlTrfSetupHandler
  6684 ;; This function uses a non-reentrant model
  6685 ;;
  6686                           
  6687                           
  6688                           ;psect for function _USBCtrlEPServiceComplete
  6689  0EB8                     _USBCtrlEPServiceComplete:
  6690  0EB8                     i1l3894:	
  6691                           ;incstack = 0
  6692                           ; Regs used in _USBCtrlEPServiceComplete: [wreg-fsr1h+status,2+status,0+pclath+cstack]
  6693                           
  6694                           
  6695                           ;mcc_generated_files/usb/usb_device.c: 1626:     UCONbits.PKTDIS = 0;
  6696  0EB8  003D               	movlb	29	; select bank29
  6697  0EB9  120E               	bcf	14,4	;volatile
  6698                           
  6699                           ;mcc_generated_files/usb/usb_device.c: 1632:     if(inPipes[0].info.bits.busy == 0)
  6700  0EBA  0021               	movlb	1	; select bank1
  6701  0EBB  1BAF               	btfsc	(_inPipes^(0+128)+2),7	;volatile
  6702  0EBC  2EBE               	goto	u261_21
  6703  0EBD  2EBF               	goto	u261_20
  6704  0EBE                     u261_21:
  6705  0EBE  2F04               	goto	i1l221
  6706  0EBF                     u261_20:
  6707  0EBF                     i1l3896:
  6708                           
  6709                           ;mcc_generated_files/usb/usb_device.c: 1633:     {;mcc_generated_files/usb/usb_device.c:
      +                           1634:         if(outPipes[0].info.bits.busy == 1)
  6710  0EBF  1FA2               	btfss	(_outPipes^(0+128)+2),7	;volatile
  6711  0EC0  2EC2               	goto	u262_21
  6712  0EC1  2EC3               	goto	u262_20
  6713  0EC2                     u262_21:
  6714  0EC2  2ED4               	goto	i1l3908
  6715  0EC3                     u262_20:
  6716  0EC3                     i1l3898:
  6717                           
  6718                           ;mcc_generated_files/usb/usb_device.c: 1635:         {;mcc_generated_files/usb/usb_devic
      +                          e.c: 1636:             controlTransferState = 2;
  6719  0EC3  3002               	movlw	2
  6720  0EC4  00F5               	movwf	??_USBCtrlEPServiceComplete
  6721  0EC5  0875               	movf	??_USBCtrlEPServiceComplete,w
  6722  0EC6  00B8               	movwf	_controlTransferState^(0+128)	;volatile
  6723  0EC7                     i1l3900:
  6724                           
  6725                           ;mcc_generated_files/usb/usb_device.c: 1647:             if(USBDeferOUTDataStagePackets 
      +                          == 0)
  6726  0EC7  0023               	movlb	3	; select bank3
  6727  0EC8  0864               	movf	_USBDeferOUTDataStagePackets^(0+384),w	;volatile
  6728  0EC9  1D03               	btfss	3,2
  6729  0ECA  2ECC               	goto	u263_21
  6730  0ECB  2ECD               	goto	u263_20
  6731  0ECC                     u263_21:
  6732  0ECC  2ED0               	goto	i1l3904
  6733  0ECD                     u263_20:
  6734  0ECD                     i1l3902:
  6735                           
  6736                           ;mcc_generated_files/usb/usb_device.c: 1648:             {;mcc_generated_files/usb/usb_d
      +                          evice.c: 1649:                 USBCtrlEPAllowDataStage();
  6737  0ECD  3189  21E9  318E   	fcall	_USBCtrlEPAllowDataStage
  6738  0ED0                     i1l3904:
  6739                           
  6740                           ;mcc_generated_files/usb/usb_device.c: 1654:             USBStatusStageEnabledFlag2 = 0;
  6741  0ED0  0023               	movlb	3	; select bank3
  6742  0ED1  01E6               	clrf	_USBStatusStageEnabledFlag2^(0+384)	;volatile
  6743  0ED2                     i1l3906:
  6744                           
  6745                           ;mcc_generated_files/usb/usb_device.c: 1655:             USBStatusStageEnabledFlag1 = 0;
  6746  0ED2  01E7               	clrf	_USBStatusStageEnabledFlag1^(0+384)	;volatile
  6747                           
  6748                           ;mcc_generated_files/usb/usb_device.c: 1656:         }
  6749  0ED3  2F57               	goto	i1l231
  6750  0ED4                     i1l3908:
  6751                           
  6752                           ;mcc_generated_files/usb/usb_device.c: 1658:         {;mcc_generated_files/usb/usb_devic
      +                          e.c: 1663:             pBDTEntryEP0OutNext->CNT = 8;
  6753  0ED4  0832               	movf	_pBDTEntryEP0OutNext^(0+128),w
  6754  0ED5  3E01               	addlw	1
  6755  0ED6  00F5               	movwf	??_USBCtrlEPServiceComplete
  6756  0ED7  3000               	movlw	0
  6757  0ED8  3D33               	addwfc	(_pBDTEntryEP0OutNext+1)^(0+128),w
  6758  0ED9  00F6               	movwf	??_USBCtrlEPServiceComplete+1
  6759  0EDA  0875               	movf	??_USBCtrlEPServiceComplete,w
  6760  0EDB  0086               	movwf	6
  6761  0EDC  0876               	movf	??_USBCtrlEPServiceComplete+1,w
  6762  0EDD  0087               	movwf	7
  6763  0EDE  3008               	movlw	8
  6764  0EDF  0081               	movwf	1
  6765  0EE0                     i1l3910:
  6766                           
  6767                           ;mcc_generated_files/usb/usb_device.c: 1664:             pBDTEntryEP0OutNext->ADR = (((u
      +                          int16_t)(&SetupPkt)) & 0x7FFF);
  6768  0EE0  3050               	movlw	80
  6769  0EE1  00F5               	movwf	??_USBCtrlEPServiceComplete
  6770  0EE2  3000               	movlw	0
  6771  0EE3  00F6               	movwf	??_USBCtrlEPServiceComplete+1
  6772  0EE4  0832               	movf	_pBDTEntryEP0OutNext^(0+128),w
  6773  0EE5  0086               	movwf	6
  6774  0EE6  0833               	movf	(_pBDTEntryEP0OutNext+1)^(0+128),w
  6775  0EE7  0087               	movwf	7
  6776  0EE8  3142               	addfsr 1,2
  6777  0EE9  0875               	movf	??_USBCtrlEPServiceComplete,w
  6778  0EEA  3FC0               	movwi [0]fsr1
  6779  0EEB  0876               	movf	??_USBCtrlEPServiceComplete+1,w
  6780  0EEC  3FC1               	movwi [1]fsr1
  6781  0EED                     i1l3912:
  6782                           
  6783                           ;mcc_generated_files/usb/usb_device.c: 1665:             pBDTEntryEP0OutNext->STAT.Val =
      +                           0x00|(0x08 & 0x08)|0x04;
  6784  0EED  0832               	movf	_pBDTEntryEP0OutNext^(0+128),w
  6785  0EEE  0086               	movwf	6
  6786  0EEF  0833               	movf	(_pBDTEntryEP0OutNext+1)^(0+128),w
  6787  0EF0  0087               	movwf	7
  6788  0EF1  300C               	movlw	12
  6789  0EF2  0081               	movwf	1
  6790  0EF3                     i1l3914:
  6791                           
  6792                           ;mcc_generated_files/usb/usb_device.c: 1666:             pBDTEntryEP0OutNext->STAT.Val |
      +                          = 0x80;
  6793  0EF3  0832               	movf	_pBDTEntryEP0OutNext^(0+128),w
  6794  0EF4  0086               	movwf	6
  6795  0EF5  0833               	movf	(_pBDTEntryEP0OutNext+1)^(0+128),w
  6796  0EF6  0087               	movwf	7
  6797  0EF7  1781               	bsf	1,7
  6798  0EF8                     i1l3916:
  6799                           
  6800                           ;mcc_generated_files/usb/usb_device.c: 1667:             pBDTEntryIn[0]->STAT.Val = 0x04
      +                          ;
  6801  0EF8  0827               	movf	_pBDTEntryIn^(0+128),w
  6802  0EF9  0086               	movwf	6
  6803  0EFA  0828               	movf	(_pBDTEntryIn+1)^(0+128),w
  6804  0EFB  0087               	movwf	7
  6805  0EFC  3004               	movlw	4
  6806  0EFD  0081               	movwf	1
  6807  0EFE                     i1l3918:
  6808                           
  6809                           ;mcc_generated_files/usb/usb_device.c: 1668:             pBDTEntryIn[0]->STAT.Val |= 0x8
      +                          0;
  6810  0EFE  0827               	movf	_pBDTEntryIn^(0+128),w
  6811  0EFF  0086               	movwf	6
  6812  0F00  0828               	movf	(_pBDTEntryIn+1)^(0+128),w
  6813  0F01  0087               	movwf	7
  6814  0F02  1781               	bsf	1,7
  6815  0F03  2F57               	goto	i1l231
  6816  0F04                     i1l221:	
  6817                           ;mcc_generated_files/usb/usb_device.c: 1671:     else
  6818                           
  6819                           
  6820                           ;mcc_generated_files/usb/usb_device.c: 1672:     {;mcc_generated_files/usb/usb_device.c:
      +                           1673:   if(SetupPkt.DataDir == (0x80>>7))
  6821  0F04  0020               	movlb	0	; select bank0
  6822  0F05  1FD0               	btfss	80,7	;volatile
  6823  0F06  2F08               	goto	u264_21
  6824  0F07  2F09               	goto	u264_20
  6825  0F08                     u264_21:
  6826  0F08  2F24               	goto	i1l3934
  6827  0F09                     u264_20:
  6828  0F09                     i1l3920:
  6829                           
  6830                           ;mcc_generated_files/usb/usb_device.c: 1674:   {;mcc_generated_files/usb/usb_device.c: 1
      +                          675:    controlTransferState = 1;
  6831  0F09  3001               	movlw	1
  6832  0F0A  00F5               	movwf	??_USBCtrlEPServiceComplete
  6833  0F0B  0875               	movf	??_USBCtrlEPServiceComplete,w
  6834  0F0C  0021               	movlb	1	; select bank1
  6835  0F0D  00B8               	movwf	_controlTransferState^(0+128)	;volatile
  6836  0F0E                     i1l3922:
  6837                           
  6838                           ;mcc_generated_files/usb/usb_device.c: 1689:    if(USBDeferINDataStagePackets == 0)
  6839  0F0E  0023               	movlb	3	; select bank3
  6840  0F0F  0865               	movf	_USBDeferINDataStagePackets^(0+384),w	;volatile
  6841  0F10  1D03               	btfss	3,2
  6842  0F11  2F13               	goto	u265_21
  6843  0F12  2F14               	goto	u265_20
  6844  0F13                     u265_21:
  6845  0F13  2F17               	goto	i1l3926
  6846  0F14                     u265_20:
  6847  0F14                     i1l3924:
  6848                           
  6849                           ;mcc_generated_files/usb/usb_device.c: 1690:             {;mcc_generated_files/usb/usb_d
      +                          evice.c: 1691:                 USBCtrlEPAllowDataStage();
  6850  0F14  3189  21E9  318E   	fcall	_USBCtrlEPAllowDataStage
  6851  0F17                     i1l3926:
  6852                           
  6853                           ;mcc_generated_files/usb/usb_device.c: 1714:             USBStatusStageEnabledFlag2 = 0;
  6854  0F17  0023               	movlb	3	; select bank3
  6855  0F18  01E6               	clrf	_USBStatusStageEnabledFlag2^(0+384)	;volatile
  6856  0F19                     i1l3928:
  6857                           
  6858                           ;mcc_generated_files/usb/usb_device.c: 1715:             USBStatusStageEnabledFlag1 = 0;
  6859  0F19  01E7               	clrf	_USBStatusStageEnabledFlag1^(0+384)	;volatile
  6860  0F1A                     i1l3930:
  6861                           
  6862                           ;mcc_generated_files/usb/usb_device.c: 1716:             if(USBDeferStatusStagePacket ==
      +                           0)
  6863  0F1A  0021               	movlb	1	; select bank1
  6864  0F1B  0835               	movf	_USBDeferStatusStagePacket^(0+128),w	;volatile
  6865  0F1C  1D03               	btfss	3,2
  6866  0F1D  2F1F               	goto	u266_21
  6867  0F1E  2F20               	goto	u266_20
  6868  0F1F                     u266_21:
  6869  0F1F  2F57               	goto	i1l231
  6870  0F20                     u266_20:
  6871  0F20                     i1l3932:
  6872                           
  6873                           ;mcc_generated_files/usb/usb_device.c: 1717:             {;mcc_generated_files/usb/usb_d
      +                          evice.c: 1718:                 USBCtrlEPAllowStatusStage();
  6874  0F20  318B  2397  318E   	fcall	_USBCtrlEPAllowStatusStage
  6875  0F23  2F57               	goto	i1l231
  6876  0F24                     i1l3934:
  6877                           
  6878                           ;mcc_generated_files/usb/usb_device.c: 1722:   {;mcc_generated_files/usb/usb_device.c: 1
      +                          733:    controlTransferState = 2;
  6879  0F24  3002               	movlw	2
  6880  0F25  00F5               	movwf	??_USBCtrlEPServiceComplete
  6881  0F26  0875               	movf	??_USBCtrlEPServiceComplete,w
  6882  0F27  0021               	movlb	1	; select bank1
  6883  0F28  00B8               	movwf	_controlTransferState^(0+128)	;volatile
  6884  0F29                     i1l3936:
  6885                           
  6886                           ;mcc_generated_files/usb/usb_device.c: 1736:    pBDTEntryEP0OutNext->CNT = 8;
  6887  0F29  0832               	movf	_pBDTEntryEP0OutNext^(0+128),w
  6888  0F2A  3E01               	addlw	1
  6889  0F2B  00F5               	movwf	??_USBCtrlEPServiceComplete
  6890  0F2C  3000               	movlw	0
  6891  0F2D  3D33               	addwfc	(_pBDTEntryEP0OutNext+1)^(0+128),w
  6892  0F2E  00F6               	movwf	??_USBCtrlEPServiceComplete+1
  6893  0F2F  0875               	movf	??_USBCtrlEPServiceComplete,w
  6894  0F30  0086               	movwf	6
  6895  0F31  0876               	movf	??_USBCtrlEPServiceComplete+1,w
  6896  0F32  0087               	movwf	7
  6897  0F33  3008               	movlw	8
  6898  0F34  0081               	movwf	1
  6899  0F35                     i1l3938:
  6900                           
  6901                           ;mcc_generated_files/usb/usb_device.c: 1737:    pBDTEntryEP0OutNext->ADR = (((uint16_t)(
      +                          &SetupPkt)) & 0x7FFF);
  6902  0F35  3050               	movlw	80
  6903  0F36  00F5               	movwf	??_USBCtrlEPServiceComplete
  6904  0F37  3000               	movlw	0
  6905  0F38  00F6               	movwf	??_USBCtrlEPServiceComplete+1
  6906  0F39  0832               	movf	_pBDTEntryEP0OutNext^(0+128),w
  6907  0F3A  0086               	movwf	6
  6908  0F3B  0833               	movf	(_pBDTEntryEP0OutNext+1)^(0+128),w
  6909  0F3C  0087               	movwf	7
  6910  0F3D  3142               	addfsr 1,2
  6911  0F3E  0875               	movf	??_USBCtrlEPServiceComplete,w
  6912  0F3F  3FC0               	movwi [0]fsr1
  6913  0F40  0876               	movf	??_USBCtrlEPServiceComplete+1,w
  6914  0F41  3FC1               	movwi [1]fsr1
  6915  0F42                     i1l3940:
  6916                           
  6917                           ;mcc_generated_files/usb/usb_device.c: 1738:    pBDTEntryEP0OutNext->STAT.Val = 0x04;
  6918  0F42  0832               	movf	_pBDTEntryEP0OutNext^(0+128),w
  6919  0F43  0086               	movwf	6
  6920  0F44  0833               	movf	(_pBDTEntryEP0OutNext+1)^(0+128),w
  6921  0F45  0087               	movwf	7
  6922  0F46  3004               	movlw	4
  6923  0F47  0081               	movwf	1
  6924  0F48                     i1l3942:
  6925                           
  6926                           ;mcc_generated_files/usb/usb_device.c: 1739:             pBDTEntryEP0OutNext->STAT.Val |
      +                          = 0x80;
  6927  0F48  0832               	movf	_pBDTEntryEP0OutNext^(0+128),w
  6928  0F49  0086               	movwf	6
  6929  0F4A  0833               	movf	(_pBDTEntryEP0OutNext+1)^(0+128),w
  6930  0F4B  0087               	movwf	7
  6931  0F4C  1781               	bsf	1,7
  6932  0F4D                     i1l3944:
  6933                           
  6934                           ;mcc_generated_files/usb/usb_device.c: 1742:             USBStatusStageEnabledFlag2 = 0;
  6935  0F4D  0023               	movlb	3	; select bank3
  6936  0F4E  01E6               	clrf	_USBStatusStageEnabledFlag2^(0+384)	;volatile
  6937  0F4F                     i1l3946:
  6938                           
  6939                           ;mcc_generated_files/usb/usb_device.c: 1743:             USBStatusStageEnabledFlag1 = 0;
  6940  0F4F  01E7               	clrf	_USBStatusStageEnabledFlag1^(0+384)	;volatile
  6941                           
  6942                           ;mcc_generated_files/usb/usb_device.c: 1744:    if(USBDeferStatusStagePacket == 0)
  6943  0F50  0021               	movlb	1	; select bank1
  6944  0F51  0835               	movf	_USBDeferStatusStagePacket^(0+128),w	;volatile
  6945  0F52  1D03               	btfss	3,2
  6946  0F53  2F55               	goto	u267_21
  6947  0F54  2F56               	goto	u267_20
  6948  0F55                     u267_21:
  6949  0F55  2F57               	goto	i1l231
  6950  0F56                     u267_20:
  6951  0F56  2F20               	goto	i1l3932
  6952  0F57                     i1l231:
  6953  0F57  0008               	return
  6954  0F58                     __end_of_USBCtrlEPServiceComplete:
  6955                           
  6956                           	psect	text23
  6957  09E9                     __ptext23:	
  6958 ;; *************** function _USBCtrlEPAllowDataStage *****************
  6959 ;; Defined at:
  6960 ;;		line 1492 in file "mcc_generated_files/usb/usb_device.c"
  6961 ;; Parameters:    Size  Location     Type
  6962 ;;		None
  6963 ;; Auto vars:     Size  Location     Type
  6964 ;;		None
  6965 ;; Return value:  Size  Location     Type
  6966 ;;                  1    wreg      void 
  6967 ;; Registers used:
  6968 ;;		wreg, fsr0l, fsr0h, fsr1l, fsr1h, status,2, status,0, pclath, cstack
  6969 ;; Tracked objects:
  6970 ;;		On entry : 0/0
  6971 ;;		On exit  : 0/0
  6972 ;;		Unchanged: 0/0
  6973 ;; Data sizes:     COMMON   BANK0   BANK1   BANK2   BANK3   BANK4   BANK5   BANK6   BANK7   BANK8   BANK9  BANK10  BANK1
      +1  BANK12
  6974 ;;      Params:         0       0       0       0       0       0       0       0       0       0       0       0       
      +0       0
  6975 ;;      Locals:         0       0       0       0       0       0       0       0       0       0       0       0       
      +0       0
  6976 ;;      Temps:          2       0       0       0       0       0       0       0       0       0       0       0       
      +0       0
  6977 ;;      Totals:         2       0       0       0       0       0       0       0       0       0       0       0       
      +0       0
  6978 ;;Total ram usage:        2 bytes
  6979 ;; Hardware stack levels used:    1
  6980 ;; Hardware stack levels required when called:    1
  6981 ;; This function calls:
  6982 ;;		_USBCtrlTrfTxService
  6983 ;; This function is called by:
  6984 ;;		_USBCtrlEPServiceComplete
  6985 ;; This function uses a non-reentrant model
  6986 ;;
  6987                           
  6988                           
  6989                           ;psect for function _USBCtrlEPAllowDataStage
  6990  09E9                     _USBCtrlEPAllowDataStage:
  6991  09E9                     i1l3666:	
  6992                           ;incstack = 0
  6993                           ; Regs used in _USBCtrlEPAllowDataStage: [wreg-fsr1h+status,2+status,0+pclath+cstack]
  6994                           
  6995                           
  6996                           ;mcc_generated_files/usb/usb_device.c: 1494:     USBDeferINDataStagePackets = 0;
  6997  09E9  0023               	movlb	3	; select bank3
  6998  09EA  01E5               	clrf	_USBDeferINDataStagePackets^(0+384)	;volatile
  6999                           
  7000                           ;mcc_generated_files/usb/usb_device.c: 1495:     USBDeferOUTDataStagePackets = 0;
  7001  09EB  01E4               	clrf	_USBDeferOUTDataStagePackets^(0+384)	;volatile
  7002  09EC                     i1l3668:
  7003                           
  7004                           ;mcc_generated_files/usb/usb_device.c: 1497:     if(controlTransferState == 2)
  7005  09EC  3002               	movlw	2
  7006  09ED  0021               	movlb	1	; select bank1
  7007  09EE  0638               	xorwf	_controlTransferState^(0+128),w	;volatile
  7008  09EF  1D03               	btfss	3,2
  7009  09F0  29F2               	goto	u230_21
  7010  09F1  29F3               	goto	u230_20
  7011  09F2                     u230_21:
  7012  09F2  2A18               	goto	i1l3678
  7013  09F3                     u230_20:
  7014  09F3                     i1l3670:
  7015                           
  7016                           ;mcc_generated_files/usb/usb_device.c: 1498:     {;mcc_generated_files/usb/usb_device.c:
      +                           1500:         pBDTEntryEP0OutNext->CNT = 8;
  7017  09F3  0832               	movf	_pBDTEntryEP0OutNext^(0+128),w
  7018  09F4  3E01               	addlw	1
  7019  09F5  00F3               	movwf	??_USBCtrlEPAllowDataStage
  7020  09F6  3000               	movlw	0
  7021  09F7  3D33               	addwfc	(_pBDTEntryEP0OutNext+1)^(0+128),w
  7022  09F8  00F4               	movwf	??_USBCtrlEPAllowDataStage+1
  7023  09F9  0873               	movf	??_USBCtrlEPAllowDataStage,w
  7024  09FA  0086               	movwf	6
  7025  09FB  0874               	movf	??_USBCtrlEPAllowDataStage+1,w
  7026  09FC  0087               	movwf	7
  7027  09FD  3008               	movlw	8
  7028  09FE  0081               	movwf	1
  7029  09FF                     i1l3672:
  7030                           
  7031                           ;mcc_generated_files/usb/usb_device.c: 1501:         pBDTEntryEP0OutNext->ADR = (((uint1
      +                          6_t)(&CtrlTrfData)) & 0x7FFF);
  7032  09FF  3058               	movlw	88
  7033  0A00  00F3               	movwf	??_USBCtrlEPAllowDataStage
  7034  0A01  3000               	movlw	0
  7035  0A02  00F4               	movwf	??_USBCtrlEPAllowDataStage+1
  7036  0A03  0832               	movf	_pBDTEntryEP0OutNext^(0+128),w
  7037  0A04  0086               	movwf	6
  7038  0A05  0833               	movf	(_pBDTEntryEP0OutNext+1)^(0+128),w
  7039  0A06  0087               	movwf	7
  7040  0A07  3142               	addfsr 1,2
  7041  0A08  0873               	movf	??_USBCtrlEPAllowDataStage,w
  7042  0A09  3FC0               	movwi [0]fsr1
  7043  0A0A  0874               	movf	??_USBCtrlEPAllowDataStage+1,w
  7044  0A0B  3FC1               	movwi [1]fsr1
  7045  0A0C                     i1l3674:
  7046                           
  7047                           ;mcc_generated_files/usb/usb_device.c: 1502:         pBDTEntryEP0OutNext->STAT.Val = 0x4
      +                          0|(0x08 & 0x08);
  7048  0A0C  0832               	movf	_pBDTEntryEP0OutNext^(0+128),w
  7049  0A0D  0086               	movwf	6
  7050  0A0E  0833               	movf	(_pBDTEntryEP0OutNext+1)^(0+128),w
  7051  0A0F  0087               	movwf	7
  7052  0A10  3048               	movlw	72
  7053  0A11  0081               	movwf	1
  7054  0A12                     i1l3676:
  7055                           
  7056                           ;mcc_generated_files/usb/usb_device.c: 1503:         pBDTEntryEP0OutNext->STAT.Val |= 0x
      +                          80;
  7057  0A12  0832               	movf	_pBDTEntryEP0OutNext^(0+128),w
  7058  0A13  0086               	movwf	6
  7059  0A14  0833               	movf	(_pBDTEntryEP0OutNext+1)^(0+128),w
  7060  0A15  0087               	movwf	7
  7061  0A16  1781               	bsf	1,7
  7062                           
  7063                           ;mcc_generated_files/usb/usb_device.c: 1504:     }
  7064  0A17  2A48               	goto	i1l213
  7065  0A18                     i1l3678:
  7066                           
  7067                           ;mcc_generated_files/usb/usb_device.c: 1506:     {;mcc_generated_files/usb/usb_device.c:
      +                           1509:   if(SetupPkt.wLength < inPipes[0].wCount.Val)
  7068  0A18  0831               	movf	((_inPipes+1)^(0+128)+3),w	;volatile
  7069  0A19  0020               	movlb	0	; select bank0
  7070  0A1A  0257               	subwf	87,w	;volatile
  7071  0A1B  1D03               	skipz
  7072  0A1C  2A21               	goto	u231_25
  7073  0A1D  0021               	movlb	1	; select bank1
  7074  0A1E  0830               	movf	(_inPipes^(0+128)+3),w	;volatile
  7075  0A1F  0020               	movlb	0	; select bank0
  7076  0A20  0256               	subwf	86,w	;volatile
  7077  0A21                     u231_25:
  7078  0A21  1803               	skipnc
  7079  0A22  2A24               	goto	u231_21
  7080  0A23  2A25               	goto	u231_20
  7081  0A24                     u231_21:
  7082  0A24  2A2C               	goto	i1l3682
  7083  0A25                     u231_20:
  7084  0A25                     i1l3680:
  7085                           
  7086                           ;mcc_generated_files/usb/usb_device.c: 1510:   {;mcc_generated_files/usb/usb_device.c: 1
      +                          511:    inPipes[0].wCount.Val = SetupPkt.wLength;
  7087  0A25  0857               	movf	87,w	;volatile
  7088  0A26  0021               	movlb	1	; select bank1
  7089  0A27  00B1               	movwf	((_inPipes+1)^(0+128)+3)	;volatile
  7090  0A28  0020               	movlb	0	; select bank0
  7091  0A29  0856               	movf	86,w	;volatile
  7092  0A2A  0021               	movlb	1	; select bank1
  7093  0A2B  00B0               	movwf	(_inPipes^(0+128)+3)	;volatile
  7094  0A2C                     i1l3682:
  7095                           
  7096                           ;mcc_generated_files/usb/usb_device.c: 1513:   USBCtrlTrfTxService();
  7097  0A2C  318C  2410  3189   	fcall	_USBCtrlTrfTxService
  7098  0A2F                     i1l3684:
  7099                           
  7100                           ;mcc_generated_files/usb/usb_device.c: 1518:   pBDTEntryIn[0]->ADR = (((uint16_t)(&CtrlT
      +                          rfData)) & 0x7FFF);
  7101  0A2F  3058               	movlw	88
  7102  0A30  00F3               	movwf	??_USBCtrlEPAllowDataStage
  7103  0A31  3000               	movlw	0
  7104  0A32  00F4               	movwf	??_USBCtrlEPAllowDataStage+1
  7105  0A33  0021               	movlb	1	; select bank1
  7106  0A34  0827               	movf	_pBDTEntryIn^(0+128),w
  7107  0A35  0086               	movwf	6
  7108  0A36  0828               	movf	(_pBDTEntryIn+1)^(0+128),w
  7109  0A37  0087               	movwf	7
  7110  0A38  3142               	addfsr 1,2
  7111  0A39  0873               	movf	??_USBCtrlEPAllowDataStage,w
  7112  0A3A  3FC0               	movwi [0]fsr1
  7113  0A3B  0874               	movf	??_USBCtrlEPAllowDataStage+1,w
  7114  0A3C  3FC1               	movwi [1]fsr1
  7115  0A3D                     i1l3686:
  7116                           
  7117                           ;mcc_generated_files/usb/usb_device.c: 1519:   pBDTEntryIn[0]->STAT.Val = 0x40|(0x08 & 0
      +                          x08);
  7118  0A3D  0827               	movf	_pBDTEntryIn^(0+128),w
  7119  0A3E  0086               	movwf	6
  7120  0A3F  0828               	movf	(_pBDTEntryIn+1)^(0+128),w
  7121  0A40  0087               	movwf	7
  7122  0A41  3048               	movlw	72
  7123  0A42  0081               	movwf	1
  7124  0A43                     i1l3688:
  7125                           
  7126                           ;mcc_generated_files/usb/usb_device.c: 1520:         pBDTEntryIn[0]->STAT.Val |= 0x80;
  7127  0A43  0827               	movf	_pBDTEntryIn^(0+128),w
  7128  0A44  0086               	movwf	6
  7129  0A45  0828               	movf	(_pBDTEntryIn+1)^(0+128),w
  7130  0A46  0087               	movwf	7
  7131  0A47  1781               	bsf	1,7
  7132  0A48                     i1l213:
  7133  0A48  0008               	return
  7134  0A49                     __end_of_USBCtrlEPAllowDataStage:
  7135                           
  7136                           	psect	text24
  7137  0D18                     __ptext24:	
  7138 ;; *************** function _USBCheckStdRequest *****************
  7139 ;; Defined at:
  7140 ;;		line 2690 in file "mcc_generated_files/usb/usb_device.c"
  7141 ;; Parameters:    Size  Location     Type
  7142 ;;		None
  7143 ;; Auto vars:     Size  Location     Type
  7144 ;;		None
  7145 ;; Return value:  Size  Location     Type
  7146 ;;                  1    wreg      void 
  7147 ;; Registers used:
  7148 ;;		wreg, fsr0l, fsr0h, fsr1l, fsr1h, status,2, status,0, pclath, cstack
  7149 ;; Tracked objects:
  7150 ;;		On entry : 0/0
  7151 ;;		On exit  : 0/0
  7152 ;;		Unchanged: 0/0
  7153 ;; Data sizes:     COMMON   BANK0   BANK1   BANK2   BANK3   BANK4   BANK5   BANK6   BANK7   BANK8   BANK9  BANK10  BANK1
      +1  BANK12
  7154 ;;      Params:         0       0       0       0       0       0       0       0       0       0       0       0       
      +0       0
  7155 ;;      Locals:         0       0       0       0       0       0       0       0       0       0       0       0       
      +0       0
  7156 ;;      Temps:          0       2       0       0       0       0       0       0       0       0       0       0       
      +0       0
  7157 ;;      Totals:         0       2       0       0       0       0       0       0       0       0       0       0       
      +0       0
  7158 ;;Total ram usage:        2 bytes
  7159 ;; Hardware stack levels used:    1
  7160 ;; Hardware stack levels required when called:    5
  7161 ;; This function calls:
  7162 ;;		_USBStdFeatureReqHandler
  7163 ;;		_USBStdGetDscHandler
  7164 ;;		_USBStdGetStatusHandler
  7165 ;;		_USBStdSetCfgHandler
  7166 ;;		_USER_USB_CALLBACK_EVENT_HANDLER
  7167 ;; This function is called by:
  7168 ;;		_USBCtrlTrfSetupHandler
  7169 ;; This function uses a non-reentrant model
  7170 ;;
  7171                           
  7172                           
  7173                           ;psect for function _USBCheckStdRequest
  7174  0D18                     _USBCheckStdRequest:
  7175  0D18                     i1l5142:	
  7176                           ;incstack = 0
  7177                           ; Regs used in _USBCheckStdRequest: [wreg-fsr1h+status,2+status,0+pclath+cstack]
  7178                           
  7179                           
  7180                           ;mcc_generated_files/usb/usb_device.c: 2692:     if(SetupPkt.RequestType != (0x00>>5)) r
      +                          eturn;
  7181  0D18  0020               	movlb	0	; select bank0
  7182  0D19  0E50               	swapf	80,w	;volatile
  7183  0D1A  0C89               	rrf	9,f
  7184  0D1B  3903               	andlw	3
  7185  0D1C  3A00               	xorlw	0
  7186  0D1D  1903               	skipnz
  7187  0D1E  2D20               	goto	u397_21
  7188  0D1F  2D21               	goto	u397_20
  7189  0D20                     u397_21:
  7190  0D20  2D74               	goto	i1l5178
  7191  0D21                     u397_20:
  7192  0D21  2D9F               	goto	i1l346
  7193  0D22                     i1l348:	
  7194                           ;mcc_generated_files/usb/usb_device.c: 2695:     {;mcc_generated_files/usb/usb_device.c:
      +                           2696:         case 5:
  7195                           
  7196                           
  7197                           ;mcc_generated_files/usb/usb_device.c: 2697:             inPipes[0].info.bits.busy = 1;
  7198  0D22  0021               	movlb	1	; select bank1
  7199  0D23  17AF               	bsf	(_inPipes^(0+128)+2),7	;volatile
  7200  0D24                     i1l5146:
  7201                           
  7202                           ;mcc_generated_files/usb/usb_device.c: 2698:             USBDeviceState = ADR_PENDING_ST
      +                          ATE;
  7203  0D24  3008               	movlw	8
  7204  0D25  0020               	movlb	0	; select bank0
  7205  0D26  00ED               	movwf	??_USBCheckStdRequest
  7206  0D27  086D               	movf	??_USBCheckStdRequest,w
  7207  0D28  0021               	movlb	1	; select bank1
  7208  0D29  00BB               	movwf	_USBDeviceState^(0+128)	;volatile
  7209                           
  7210                           ;mcc_generated_files/usb/usb_device.c: 2700:             break;
  7211  0D2A  2D9F               	goto	i1l346
  7212  0D2B                     i1l5148:
  7213                           
  7214                           ;mcc_generated_files/usb/usb_device.c: 2702:             USBStdGetDscHandler();
  7215  0D2B  318D  25A0  318D   	fcall	_USBStdGetDscHandler
  7216                           
  7217                           ;mcc_generated_files/usb/usb_device.c: 2703:             break;
  7218  0D2E  2D9F               	goto	i1l346
  7219  0D2F                     i1l5150:
  7220                           
  7221                           ;mcc_generated_files/usb/usb_device.c: 2705:             USBStdSetCfgHandler();
  7222  0D2F  318E  262B  318D   	fcall	_USBStdSetCfgHandler
  7223                           
  7224                           ;mcc_generated_files/usb/usb_device.c: 2706:             break;
  7225  0D32  2D9F               	goto	i1l346
  7226  0D33                     i1l5152:
  7227                           
  7228                           ;mcc_generated_files/usb/usb_device.c: 2708:             inPipes[0].pSrc.bRam = (uint8_t
      +                          *)&USBActiveConfiguration;
  7229  0D33  30BD               	movlw	low _USBActiveConfiguration
  7230  0D34  0021               	movlb	1	; select bank1
  7231  0D35  00AD               	movwf	_inPipes^(0+128)	;volatile
  7232  0D36  3000               	movlw	high _USBActiveConfiguration
  7233  0D37  00AE               	movwf	(_inPipes+1)^(0+128)	;volatile
  7234  0D38                     i1l5154:
  7235                           
  7236                           ;mcc_generated_files/usb/usb_device.c: 2709:             inPipes[0].info.bits.ctrl_trf_m
      +                          em = 0x01;
  7237  0D38  142F               	bsf	(_inPipes^(0+128)+2),0	;volatile
  7238  0D39                     i1l5156:
  7239                           
  7240                           ;mcc_generated_files/usb/usb_device.c: 2710:             inPipes[0].wCount.v[0] = 1;
  7241  0D39  3001               	movlw	1
  7242  0D3A  0020               	movlb	0	; select bank0
  7243  0D3B  00ED               	movwf	??_USBCheckStdRequest
  7244  0D3C  086D               	movf	??_USBCheckStdRequest,w
  7245  0D3D  0021               	movlb	1	; select bank1
  7246  0D3E  00B0               	movwf	(_inPipes^(0+128)+3)	;volatile
  7247  0D3F                     i1l5158:
  7248                           
  7249                           ;mcc_generated_files/usb/usb_device.c: 2711:             inPipes[0].info.bits.busy = 1;
  7250  0D3F  17AF               	bsf	(_inPipes^(0+128)+2),7	;volatile
  7251                           
  7252                           ;mcc_generated_files/usb/usb_device.c: 2712:             break;
  7253  0D40  2D9F               	goto	i1l346
  7254  0D41                     i1l5160:
  7255                           
  7256                           ;mcc_generated_files/usb/usb_device.c: 2714:             USBStdGetStatusHandler();
  7257  0D41  318A  2249  318D   	fcall	_USBStdGetStatusHandler
  7258                           
  7259                           ;mcc_generated_files/usb/usb_device.c: 2715:             break;
  7260  0D44  2D9F               	goto	i1l346
  7261  0D45                     i1l5162:
  7262                           
  7263                           ;mcc_generated_files/usb/usb_device.c: 2718:             USBStdFeatureReqHandler();
  7264  0D45  3182  221F  318D   	fcall	_USBStdFeatureReqHandler
  7265                           
  7266                           ;mcc_generated_files/usb/usb_device.c: 2719:             break;
  7267  0D48  2D9F               	goto	i1l346
  7268  0D49                     i1l5164:
  7269                           
  7270                           ;mcc_generated_files/usb/usb_device.c: 2721:             inPipes[0].pSrc.bRam = (uint8_t
      +                          *)&USBAlternateInterface[SetupPkt.bIntfID];
  7271  0D49  0854               	movf	84,w	;volatile
  7272  0D4A  3EEC               	addlw	(low (_USBAlternateInterface| (0+256)))& (0+255)
  7273  0D4B  0021               	movlb	1	; select bank1
  7274  0D4C  00AD               	movwf	_inPipes^(0+128)	;volatile
  7275  0D4D  3001               	movlw	1
  7276  0D4E  00AE               	movwf	(_inPipes+1)^(0+128)	;volatile
  7277  0D4F                     i1l5166:
  7278                           
  7279                           ;mcc_generated_files/usb/usb_device.c: 2722:             inPipes[0].info.bits.ctrl_trf_m
      +                          em = 0x01;
  7280  0D4F  142F               	bsf	(_inPipes^(0+128)+2),0	;volatile
  7281  0D50                     i1l5168:
  7282                           
  7283                           ;mcc_generated_files/usb/usb_device.c: 2723:             inPipes[0].wCount.v[0] = 1;
  7284  0D50  3001               	movlw	1
  7285  0D51  0020               	movlb	0	; select bank0
  7286  0D52  00ED               	movwf	??_USBCheckStdRequest
  7287  0D53  086D               	movf	??_USBCheckStdRequest,w
  7288  0D54  0021               	movlb	1	; select bank1
  7289  0D55  00B0               	movwf	(_inPipes^(0+128)+3)	;volatile
  7290  0D56                     i1l5170:
  7291                           
  7292                           ;mcc_generated_files/usb/usb_device.c: 2724:             inPipes[0].info.bits.busy = 1;
  7293  0D56  17AF               	bsf	(_inPipes^(0+128)+2),7	;volatile
  7294                           
  7295                           ;mcc_generated_files/usb/usb_device.c: 2725:             break;
  7296  0D57  2D9F               	goto	i1l346
  7297  0D58                     i1l357:	
  7298                           ;mcc_generated_files/usb/usb_device.c: 2726:         case 11:
  7299                           
  7300                           
  7301                           ;mcc_generated_files/usb/usb_device.c: 2727:             inPipes[0].info.bits.busy = 1;
  7302  0D58  0021               	movlb	1	; select bank1
  7303  0D59  17AF               	bsf	(_inPipes^(0+128)+2),7	;volatile
  7304  0D5A                     i1l5172:
  7305                           
  7306                           ;mcc_generated_files/usb/usb_device.c: 2728:             USBAlternateInterface[SetupPkt.
      +                          bIntfID] = SetupPkt.bAltID;
  7307  0D5A  0020               	movlb	0	; select bank0
  7308  0D5B  0852               	movf	82,w	;volatile
  7309  0D5C  00ED               	movwf	??_USBCheckStdRequest
  7310  0D5D  0854               	movf	84,w	;volatile
  7311  0D5E  3EEC               	addlw	(low (_USBAlternateInterface| (0+256)))& (0+255)
  7312  0D5F  0086               	movwf	6
  7313  0D60  3001               	movlw	1	; select bank3/4
  7314  0D61  0087               	movwf	7
  7315  0D62  086D               	movf	??_USBCheckStdRequest,w
  7316  0D63  0081               	movwf	1
  7317                           
  7318                           ;mcc_generated_files/usb/usb_device.c: 2729:             break;
  7319  0D64  2D9F               	goto	i1l346
  7320  0D65                     i1l5174:
  7321                           
  7322                           ;mcc_generated_files/usb/usb_device.c: 2731:             USER_USB_CALLBACK_EVENT_HANDLER
      +                          ((USB_EVENT)EVENT_SET_DESCRIPTOR,0,0);
  7323  0D65  3002               	movlw	2
  7324  0D66  00E0               	movwf	USER_USB_CALLBACK_EVENT_HANDLER@event
  7325  0D67  3000               	movlw	0
  7326  0D68  00E1               	movwf	USER_USB_CALLBACK_EVENT_HANDLER@event+1
  7327  0D69  3000               	movlw	0
  7328  0D6A  00E2               	movwf	USER_USB_CALLBACK_EVENT_HANDLER@pdata
  7329  0D6B  3000               	movlw	0
  7330  0D6C  00E3               	movwf	USER_USB_CALLBACK_EVENT_HANDLER@pdata+1
  7331  0D6D  3000               	movlw	0
  7332  0D6E  00E4               	movwf	USER_USB_CALLBACK_EVENT_HANDLER@size
  7333  0D6F  00E5               	movwf	USER_USB_CALLBACK_EVENT_HANDLER@size+1
  7334  0D70  3188  200C  318D   	fcall	_USER_USB_CALLBACK_EVENT_HANDLER
  7335                           
  7336                           ;mcc_generated_files/usb/usb_device.c: 2732:             break;
  7337  0D73  2D9F               	goto	i1l346
  7338  0D74                     i1l5178:
  7339  0D74  0851               	movf	81,w	;volatile
  7340  0D75  00ED               	movwf	??_USBCheckStdRequest
  7341  0D76  01EE               	clrf	??_USBCheckStdRequest+1
  7342                           
  7343                           ; Switch on 2 bytes has been partitioned into a top level switch of size 1, and 1 sub-sw
      +                          itches
  7344                           ; Switch size 1, requested type "simple"
  7345                           ; Number of cases is 1, Range of values is 0 to 0
  7346                           ; switch strategies available:
  7347                           ; Name         Instructions Cycles
  7348                           ; simple_byte            4     3 (average)
  7349                           ; direct_byte            8     6 (fixed)
  7350                           ; jumptable            260     6 (fixed)
  7351                           ;	Chosen strategy is simple_byte
  7352  0D77  086E               	movf	??_USBCheckStdRequest+1,w
  7353  0D78  3A00               	xorlw	0	; case 0
  7354  0D79  1903               	skipnz
  7355  0D7A  2D7C               	goto	i1l5542
  7356  0D7B  2D9F               	goto	i1l346
  7357  0D7C                     i1l5542:
  7358                           
  7359                           ; Switch size 1, requested type "simple"
  7360                           ; Number of cases is 11, Range of values is 0 to 12
  7361                           ; switch strategies available:
  7362                           ; Name         Instructions Cycles
  7363                           ; direct_byte           32     6 (fixed)
  7364                           ; simple_byte           34    18 (average)
  7365                           ; jumptable            260     6 (fixed)
  7366                           ;	Chosen strategy is simple_byte
  7367  0D7C  086D               	movf	??_USBCheckStdRequest,w
  7368  0D7D  3A00               	xorlw	0	; case 0
  7369  0D7E  1903               	skipnz
  7370  0D7F  2D41               	goto	i1l5160
  7371  0D80  3A01               	xorlw	1	; case 1
  7372  0D81  1903               	skipnz
  7373  0D82  2D45               	goto	i1l5162
  7374  0D83  3A02               	xorlw	2	; case 3
  7375  0D84  1903               	skipnz
  7376  0D85  2D45               	goto	i1l5162
  7377  0D86  3A06               	xorlw	6	; case 5
  7378  0D87  1903               	skipnz
  7379  0D88  2D22               	goto	i1l348
  7380  0D89  3A03               	xorlw	3	; case 6
  7381  0D8A  1903               	skipnz
  7382  0D8B  2D2B               	goto	i1l5148
  7383  0D8C  3A01               	xorlw	1	; case 7
  7384  0D8D  1903               	skipnz
  7385  0D8E  2D65               	goto	i1l5174
  7386  0D8F  3A0F               	xorlw	15	; case 8
  7387  0D90  1903               	skipnz
  7388  0D91  2D33               	goto	i1l5152
  7389  0D92  3A01               	xorlw	1	; case 9
  7390  0D93  1903               	skipnz
  7391  0D94  2D2F               	goto	i1l5150
  7392  0D95  3A03               	xorlw	3	; case 10
  7393  0D96  1903               	skipnz
  7394  0D97  2D49               	goto	i1l5164
  7395  0D98  3A01               	xorlw	1	; case 11
  7396  0D99  1903               	skipnz
  7397  0D9A  2D58               	goto	i1l357
  7398  0D9B  3A07               	xorlw	7	; case 12
  7399  0D9C  1903               	skipnz
  7400  0D9D  2D9F               	goto	i1l346
  7401  0D9E  2D9F               	goto	i1l346
  7402  0D9F                     i1l346:
  7403  0D9F  0008               	return
  7404  0DA0                     __end_of_USBCheckStdRequest:
  7405                           
  7406                           	psect	text25
  7407  0E2B                     __ptext25:	
  7408 ;; *************** function _USBStdSetCfgHandler *****************
  7409 ;; Defined at:
  7410 ;;		line 1972 in file "mcc_generated_files/usb/usb_device.c"
  7411 ;; Parameters:    Size  Location     Type
  7412 ;;		None
  7413 ;; Auto vars:     Size  Location     Type
  7414 ;;  p               2    7[BANK0 ] PTR unsigned char 
  7415 ;;		 -> UEP1(1), 
  7416 ;;  i               1    9[BANK0 ] unsigned char 
  7417 ;;  i               1   10[BANK0 ] unsigned char 
  7418 ;; Return value:  Size  Location     Type
  7419 ;;                  1    wreg      void 
  7420 ;; Registers used:
  7421 ;;		wreg, fsr0l, fsr0h, fsr1l, fsr1h, status,2, status,0, pclath, cstack
  7422 ;; Tracked objects:
  7423 ;;		On entry : 0/0
  7424 ;;		On exit  : 0/0
  7425 ;;		Unchanged: 0/0
  7426 ;; Data sizes:     COMMON   BANK0   BANK1   BANK2   BANK3   BANK4   BANK5   BANK6   BANK7   BANK8   BANK9  BANK10  BANK1
      +1  BANK12
  7427 ;;      Params:         0       0       0       0       0       0       0       0       0       0       0       0       
      +0       0
  7428 ;;      Locals:         0       4       0       0       0       0       0       0       0       0       0       0       
      +0       0
  7429 ;;      Temps:          0       1       0       0       0       0       0       0       0       0       0       0       
      +0       0
  7430 ;;      Totals:         0       5       0       0       0       0       0       0       0       0       0       0       
      +0       0
  7431 ;;Total ram usage:        5 bytes
  7432 ;; Hardware stack levels used:    1
  7433 ;; Hardware stack levels required when called:    4
  7434 ;; This function calls:
  7435 ;;		_USER_USB_CALLBACK_EVENT_HANDLER
  7436 ;;		_memset
  7437 ;; This function is called by:
  7438 ;;		_USBCheckStdRequest
  7439 ;; This function uses a non-reentrant model
  7440 ;;
  7441                           
  7442                           
  7443                           ;psect for function _USBStdSetCfgHandler
  7444  0E2B                     _USBStdSetCfgHandler:
  7445  0E2B                     i1l5090:	
  7446                           ;incstack = 0
  7447                           ; Regs used in _USBStdSetCfgHandler: [wreg-fsr1h+status,2+status,0+pclath+cstack]
  7448                           
  7449                           
  7450                           ;mcc_generated_files/usb/usb_device.c: 1974:     uint8_t i;;mcc_generated_files/usb/usb_
      +                          device.c: 1977:     inPipes[0].info.bits.busy = 1;
  7451  0E2B  0021               	movlb	1	; select bank1
  7452  0E2C  17AF               	bsf	(_inPipes^(0+128)+2),7	;volatile
  7453                           
  7454                           ;mcc_generated_files/usb/usb_device.c: 1980:     { uint8_t i; uint8_t* p = (uint8_t*)&UE
      +                          P1; for(i=0;i<2;i++) *p++ = 0; };
  7455  0E2D  300E               	movlw	14
  7456  0E2E  0020               	movlb	0	; select bank0
  7457  0E2F  00E8               	movwf	USBStdSetCfgHandler@p+1
  7458  0E30  3099               	movlw	153
  7459  0E31  00E7               	movwf	USBStdSetCfgHandler@p
  7460  0E32                     i1l5092:
  7461  0E32  01E9               	clrf	USBStdSetCfgHandler@i_1402
  7462  0E33                     i1l5098:
  7463  0E33  0867               	movf	USBStdSetCfgHandler@p,w
  7464  0E34  0086               	movwf	6
  7465  0E35  0868               	movf	USBStdSetCfgHandler@p+1,w
  7466  0E36  0087               	movwf	7
  7467  0E37  0181               	clrf	1
  7468  0E38                     i1l5100:
  7469  0E38  3001               	movlw	1
  7470  0E39  07E7               	addwf	USBStdSetCfgHandler@p,f
  7471  0E3A  3000               	movlw	0
  7472  0E3B  3DE8               	addwfc	USBStdSetCfgHandler@p+1,f
  7473  0E3C                     i1l5102:
  7474  0E3C  3001               	movlw	1
  7475  0E3D  00E6               	movwf	??_USBStdSetCfgHandler
  7476  0E3E  0866               	movf	??_USBStdSetCfgHandler,w
  7477  0E3F  07E9               	addwf	USBStdSetCfgHandler@i_1402,f
  7478  0E40                     i1l5104:
  7479  0E40  3002               	movlw	2
  7480  0E41  0269               	subwf	USBStdSetCfgHandler@i_1402,w
  7481  0E42  1C03               	skipc
  7482  0E43  2E45               	goto	u394_21
  7483  0E44  2E46               	goto	u394_20
  7484  0E45                     u394_21:
  7485  0E45  2E33               	goto	i1l5098
  7486  0E46                     u394_20:
  7487  0E46                     i1l5106:
  7488                           
  7489                           ;mcc_generated_files/usb/usb_device.c: 1983:     memset((void*)&BDT[0], 0x00, sizeof(BDT
      +                          ));
  7490  0E46  3020               	movlw	32
  7491  0E47  00F0               	movwf	memset@dest
  7492  0E48  3000               	movlw	0
  7493  0E49  00F1               	movwf	memset@dest+1
  7494  0E4A  3000               	movlw	0
  7495  0E4B  00F2               	movwf	memset@c
  7496  0E4C  00F3               	movwf	memset@c+1
  7497  0E4D  3030               	movlw	48
  7498  0E4E  00F4               	movwf	memset@n
  7499  0E4F  3000               	movlw	0
  7500  0E50  00F5               	movwf	memset@n+1
  7501  0E51  3185  25AE  318E   	fcall	_memset
  7502  0E54                     i1l5108:
  7503                           
  7504                           ;mcc_generated_files/usb/usb_device.c: 1986:     UCONbits.PPBRST = 1;
  7505  0E54  003D               	movlb	29	; select bank29
  7506  0E55  170E               	bsf	14,6	;volatile
  7507  0E56                     i1l5110:
  7508                           
  7509                           ;mcc_generated_files/usb/usb_device.c: 1991:  for(i = 0; i < (uint8_t)(2 +1u); i++)
  7510  0E56  0020               	movlb	0	; select bank0
  7511  0E57  01EA               	clrf	USBStdSetCfgHandler@i
  7512  0E58                     i1l5116:
  7513                           
  7514                           ;mcc_generated_files/usb/usb_device.c: 1992:  {;mcc_generated_files/usb/usb_device.c: 19
      +                          93:   ep_data_in[i].Val = 0u;
  7515  0E58  086A               	movf	USBStdSetCfgHandler@i,w
  7516  0E59  3EC1               	addlw	(low (_ep_data_in| (0+256)))& (0+255)
  7517  0E5A  0086               	movwf	6
  7518  0E5B  3001               	movlw	1	; select bank3/4
  7519  0E5C  0087               	movwf	7
  7520  0E5D  0181               	clrf	1
  7521                           
  7522                           ;mcc_generated_files/usb/usb_device.c: 1994:         ep_data_out[i].Val = 0u;
  7523  0E5E  086A               	movf	USBStdSetCfgHandler@i,w
  7524  0E5F  3EBE               	addlw	(low (_ep_data_out| (0+256)))& (0+255)
  7525  0E60  0086               	movwf	6
  7526  0E61  3001               	movlw	1	; select bank3/4
  7527  0E62  0087               	movwf	7
  7528  0E63  0181               	clrf	1
  7529  0E64                     i1l5118:
  7530                           
  7531                           ;mcc_generated_files/usb/usb_device.c: 1995:  }
  7532  0E64  3001               	movlw	1
  7533  0E65  00E6               	movwf	??_USBStdSetCfgHandler
  7534  0E66  0866               	movf	??_USBStdSetCfgHandler,w
  7535  0E67  07EA               	addwf	USBStdSetCfgHandler@i,f
  7536  0E68                     i1l5120:
  7537  0E68  3003               	movlw	3
  7538  0E69  026A               	subwf	USBStdSetCfgHandler@i,w
  7539  0E6A  1C03               	skipc
  7540  0E6B  2E6D               	goto	u395_21
  7541  0E6C  2E6E               	goto	u395_20
  7542  0E6D                     u395_21:
  7543  0E6D  2E58               	goto	i1l5116
  7544  0E6E                     u395_20:
  7545  0E6E                     i1l5122:
  7546                           
  7547                           ;mcc_generated_files/usb/usb_device.c: 1998:     memset((void*)&USBAlternateInterface,0x
      +                          00,2);
  7548  0E6E  30EC               	movlw	low _USBAlternateInterface
  7549  0E6F  00F0               	movwf	memset@dest
  7550  0E70  3001               	movlw	high _USBAlternateInterface
  7551  0E71  00F1               	movwf	memset@dest+1
  7552  0E72  3000               	movlw	0
  7553  0E73  00F2               	movwf	memset@c
  7554  0E74  00F3               	movwf	memset@c+1
  7555  0E75  3002               	movlw	2
  7556  0E76  00F4               	movwf	memset@n
  7557  0E77  3000               	movlw	0
  7558  0E78  00F5               	movwf	memset@n+1
  7559  0E79  3185  25AE  318E   	fcall	_memset
  7560  0E7C                     i1l5124:
  7561                           
  7562                           ;mcc_generated_files/usb/usb_device.c: 2001:     UCONbits.PPBRST = 0;
  7563  0E7C  003D               	movlb	29	; select bank29
  7564  0E7D  130E               	bcf	14,6	;volatile
  7565  0E7E                     i1l5126:
  7566                           
  7567                           ;mcc_generated_files/usb/usb_device.c: 2003:     pBDTEntryIn[0] = (volatile BDT_ENTRY*)&
      +                          BDT[2];
  7568  0E7E  3028               	movlw	40
  7569  0E7F  0021               	movlb	1	; select bank1
  7570  0E80  00A7               	movwf	_pBDTEntryIn^(0+128)
  7571  0E81  3000               	movlw	0
  7572  0E82  00A8               	movwf	(_pBDTEntryIn+1)^(0+128)
  7573  0E83                     i1l5128:
  7574                           
  7575                           ;mcc_generated_files/usb/usb_device.c: 2006:     pBDTEntryEP0OutCurrent = (volatile BDT_
      +                          ENTRY*)&BDT[0];
  7576  0E83  3020               	movlw	32
  7577  0E84  0020               	movlb	0	; select bank0
  7578  0E85  00E6               	movwf	??_USBStdSetCfgHandler
  7579  0E86  0866               	movf	??_USBStdSetCfgHandler,w
  7580  0E87  0021               	movlb	1	; select bank1
  7581  0E88  00BA               	movwf	_pBDTEntryEP0OutCurrent^(0+128)
  7582  0E89                     i1l5130:
  7583                           
  7584                           ;mcc_generated_files/usb/usb_device.c: 2007:     pBDTEntryEP0OutNext = pBDTEntryEP0OutCu
      +                          rrent;
  7585  0E89  083A               	movf	_pBDTEntryEP0OutCurrent^(0+128),w
  7586  0E8A  00B2               	movwf	_pBDTEntryEP0OutNext^(0+128)
  7587  0E8B  39FF               	andlw	255
  7588  0E8C  1D03               	skipz
  7589  0E8D  3000               	movlw	0
  7590  0E8E  00B3               	movwf	(_pBDTEntryEP0OutNext+1)^(0+128)
  7591  0E8F                     i1l5132:
  7592                           
  7593                           ;mcc_generated_files/usb/usb_device.c: 2010:     USBActiveConfiguration = SetupPkt.bConf
      +                          igurationValue;
  7594  0E8F  0020               	movlb	0	; select bank0
  7595  0E90  0852               	movf	82,w	;volatile
  7596  0E91  00E6               	movwf	??_USBStdSetCfgHandler
  7597  0E92  0866               	movf	??_USBStdSetCfgHandler,w
  7598  0E93  0021               	movlb	1	; select bank1
  7599  0E94  00BD               	movwf	_USBActiveConfiguration^(0+128)	;volatile
  7600  0E95                     i1l5134:
  7601                           
  7602                           ;mcc_generated_files/usb/usb_device.c: 2013:     if(USBActiveConfiguration == 0)
  7603  0E95  083D               	movf	_USBActiveConfiguration^(0+128),w	;volatile
  7604  0E96  1D03               	btfss	3,2
  7605  0E97  2E99               	goto	u396_21
  7606  0E98  2E9A               	goto	u396_20
  7607  0E99                     u396_21:
  7608  0E99  2EA1               	goto	i1l5138
  7609  0E9A                     u396_20:
  7610  0E9A                     i1l5136:
  7611                           
  7612                           ;mcc_generated_files/usb/usb_device.c: 2014:     {;mcc_generated_files/usb/usb_device.c:
      +                           2016:         USBDeviceState = ADDRESS_STATE;
  7613  0E9A  3010               	movlw	16
  7614  0E9B  0020               	movlb	0	; select bank0
  7615  0E9C  00E6               	movwf	??_USBStdSetCfgHandler
  7616  0E9D  0866               	movf	??_USBStdSetCfgHandler,w
  7617  0E9E  0021               	movlb	1	; select bank1
  7618  0E9F  00BB               	movwf	_USBDeviceState^(0+128)	;volatile
  7619                           
  7620                           ;mcc_generated_files/usb/usb_device.c: 2017:     }
  7621  0EA0  2EB7               	goto	i1l268
  7622  0EA1                     i1l5138:
  7623                           
  7624                           ;mcc_generated_files/usb/usb_device.c: 2019:     {;mcc_generated_files/usb/usb_device.c:
      +                           2021:         USER_USB_CALLBACK_EVENT_HANDLER((USB_EVENT)EVENT_CONFIGURED,(void*)&USBAc
      +                          tiveConfiguration,1);
  7625  0EA1  3001               	movlw	1
  7626  0EA2  0020               	movlb	0	; select bank0
  7627  0EA3  00E0               	movwf	USER_USB_CALLBACK_EVENT_HANDLER@event
  7628  0EA4  3000               	movlw	0
  7629  0EA5  00E1               	movwf	USER_USB_CALLBACK_EVENT_HANDLER@event+1
  7630  0EA6  30BD               	movlw	low _USBActiveConfiguration
  7631  0EA7  00E2               	movwf	USER_USB_CALLBACK_EVENT_HANDLER@pdata
  7632  0EA8  3000               	movlw	high _USBActiveConfiguration
  7633  0EA9  00E3               	movwf	USER_USB_CALLBACK_EVENT_HANDLER@pdata+1
  7634  0EAA  3001               	movlw	1
  7635  0EAB  00E4               	movwf	USER_USB_CALLBACK_EVENT_HANDLER@size
  7636  0EAC  3000               	movlw	0
  7637  0EAD  00E5               	movwf	USER_USB_CALLBACK_EVENT_HANDLER@size+1
  7638  0EAE  3188  200C  318E   	fcall	_USER_USB_CALLBACK_EVENT_HANDLER
  7639  0EB1                     i1l5140:
  7640                           
  7641                           ;mcc_generated_files/usb/usb_device.c: 2026:         USBDeviceState = CONFIGURED_STATE;
  7642  0EB1  3020               	movlw	32
  7643  0EB2  0020               	movlb	0	; select bank0
  7644  0EB3  00E6               	movwf	??_USBStdSetCfgHandler
  7645  0EB4  0866               	movf	??_USBStdSetCfgHandler,w
  7646  0EB5  0021               	movlb	1	; select bank1
  7647  0EB6  00BB               	movwf	_USBDeviceState^(0+128)	;volatile
  7648  0EB7                     i1l268:
  7649  0EB7  0008               	return
  7650  0EB8                     __end_of_USBStdSetCfgHandler:
  7651                           
  7652                           	psect	text26
  7653  05AE                     __ptext26:	
  7654 ;; *************** function _memset *****************
  7655 ;; Defined at:
  7656 ;;		line 4 in file "C:\Program Files\Microchip\xc8\v2.31\pic\sources\c99\common\memset.c"
  7657 ;; Parameters:    Size  Location     Type
  7658 ;;  dest            2    0[COMMON] PTR void 
  7659 ;;		 -> USBAlternateInterface(2), BDT(48), 
  7660 ;;  c               2    2[COMMON] int 
  7661 ;;  n               2    4[COMMON] unsigned int 
  7662 ;; Auto vars:     Size  Location     Type
  7663 ;;  s               2   12[COMMON] PTR unsigned char 
  7664 ;;		 -> USBAlternateInterface(2), BDT(48), 
  7665 ;;  k               2   10[COMMON] unsigned int 
  7666 ;; Return value:  Size  Location     Type
  7667 ;;                  2    0[COMMON] PTR void 
  7668 ;; Registers used:
  7669 ;;		wreg, fsr1l, fsr1h, status,2, status,0
  7670 ;; Tracked objects:
  7671 ;;		On entry : 0/0
  7672 ;;		On exit  : 0/0
  7673 ;;		Unchanged: 0/0
  7674 ;; Data sizes:     COMMON   BANK0   BANK1   BANK2   BANK3   BANK4   BANK5   BANK6   BANK7   BANK8   BANK9  BANK10  BANK1
      +1  BANK12
  7675 ;;      Params:         6       0       0       0       0       0       0       0       0       0       0       0       
      +0       0
  7676 ;;      Locals:         4       0       0       0       0       0       0       0       0       0       0       0       
      +0       0
  7677 ;;      Temps:          4       0       0       0       0       0       0       0       0       0       0       0       
      +0       0
  7678 ;;      Totals:        14       0       0       0       0       0       0       0       0       0       0       0       
      +0       0
  7679 ;;Total ram usage:       14 bytes
  7680 ;; Hardware stack levels used:    1
  7681 ;; This function calls:
  7682 ;;		Nothing
  7683 ;; This function is called by:
  7684 ;;		_USBStdSetCfgHandler
  7685 ;; This function uses a non-reentrant model
  7686 ;;
  7687                           
  7688                           
  7689                           ;psect for function _memset
  7690  05AE                     _memset:
  7691  05AE                     i1l5048:	
  7692                           ;incstack = 0
  7693                           ; Regs used in _memset: [wreg+fsr1l+fsr1h+status,2+status,0]
  7694                           
  7695  05AE  0871               	movf	memset@dest+1,w
  7696  05AF  00FD               	movwf	memset@s+1
  7697  05B0  0870               	movf	memset@dest,w
  7698  05B1  00FC               	movwf	memset@s
  7699  05B2                     i1l5050:
  7700  05B2  0874               	movf	memset@n,w
  7701  05B3  0475               	iorwf	memset@n+1,w
  7702  05B4  1D03               	btfss	3,2
  7703  05B5  2DB7               	goto	u389_21
  7704  05B6  2DB8               	goto	u389_20
  7705  05B7                     u389_21:
  7706  05B7  2DB9               	goto	i1l5054
  7707  05B8                     u389_20:
  7708  05B8  2E77               	goto	i1l1478
  7709  05B9                     i1l5054:
  7710  05B9  087C               	movf	memset@s,w
  7711  05BA  0086               	movwf	6
  7712  05BB  087D               	movf	memset@s+1,w
  7713  05BC  0087               	movwf	7
  7714  05BD  0872               	movf	memset@c,w
  7715  05BE  0081               	movwf	1
  7716  05BF                     i1l5056:
  7717  05BF  0874               	movf	memset@n,w
  7718  05C0  077C               	addwf	memset@s,w
  7719  05C1  00F6               	movwf	??_memset
  7720  05C2  0875               	movf	memset@n+1,w
  7721  05C3  3D7D               	addwfc	memset@s+1,w
  7722  05C4  00F7               	movwf	??_memset+1
  7723  05C5  0876               	movf	??_memset,w
  7724  05C6  3EFF               	addlw	255
  7725  05C7  00F8               	movwf	??_memset+2
  7726  05C8  30FF               	movlw	255
  7727  05C9  3D77               	addwfc	??_memset+1,w
  7728  05CA  00F9               	movwf	??_memset+3
  7729  05CB  0878               	movf	??_memset+2,w
  7730  05CC  0086               	movwf	6
  7731  05CD  0879               	movf	??_memset+3,w
  7732  05CE  0087               	movwf	7
  7733  05CF  0872               	movf	memset@c,w
  7734  05D0  0081               	movwf	1
  7735  05D1                     i1l5058:
  7736  05D1  3000               	movlw	0
  7737  05D2  0275               	subwf	memset@n+1,w
  7738  05D3  3003               	movlw	3
  7739  05D4  1903               	skipnz
  7740  05D5  0274               	subwf	memset@n,w
  7741  05D6  1803               	skipnc
  7742  05D7  2DD9               	goto	u390_21
  7743  05D8  2DDA               	goto	u390_20
  7744  05D9                     u390_21:
  7745  05D9  2DDB               	goto	i1l5062
  7746  05DA                     u390_20:
  7747  05DA  2E77               	goto	i1l1478
  7748  05DB                     i1l5062:
  7749  05DB  087C               	movf	memset@s,w
  7750  05DC  3E01               	addlw	1
  7751  05DD  00F6               	movwf	??_memset
  7752  05DE  3000               	movlw	0
  7753  05DF  3D7D               	addwfc	memset@s+1,w
  7754  05E0  00F7               	movwf	??_memset+1
  7755  05E1  0876               	movf	??_memset,w
  7756  05E2  0086               	movwf	6
  7757  05E3  0877               	movf	??_memset+1,w
  7758  05E4  0087               	movwf	7
  7759  05E5  0872               	movf	memset@c,w
  7760  05E6  0081               	movwf	1
  7761  05E7  087C               	movf	memset@s,w
  7762  05E8  3E02               	addlw	2
  7763  05E9  00F6               	movwf	??_memset
  7764  05EA  3000               	movlw	0
  7765  05EB  3D7D               	addwfc	memset@s+1,w
  7766  05EC  00F7               	movwf	??_memset+1
  7767  05ED  0876               	movf	??_memset,w
  7768  05EE  0086               	movwf	6
  7769  05EF  0877               	movf	??_memset+1,w
  7770  05F0  0087               	movwf	7
  7771  05F1  0872               	movf	memset@c,w
  7772  05F2  0081               	movwf	1
  7773  05F3  0874               	movf	memset@n,w
  7774  05F4  077C               	addwf	memset@s,w
  7775  05F5  00F6               	movwf	??_memset
  7776  05F6  0875               	movf	memset@n+1,w
  7777  05F7  3D7D               	addwfc	memset@s+1,w
  7778  05F8  00F7               	movwf	??_memset+1
  7779  05F9  0876               	movf	??_memset,w
  7780  05FA  3EFE               	addlw	254
  7781  05FB  00F8               	movwf	??_memset+2
  7782  05FC  30FF               	movlw	255
  7783  05FD  3D77               	addwfc	??_memset+1,w
  7784  05FE  00F9               	movwf	??_memset+3
  7785  05FF  0878               	movf	??_memset+2,w
  7786  0600  0086               	movwf	6
  7787  0601  0879               	movf	??_memset+3,w
  7788  0602  0087               	movwf	7
  7789  0603  0872               	movf	memset@c,w
  7790  0604  0081               	movwf	1
  7791  0605  0874               	movf	memset@n,w
  7792  0606  077C               	addwf	memset@s,w
  7793  0607  00F6               	movwf	??_memset
  7794  0608  0875               	movf	memset@n+1,w
  7795  0609  3D7D               	addwfc	memset@s+1,w
  7796  060A  00F7               	movwf	??_memset+1
  7797  060B  0876               	movf	??_memset,w
  7798  060C  3EFD               	addlw	253
  7799  060D  00F8               	movwf	??_memset+2
  7800  060E  30FF               	movlw	255
  7801  060F  3D77               	addwfc	??_memset+1,w
  7802  0610  00F9               	movwf	??_memset+3
  7803  0611  0878               	movf	??_memset+2,w
  7804  0612  0086               	movwf	6
  7805  0613  0879               	movf	??_memset+3,w
  7806  0614  0087               	movwf	7
  7807  0615  0872               	movf	memset@c,w
  7808  0616  0081               	movwf	1
  7809  0617                     i1l5064:
  7810  0617  3000               	movlw	0
  7811  0618  0275               	subwf	memset@n+1,w
  7812  0619  3007               	movlw	7
  7813  061A  1903               	skipnz
  7814  061B  0274               	subwf	memset@n,w
  7815  061C  1803               	skipnc
  7816  061D  2E1F               	goto	u391_21
  7817  061E  2E20               	goto	u391_20
  7818  061F                     u391_21:
  7819  061F  2E21               	goto	i1l5068
  7820  0620                     u391_20:
  7821  0620  2E77               	goto	i1l1478
  7822  0621                     i1l5068:
  7823  0621  087C               	movf	memset@s,w
  7824  0622  3E03               	addlw	3
  7825  0623  00F6               	movwf	??_memset
  7826  0624  3000               	movlw	0
  7827  0625  3D7D               	addwfc	memset@s+1,w
  7828  0626  00F7               	movwf	??_memset+1
  7829  0627  0876               	movf	??_memset,w
  7830  0628  0086               	movwf	6
  7831  0629  0877               	movf	??_memset+1,w
  7832  062A  0087               	movwf	7
  7833  062B  0872               	movf	memset@c,w
  7834  062C  0081               	movwf	1
  7835  062D  0874               	movf	memset@n,w
  7836  062E  077C               	addwf	memset@s,w
  7837  062F  00F6               	movwf	??_memset
  7838  0630  0875               	movf	memset@n+1,w
  7839  0631  3D7D               	addwfc	memset@s+1,w
  7840  0632  00F7               	movwf	??_memset+1
  7841  0633  0876               	movf	??_memset,w
  7842  0634  3EFC               	addlw	252
  7843  0635  00F8               	movwf	??_memset+2
  7844  0636  30FF               	movlw	255
  7845  0637  3D77               	addwfc	??_memset+1,w
  7846  0638  00F9               	movwf	??_memset+3
  7847  0639  0878               	movf	??_memset+2,w
  7848  063A  0086               	movwf	6
  7849  063B  0879               	movf	??_memset+3,w
  7850  063C  0087               	movwf	7
  7851  063D  0872               	movf	memset@c,w
  7852  063E  0081               	movwf	1
  7853  063F                     i1l5070:
  7854  063F  3000               	movlw	0
  7855  0640  0275               	subwf	memset@n+1,w
  7856  0641  3009               	movlw	9
  7857  0642  1903               	skipnz
  7858  0643  0274               	subwf	memset@n,w
  7859  0644  1803               	skipnc
  7860  0645  2E47               	goto	u392_21
  7861  0646  2E48               	goto	u392_20
  7862  0647                     u392_21:
  7863  0647  2E49               	goto	i1l5074
  7864  0648                     u392_20:
  7865  0648  2E77               	goto	i1l1478
  7866  0649                     i1l5074:
  7867  0649  097C               	comf	memset@s,w
  7868  064A  00F6               	movwf	??_memset
  7869  064B  097D               	comf	memset@s+1,w
  7870  064C  00F7               	movwf	??_memset+1
  7871  064D  0AF6               	incf	??_memset,f
  7872  064E  1903               	skipnz
  7873  064F  0AF7               	incf	??_memset+1,f
  7874  0650  3003               	movlw	3
  7875  0651  0576               	andwf	??_memset,w
  7876  0652  00FA               	movwf	memset@k
  7877  0653  3000               	movlw	0
  7878  0654  0577               	andwf	??_memset+1,w
  7879  0655  00FB               	movwf	memset@k+1
  7880  0656                     i1l5076:
  7881  0656  087A               	movf	memset@k,w
  7882  0657  07FC               	addwf	memset@s,f
  7883  0658  087B               	movf	memset@k+1,w
  7884  0659  3DFD               	addwfc	memset@s+1,f
  7885  065A                     i1l5078:
  7886  065A  087A               	movf	memset@k,w
  7887  065B  02F4               	subwf	memset@n,f
  7888  065C  087B               	movf	memset@k+1,w
  7889  065D  3BF5               	subwfb	memset@n+1,f
  7890  065E                     i1l5080:
  7891  065E  30FC               	movlw	252
  7892  065F  05F4               	andwf	memset@n,f
  7893  0660  30FF               	movlw	255
  7894  0661  05F5               	andwf	memset@n+1,f
  7895  0662  2E71               	goto	i1l5088
  7896  0663                     i1l5082:
  7897  0663  087C               	movf	memset@s,w
  7898  0664  0086               	movwf	6
  7899  0665  087D               	movf	memset@s+1,w
  7900  0666  0087               	movwf	7
  7901  0667  0872               	movf	memset@c,w
  7902  0668  0081               	movwf	1
  7903  0669                     i1l5084:
  7904  0669  3001               	movlw	1
  7905  066A  02F4               	subwf	memset@n,f
  7906  066B  3000               	movlw	0
  7907  066C  3BF5               	subwfb	memset@n+1,f
  7908  066D                     i1l5086:
  7909  066D  3001               	movlw	1
  7910  066E  07FC               	addwf	memset@s,f
  7911  066F  3000               	movlw	0
  7912  0670  3DFD               	addwfc	memset@s+1,f
  7913  0671                     i1l5088:
  7914  0671  0874               	movf	memset@n,w
  7915  0672  0475               	iorwf	memset@n+1,w
  7916  0673  1D03               	btfss	3,2
  7917  0674  2E76               	goto	u393_21
  7918  0675  2E77               	goto	u393_20
  7919  0676                     u393_21:
  7920  0676  2E63               	goto	i1l5082
  7921  0677                     u393_20:
  7922  0677                     i1l1478:
  7923  0677  0008               	return
  7924  0678                     __end_of_memset:
  7925                           
  7926                           	psect	text27
  7927  0A49                     __ptext27:	
  7928 ;; *************** function _USBStdGetStatusHandler *****************
  7929 ;; Defined at:
  7930 ;;		line 2133 in file "mcc_generated_files/usb/usb_device.c"
  7931 ;; Parameters:    Size  Location     Type
  7932 ;;		None
  7933 ;; Auto vars:     Size  Location     Type
  7934 ;;  p               2    2[COMMON] PTR struct __BDT
  7935 ;;		 -> RAM(4096), NULL(0), BDT(48), 
  7936 ;; Return value:  Size  Location     Type
  7937 ;;                  1    wreg      void 
  7938 ;; Registers used:
  7939 ;;		wreg, fsr0l, fsr0h, fsr1l, fsr1h, status,2, status,0
  7940 ;; Tracked objects:
  7941 ;;		On entry : 0/0
  7942 ;;		On exit  : 0/0
  7943 ;;		Unchanged: 0/0
  7944 ;; Data sizes:     COMMON   BANK0   BANK1   BANK2   BANK3   BANK4   BANK5   BANK6   BANK7   BANK8   BANK9  BANK10  BANK1
      +1  BANK12
  7945 ;;      Params:         0       0       0       0       0       0       0       0       0       0       0       0       
      +0       0
  7946 ;;      Locals:         2       0       0       0       0       0       0       0       0       0       0       0       
      +0       0
  7947 ;;      Temps:          2       0       0       0       0       0       0       0       0       0       0       0       
      +0       0
  7948 ;;      Totals:         4       0       0       0       0       0       0       0       0       0       0       0       
      +0       0
  7949 ;;Total ram usage:        4 bytes
  7950 ;; Hardware stack levels used:    1
  7951 ;; This function calls:
  7952 ;;		Nothing
  7953 ;; This function is called by:
  7954 ;;		_USBCheckStdRequest
  7955 ;; This function uses a non-reentrant model
  7956 ;;
  7957                           
  7958                           
  7959                           ;psect for function _USBStdGetStatusHandler
  7960  0A49                     _USBStdGetStatusHandler:
  7961  0A49                     i1l3778:	
  7962                           ;incstack = 0
  7963                           ; Regs used in _USBStdGetStatusHandler: [wreg-fsr1h+status,2+status,0]
  7964                           
  7965                           
  7966                           ;mcc_generated_files/usb/usb_device.c: 2135:     CtrlTrfData[0] = 0;
  7967  0A49  0020               	movlb	0	; select bank0
  7968  0A4A  01D8               	clrf	88	;volatile
  7969                           
  7970                           ;mcc_generated_files/usb/usb_device.c: 2136:     CtrlTrfData[1] = 0;
  7971  0A4B  01D9               	clrf	89	;volatile
  7972                           
  7973                           ;mcc_generated_files/usb/usb_device.c: 2138:     switch(SetupPkt.Recipient)
  7974  0A4C  2A8D               	goto	i1l3798
  7975  0A4D                     i1l286:	
  7976                           ;mcc_generated_files/usb/usb_device.c: 2139:     {;mcc_generated_files/usb/usb_device.c:
      +                           2140:         case (0x00):
  7977                           
  7978                           
  7979                           ;mcc_generated_files/usb/usb_device.c: 2141:             inPipes[0].info.bits.busy = 1;
  7980  0A4D  0021               	movlb	1	; select bank1
  7981  0A4E  17AF               	bsf	(_inPipes^(0+128)+2),7	;volatile
  7982  0A4F                     i1l3782:	
  7983                           ;mcc_generated_files/usb/usb_device.c: 2146:             if(0 == 1)
  7984                           
  7985                           
  7986                           ;mcc_generated_files/usb/usb_device.c: 2151:             if(RemoteWakeup == 1)
  7987  0A4F  0023               	movlb	3	; select bank3
  7988  0A50  036A               	decf	_RemoteWakeup^(0+384),w	;volatile
  7989  0A51  1D03               	btfss	3,2
  7990  0A52  2A54               	goto	u238_21
  7991  0A53  2A55               	goto	u238_20
  7992  0A54                     u238_21:
  7993  0A54  2AA1               	goto	i1l289
  7994  0A55                     u238_20:
  7995  0A55                     i1l3784:
  7996                           
  7997                           ;mcc_generated_files/usb/usb_device.c: 2152:             {;mcc_generated_files/usb/usb_d
      +                          evice.c: 2153:                 CtrlTrfData[0]|=0x02;
  7998  0A55  0020               	movlb	0	; select bank0
  7999  0A56  14D8               	bsf	88,1	;volatile
  8000  0A57  2AA1               	goto	i1l289
  8001  0A58                     i1l290:	
  8002                           ;mcc_generated_files/usb/usb_device.c: 2156:         case (0x01):
  8003                           
  8004                           
  8005                           ;mcc_generated_files/usb/usb_device.c: 2157:             inPipes[0].info.bits.busy = 1;
  8006  0A58  0021               	movlb	1	; select bank1
  8007  0A59  17AF               	bsf	(_inPipes^(0+128)+2),7	;volatile
  8008                           
  8009                           ;mcc_generated_files/usb/usb_device.c: 2158:             break;
  8010  0A5A  2AA1               	goto	i1l289
  8011  0A5B                     i1l291:	
  8012                           ;mcc_generated_files/usb/usb_device.c: 2159:         case (0x02):
  8013                           
  8014                           
  8015                           ;mcc_generated_files/usb/usb_device.c: 2160:             inPipes[0].info.bits.busy = 1;
  8016  0A5B  0021               	movlb	1	; select bank1
  8017  0A5C  17AF               	bsf	(_inPipes^(0+128)+2),7	;volatile
  8018                           
  8019                           ;mcc_generated_files/usb/usb_device.c: 2164:             {;mcc_generated_files/usb/usb_d
      +                          evice.c: 2165:                 BDT_ENTRY *p;;mcc_generated_files/usb/usb_device.c: 2167:
      +                                           if(SetupPkt.EPDir == 0)
  8020  0A5D  0020               	movlb	0	; select bank0
  8021  0A5E  1BD4               	btfsc	84,7	;volatile
  8022  0A5F  2A61               	goto	u239_21
  8023  0A60  2A62               	goto	u239_20
  8024  0A61                     u239_21:
  8025  0A61  2A6E               	goto	i1l3788
  8026  0A62                     u239_20:
  8027  0A62                     i1l3786:
  8028                           
  8029                           ;mcc_generated_files/usb/usb_device.c: 2168:                 {;mcc_generated_files/usb/u
      +                          sb_device.c: 2169:                     p = (BDT_ENTRY*)pBDTEntryOut[SetupPkt.EPNum];
  8030  0A62  0854               	movf	84,w	;volatile
  8031  0A63  390F               	andlw	15
  8032  0A64  0709               	addwf	9,w
  8033  0A65  3EB0               	addlw	(low (_pBDTEntryOut| (0+256)))& (0+255)
  8034  0A66  0086               	movwf	6
  8035  0A67  3001               	movlw	1	; select bank3/4
  8036  0A68  0087               	movwf	7
  8037  0A69  3F40               	moviw [0]fsr1
  8038  0A6A  00F2               	movwf	USBStdGetStatusHandler@p
  8039  0A6B  3F41               	moviw [1]fsr1
  8040  0A6C  00F3               	movwf	USBStdGetStatusHandler@p+1
  8041                           
  8042                           ;mcc_generated_files/usb/usb_device.c: 2170:                 }
  8043  0A6D  2A78               	goto	i1l3790
  8044  0A6E                     i1l3788:
  8045                           
  8046                           ;mcc_generated_files/usb/usb_device.c: 2172:                 {;mcc_generated_files/usb/u
      +                          sb_device.c: 2173:                     p = (BDT_ENTRY*)pBDTEntryIn[SetupPkt.EPNum];
  8047  0A6E  0854               	movf	84,w	;volatile
  8048  0A6F  390F               	andlw	15
  8049  0A70  0709               	addwf	9,w
  8050  0A71  3EA7               	addlw	(low (_pBDTEntryIn| 0))& (0+255)
  8051  0A72  0086               	movwf	6
  8052  0A73  0187               	clrf	7
  8053  0A74  3F40               	moviw [0]fsr1
  8054  0A75  00F2               	movwf	USBStdGetStatusHandler@p
  8055  0A76  3F41               	moviw [1]fsr1
  8056  0A77  00F3               	movwf	USBStdGetStatusHandler@p+1
  8057  0A78                     i1l3790:
  8058                           
  8059                           ;mcc_generated_files/usb/usb_device.c: 2176:                 if((p->STAT.UOWN == 1) && (
      +                          p->STAT.BSTALL == 1))
  8060  0A78  0872               	movf	USBStdGetStatusHandler@p,w
  8061  0A79  0086               	movwf	6
  8062  0A7A  0873               	movf	USBStdGetStatusHandler@p+1,w
  8063  0A7B  0087               	movwf	7
  8064  0A7C  1F81               	btfss	1,7
  8065  0A7D  2A7F               	goto	u240_21
  8066  0A7E  2A80               	goto	u240_20
  8067  0A7F                     u240_21:
  8068  0A7F  2AA1               	goto	i1l289
  8069  0A80                     u240_20:
  8070  0A80                     i1l3792:
  8071  0A80  0872               	movf	USBStdGetStatusHandler@p,w
  8072  0A81  0086               	movwf	6
  8073  0A82  0873               	movf	USBStdGetStatusHandler@p+1,w
  8074  0A83  0087               	movwf	7
  8075  0A84  1D01               	btfss	1,2
  8076  0A85  2A87               	goto	u241_21
  8077  0A86  2A88               	goto	u241_20
  8078  0A87                     u241_21:
  8079  0A87  2AA1               	goto	i1l289
  8080  0A88                     u241_20:
  8081  0A88                     i1l3794:
  8082                           
  8083                           ;mcc_generated_files/usb/usb_device.c: 2177:                     CtrlTrfData[0]=0x01;
  8084  0A88  3001               	movlw	1
  8085  0A89  00F0               	movwf	??_USBStdGetStatusHandler
  8086  0A8A  0870               	movf	??_USBStdGetStatusHandler,w
  8087  0A8B  00D8               	movwf	88	;volatile
  8088  0A8C  2AA1               	goto	i1l289
  8089  0A8D                     i1l3798:
  8090  0A8D  0850               	movf	80,w	;volatile
  8091  0A8E  391F               	andlw	31
  8092  0A8F  00F0               	movwf	??_USBStdGetStatusHandler
  8093  0A90  01F1               	clrf	??_USBStdGetStatusHandler+1
  8094                           
  8095                           ; Switch on 2 bytes has been partitioned into a top level switch of size 1, and 1 sub-sw
      +                          itches
  8096                           ; Switch size 1, requested type "simple"
  8097                           ; Number of cases is 1, Range of values is 0 to 0
  8098                           ; switch strategies available:
  8099                           ; Name         Instructions Cycles
  8100                           ; simple_byte            4     3 (average)
  8101                           ; direct_byte            8     6 (fixed)
  8102                           ; jumptable            260     6 (fixed)
  8103                           ;	Chosen strategy is simple_byte
  8104  0A91  0871               	movf	??_USBStdGetStatusHandler+1,w
  8105  0A92  3A00               	xorlw	0	; case 0
  8106  0A93  1903               	skipnz
  8107  0A94  2A96               	goto	i1l5544
  8108  0A95  2AA1               	goto	i1l289
  8109  0A96                     i1l5544:
  8110                           
  8111                           ; Switch size 1, requested type "simple"
  8112                           ; Number of cases is 3, Range of values is 0 to 2
  8113                           ; switch strategies available:
  8114                           ; Name         Instructions Cycles
  8115                           ; simple_byte           10     6 (average)
  8116                           ; direct_byte           12     6 (fixed)
  8117                           ; jumptable            260     6 (fixed)
  8118                           ;	Chosen strategy is simple_byte
  8119  0A96  0870               	movf	??_USBStdGetStatusHandler,w
  8120  0A97  3A00               	xorlw	0	; case 0
  8121  0A98  1903               	skipnz
  8122  0A99  2A4D               	goto	i1l286
  8123  0A9A  3A01               	xorlw	1	; case 1
  8124  0A9B  1903               	skipnz
  8125  0A9C  2A58               	goto	i1l290
  8126  0A9D  3A03               	xorlw	3	; case 2
  8127  0A9E  1903               	skipnz
  8128  0A9F  2A5B               	goto	i1l291
  8129  0AA0  2AA1               	goto	i1l289
  8130  0AA1                     i1l289:
  8131                           
  8132                           ;mcc_generated_files/usb/usb_device.c: 2182:     if(inPipes[0].info.bits.busy == 1)
  8133  0AA1  0021               	movlb	1	; select bank1
  8134  0AA2  1FAF               	btfss	(_inPipes^(0+128)+2),7	;volatile
  8135  0AA3  2AA5               	goto	u242_21
  8136  0AA4  2AA6               	goto	u242_20
  8137  0AA5                     u242_21:
  8138  0AA5  2AAF               	goto	i1l296
  8139  0AA6                     u242_20:
  8140  0AA6                     i1l3800:
  8141                           
  8142                           ;mcc_generated_files/usb/usb_device.c: 2183:     {;mcc_generated_files/usb/usb_device.c:
      +                           2184:         inPipes[0].pSrc.bRam = (uint8_t*)&CtrlTrfData;
  8143  0AA6  3058               	movlw	88
  8144  0AA7  00AD               	movwf	_inPipes^(0+128)	;volatile
  8145  0AA8  3000               	movlw	0
  8146  0AA9  00AE               	movwf	(_inPipes+1)^(0+128)	;volatile
  8147  0AAA                     i1l3802:
  8148                           
  8149                           ;mcc_generated_files/usb/usb_device.c: 2185:         inPipes[0].info.bits.ctrl_trf_mem =
      +                           0x01;
  8150  0AAA  142F               	bsf	(_inPipes^(0+128)+2),0	;volatile
  8151  0AAB                     i1l3804:
  8152                           
  8153                           ;mcc_generated_files/usb/usb_device.c: 2186:         inPipes[0].wCount.v[0] = 2;
  8154  0AAB  3002               	movlw	2
  8155  0AAC  00F0               	movwf	??_USBStdGetStatusHandler
  8156  0AAD  0870               	movf	??_USBStdGetStatusHandler,w
  8157  0AAE  00B0               	movwf	(_inPipes^(0+128)+3)	;volatile
  8158  0AAF                     i1l296:
  8159  0AAF  0008               	return
  8160  0AB0                     __end_of_USBStdGetStatusHandler:
  8161                           
  8162                           	psect	text28
  8163  0DA0                     __ptext28:	
  8164 ;; *************** function _USBStdGetDscHandler *****************
  8165 ;; Defined at:
  8166 ;;		line 2047 in file "mcc_generated_files/usb/usb_device.c"
  8167 ;; Parameters:    Size  Location     Type
  8168 ;;		None
  8169 ;; Auto vars:     Size  Location     Type
  8170 ;;		None
  8171 ;; Return value:  Size  Location     Type
  8172 ;;                  1    wreg      void 
  8173 ;; Registers used:
  8174 ;;		wreg, fsr0l, fsr0h, status,2, status,0, pclath
  8175 ;; Tracked objects:
  8176 ;;		On entry : 0/0
  8177 ;;		On exit  : 0/0
  8178 ;;		Unchanged: 0/0
  8179 ;; Data sizes:     COMMON   BANK0   BANK1   BANK2   BANK3   BANK4   BANK5   BANK6   BANK7   BANK8   BANK9  BANK10  BANK1
      +1  BANK12
  8180 ;;      Params:         0       0       0       0       0       0       0       0       0       0       0       0       
      +0       0
  8181 ;;      Locals:         0       0       0       0       0       0       0       0       0       0       0       0       
      +0       0
  8182 ;;      Temps:          3       0       0       0       0       0       0       0       0       0       0       0       
      +0       0
  8183 ;;      Totals:         3       0       0       0       0       0       0       0       0       0       0       0       
      +0       0
  8184 ;;Total ram usage:        3 bytes
  8185 ;; Hardware stack levels used:    1
  8186 ;; This function calls:
  8187 ;;		Nothing
  8188 ;; This function is called by:
  8189 ;;		_USBCheckStdRequest
  8190 ;; This function uses a non-reentrant model
  8191 ;;
  8192                           
  8193                           
  8194                           ;psect for function _USBStdGetDscHandler
  8195  0DA0                     _USBStdGetDscHandler:
  8196  0DA0                     i1l3742:	
  8197                           ;incstack = 0
  8198                           ; Regs used in _USBStdGetDscHandler: [wreg-fsr0h+status,2+status,0+pclath]
  8199                           
  8200                           
  8201                           ;mcc_generated_files/usb/usb_device.c: 2049:     if(SetupPkt.bmRequestType == 0x80)
  8202  0DA0  3080               	movlw	128
  8203  0DA1  0020               	movlb	0	; select bank0
  8204  0DA2  0650               	xorwf	80,w	;volatile
  8205  0DA3  1D03               	btfss	3,2
  8206  0DA4  2DA6               	goto	u235_21
  8207  0DA5  2DA7               	goto	u235_20
  8208  0DA6                     u235_21:
  8209  0DA6  2E2A               	goto	i1l282
  8210  0DA7                     u235_20:
  8211  0DA7                     i1l3744:
  8212                           
  8213                           ;mcc_generated_files/usb/usb_device.c: 2050:     {;mcc_generated_files/usb/usb_device.c:
      +                           2051:         inPipes[0].info.Val = 0x00 | 0x80 | 0x40;
  8214  0DA7  30C0               	movlw	192
  8215  0DA8  00F0               	movwf	??_USBStdGetDscHandler
  8216  0DA9  0870               	movf	??_USBStdGetDscHandler,w
  8217  0DAA  0021               	movlb	1	; select bank1
  8218  0DAB  00AF               	movwf	(_inPipes^(0+128)+2)	;volatile
  8219                           
  8220                           ;mcc_generated_files/usb/usb_device.c: 2053:         switch(SetupPkt.bDescriptorType)
  8221  0DAC  2E16               	goto	i1l3772
  8222  0DAD                     i1l3746:
  8223                           
  8224                           ;mcc_generated_files/usb/usb_device.c: 2059:                     inPipes[0].pSrc.bRom = 
      +                          (const uint8_t*)&device_dsc;
  8225  0DAD  3016               	movlw	low (_device_dsc| (0+32768))
  8226  0DAE  0021               	movlb	1	; select bank1
  8227  0DAF  00AD               	movwf	_inPipes^(0+128)	;volatile
  8228  0DB0  3098               	movlw	high (_device_dsc| (0+32768))
  8229  0DB1  00AE               	movwf	(_inPipes^(0+128)+1)	;volatile
  8230  0DB2                     i1l3748:
  8231                           
  8232                           ;mcc_generated_files/usb/usb_device.c: 2061:                 inPipes[0].wCount.Val = siz
      +                          eof(device_dsc);
  8233  0DB2  3000               	movlw	0
  8234  0DB3  00B1               	movwf	((_inPipes+1)^(0+128)+3)	;volatile
  8235  0DB4  3012               	movlw	18
  8236  0DB5  00B0               	movwf	(_inPipes^(0+128)+3)	;volatile
  8237                           
  8238                           ;mcc_generated_files/usb/usb_device.c: 2062:                 break;
  8239  0DB6  2E2A               	goto	i1l282
  8240  0DB7                     i1l3750:
  8241                           
  8242                           ;mcc_generated_files/usb/usb_device.c: 2067:                 if(SetupPkt.bDscIndex < 1)
  8243  0DB7  0852               	movf	82,w	;volatile
  8244  0DB8  1D03               	btfss	3,2
  8245  0DB9  2DBB               	goto	u236_21
  8246  0DBA  2DBC               	goto	u236_20
  8247  0DBB                     u236_21:
  8248  0DBB  2DEB               	goto	i1l3758
  8249  0DBC                     u236_20:
  8250  0DBC                     i1l3752:
  8251                           
  8252                           ;mcc_generated_files/usb/usb_device.c: 2068:                 {;mcc_generated_files/usb/u
      +                          sb_device.c: 2072:                         inPipes[0].pSrc.bRom = *(USB_CD_Ptr+SetupPkt.
      +                          bDscIndex);
  8253  0DBC  0852               	movf	82,w	;volatile
  8254  0DBD  00F0               	movwf	??_USBStdGetDscHandler
  8255  0DBE  01F1               	clrf	??_USBStdGetDscHandler+1
  8256  0DBF  35F0               	lslf	??_USBStdGetDscHandler,f
  8257  0DC0  0DF1               	rlf	??_USBStdGetDscHandler+1,f
  8258  0DC1  303C               	movlw	low (_USB_CD_Ptr| (0+32768))
  8259  0DC2  0770               	addwf	??_USBStdGetDscHandler,w
  8260  0DC3  0084               	movwf	4
  8261  0DC4  3098               	movlw	high (_USB_CD_Ptr| (0+32768))
  8262  0DC5  3D71               	addwfc	??_USBStdGetDscHandler+1,w
  8263  0DC6  0085               	movwf	5
  8264  0DC7  3F00               	moviw [0]fsr0
  8265  0DC8  0021               	movlb	1	; select bank1
  8266  0DC9  00AD               	movwf	_inPipes^(0+128)	;volatile
  8267  0DCA  3F01               	moviw [1]fsr0
  8268  0DCB  00AE               	movwf	(_inPipes+1)^(0+128)	;volatile
  8269  0DCC                     i1l3754:
  8270                           
  8271                           ;mcc_generated_files/usb/usb_device.c: 2078:                     inPipes[0].wCount.byte.
      +                          LB = *(inPipes[0].pSrc.bRom+2);
  8272  0DCC  082E               	movf	(_inPipes+1)^(0+128),w	;volatile
  8273  0DCD  00F1               	movwf	??_USBStdGetDscHandler+1
  8274  0DCE  082D               	movf	_inPipes^(0+128),w	;volatile
  8275  0DCF  00F0               	movwf	??_USBStdGetDscHandler
  8276  0DD0  3002               	movlw	2
  8277  0DD1  0770               	addwf	??_USBStdGetDscHandler,w
  8278  0DD2  0084               	movwf	4
  8279  0DD3  0871               	movf	??_USBStdGetDscHandler+1,w
  8280  0DD4  1803               	skipnc
  8281  0DD5  0A71               	incf	??_USBStdGetDscHandler+1,w
  8282  0DD6  0085               	movwf	5
  8283  0DD7  0800               	movf	0,w	;code access
  8284  0DD8  00F2               	movwf	??_USBStdGetDscHandler+2
  8285  0DD9  0872               	movf	??_USBStdGetDscHandler+2,w
  8286  0DDA  00B0               	movwf	(_inPipes^(0+128)+3)	;volatile
  8287  0DDB                     i1l3756:
  8288                           
  8289                           ;mcc_generated_files/usb/usb_device.c: 2079:                     inPipes[0].wCount.byte.
      +                          HB = *(inPipes[0].pSrc.bRom+3);
  8290  0DDB  082E               	movf	(_inPipes+1)^(0+128),w	;volatile
  8291  0DDC  00F1               	movwf	??_USBStdGetDscHandler+1
  8292  0DDD  082D               	movf	_inPipes^(0+128),w	;volatile
  8293  0DDE  00F0               	movwf	??_USBStdGetDscHandler
  8294  0DDF  3003               	movlw	3
  8295  0DE0  0770               	addwf	??_USBStdGetDscHandler,w
  8296  0DE1  0084               	movwf	4
  8297  0DE2  0871               	movf	??_USBStdGetDscHandler+1,w
  8298  0DE3  1803               	skipnc
  8299  0DE4  0A71               	incf	??_USBStdGetDscHandler+1,w
  8300  0DE5  0085               	movwf	5
  8301  0DE6  0800               	movf	0,w	;code access
  8302  0DE7  00F2               	movwf	??_USBStdGetDscHandler+2
  8303  0DE8  0872               	movf	??_USBStdGetDscHandler+2,w
  8304  0DE9  00B1               	movwf	(_inPipes^(0+128)+4)	;volatile
  8305                           
  8306                           ;mcc_generated_files/usb/usb_device.c: 2080:                 }
  8307  0DEA  2E2A               	goto	i1l282
  8308  0DEB                     i1l3758:
  8309                           
  8310                           ;mcc_generated_files/usb/usb_device.c: 2082:     {;mcc_generated_files/usb/usb_device.c:
      +                           2083:      inPipes[0].info.Val = 0;
  8311  0DEB  0021               	movlb	1	; select bank1
  8312  0DEC  01AF               	clrf	(_inPipes^(0+128)+2)	;volatile
  8313  0DED  2E2A               	goto	i1l282
  8314  0DEE                     i1l3760:
  8315                           
  8316                           ;mcc_generated_files/usb/usb_device.c: 2090:                 if(SetupPkt.bDscIndex<4)
  8317  0DEE  3004               	movlw	4
  8318  0DEF  0252               	subwf	82,w	;volatile
  8319  0DF0  1803               	skipnc
  8320  0DF1  2DF3               	goto	u237_21
  8321  0DF2  2DF4               	goto	u237_20
  8322  0DF3                     u237_21:
  8323  0DF3  2E10               	goto	i1l3766
  8324  0DF4                     u237_20:
  8325  0DF4                     i1l3762:
  8326                           
  8327                           ;mcc_generated_files/usb/usb_device.c: 2091:                 {;mcc_generated_files/usb/u
      +                          sb_device.c: 2093:                     inPipes[0].pSrc.bRom = *(USB_SD_Ptr+SetupPkt.bDsc
      +                          Index);
  8328  0DF4  0852               	movf	82,w	;volatile
  8329  0DF5  00F0               	movwf	??_USBStdGetDscHandler
  8330  0DF6  01F1               	clrf	??_USBStdGetDscHandler+1
  8331  0DF7  35F0               	lslf	??_USBStdGetDscHandler,f
  8332  0DF8  0DF1               	rlf	??_USBStdGetDscHandler+1,f
  8333  0DF9  3028               	movlw	low (_USB_SD_Ptr| (0+32768))
  8334  0DFA  0770               	addwf	??_USBStdGetDscHandler,w
  8335  0DFB  0084               	movwf	4
  8336  0DFC  3098               	movlw	high (_USB_SD_Ptr| (0+32768))
  8337  0DFD  3D71               	addwfc	??_USBStdGetDscHandler+1,w
  8338  0DFE  0085               	movwf	5
  8339  0DFF  3F00               	moviw [0]fsr0
  8340  0E00  0021               	movlb	1	; select bank1
  8341  0E01  00AD               	movwf	_inPipes^(0+128)	;volatile
  8342  0E02  3F01               	moviw [1]fsr0
  8343  0E03  00AE               	movwf	(_inPipes+1)^(0+128)	;volatile
  8344  0E04                     i1l3764:
  8345                           
  8346                           ;mcc_generated_files/usb/usb_device.c: 2095:                     inPipes[0].wCount.Val =
      +                           *inPipes[0].pSrc.bRom;
  8347  0E04  082D               	movf	_inPipes^(0+128),w	;volatile
  8348  0E05  0084               	movwf	4
  8349  0E06  082E               	movf	(_inPipes+1)^(0+128),w	;volatile
  8350  0E07  0085               	movwf	5
  8351  0E08  0800               	movf	0,w	;code access
  8352  0E09  00F0               	movwf	??_USBStdGetDscHandler
  8353  0E0A  01F1               	clrf	??_USBStdGetDscHandler+1
  8354  0E0B  0870               	movf	??_USBStdGetDscHandler,w
  8355  0E0C  00B0               	movwf	(_inPipes^(0+128)+3)	;volatile
  8356  0E0D  0871               	movf	??_USBStdGetDscHandler+1,w
  8357  0E0E  00B1               	movwf	((_inPipes+1)^(0+128)+3)	;volatile
  8358                           
  8359                           ;mcc_generated_files/usb/usb_device.c: 2096:                 }
  8360  0E0F  2E2A               	goto	i1l282
  8361  0E10                     i1l3766:
  8362                           
  8363                           ;mcc_generated_files/usb/usb_device.c: 2107:                 {;mcc_generated_files/usb/u
      +                          sb_device.c: 2108:                     inPipes[0].info.Val = 0;
  8364  0E10  0021               	movlb	1	; select bank1
  8365  0E11  01AF               	clrf	(_inPipes^(0+128)+2)	;volatile
  8366  0E12  2E2A               	goto	i1l282
  8367  0E13                     i1l3768:
  8368                           
  8369                           ;mcc_generated_files/usb/usb_device.c: 2112:                 inPipes[0].info.Val = 0;
  8370  0E13  0021               	movlb	1	; select bank1
  8371  0E14  01AF               	clrf	(_inPipes^(0+128)+2)	;volatile
  8372                           
  8373                           ;mcc_generated_files/usb/usb_device.c: 2113:                 break;
  8374  0E15  2E2A               	goto	i1l282
  8375  0E16                     i1l3772:
  8376  0E16  0020               	movlb	0	; select bank0
  8377  0E17  0853               	movf	83,w	;volatile
  8378  0E18  00F0               	movwf	??_USBStdGetDscHandler
  8379  0E19  01F1               	clrf	??_USBStdGetDscHandler+1
  8380                           
  8381                           ; Switch on 2 bytes has been partitioned into a top level switch of size 1, and 1 sub-sw
      +                          itches
  8382                           ; Switch size 1, requested type "simple"
  8383                           ; Number of cases is 1, Range of values is 0 to 0
  8384                           ; switch strategies available:
  8385                           ; Name         Instructions Cycles
  8386                           ; simple_byte            4     3 (average)
  8387                           ; direct_byte            8     6 (fixed)
  8388                           ; jumptable            260     6 (fixed)
  8389                           ;	Chosen strategy is simple_byte
  8390  0E1A  0871               	movf	??_USBStdGetDscHandler+1,w
  8391  0E1B  3A00               	xorlw	0	; case 0
  8392  0E1C  1903               	skipnz
  8393  0E1D  2E1F               	goto	i1l5546
  8394  0E1E  2E13               	goto	i1l3768
  8395  0E1F                     i1l5546:
  8396                           
  8397                           ; Switch size 1, requested type "simple"
  8398                           ; Number of cases is 3, Range of values is 1 to 3
  8399                           ; switch strategies available:
  8400                           ; Name         Instructions Cycles
  8401                           ; simple_byte           10     6 (average)
  8402                           ; direct_byte           15     9 (fixed)
  8403                           ; jumptable            263     9 (fixed)
  8404                           ;	Chosen strategy is simple_byte
  8405  0E1F  0870               	movf	??_USBStdGetDscHandler,w
  8406  0E20  3A01               	xorlw	1	; case 1
  8407  0E21  1903               	skipnz
  8408  0E22  2DAD               	goto	i1l3746
  8409  0E23  3A03               	xorlw	3	; case 2
  8410  0E24  1903               	skipnz
  8411  0E25  2DB7               	goto	i1l3750
  8412  0E26  3A01               	xorlw	1	; case 3
  8413  0E27  1903               	skipnz
  8414  0E28  2DEE               	goto	i1l3760
  8415  0E29  2E13               	goto	i1l3768
  8416  0E2A                     i1l282:
  8417  0E2A  0008               	return
  8418  0E2B                     __end_of_USBStdGetDscHandler:
  8419                           
  8420                           	psect	text29
  8421  021F                     __ptext29:	
  8422 ;; *************** function _USBStdFeatureReqHandler *****************
  8423 ;; Defined at:
  8424 ;;		line 2758 in file "mcc_generated_files/usb/usb_device.c"
  8425 ;; Parameters:    Size  Location     Type
  8426 ;;		None
  8427 ;; Auto vars:     Size  Location     Type
  8428 ;;  p               2   11[BANK0 ] PTR struct __BDT
  8429 ;;		 -> RAM(4096), NULL(0), BDT(48), 
  8430 ;;  pUEP            2    8[BANK0 ] PTR unsigned char 
  8431 ;;		 -> UEP0(1), 
  8432 ;;  current_ep_d    1   10[BANK0 ] struct .
  8433 ;; Return value:  Size  Location     Type
  8434 ;;                  1    wreg      void 
  8435 ;; Registers used:
  8436 ;;		wreg, fsr0l, fsr0h, fsr1l, fsr1h, status,2, status,0, pclath, cstack
  8437 ;; Tracked objects:
  8438 ;;		On entry : 0/0
  8439 ;;		On exit  : 0/0
  8440 ;;		Unchanged: 0/0
  8441 ;; Data sizes:     COMMON   BANK0   BANK1   BANK2   BANK3   BANK4   BANK5   BANK6   BANK7   BANK8   BANK9  BANK10  BANK1
      +1  BANK12
  8442 ;;      Params:         0       0       0       0       0       0       0       0       0       0       0       0       
      +0       0
  8443 ;;      Locals:         0       5       0       0       0       0       0       0       0       0       0       0       
      +0       0
  8444 ;;      Temps:          0       2       0       0       0       0       0       0       0       0       0       0       
      +0       0
  8445 ;;      Totals:         0       7       0       0       0       0       0       0       0       0       0       0       
      +0       0
  8446 ;;Total ram usage:        7 bytes
  8447 ;; Hardware stack levels used:    1
  8448 ;; Hardware stack levels required when called:    4
  8449 ;; This function calls:
  8450 ;;		_USER_USB_CALLBACK_EVENT_HANDLER
  8451 ;; This function is called by:
  8452 ;;		_USBCheckStdRequest
  8453 ;; This function uses a non-reentrant model
  8454 ;;
  8455                           
  8456                           
  8457                           ;psect for function _USBStdFeatureReqHandler
  8458  021F                     _USBStdFeatureReqHandler:
  8459  021F                     i1l3810:	
  8460                           ;incstack = 0
  8461                           ; Regs used in _USBStdFeatureReqHandler: [wreg-fsr1h+status,2+status,0+pclath+cstack]
  8462                           
  8463                           
  8464                           ;mcc_generated_files/usb/usb_device.c: 2760:     BDT_ENTRY *p;;mcc_generated_files/usb/u
      +                          sb_device.c: 2761:     EP_STATUS current_ep_data;;mcc_generated_files/usb/usb_device.c: 
      +                          2765:         unsigned char* pUEP;;mcc_generated_files/usb/usb_device.c: 2803:     if((S
      +                          etupPkt.bFeature == 1)&&
  8465  021F  0020               	movlb	0	; select bank0
  8466  0220  0352               	decf	82,w	;volatile
  8467  0221  1D03               	btfss	3,2
  8468  0222  2A24               	goto	u243_21
  8469  0223  2A25               	goto	u243_20
  8470  0224                     u243_21:
  8471  0224  2A3D               	goto	i1l3822
  8472  0225                     u243_20:
  8473  0225                     i1l3812:
  8474  0225  0850               	movf	80,w	;volatile
  8475  0226  391F               	andlw	31
  8476  0227  3A00               	xorlw	0
  8477  0228  1D03               	skipz
  8478  0229  2A2B               	goto	u244_21
  8479  022A  2A2C               	goto	u244_20
  8480  022B                     u244_21:
  8481  022B  2A3D               	goto	i1l3822
  8482  022C                     u244_20:
  8483  022C                     i1l3814:
  8484                           
  8485                           ;mcc_generated_files/usb/usb_device.c: 2805:     {;mcc_generated_files/usb/usb_device.c:
      +                           2806:         inPipes[0].info.bits.busy = 1;
  8486  022C  0021               	movlb	1	; select bank1
  8487  022D  17AF               	bsf	(_inPipes^(0+128)+2),7	;volatile
  8488  022E                     i1l3816:
  8489                           
  8490                           ;mcc_generated_files/usb/usb_device.c: 2807:         if(SetupPkt.bRequest == 3)
  8491  022E  3003               	movlw	3
  8492  022F  0020               	movlb	0	; select bank0
  8493  0230  0651               	xorwf	81,w	;volatile
  8494  0231  1D03               	btfss	3,2
  8495  0232  2A34               	goto	u245_21
  8496  0233  2A35               	goto	u245_20
  8497  0234                     u245_21:
  8498  0234  2A3B               	goto	i1l3820
  8499  0235                     u245_20:
  8500  0235                     i1l3818:
  8501                           
  8502                           ;mcc_generated_files/usb/usb_device.c: 2808:             RemoteWakeup = 1;
  8503  0235  3001               	movlw	1
  8504  0236  00E6               	movwf	??_USBStdFeatureReqHandler
  8505  0237  0866               	movf	??_USBStdFeatureReqHandler,w
  8506  0238  0023               	movlb	3	; select bank3
  8507  0239  00EA               	movwf	_RemoteWakeup^(0+384)	;volatile
  8508  023A  2A3D               	goto	i1l3822
  8509  023B                     i1l3820:
  8510                           
  8511                           ;mcc_generated_files/usb/usb_device.c: 2810:             RemoteWakeup = 0;
  8512  023B  0023               	movlb	3	; select bank3
  8513  023C  01EA               	clrf	_RemoteWakeup^(0+384)	;volatile
  8514  023D                     i1l3822:
  8515                           
  8516                           ;mcc_generated_files/usb/usb_device.c: 2814:     if((SetupPkt.bFeature == 0)&&
  8517  023D  0020               	movlb	0	; select bank0
  8518  023E  0852               	movf	82,w	;volatile
  8519  023F  1D03               	btfss	3,2
  8520  0240  2A42               	goto	u246_21
  8521  0241  2A43               	goto	u246_20
  8522  0242                     u246_21:
  8523  0242  2B76               	goto	i1l386
  8524  0243                     u246_20:
  8525  0243                     i1l3824:
  8526  0243  0850               	movf	80,w	;volatile
  8527  0244  391F               	andlw	31
  8528  0245  3A02               	xorlw	2
  8529  0246  1D03               	skipz
  8530  0247  2A49               	goto	u247_21
  8531  0248  2A4A               	goto	u247_20
  8532  0249                     u247_21:
  8533  0249  2B76               	goto	i1l386
  8534  024A                     u247_20:
  8535  024A                     i1l3826:
  8536  024A  0854               	movf	84,w	;volatile
  8537  024B  390F               	andlw	15
  8538  024C  3A00               	xorlw	0
  8539  024D  1903               	skipnz
  8540  024E  2A50               	goto	u248_21
  8541  024F  2A51               	goto	u248_20
  8542  0250                     u248_21:
  8543  0250  2B76               	goto	i1l386
  8544  0251                     u248_20:
  8545  0251                     i1l3828:
  8546  0251  0854               	movf	84,w	;volatile
  8547  0252  390F               	andlw	15
  8548  0253  00E6               	movwf	??_USBStdFeatureReqHandler
  8549  0254  3003               	movlw	3
  8550  0255  0266               	subwf	??_USBStdFeatureReqHandler,w
  8551  0256  1803               	skipnc
  8552  0257  2A59               	goto	u249_21
  8553  0258  2A5A               	goto	u249_20
  8554  0259                     u249_21:
  8555  0259  2B76               	goto	i1l386
  8556  025A                     u249_20:
  8557  025A                     i1l3830:
  8558  025A  3020               	movlw	32
  8559  025B  0021               	movlb	1	; select bank1
  8560  025C  063B               	xorwf	_USBDeviceState^(0+128),w	;volatile
  8561  025D  1D03               	btfss	3,2
  8562  025E  2A60               	goto	u250_21
  8563  025F  2A61               	goto	u250_20
  8564  0260                     u250_21:
  8565  0260  2B76               	goto	i1l386
  8566  0261                     u250_20:
  8567  0261                     i1l3832:
  8568                           
  8569                           ;mcc_generated_files/usb/usb_device.c: 2818:     {;mcc_generated_files/usb/usb_device.c:
      +                           2821:   inPipes[0].info.bits.busy = 1;
  8570  0261  17AF               	bsf	(_inPipes^(0+128)+2),7	;volatile
  8571                           
  8572                           ;mcc_generated_files/usb/usb_device.c: 2824:         if(SetupPkt.EPDir == 0)
  8573  0262  0020               	movlb	0	; select bank0
  8574  0263  1BD4               	btfsc	84,7	;volatile
  8575  0264  2A66               	goto	u251_21
  8576  0265  2A67               	goto	u251_20
  8577  0266                     u251_21:
  8578  0266  2A7D               	goto	i1l3836
  8579  0267                     u251_20:
  8580  0267                     i1l3834:
  8581                           
  8582                           ;mcc_generated_files/usb/usb_device.c: 2825:         {;mcc_generated_files/usb/usb_devic
      +                          e.c: 2826:             p = (BDT_ENTRY*)pBDTEntryOut[SetupPkt.EPNum];
  8583  0267  0854               	movf	84,w	;volatile
  8584  0268  390F               	andlw	15
  8585  0269  0709               	addwf	9,w
  8586  026A  3EB0               	addlw	(low (_pBDTEntryOut| (0+256)))& (0+255)
  8587  026B  0086               	movwf	6
  8588  026C  3001               	movlw	1	; select bank3/4
  8589  026D  0087               	movwf	7
  8590  026E  3F40               	moviw [0]fsr1
  8591  026F  00EB               	movwf	USBStdFeatureReqHandler@p
  8592  0270  3F41               	moviw [1]fsr1
  8593  0271  00EC               	movwf	USBStdFeatureReqHandler@p+1
  8594                           
  8595                           ;mcc_generated_files/usb/usb_device.c: 2827:             current_ep_data.Val = ep_data_o
      +                          ut[SetupPkt.EPNum].Val;
  8596  0272  0854               	movf	84,w	;volatile
  8597  0273  390F               	andlw	15
  8598  0274  3EBE               	addlw	(low (_ep_data_out| (0+256)))& (0+255)
  8599  0275  0086               	movwf	6
  8600  0276  3001               	movlw	1	; select bank3/4
  8601  0277  0087               	movwf	7
  8602  0278  0801               	movf	1,w
  8603  0279  00E6               	movwf	??_USBStdFeatureReqHandler
  8604  027A  0866               	movf	??_USBStdFeatureReqHandler,w
  8605  027B  00EA               	movwf	USBStdFeatureReqHandler@current_ep_data
  8606                           
  8607                           ;mcc_generated_files/usb/usb_device.c: 2828:         }
  8608  027C  2A91               	goto	i1l3838
  8609  027D                     i1l3836:
  8610                           
  8611                           ;mcc_generated_files/usb/usb_device.c: 2830:         {;mcc_generated_files/usb/usb_devic
      +                          e.c: 2831:             p = (BDT_ENTRY*)pBDTEntryIn[SetupPkt.EPNum];
  8612  027D  0854               	movf	84,w	;volatile
  8613  027E  390F               	andlw	15
  8614  027F  0709               	addwf	9,w
  8615  0280  3EA7               	addlw	(low (_pBDTEntryIn| 0))& (0+255)
  8616  0281  0086               	movwf	6
  8617  0282  0187               	clrf	7
  8618  0283  3F40               	moviw [0]fsr1
  8619  0284  00EB               	movwf	USBStdFeatureReqHandler@p
  8620  0285  3F41               	moviw [1]fsr1
  8621  0286  00EC               	movwf	USBStdFeatureReqHandler@p+1
  8622                           
  8623                           ;mcc_generated_files/usb/usb_device.c: 2832:             current_ep_data.Val = ep_data_i
      +                          n[SetupPkt.EPNum].Val;
  8624  0287  0854               	movf	84,w	;volatile
  8625  0288  390F               	andlw	15
  8626  0289  3EC1               	addlw	(low (_ep_data_in| (0+256)))& (0+255)
  8627  028A  0086               	movwf	6
  8628  028B  3001               	movlw	1	; select bank3/4
  8629  028C  0087               	movwf	7
  8630  028D  0801               	movf	1,w
  8631  028E  00E6               	movwf	??_USBStdFeatureReqHandler
  8632  028F  0866               	movf	??_USBStdFeatureReqHandler,w
  8633  0290  00EA               	movwf	USBStdFeatureReqHandler@current_ep_data
  8634  0291                     i1l3838:
  8635                           
  8636                           ;mcc_generated_files/usb/usb_device.c: 2839:             if(current_ep_data.bits.ping_po
      +                          ng_state == 0)
  8637  0291  186A               	btfsc	USBStdFeatureReqHandler@current_ep_data,0
  8638  0292  2A94               	goto	u252_21
  8639  0293  2A95               	goto	u252_20
  8640  0294                     u252_21:
  8641  0294  2AA0               	goto	i1l3842
  8642  0295                     u252_20:
  8643  0295                     i1l3840:
  8644                           
  8645                           ;mcc_generated_files/usb/usb_device.c: 2840:             {;mcc_generated_files/usb/usb_d
      +                          evice.c: 2841:                 p = (BDT_ENTRY*)(((uint16_t)p) & (~0x0004));
  8646  0295  30FB               	movlw	251
  8647  0296  00E6               	movwf	??_USBStdFeatureReqHandler
  8648  0297  30FF               	movlw	255
  8649  0298  00E7               	movwf	??_USBStdFeatureReqHandler+1
  8650  0299  086B               	movf	USBStdFeatureReqHandler@p,w
  8651  029A  0566               	andwf	??_USBStdFeatureReqHandler,w
  8652  029B  00EB               	movwf	USBStdFeatureReqHandler@p
  8653  029C  086C               	movf	USBStdFeatureReqHandler@p+1,w
  8654  029D  0567               	andwf	??_USBStdFeatureReqHandler+1,w
  8655  029E  00EC               	movwf	USBStdFeatureReqHandler@p+1
  8656                           
  8657                           ;mcc_generated_files/usb/usb_device.c: 2842:             }
  8658  029F  2AA6               	goto	i1l3844
  8659  02A0                     i1l3842:
  8660                           
  8661                           ;mcc_generated_files/usb/usb_device.c: 2844:             {;mcc_generated_files/usb/usb_d
      +                          evice.c: 2845:                 p = (BDT_ENTRY*)(((uint16_t)p) | 0x0004);
  8662  02A0  3004               	movlw	4
  8663  02A1  046B               	iorwf	USBStdFeatureReqHandler@p,w
  8664  02A2  00EB               	movwf	USBStdFeatureReqHandler@p
  8665  02A3  3000               	movlw	0
  8666  02A4  046C               	iorwf	USBStdFeatureReqHandler@p+1,w
  8667  02A5  00EC               	movwf	USBStdFeatureReqHandler@p+1
  8668  02A6                     i1l3844:
  8669                           
  8670                           ;mcc_generated_files/usb/usb_device.c: 2851:         if(SetupPkt.EPDir == 0)
  8671  02A6  1BD4               	btfsc	84,7	;volatile
  8672  02A7  2AA9               	goto	u253_21
  8673  02A8  2AAA               	goto	u253_20
  8674  02A9                     u253_21:
  8675  02A9  2AB6               	goto	i1l3848
  8676  02AA                     u253_20:
  8677  02AA                     i1l3846:
  8678                           
  8679                           ;mcc_generated_files/usb/usb_device.c: 2852:         {;mcc_generated_files/usb/usb_devic
      +                          e.c: 2853:             pBDTEntryOut[SetupPkt.EPNum] = (volatile BDT_ENTRY *)p;
  8680  02AA  0854               	movf	84,w	;volatile
  8681  02AB  390F               	andlw	15
  8682  02AC  0709               	addwf	9,w
  8683  02AD  3EB0               	addlw	(low (_pBDTEntryOut| (0+256)))& (0+255)
  8684  02AE  0086               	movwf	6
  8685  02AF  3001               	movlw	1	; select bank3/4
  8686  02B0  0087               	movwf	7
  8687  02B1  086B               	movf	USBStdFeatureReqHandler@p,w
  8688  02B2  3FC0               	movwi [0]fsr1
  8689  02B3  086C               	movf	USBStdFeatureReqHandler@p+1,w
  8690  02B4  3FC1               	movwi [1]fsr1
  8691                           
  8692                           ;mcc_generated_files/usb/usb_device.c: 2854:         }
  8693  02B5  2AC0               	goto	i1l3850
  8694  02B6                     i1l3848:
  8695                           
  8696                           ;mcc_generated_files/usb/usb_device.c: 2856:         {;mcc_generated_files/usb/usb_devic
      +                          e.c: 2857:             pBDTEntryIn[SetupPkt.EPNum] = (volatile BDT_ENTRY *)p;
  8697  02B6  0854               	movf	84,w	;volatile
  8698  02B7  390F               	andlw	15
  8699  02B8  0709               	addwf	9,w
  8700  02B9  3EA7               	addlw	(low (_pBDTEntryIn| 0))& (0+255)
  8701  02BA  0086               	movwf	6
  8702  02BB  0187               	clrf	7
  8703  02BC  086B               	movf	USBStdFeatureReqHandler@p,w
  8704  02BD  3FC0               	movwi [0]fsr1
  8705  02BE  086C               	movf	USBStdFeatureReqHandler@p+1,w
  8706  02BF  3FC1               	movwi [1]fsr1
  8707  02C0                     i1l3850:
  8708                           
  8709                           ;mcc_generated_files/usb/usb_device.c: 2861:         if(SetupPkt.bRequest == 3)
  8710  02C0  3003               	movlw	3
  8711  02C1  0651               	xorwf	81,w	;volatile
  8712  02C2  1D03               	btfss	3,2
  8713  02C3  2AC5               	goto	u254_21
  8714  02C4  2AC6               	goto	u254_20
  8715  02C5                     u254_21:
  8716  02C5  2AEC               	goto	i1l3864
  8717  02C6                     u254_20:
  8718  02C6                     i1l3852:
  8719                           
  8720                           ;mcc_generated_files/usb/usb_device.c: 2862:         {;mcc_generated_files/usb/usb_devic
      +                          e.c: 2863:             if(p->STAT.UOWN == 1)
  8721  02C6  086B               	movf	USBStdFeatureReqHandler@p,w
  8722  02C7  0086               	movwf	6
  8723  02C8  086C               	movf	USBStdFeatureReqHandler@p+1,w
  8724  02C9  0087               	movwf	7
  8725  02CA  1F81               	btfss	1,7
  8726  02CB  2ACD               	goto	u255_21
  8727  02CC  2ACE               	goto	u255_20
  8728  02CD                     u255_21:
  8729  02CD  2AE1               	goto	i1l3860
  8730  02CE                     u255_20:
  8731  02CE                     i1l3854:
  8732                           
  8733                           ;mcc_generated_files/usb/usb_device.c: 2864:             {;mcc_generated_files/usb/usb_d
      +                          evice.c: 2867:                 if(SetupPkt.EPDir == 0)
  8734  02CE  1BD4               	btfsc	84,7	;volatile
  8735  02CF  2AD1               	goto	u256_21
  8736  02D0  2AD2               	goto	u256_20
  8737  02D1                     u256_21:
  8738  02D1  2ADA               	goto	i1l3858
  8739  02D2                     u256_20:
  8740  02D2                     i1l3856:
  8741                           
  8742                           ;mcc_generated_files/usb/usb_device.c: 2868:                 {;mcc_generated_files/usb/u
      +                          sb_device.c: 2869:                     ep_data_out[SetupPkt.EPNum].bits.transfer_termina
      +                          ted = 1;
  8743  02D2  0854               	movf	84,w	;volatile
  8744  02D3  390F               	andlw	15
  8745  02D4  3EBE               	addlw	(low (_ep_data_out| (0+256)))& (0+255)
  8746  02D5  0086               	movwf	6
  8747  02D6  3001               	movlw	1	; select bank3/4
  8748  02D7  0087               	movwf	7
  8749  02D8  1481               	bsf	1,1
  8750                           
  8751                           ;mcc_generated_files/usb/usb_device.c: 2870:                 }
  8752  02D9  2AE1               	goto	i1l3860
  8753  02DA                     i1l3858:
  8754                           
  8755                           ;mcc_generated_files/usb/usb_device.c: 2872:                 {;mcc_generated_files/usb/u
      +                          sb_device.c: 2873:                     ep_data_in[SetupPkt.EPNum].bits.transfer_terminat
      +                          ed = 1;
  8756  02DA  0854               	movf	84,w	;volatile
  8757  02DB  390F               	andlw	15
  8758  02DC  3EC1               	addlw	(low (_ep_data_in| (0+256)))& (0+255)
  8759  02DD  0086               	movwf	6
  8760  02DE  3001               	movlw	1	; select bank3/4
  8761  02DF  0087               	movwf	7
  8762  02E0  1481               	bsf	1,1
  8763  02E1                     i1l3860:
  8764                           
  8765                           ;mcc_generated_files/usb/usb_device.c: 2878:             p->STAT.Val |= 0x04;
  8766  02E1  086B               	movf	USBStdFeatureReqHandler@p,w
  8767  02E2  0086               	movwf	6
  8768  02E3  086C               	movf	USBStdFeatureReqHandler@p+1,w
  8769  02E4  0087               	movwf	7
  8770  02E5  1501               	bsf	1,2
  8771  02E6                     i1l3862:
  8772                           
  8773                           ;mcc_generated_files/usb/usb_device.c: 2879:             p->STAT.Val |= 0x80;
  8774  02E6  086B               	movf	USBStdFeatureReqHandler@p,w
  8775  02E7  0086               	movwf	6
  8776  02E8  086C               	movf	USBStdFeatureReqHandler@p+1,w
  8777  02E9  0087               	movwf	7
  8778  02EA  1781               	bsf	1,7
  8779                           
  8780                           ;mcc_generated_files/usb/usb_device.c: 2880:         }
  8781  02EB  2B76               	goto	i1l386
  8782  02EC                     i1l3864:
  8783                           
  8784                           ;mcc_generated_files/usb/usb_device.c: 2882:         {;mcc_generated_files/usb/usb_devic
      +                          e.c: 2886:                 p = (BDT_ENTRY*)(((uint16_t)p) ^ 0x0004);
  8785  02EC  3004               	movlw	4
  8786  02ED  066B               	xorwf	USBStdFeatureReqHandler@p,w
  8787  02EE  00EB               	movwf	USBStdFeatureReqHandler@p
  8788  02EF  3000               	movlw	0
  8789  02F0  066C               	xorwf	USBStdFeatureReqHandler@p+1,w
  8790  02F1  00EC               	movwf	USBStdFeatureReqHandler@p+1
  8791  02F2                     i1l3866:
  8792                           
  8793                           ;mcc_generated_files/usb/usb_device.c: 2888:                 if(p->STAT.UOWN == 1)
  8794  02F2  086B               	movf	USBStdFeatureReqHandler@p,w
  8795  02F3  0086               	movwf	6
  8796  02F4  086C               	movf	USBStdFeatureReqHandler@p+1,w
  8797  02F5  0087               	movwf	7
  8798  02F6  1F81               	btfss	1,7
  8799  02F7  2AF9               	goto	u257_21
  8800  02F8  2AFA               	goto	u257_20
  8801  02F9                     u257_21:
  8802  02F9  2B17               	goto	i1l3874
  8803  02FA                     u257_20:
  8804  02FA                     i1l3868:
  8805                           
  8806                           ;mcc_generated_files/usb/usb_device.c: 2889:                 {;mcc_generated_files/usb/u
      +                          sb_device.c: 2892:                     p->STAT.Val &= (~0x80);
  8807  02FA  307F               	movlw	127
  8808  02FB  00E6               	movwf	??_USBStdFeatureReqHandler
  8809  02FC  086B               	movf	USBStdFeatureReqHandler@p,w
  8810  02FD  0086               	movwf	6
  8811  02FE  086C               	movf	USBStdFeatureReqHandler@p+1,w
  8812  02FF  0087               	movwf	7
  8813  0300  0866               	movf	??_USBStdFeatureReqHandler,w
  8814  0301  0581               	andwf	1,f
  8815  0302                     i1l3870:
  8816                           
  8817                           ;mcc_generated_files/usb/usb_device.c: 2893:                     p->STAT.Val |= 0x40;
  8818  0302  086B               	movf	USBStdFeatureReqHandler@p,w
  8819  0303  0086               	movwf	6
  8820  0304  086C               	movf	USBStdFeatureReqHandler@p+1,w
  8821  0305  0087               	movwf	7
  8822  0306  1701               	bsf	1,6
  8823  0307                     i1l3872:
  8824                           
  8825                           ;mcc_generated_files/usb/usb_device.c: 2894:                     USER_USB_CALLBACK_EVENT
      +                          _HANDLER((USB_EVENT)EVENT_TRANSFER_TERMINATED,p,sizeof(p));
  8826  0307  3005               	movlw	5
  8827  0308  00E0               	movwf	USER_USB_CALLBACK_EVENT_HANDLER@event
  8828  0309  3000               	movlw	0
  8829  030A  00E1               	movwf	USER_USB_CALLBACK_EVENT_HANDLER@event+1
  8830  030B  086C               	movf	USBStdFeatureReqHandler@p+1,w
  8831  030C  00E3               	movwf	USER_USB_CALLBACK_EVENT_HANDLER@pdata+1
  8832  030D  086B               	movf	USBStdFeatureReqHandler@p,w
  8833  030E  00E2               	movwf	USER_USB_CALLBACK_EVENT_HANDLER@pdata
  8834  030F  3002               	movlw	2
  8835  0310  00E4               	movwf	USER_USB_CALLBACK_EVENT_HANDLER@size
  8836  0311  3000               	movlw	0
  8837  0312  00E5               	movwf	USER_USB_CALLBACK_EVENT_HANDLER@size+1
  8838  0313  3188  200C  3182   	fcall	_USER_USB_CALLBACK_EVENT_HANDLER
  8839                           
  8840                           ;mcc_generated_files/usb/usb_device.c: 2895:                 }
  8841  0316  2B1C               	goto	i1l3876
  8842  0317                     i1l3874:
  8843                           
  8844                           ;mcc_generated_files/usb/usb_device.c: 2897:                 {;mcc_generated_files/usb/u
      +                          sb_device.c: 2899:      p->STAT.Val |= 0x40;
  8845  0317  086B               	movf	USBStdFeatureReqHandler@p,w
  8846  0318  0086               	movwf	6
  8847  0319  086C               	movf	USBStdFeatureReqHandler@p+1,w
  8848  031A  0087               	movwf	7
  8849  031B  1701               	bsf	1,6
  8850  031C                     i1l3876:
  8851                           
  8852                           ;mcc_generated_files/usb/usb_device.c: 2904:                 p = (BDT_ENTRY*)(((uint16_t
      +                          )p) ^ 0x0004);
  8853  031C  3004               	movlw	4
  8854  031D  0020               	movlb	0	; select bank0
  8855  031E  066B               	xorwf	USBStdFeatureReqHandler@p,w
  8856  031F  00EB               	movwf	USBStdFeatureReqHandler@p
  8857  0320  3000               	movlw	0
  8858  0321  066C               	xorwf	USBStdFeatureReqHandler@p+1,w
  8859  0322  00EC               	movwf	USBStdFeatureReqHandler@p+1
  8860  0323                     i1l3878:
  8861                           
  8862                           ;mcc_generated_files/usb/usb_device.c: 2910:                 if((current_ep_data.bits.tr
      +                          ansfer_terminated != 0) || (p->STAT.UOWN == 1))
  8863  0323  18EA               	btfsc	USBStdFeatureReqHandler@current_ep_data,1
  8864  0324  2B26               	goto	u258_21
  8865  0325  2B27               	goto	u258_20
  8866  0326                     u258_21:
  8867  0326  2B2F               	goto	i1l382
  8868  0327                     u258_20:
  8869  0327                     i1l3880:
  8870  0327  086B               	movf	USBStdFeatureReqHandler@p,w
  8871  0328  0086               	movwf	6
  8872  0329  086C               	movf	USBStdFeatureReqHandler@p+1,w
  8873  032A  0087               	movwf	7
  8874  032B  1F81               	btfss	1,7
  8875  032C  2B2E               	goto	u259_21
  8876  032D  2B2F               	goto	u259_20
  8877  032E                     u259_21:
  8878  032E  2B5A               	goto	i1l3888
  8879  032F                     u259_20:
  8880  032F                     i1l382:
  8881                           
  8882                           ;mcc_generated_files/usb/usb_device.c: 2911:                 {;mcc_generated_files/usb/u
      +                          sb_device.c: 2912:                     if(SetupPkt.EPDir == 0)
  8883  032F  1BD4               	btfsc	84,7	;volatile
  8884  0330  2B32               	goto	u260_21
  8885  0331  2B33               	goto	u260_20
  8886  0332                     u260_21:
  8887  0332  2B3B               	goto	i1l3884
  8888  0333                     u260_20:
  8889  0333                     i1l3882:
  8890                           
  8891                           ;mcc_generated_files/usb/usb_device.c: 2913:                     {;mcc_generated_files/u
      +                          sb/usb_device.c: 2914:                         ep_data_out[SetupPkt.EPNum].bits.transfer
      +                          _terminated = 0;
  8892  0333  0854               	movf	84,w	;volatile
  8893  0334  390F               	andlw	15
  8894  0335  3EBE               	addlw	(low (_ep_data_out| (0+256)))& (0+255)
  8895  0336  0086               	movwf	6
  8896  0337  3001               	movlw	1	; select bank3/4
  8897  0338  0087               	movwf	7
  8898  0339  1081               	bcf	1,1
  8899                           
  8900                           ;mcc_generated_files/usb/usb_device.c: 2915:                     }
  8901  033A  2B42               	goto	i1l384
  8902  033B                     i1l3884:
  8903                           
  8904                           ;mcc_generated_files/usb/usb_device.c: 2917:                     {;mcc_generated_files/u
      +                          sb/usb_device.c: 2918:                         ep_data_in[SetupPkt.EPNum].bits.transfer_
      +                          terminated = 0;
  8905  033B  0854               	movf	84,w	;volatile
  8906  033C  390F               	andlw	15
  8907  033D  3EC1               	addlw	(low (_ep_data_in| (0+256)))& (0+255)
  8908  033E  0086               	movwf	6
  8909  033F  3001               	movlw	1	; select bank3/4
  8910  0340  0087               	movwf	7
  8911  0341  1081               	bcf	1,1
  8912  0342                     i1l384:	
  8913                           ;mcc_generated_files/usb/usb_device.c: 2919:                     }
  8914                           
  8915                           
  8916                           ;mcc_generated_files/usb/usb_device.c: 2921:                     p->STAT.Val &= ~(0x80 |
      +                           0x40 | 0x04);
  8917  0342  303B               	movlw	59
  8918  0343  00E6               	movwf	??_USBStdFeatureReqHandler
  8919  0344  086B               	movf	USBStdFeatureReqHandler@p,w
  8920  0345  0086               	movwf	6
  8921  0346  086C               	movf	USBStdFeatureReqHandler@p+1,w
  8922  0347  0087               	movwf	7
  8923  0348  0866               	movf	??_USBStdFeatureReqHandler,w
  8924  0349  0581               	andwf	1,f
  8925  034A                     i1l3886:
  8926                           
  8927                           ;mcc_generated_files/usb/usb_device.c: 2924:                     USER_USB_CALLBACK_EVENT
      +                          _HANDLER((USB_EVENT)EVENT_TRANSFER_TERMINATED,p,sizeof(p));
  8928  034A  3005               	movlw	5
  8929  034B  00E0               	movwf	USER_USB_CALLBACK_EVENT_HANDLER@event
  8930  034C  3000               	movlw	0
  8931  034D  00E1               	movwf	USER_USB_CALLBACK_EVENT_HANDLER@event+1
  8932  034E  086C               	movf	USBStdFeatureReqHandler@p+1,w
  8933  034F  00E3               	movwf	USER_USB_CALLBACK_EVENT_HANDLER@pdata+1
  8934  0350  086B               	movf	USBStdFeatureReqHandler@p,w
  8935  0351  00E2               	movwf	USER_USB_CALLBACK_EVENT_HANDLER@pdata
  8936  0352  3002               	movlw	2
  8937  0353  00E4               	movwf	USER_USB_CALLBACK_EVENT_HANDLER@size
  8938  0354  3000               	movlw	0
  8939  0355  00E5               	movwf	USER_USB_CALLBACK_EVENT_HANDLER@size+1
  8940  0356  3188  200C  3182   	fcall	_USER_USB_CALLBACK_EVENT_HANDLER
  8941                           
  8942                           ;mcc_generated_files/usb/usb_device.c: 2925:                 }
  8943  0359  2B62               	goto	i1l3890
  8944  035A                     i1l3888:
  8945                           
  8946                           ;mcc_generated_files/usb/usb_device.c: 2927:                 {;mcc_generated_files/usb/u
      +                          sb_device.c: 2929:                     p->STAT.Val &= ~(0x80 | 0x40 | 0x04);
  8947  035A  303B               	movlw	59
  8948  035B  00E6               	movwf	??_USBStdFeatureReqHandler
  8949  035C  086B               	movf	USBStdFeatureReqHandler@p,w
  8950  035D  0086               	movwf	6
  8951  035E  086C               	movf	USBStdFeatureReqHandler@p+1,w
  8952  035F  0087               	movwf	7
  8953  0360  0866               	movf	??_USBStdFeatureReqHandler,w
  8954  0361  0581               	andwf	1,f
  8955  0362                     i1l3890:
  8956                           
  8957                           ;mcc_generated_files/usb/usb_device.c: 2977:                 pUEP = (unsigned char*)(&UE
      +                          P0+SetupPkt.EPNum);
  8958  0362  0020               	movlb	0	; select bank0
  8959  0363  0854               	movf	84,w	;volatile
  8960  0364  390F               	andlw	15
  8961  0365  3E98               	addlw	152
  8962  0366  00E6               	movwf	??_USBStdFeatureReqHandler
  8963  0367  01E7               	clrf	??_USBStdFeatureReqHandler+1
  8964  0368  300E               	movlw	14
  8965  0369  3DE7               	addwfc	??_USBStdFeatureReqHandler+1,f
  8966  036A  0866               	movf	??_USBStdFeatureReqHandler,w
  8967  036B  00E8               	movwf	USBStdFeatureReqHandler@pUEP
  8968  036C  0867               	movf	??_USBStdFeatureReqHandler+1,w
  8969  036D  00E9               	movwf	USBStdFeatureReqHandler@pUEP+1
  8970  036E                     i1l3892:
  8971                           
  8972                           ;mcc_generated_files/usb/usb_device.c: 2981:             *pUEP &= ~0x0001;
  8973  036E  30FE               	movlw	254
  8974  036F  00E6               	movwf	??_USBStdFeatureReqHandler
  8975  0370  0868               	movf	USBStdFeatureReqHandler@pUEP,w
  8976  0371  0086               	movwf	6
  8977  0372  0869               	movf	USBStdFeatureReqHandler@pUEP+1,w
  8978  0373  0087               	movwf	7
  8979  0374  0866               	movf	??_USBStdFeatureReqHandler,w
  8980  0375  0581               	andwf	1,f
  8981  0376                     i1l386:
  8982  0376  0008               	return
  8983  0377                     __end_of_USBStdFeatureReqHandler:
  8984                           
  8985                           	psect	text30
  8986  080C                     __ptext30:	
  8987 ;; *************** function _USER_USB_CALLBACK_EVENT_HANDLER *****************
  8988 ;; Defined at:
  8989 ;;		line 49 in file "mcc_generated_files/usb/usb_device_events.c"
  8990 ;; Parameters:    Size  Location     Type
  8991 ;;  event           2    0[BANK0 ] enum E46
  8992 ;;  pdata           2    2[BANK0 ] PTR void 
  8993 ;;		 -> RAM(4096), USTATcopy(1), USBActiveConfiguration(1), NULL(0), 
  8994 ;;		 -> BDT(48), 
  8995 ;;  size            2    4[BANK0 ] unsigned short 
  8996 ;; Auto vars:     Size  Location     Type
  8997 ;;		None
  8998 ;; Return value:  Size  Location     Type
  8999 ;;                  1    wreg      _Bool 
  9000 ;; Registers used:
  9001 ;;		wreg, fsr0l, fsr0h, fsr1l, fsr1h, status,2, status,0, pclath, cstack
  9002 ;; Tracked objects:
  9003 ;;		On entry : 0/0
  9004 ;;		On exit  : 0/0
  9005 ;;		Unchanged: 0/0
  9006 ;; Data sizes:     COMMON   BANK0   BANK1   BANK2   BANK3   BANK4   BANK5   BANK6   BANK7   BANK8   BANK9  BANK10  BANK1
      +1  BANK12
  9007 ;;      Params:         0       6       0       0       0       0       0       0       0       0       0       0       
      +0       0
  9008 ;;      Locals:         0       0       0       0       0       0       0       0       0       0       0       0       
      +0       0
  9009 ;;      Temps:          0       0       0       0       0       0       0       0       0       0       0       0       
      +0       0
  9010 ;;      Totals:         0       6       0       0       0       0       0       0       0       0       0       0       
      +0       0
  9011 ;;Total ram usage:        6 bytes
  9012 ;; Hardware stack levels used:    1
  9013 ;; Hardware stack levels required when called:    3
  9014 ;; This function calls:
  9015 ;;		_CDCInitEP
  9016 ;;		_USBCheckCDCRequest
  9017 ;; This function is called by:
  9018 ;;		_USBDeviceTasks
  9019 ;;		_USBStdSetCfgHandler
  9020 ;;		_USBSuspend
  9021 ;;		_USBWakeFromSuspend
  9022 ;;		_USBCtrlTrfSetupHandler
  9023 ;;		_USBCheckStdRequest
  9024 ;;		_USBStdFeatureReqHandler
  9025 ;; This function uses a non-reentrant model
  9026 ;;
  9027                           
  9028                           
  9029                           ;psect for function _USER_USB_CALLBACK_EVENT_HANDLER
  9030  080C                     _USER_USB_CALLBACK_EVENT_HANDLER:
  9031  080C                     i1l3530:	
  9032                           ;incstack = 0
  9033                           ; Regs used in _USER_USB_CALLBACK_EVENT_HANDLER: [wreg-fsr1h+status,2+status,0+pclath+cs
      +                          tack]
  9034                           
  9035                           
  9036                           ;mcc_generated_files/usb/usb_device_events.c: 49: _Bool USER_USB_CALLBACK_EVENT_HANDLER(
      +                          USB_EVENT event, void *pdata, uint16_t size);mcc_generated_files/usb/usb_device_events.c
      +                          : 50: {;mcc_generated_files/usb/usb_device_events.c: 51:     switch( (int) event )
  9037  080C  2815               	goto	i1l3538
  9038  080D                     i1l3532:
  9039                           
  9040                           ;mcc_generated_files/usb/usb_device_events.c: 76:             CDCInitEP();
  9041  080D  3188  203E  3188   	fcall	_CDCInitEP
  9042                           
  9043                           ;mcc_generated_files/usb/usb_device_events.c: 77:             break;
  9044  0810  283D               	goto	i1l549
  9045  0811                     i1l3534:
  9046                           
  9047                           ;mcc_generated_files/usb/usb_device_events.c: 85:             USBCheckCDCRequest();
  9048  0811  318A  22B0  3188   	fcall	_USBCheckCDCRequest
  9049                           
  9050                           ;mcc_generated_files/usb/usb_device_events.c: 86:             break;
  9051  0814  283D               	goto	i1l549
  9052  0815                     i1l3538:
  9053                           
  9054                           ; Switch on 2 bytes has been partitioned into a top level switch of size 1, and 2 sub-sw
      +                          itches
  9055                           ; Switch size 1, requested type "simple"
  9056                           ; Number of cases is 2, Range of values is 0 to 127
  9057                           ; switch strategies available:
  9058                           ; Name         Instructions Cycles
  9059                           ; simple_byte            7     4 (average)
  9060                           ; direct_byte          262     6 (fixed)
  9061                           ; jumptable            260     6 (fixed)
  9062                           ;	Chosen strategy is simple_byte
  9063  0815  0020               	movlb	0	; select bank0
  9064  0816  0861               	movf	USER_USB_CALLBACK_EVENT_HANDLER@event+1,w
  9065  0817  3A00               	xorlw	0	; case 0
  9066  0818  1903               	skipnz
  9067  0819  281E               	goto	i1l5548
  9068  081A  3A7F               	xorlw	127	; case 127
  9069  081B  1903               	skipnz
  9070  081C  2838               	goto	i1l5550
  9071  081D  283D               	goto	i1l549
  9072  081E                     i1l5548:
  9073                           
  9074                           ; Switch size 1, requested type "simple"
  9075                           ; Number of cases is 8, Range of values is 1 to 117
  9076                           ; switch strategies available:
  9077                           ; Name         Instructions Cycles
  9078                           ; simple_byte           25    13 (average)
  9079                           ; direct_byte          243     9 (fixed)
  9080                           ; jumptable            263     9 (fixed)
  9081                           ;	Chosen strategy is simple_byte
  9082  081E  0860               	movf	USER_USB_CALLBACK_EVENT_HANDLER@event,w
  9083  081F  3A01               	xorlw	1	; case 1
  9084  0820  1903               	skipnz
  9085  0821  280D               	goto	i1l3532
  9086  0822  3A03               	xorlw	3	; case 2
  9087  0823  1903               	skipnz
  9088  0824  283D               	goto	i1l549
  9089  0825  3A01               	xorlw	1	; case 3
  9090  0826  1903               	skipnz
  9091  0827  2811               	goto	i1l3534
  9092  0828  3A06               	xorlw	6	; case 5
  9093  0829  1903               	skipnz
  9094  082A  283D               	goto	i1l549
  9095  082B  3A77               	xorlw	119	; case 114
  9096  082C  1903               	skipnz
  9097  082D  283D               	goto	i1l549
  9098  082E  3A01               	xorlw	1	; case 115
  9099  082F  1903               	skipnz
  9100  0830  283D               	goto	i1l549
  9101  0831  3A07               	xorlw	7	; case 116
  9102  0832  1903               	skipnz
  9103  0833  283D               	goto	i1l549
  9104  0834  3A01               	xorlw	1	; case 117
  9105  0835  1903               	skipnz
  9106  0836  283D               	goto	i1l549
  9107  0837  283D               	goto	i1l549
  9108  0838                     i1l5550:
  9109                           
  9110                           ; Switch size 1, requested type "simple"
  9111                           ; Number of cases is 1, Range of values is 255 to 255
  9112                           ; switch strategies available:
  9113                           ; Name         Instructions Cycles
  9114                           ; simple_byte            4     3 (average)
  9115                           ; direct_byte            7     5 (fixed)
  9116                           ; jumptable            263     9 (fixed)
  9117                           ;	Chosen strategy is simple_byte
  9118  0838  0860               	movf	USER_USB_CALLBACK_EVENT_HANDLER@event,w
  9119  0839  3AFF               	xorlw	255	; case 255
  9120  083A  1903               	skipnz
  9121  083B  283D               	goto	i1l549
  9122  083C  283D               	goto	i1l549
  9123  083D                     i1l549:
  9124  083D  0008               	return
  9125  083E                     __end_of_USER_USB_CALLBACK_EVENT_HANDLER:
  9126                           
  9127                           	psect	text31
  9128  0AB0                     __ptext31:	
  9129 ;; *************** function _USBCheckCDCRequest *****************
  9130 ;; Defined at:
  9131 ;;		line 147 in file "mcc_generated_files/usb/usb_device_cdc.c"
  9132 ;; Parameters:    Size  Location     Type
  9133 ;;		None
  9134 ;; Auto vars:     Size  Location     Type
  9135 ;;		None
  9136 ;; Return value:  Size  Location     Type
  9137 ;;                  1    wreg      void 
  9138 ;; Registers used:
  9139 ;;		wreg, fsr0l, fsr0h, status,2, status,0
  9140 ;; Tracked objects:
  9141 ;;		On entry : 0/0
  9142 ;;		On exit  : 0/0
  9143 ;;		Unchanged: 0/0
  9144 ;; Data sizes:     COMMON   BANK0   BANK1   BANK2   BANK3   BANK4   BANK5   BANK6   BANK7   BANK8   BANK9  BANK10  BANK1
      +1  BANK12
  9145 ;;      Params:         0       0       0       0       0       0       0       0       0       0       0       0       
      +0       0
  9146 ;;      Locals:         0       0       0       0       0       0       0       0       0       0       0       0       
      +0       0
  9147 ;;      Temps:          2       0       0       0       0       0       0       0       0       0       0       0       
      +0       0
  9148 ;;      Totals:         2       0       0       0       0       0       0       0       0       0       0       0       
      +0       0
  9149 ;;Total ram usage:        2 bytes
  9150 ;; Hardware stack levels used:    1
  9151 ;; This function calls:
  9152 ;;		Nothing
  9153 ;; This function is called by:
  9154 ;;		_USER_USB_CALLBACK_EVENT_HANDLER
  9155 ;; This function uses a non-reentrant model
  9156 ;;
  9157                           
  9158                           
  9159                           ;psect for function _USBCheckCDCRequest
  9160  0AB0                     _USBCheckCDCRequest:
  9161  0AB0                     i1l3462:	
  9162                           ;incstack = 0
  9163                           ; Regs used in _USBCheckCDCRequest: [wreg-fsr0h+status,2+status,0]
  9164                           
  9165                           
  9166                           ;mcc_generated_files/usb/usb_device_cdc.c: 152:     if(SetupPkt.Recipient != (0x01)) ret
      +                          urn;
  9167  0AB0  0020               	movlb	0	; select bank0
  9168  0AB1  0850               	movf	80,w	;volatile
  9169  0AB2  391F               	andlw	31
  9170  0AB3  3A01               	xorlw	1
  9171  0AB4  1903               	skipnz
  9172  0AB5  2AB7               	goto	u211_21
  9173  0AB6  2AB8               	goto	u211_20
  9174  0AB7                     u211_21:
  9175  0AB7  2AB9               	goto	i1l3466
  9176  0AB8                     u211_20:
  9177  0AB8  2B1E               	goto	i1l442
  9178  0AB9                     i1l3466:
  9179                           
  9180                           ;mcc_generated_files/usb/usb_device_cdc.c: 157:     if(SetupPkt.RequestType != (0x20>>5)
      +                          ) return;
  9181  0AB9  0E50               	swapf	80,w	;volatile
  9182  0ABA  0C89               	rrf	9,f
  9183  0ABB  3903               	andlw	3
  9184  0ABC  3A01               	xorlw	1
  9185  0ABD  1903               	skipnz
  9186  0ABE  2AC0               	goto	u212_21
  9187  0ABF  2AC1               	goto	u212_20
  9188  0AC0                     u212_21:
  9189  0AC0  2AC2               	goto	i1l3470
  9190  0AC1                     u212_20:
  9191  0AC1  2B1E               	goto	i1l442
  9192  0AC2                     i1l3470:
  9193                           
  9194                           ;mcc_generated_files/usb/usb_device_cdc.c: 163:     if((SetupPkt.bIntfID != 0x0)&&
  9195  0AC2  0854               	movf	84,w	;volatile
  9196  0AC3  1903               	btfsc	3,2
  9197  0AC4  2AC6               	goto	u213_21
  9198  0AC5  2AC7               	goto	u213_20
  9199  0AC6                     u213_21:
  9200  0AC6  2B05               	goto	i1l3506
  9201  0AC7                     u213_20:
  9202  0AC7                     i1l3472:
  9203  0AC7  0354               	decf	84,w	;volatile
  9204  0AC8  1903               	btfsc	3,2
  9205  0AC9  2ACB               	goto	u214_21
  9206  0ACA  2ACC               	goto	u214_20
  9207  0ACB                     u214_21:
  9208  0ACB  2B05               	goto	i1l3506
  9209  0ACC                     u214_20:
  9210  0ACC  2B1E               	goto	i1l442
  9211  0ACD                     i1l3476:
  9212                           
  9213                           ;mcc_generated_files/usb/usb_device_cdc.c: 171:             inPipes[0].pSrc.bRam = (uint
      +                          8_t*)&dummy_encapsulated_cmd_response;
  9214  0ACD  304A               	movlw	low _dummy_encapsulated_cmd_response
  9215  0ACE  0021               	movlb	1	; select bank1
  9216  0ACF  00AD               	movwf	_inPipes^(0+128)	;volatile
  9217  0AD0  3002               	movlw	high _dummy_encapsulated_cmd_response
  9218  0AD1  00AE               	movwf	(_inPipes+1)^(0+128)	;volatile
  9219  0AD2                     i1l3478:
  9220                           
  9221                           ;mcc_generated_files/usb/usb_device_cdc.c: 172:             inPipes[0].wCount.Val = 0x08
      +                          ;
  9222  0AD2  3000               	movlw	0
  9223  0AD3  00B1               	movwf	((_inPipes+1)^(0+128)+3)	;volatile
  9224  0AD4  3008               	movlw	8
  9225  0AD5  00B0               	movwf	(_inPipes^(0+128)+3)	;volatile
  9226  0AD6                     i1l3480:
  9227                           
  9228                           ;mcc_generated_files/usb/usb_device_cdc.c: 173:             inPipes[0].info.bits.ctrl_tr
      +                          f_mem = 0x01;
  9229  0AD6  142F               	bsf	(_inPipes^(0+128)+2),0	;volatile
  9230  0AD7                     i1l3482:
  9231                           
  9232                           ;mcc_generated_files/usb/usb_device_cdc.c: 174:             inPipes[0].info.bits.busy = 
      +                          1;
  9233  0AD7  17AF               	bsf	(_inPipes^(0+128)+2),7	;volatile
  9234                           
  9235                           ;mcc_generated_files/usb/usb_device_cdc.c: 175:             break;
  9236  0AD8  2B1E               	goto	i1l442
  9237  0AD9                     i1l3484:
  9238                           
  9239                           ;mcc_generated_files/usb/usb_device_cdc.c: 178:             inPipes[0].pSrc.bRam = (uint
      +                          8_t*)&dummy_encapsulated_cmd_response;
  9240  0AD9  304A               	movlw	low _dummy_encapsulated_cmd_response
  9241  0ADA  0021               	movlb	1	; select bank1
  9242  0ADB  00AD               	movwf	_inPipes^(0+128)	;volatile
  9243  0ADC  3002               	movlw	high _dummy_encapsulated_cmd_response
  9244  0ADD  00AE               	movwf	(_inPipes+1)^(0+128)	;volatile
  9245  0ADE                     i1l3486:
  9246                           
  9247                           ;mcc_generated_files/usb/usb_device_cdc.c: 179:             inPipes[0].info.bits.busy = 
      +                          1;
  9248  0ADE  17AF               	bsf	(_inPipes^(0+128)+2),7	;volatile
  9249                           
  9250                           ;mcc_generated_files/usb/usb_device_cdc.c: 180:             break;
  9251  0ADF  2B1E               	goto	i1l442
  9252  0AE0                     i1l3488:
  9253                           
  9254                           ;mcc_generated_files/usb/usb_device_cdc.c: 185:             outPipes[0].wCount.Val = Set
      +                          upPkt.wLength;
  9255  0AE0  0857               	movf	87,w	;volatile
  9256  0AE1  0021               	movlb	1	; select bank1
  9257  0AE2  00A4               	movwf	((_outPipes+1)^(0+128)+3)	;volatile
  9258  0AE3  0020               	movlb	0	; select bank0
  9259  0AE4  0856               	movf	86,w	;volatile
  9260  0AE5  0021               	movlb	1	; select bank1
  9261  0AE6  00A3               	movwf	(_outPipes^(0+128)+3)	;volatile
  9262                           
  9263                           ;mcc_generated_files/usb/usb_device_cdc.c: 186:             outPipes[0].pDst.bRam = (uin
      +                          t8_t*)&line_coding._byte[0];
  9264  0AE7  3052               	movlw	(low (_line_coding| (0+512)))& (0+255)
  9265  0AE8  00F0               	movwf	??_USBCheckCDCRequest
  9266  0AE9  0870               	movf	??_USBCheckCDCRequest,w
  9267  0AEA  00A0               	movwf	_outPipes^(0+128)	;volatile
  9268  0AEB                     i1l3490:
  9269                           
  9270                           ;mcc_generated_files/usb/usb_device_cdc.c: 187:             outPipes[0].pFunc = ((void*)
      +                          0);
  9271  0AEB  01A5               	clrf	(low ((_outPipes| 0+5)))^(0+128)	;volatile
  9272  0AEC  01A6               	clrf	((low ((_outPipes| 0+5))+1))^(0+128)	;volatile
  9273  0AED                     i1l3492:
  9274                           
  9275                           ;mcc_generated_files/usb/usb_device_cdc.c: 188:             outPipes[0].info.bits.busy =
      +                           1;
  9276  0AED  17A2               	bsf	(_outPipes^(0+128)+2),7	;volatile
  9277                           
  9278                           ;mcc_generated_files/usb/usb_device_cdc.c: 189:             break;
  9279  0AEE  2B1E               	goto	i1l442
  9280  0AEF                     i1l3494:
  9281                           
  9282                           ;mcc_generated_files/usb/usb_device_cdc.c: 192:             { inPipes[0].pSrc.bRam = (ui
      +                          nt8_t*)&line_coding; inPipes[0].wCount.Val = 0x07; inPipes[0].info.Val = 0x40 | 0x80 | 0
      +                          x01; };
  9283  0AEF  3052               	movlw	low _line_coding
  9284  0AF0  0021               	movlb	1	; select bank1
  9285  0AF1  00AD               	movwf	_inPipes^(0+128)	;volatile
  9286  0AF2  3002               	movlw	high _line_coding
  9287  0AF3  00AE               	movwf	(_inPipes+1)^(0+128)	;volatile
  9288  0AF4                     i1l3496:
  9289  0AF4  3000               	movlw	0
  9290  0AF5  00B1               	movwf	((_inPipes+1)^(0+128)+3)	;volatile
  9291  0AF6  3007               	movlw	7
  9292  0AF7  00B0               	movwf	(_inPipes^(0+128)+3)	;volatile
  9293  0AF8                     i1l3498:
  9294  0AF8  30C1               	movlw	193
  9295  0AF9  00F0               	movwf	??_USBCheckCDCRequest
  9296  0AFA  0870               	movf	??_USBCheckCDCRequest,w
  9297  0AFB  00AF               	movwf	(_inPipes^(0+128)+2)	;volatile
  9298                           
  9299                           ;mcc_generated_files/usb/usb_device_cdc.c: 196:             break;
  9300  0AFC  2B1E               	goto	i1l442
  9301  0AFD                     i1l3500:
  9302                           
  9303                           ;mcc_generated_files/usb/usb_device_cdc.c: 199:             control_signal_bitmap._byte 
      +                          = (uint8_t)SetupPkt.wValue;
  9304  0AFD  0852               	movf	82,w	;volatile
  9305  0AFE  00F0               	movwf	??_USBCheckCDCRequest
  9306  0AFF  0870               	movf	??_USBCheckCDCRequest,w
  9307  0B00  0023               	movlb	3	; select bank3
  9308  0B01  00DF               	movwf	_control_signal_bitmap^(0+384)
  9309  0B02                     i1l3502:
  9310                           
  9311                           ;mcc_generated_files/usb/usb_device_cdc.c: 231:             inPipes[0].info.bits.busy = 
      +                          1;
  9312  0B02  0021               	movlb	1	; select bank1
  9313  0B03  17AF               	bsf	(_inPipes^(0+128)+2),7	;volatile
  9314                           
  9315                           ;mcc_generated_files/usb/usb_device_cdc.c: 232:             break;
  9316  0B04  2B1E               	goto	i1l442
  9317  0B05                     i1l3506:
  9318  0B05  0851               	movf	81,w	;volatile
  9319  0B06  00F0               	movwf	??_USBCheckCDCRequest
  9320  0B07  01F1               	clrf	??_USBCheckCDCRequest+1
  9321                           
  9322                           ; Switch on 2 bytes has been partitioned into a top level switch of size 1, and 1 sub-sw
      +                          itches
  9323                           ; Switch size 1, requested type "simple"
  9324                           ; Number of cases is 1, Range of values is 0 to 0
  9325                           ; switch strategies available:
  9326                           ; Name         Instructions Cycles
  9327                           ; simple_byte            4     3 (average)
  9328                           ; direct_byte            8     6 (fixed)
  9329                           ; jumptable            260     6 (fixed)
  9330                           ;	Chosen strategy is simple_byte
  9331  0B08  0871               	movf	??_USBCheckCDCRequest+1,w
  9332  0B09  3A00               	xorlw	0	; case 0
  9333  0B0A  1903               	skipnz
  9334  0B0B  2B0D               	goto	i1l5552
  9335  0B0C  2B1E               	goto	i1l442
  9336  0B0D                     i1l5552:
  9337                           
  9338                           ; Switch size 1, requested type "simple"
  9339                           ; Number of cases is 5, Range of values is 0 to 34
  9340                           ; switch strategies available:
  9341                           ; Name         Instructions Cycles
  9342                           ; simple_byte           16     9 (average)
  9343                           ; direct_byte           76     6 (fixed)
  9344                           ; jumptable            260     6 (fixed)
  9345                           ;	Chosen strategy is simple_byte
  9346  0B0D  0870               	movf	??_USBCheckCDCRequest,w
  9347  0B0E  3A00               	xorlw	0	; case 0
  9348  0B0F  1903               	skipnz
  9349  0B10  2ACD               	goto	i1l3476
  9350  0B11  3A01               	xorlw	1	; case 1
  9351  0B12  1903               	skipnz
  9352  0B13  2AD9               	goto	i1l3484
  9353  0B14  3A21               	xorlw	33	; case 32
  9354  0B15  1903               	skipnz
  9355  0B16  2AE0               	goto	i1l3488
  9356  0B17  3A01               	xorlw	1	; case 33
  9357  0B18  1903               	skipnz
  9358  0B19  2AEF               	goto	i1l3494
  9359  0B1A  3A03               	xorlw	3	; case 34
  9360  0B1B  1903               	skipnz
  9361  0B1C  2AFD               	goto	i1l3500
  9362  0B1D  2B1E               	goto	i1l442
  9363  0B1E                     i1l442:
  9364  0B1E  0008               	return
  9365  0B1F                     __end_of_USBCheckCDCRequest:
  9366                           
  9367                           	psect	text32
  9368  083E                     __ptext32:	
  9369 ;; *************** function _CDCInitEP *****************
  9370 ;; Defined at:
  9371 ;;		line 294 in file "mcc_generated_files/usb/usb_device_cdc.c"
  9372 ;; Parameters:    Size  Location     Type
  9373 ;;		None
  9374 ;; Auto vars:     Size  Location     Type
  9375 ;;		None
  9376 ;; Return value:  Size  Location     Type
  9377 ;;                  1    wreg      void 
  9378 ;; Registers used:
  9379 ;;		wreg, fsr1l, fsr1h, status,2, status,0, pclath, cstack
  9380 ;; Tracked objects:
  9381 ;;		On entry : 0/0
  9382 ;;		On exit  : 0/0
  9383 ;;		Unchanged: 0/0
  9384 ;; Data sizes:     COMMON   BANK0   BANK1   BANK2   BANK3   BANK4   BANK5   BANK6   BANK7   BANK8   BANK9  BANK10  BANK1
      +1  BANK12
  9385 ;;      Params:         0       0       0       0       0       0       0       0       0       0       0       0       
      +0       0
  9386 ;;      Locals:         0       0       0       0       0       0       0       0       0       0       0       0       
      +0       0
  9387 ;;      Temps:          1       0       0       0       0       0       0       0       0       0       0       0       
      +0       0
  9388 ;;      Totals:         1       0       0       0       0       0       0       0       0       0       0       0       
      +0       0
  9389 ;;Total ram usage:        1 bytes
  9390 ;; Hardware stack levels used:    1
  9391 ;; Hardware stack levels required when called:    2
  9392 ;; This function calls:
  9393 ;;		_USBEnableEndpoint
  9394 ;;		_USBTransferOnePacket
  9395 ;; This function is called by:
  9396 ;;		_USER_USB_CALLBACK_EVENT_HANDLER
  9397 ;; This function uses a non-reentrant model
  9398 ;;
  9399                           
  9400                           
  9401                           ;psect for function _CDCInitEP
  9402  083E                     _CDCInitEP:
  9403  083E                     i1l3512:	
  9404                           ;incstack = 0
  9405                           ; Regs used in _CDCInitEP: [wreg+fsr1l+fsr1h+status,2+status,0+pclath+cstack]
  9406                           
  9407                           
  9408                           ;mcc_generated_files/usb/usb_device_cdc.c: 297:     line_coding.dwDTERate = 19200;
  9409  083E  3000               	movlw	0
  9410  083F  0024               	movlb	4	; select bank4
  9411  0840  00D5               	movwf	(_line_coding+3)^(0+512)
  9412  0841  3000               	movlw	0
  9413  0842  00D4               	movwf	(_line_coding+2)^(0+512)
  9414  0843  304B               	movlw	75
  9415  0844  00D3               	movwf	(_line_coding+1)^(0+512)
  9416  0845  3000               	movlw	0
  9417  0846  00D2               	movwf	_line_coding^(0+512)
  9418  0847                     i1l3514:
  9419                           
  9420                           ;mcc_generated_files/usb/usb_device_cdc.c: 298:     line_coding.bCharFormat = 0x00;
  9421  0847  01D6               	clrf	(_line_coding^(0+512)+4)
  9422  0848                     i1l3516:
  9423                           
  9424                           ;mcc_generated_files/usb/usb_device_cdc.c: 299:     line_coding.bParityType = 0x00;
  9425  0848  01D7               	clrf	(_line_coding^(0+512)+5)
  9426                           
  9427                           ;mcc_generated_files/usb/usb_device_cdc.c: 300:     line_coding.bDataBits = 0x08;
  9428  0849  3008               	movlw	8
  9429  084A  00FD               	movwf	??_CDCInitEP
  9430  084B  087D               	movf	??_CDCInitEP,w
  9431  084C  00D8               	movwf	(_line_coding^(0+512)+6)
  9432  084D                     i1l3518:
  9433                           
  9434                           ;mcc_generated_files/usb/usb_device_cdc.c: 302:     cdc_rx_len = 0;
  9435  084D  0023               	movlb	3	; select bank3
  9436  084E  01E2               	clrf	_cdc_rx_len^(0+384)
  9437  084F                     i1l3520:
  9438                           
  9439                           ;mcc_generated_files/usb/usb_device_cdc.c: 315:     USBEnableEndpoint(1,0x02|0x10|0x08);
  9440  084F  301A               	movlw	26
  9441  0850  00FD               	movwf	??_CDCInitEP
  9442  0851  087D               	movf	??_CDCInitEP,w
  9443  0852  00F7               	movwf	USBEnableEndpoint@options
  9444  0853  3001               	movlw	1
  9445  0854  3197  27AD  3188   	fcall	_USBEnableEndpoint
  9446  0857                     i1l3522:
  9447                           
  9448                           ;mcc_generated_files/usb/usb_device_cdc.c: 316:     USBEnableEndpoint(2,0x02|0x04|0x10|0
      +                          x08);
  9449  0857  301E               	movlw	30
  9450  0858  00FD               	movwf	??_CDCInitEP
  9451  0859  087D               	movf	??_CDCInitEP,w
  9452  085A  00F7               	movwf	USBEnableEndpoint@options
  9453  085B  3002               	movlw	2
  9454  085C  3197  27AD  3188   	fcall	_USBEnableEndpoint
  9455  085F                     i1l3524:
  9456                           
  9457                           ;mcc_generated_files/usb/usb_device_cdc.c: 318:     CDCDataOutHandle = USBTransferOnePac
      +                          ket(2,0,(uint8_t*)&cdc_data_rx,sizeof(cdc_data_rx));
  9458  085F  01F0               	clrf	USBTransferOnePacket@dir
  9459  0860  30C0               	movlw	192
  9460  0861  00F1               	movwf	USBTransferOnePacket@data
  9461  0862  3020               	movlw	32
  9462  0863  00F2               	movwf	USBTransferOnePacket@data+1
  9463  0864  3040               	movlw	64
  9464  0865  00FD               	movwf	??_CDCInitEP
  9465  0866  087D               	movf	??_CDCInitEP,w
  9466  0867  00F3               	movwf	USBTransferOnePacket@len
  9467  0868  3002               	movlw	2
  9468  0869  318C  2491  3188   	fcall	_USBTransferOnePacket
  9469  086C  0871               	movf	?_USBTransferOnePacket+1,w
  9470  086D  0023               	movlb	3	; select bank3
  9471  086E  00D1               	movwf	(_CDCDataOutHandle+1)^(0+384)
  9472  086F  0870               	movf	?_USBTransferOnePacket,w
  9473  0870  00D0               	movwf	_CDCDataOutHandle^(0+384)
  9474  0871                     i1l3526:
  9475                           
  9476                           ;mcc_generated_files/usb/usb_device_cdc.c: 319:     CDCDataInHandle = ((void*)0);
  9477  0871  01CE               	clrf	_CDCDataInHandle^(0+384)
  9478  0872  01CF               	clrf	(_CDCDataInHandle+1)^(0+384)
  9479  0873                     i1l3528:
  9480                           
  9481                           ;mcc_generated_files/usb/usb_device_cdc.c: 346:     cdc_trf_state = 0;
  9482  0873  0021               	movlb	1	; select bank1
  9483  0874  01B4               	clrf	_cdc_trf_state^(0+128)
  9484  0875                     i1l455:
  9485  0875  0008               	return
  9486  0876                     __end_of_CDCInitEP:
  9487                           
  9488                           	psect	text33
  9489  0C91                     __ptext33:	
  9490 ;; *************** function _USBTransferOnePacket *****************
  9491 ;; Defined at:
  9492 ;;		line 999 in file "mcc_generated_files/usb/usb_device.c"
  9493 ;; Parameters:    Size  Location     Type
  9494 ;;  ep              1    wreg     unsigned char 
  9495 ;;  dir             1    0[COMMON] unsigned char 
  9496 ;;  data            2    1[COMMON] PTR unsigned char 
  9497 ;;		 -> cdc_data_tx(64), cdc_data_rx(64), NULL(0), 
  9498 ;;  len             1    3[COMMON] unsigned char 
  9499 ;; Auto vars:     Size  Location     Type
  9500 ;;  ep              1    8[COMMON] unsigned char 
  9501 ;;  handle          2    9[COMMON] PTR volatile struct __BD
  9502 ;;		 -> RAM(4096), NULL(0), BDT(48), 
  9503 ;; Return value:  Size  Location     Type
  9504 ;;                  2    0[COMMON] PTR void 
  9505 ;; Registers used:
  9506 ;;		wreg, fsr1l, fsr1h, status,2, status,0
  9507 ;; Tracked objects:
  9508 ;;		On entry : 0/0
  9509 ;;		On exit  : 0/0
  9510 ;;		Unchanged: 0/0
  9511 ;; Data sizes:     COMMON   BANK0   BANK1   BANK2   BANK3   BANK4   BANK5   BANK6   BANK7   BANK8   BANK9  BANK10  BANK1
      +1  BANK12
  9512 ;;      Params:         4       0       0       0       0       0       0       0       0       0       0       0       
      +0       0
  9513 ;;      Locals:         3       0       0       0       0       0       0       0       0       0       0       0       
      +0       0
  9514 ;;      Temps:          4       0       0       0       0       0       0       0       0       0       0       0       
      +0       0
  9515 ;;      Totals:        11       0       0       0       0       0       0       0       0       0       0       0       
      +0       0
  9516 ;;Total ram usage:       11 bytes
  9517 ;; Hardware stack levels used:    1
  9518 ;; This function calls:
  9519 ;;		Nothing
  9520 ;; This function is called by:
  9521 ;;		_CDCInitEP
  9522 ;;		_USBCDCEventHandler
  9523 ;;		_getsUSBUSART
  9524 ;;		_CDCTxService
  9525 ;; This function uses a non-reentrant model
  9526 ;;
  9527                           
  9528                           
  9529                           ;psect for function _USBTransferOnePacket
  9530  0C91                     _USBTransferOnePacket:
  9531                           
  9532                           ;incstack = 0
  9533                           ; Regs used in _USBTransferOnePacket: [wreg+fsr1l+fsr1h+status,2+status,0]
  9534                           ;USBTransferOnePacket@ep stored from wreg
  9535  0C91  00F8               	movwf	USBTransferOnePacket@ep
  9536  0C92                     i1l3434:
  9537                           
  9538                           ;mcc_generated_files/usb/usb_device.c: 999: void* USBTransferOnePacket(uint8_t ep,uint8_
      +                          t dir,uint8_t* data,uint8_t len);mcc_generated_files/usb/usb_device.c: 1000: {;mcc_gener
      +                          ated_files/usb/usb_device.c: 1001:     volatile BDT_ENTRY* handle;;mcc_generated_files/u
      +                          sb/usb_device.c: 1004:     if(dir != 0)
  9539  0C92  0870               	movf	USBTransferOnePacket@dir,w
  9540  0C93  1903               	btfsc	3,2
  9541  0C94  2C96               	goto	u208_21
  9542  0C95  2C97               	goto	u208_20
  9543  0C96                     u208_21:
  9544  0C96  2CA0               	goto	i1l3438
  9545  0C97                     u208_20:
  9546  0C97                     i1l3436:
  9547                           
  9548                           ;mcc_generated_files/usb/usb_device.c: 1005:     {;mcc_generated_files/usb/usb_device.c:
      +                           1007:         handle = pBDTEntryIn[ep];
  9549  0C97  3578               	lslf	USBTransferOnePacket@ep,w
  9550  0C98  3EA7               	addlw	(low (_pBDTEntryIn| 0))& (0+255)
  9551  0C99  0086               	movwf	6
  9552  0C9A  0187               	clrf	7
  9553  0C9B  3F40               	moviw [0]fsr1
  9554  0C9C  00F9               	movwf	USBTransferOnePacket@handle
  9555  0C9D  3F41               	moviw [1]fsr1
  9556  0C9E  00FA               	movwf	USBTransferOnePacket@handle+1
  9557                           
  9558                           ;mcc_generated_files/usb/usb_device.c: 1008:     }
  9559  0C9F  2CA9               	goto	i1l3440
  9560  0CA0                     i1l3438:
  9561                           
  9562                           ;mcc_generated_files/usb/usb_device.c: 1010:     {;mcc_generated_files/usb/usb_device.c:
      +                           1012:         handle = pBDTEntryOut[ep];
  9563  0CA0  3578               	lslf	USBTransferOnePacket@ep,w
  9564  0CA1  3EB0               	addlw	(low (_pBDTEntryOut| (0+256)))& (0+255)
  9565  0CA2  0086               	movwf	6
  9566  0CA3  3001               	movlw	1	; select bank3/4
  9567  0CA4  0087               	movwf	7
  9568  0CA5  3F40               	moviw [0]fsr1
  9569  0CA6  00F9               	movwf	USBTransferOnePacket@handle
  9570  0CA7  3F41               	moviw [1]fsr1
  9571  0CA8  00FA               	movwf	USBTransferOnePacket@handle+1
  9572  0CA9                     i1l3440:
  9573                           
  9574                           ;mcc_generated_files/usb/usb_device.c: 1017:     if(handle == 0)
  9575  0CA9  0879               	movf	USBTransferOnePacket@handle,w
  9576  0CAA  047A               	iorwf	USBTransferOnePacket@handle+1,w
  9577  0CAB  1D03               	btfss	3,2
  9578  0CAC  2CAE               	goto	u209_21
  9579  0CAD  2CAF               	goto	u209_20
  9580  0CAE                     u209_21:
  9581  0CAE  2CB2               	goto	i1l3446
  9582  0CAF                     u209_20:
  9583  0CAF                     i1l3442:
  9584                           
  9585                           ;mcc_generated_files/usb/usb_device.c: 1018:     {;mcc_generated_files/usb/usb_device.c:
      +                           1019:         return 0;
  9586  0CAF  01F0               	clrf	?_USBTransferOnePacket
  9587  0CB0  01F1               	clrf	?_USBTransferOnePacket+1
  9588  0CB1  2D17               	goto	i1l177
  9589  0CB2                     i1l3446:
  9590                           
  9591                           ;mcc_generated_files/usb/usb_device.c: 1033:     handle->ADR = (((uint16_t)(data)) & 0x7
      +                          FFF);
  9592  0CB2  30FF               	movlw	255
  9593  0CB3  0571               	andwf	USBTransferOnePacket@data,w
  9594  0CB4  00F4               	movwf	??_USBTransferOnePacket
  9595  0CB5  307F               	movlw	127
  9596  0CB6  0572               	andwf	USBTransferOnePacket@data+1,w
  9597  0CB7  00F5               	movwf	??_USBTransferOnePacket+1
  9598  0CB8  0879               	movf	USBTransferOnePacket@handle,w
  9599  0CB9  0086               	movwf	6
  9600  0CBA  087A               	movf	USBTransferOnePacket@handle+1,w
  9601  0CBB  0087               	movwf	7
  9602  0CBC  3142               	addfsr 1,2
  9603  0CBD  0874               	movf	??_USBTransferOnePacket,w
  9604  0CBE  3FC0               	movwi [0]fsr1
  9605  0CBF  0875               	movf	??_USBTransferOnePacket+1,w
  9606  0CC0  3FC1               	movwi [1]fsr1
  9607  0CC1                     i1l3448:
  9608                           
  9609                           ;mcc_generated_files/usb/usb_device.c: 1034:     handle->CNT = len;
  9610  0CC1  0879               	movf	USBTransferOnePacket@handle,w
  9611  0CC2  3E01               	addlw	1
  9612  0CC3  00F4               	movwf	??_USBTransferOnePacket
  9613  0CC4  3000               	movlw	0
  9614  0CC5  3D7A               	addwfc	USBTransferOnePacket@handle+1,w
  9615  0CC6  00F5               	movwf	??_USBTransferOnePacket+1
  9616  0CC7  0874               	movf	??_USBTransferOnePacket,w
  9617  0CC8  0086               	movwf	6
  9618  0CC9  0875               	movf	??_USBTransferOnePacket+1,w
  9619  0CCA  0087               	movwf	7
  9620  0CCB  0873               	movf	USBTransferOnePacket@len,w
  9621  0CCC  0081               	movwf	1
  9622  0CCD                     i1l3450:
  9623                           
  9624                           ;mcc_generated_files/usb/usb_device.c: 1035:     handle->STAT.Val &= 0x40;
  9625  0CCD  3040               	movlw	64
  9626  0CCE  00F4               	movwf	??_USBTransferOnePacket
  9627  0CCF  0879               	movf	USBTransferOnePacket@handle,w
  9628  0CD0  0086               	movwf	6
  9629  0CD1  087A               	movf	USBTransferOnePacket@handle+1,w
  9630  0CD2  0087               	movwf	7
  9631  0CD3  0874               	movf	??_USBTransferOnePacket,w
  9632  0CD4  0581               	andwf	1,f
  9633                           
  9634                           ;mcc_generated_files/usb/usb_device.c: 1036:     handle->STAT.Val |= (0x08 & 0x08);
  9635  0CD5  0879               	movf	USBTransferOnePacket@handle,w
  9636  0CD6  0086               	movwf	6
  9637  0CD7  087A               	movf	USBTransferOnePacket@handle+1,w
  9638  0CD8  0087               	movwf	7
  9639  0CD9  1581               	bsf	1,3
  9640                           
  9641                           ;mcc_generated_files/usb/usb_device.c: 1037:     handle->STAT.Val |= 0x80;
  9642  0CDA  0879               	movf	USBTransferOnePacket@handle,w
  9643  0CDB  0086               	movwf	6
  9644  0CDC  087A               	movf	USBTransferOnePacket@handle+1,w
  9645  0CDD  0087               	movwf	7
  9646  0CDE  1781               	bsf	1,7
  9647  0CDF                     i1l3452:
  9648                           
  9649                           ;mcc_generated_files/usb/usb_device.c: 1040:     if(dir != 0)
  9650  0CDF  0870               	movf	USBTransferOnePacket@dir,w
  9651  0CE0  1903               	btfsc	3,2
  9652  0CE1  2CE3               	goto	u210_21
  9653  0CE2  2CE4               	goto	u210_20
  9654  0CE3                     u210_21:
  9655  0CE3  2CFB               	goto	i1l3456
  9656  0CE4                     u210_20:
  9657  0CE4                     i1l3454:
  9658                           
  9659                           ;mcc_generated_files/usb/usb_device.c: 1041:     {;mcc_generated_files/usb/usb_device.c:
      +                           1043:         pBDTEntryIn[ep] = (BDT_ENTRY*)(((uint16_t)pBDTEntryIn[ep]) ^ 0x0004);
  9660  0CE4  3578               	lslf	USBTransferOnePacket@ep,w
  9661  0CE5  3EA7               	addlw	(low (_pBDTEntryIn| 0))& (0+255)
  9662  0CE6  0086               	movwf	6
  9663  0CE7  0187               	clrf	7
  9664  0CE8  3F40               	moviw [0]fsr1
  9665  0CE9  00F4               	movwf	??_USBTransferOnePacket
  9666  0CEA  3F41               	moviw [1]fsr1
  9667  0CEB  00F5               	movwf	??_USBTransferOnePacket+1
  9668  0CEC  3004               	movlw	4
  9669  0CED  0674               	xorwf	??_USBTransferOnePacket,w
  9670  0CEE  00F6               	movwf	??_USBTransferOnePacket+2
  9671  0CEF  3000               	movlw	0
  9672  0CF0  0675               	xorwf	??_USBTransferOnePacket+1,w
  9673  0CF1  00F7               	movwf	??_USBTransferOnePacket+3
  9674  0CF2  3578               	lslf	USBTransferOnePacket@ep,w
  9675  0CF3  3EA7               	addlw	(low (_pBDTEntryIn| 0))& (0+255)
  9676  0CF4  0086               	movwf	6
  9677  0CF5  0187               	clrf	7
  9678  0CF6  0876               	movf	??_USBTransferOnePacket+2,w
  9679  0CF7  3FC0               	movwi [0]fsr1
  9680  0CF8  0877               	movf	??_USBTransferOnePacket+3,w
  9681  0CF9  3FC1               	movwi [1]fsr1
  9682                           
  9683                           ;mcc_generated_files/usb/usb_device.c: 1044:     }
  9684  0CFA  2D13               	goto	i1l3458
  9685  0CFB                     i1l3456:
  9686                           
  9687                           ;mcc_generated_files/usb/usb_device.c: 1046:     {;mcc_generated_files/usb/usb_device.c:
      +                           1048:         pBDTEntryOut[ep] = (BDT_ENTRY*)(((uint16_t)pBDTEntryOut[ep]) ^ 0x0004);
  9688  0CFB  3578               	lslf	USBTransferOnePacket@ep,w
  9689  0CFC  3EB0               	addlw	(low (_pBDTEntryOut| (0+256)))& (0+255)
  9690  0CFD  0086               	movwf	6
  9691  0CFE  3001               	movlw	1	; select bank3/4
  9692  0CFF  0087               	movwf	7
  9693  0D00  3F40               	moviw [0]fsr1
  9694  0D01  00F4               	movwf	??_USBTransferOnePacket
  9695  0D02  3F41               	moviw [1]fsr1
  9696  0D03  00F5               	movwf	??_USBTransferOnePacket+1
  9697  0D04  3004               	movlw	4
  9698  0D05  0674               	xorwf	??_USBTransferOnePacket,w
  9699  0D06  00F6               	movwf	??_USBTransferOnePacket+2
  9700  0D07  3000               	movlw	0
  9701  0D08  0675               	xorwf	??_USBTransferOnePacket+1,w
  9702  0D09  00F7               	movwf	??_USBTransferOnePacket+3
  9703  0D0A  3578               	lslf	USBTransferOnePacket@ep,w
  9704  0D0B  3EB0               	addlw	(low (_pBDTEntryOut| (0+256)))& (0+255)
  9705  0D0C  0086               	movwf	6
  9706  0D0D  3001               	movlw	1	; select bank3/4
  9707  0D0E  0087               	movwf	7
  9708  0D0F  0876               	movf	??_USBTransferOnePacket+2,w
  9709  0D10  3FC0               	movwi [0]fsr1
  9710  0D11  0877               	movf	??_USBTransferOnePacket+3,w
  9711  0D12  3FC1               	movwi [1]fsr1
  9712  0D13                     i1l3458:
  9713                           
  9714                           ;mcc_generated_files/usb/usb_device.c: 1050:     return (void*)handle;
  9715  0D13  087A               	movf	USBTransferOnePacket@handle+1,w
  9716  0D14  00F1               	movwf	?_USBTransferOnePacket+1
  9717  0D15  0879               	movf	USBTransferOnePacket@handle,w
  9718  0D16  00F0               	movwf	?_USBTransferOnePacket
  9719  0D17                     i1l177:
  9720  0D17  0008               	return
  9721  0D18                     __end_of_USBTransferOnePacket:
  9722                           
  9723                           	psect	text34
  9724  17AD                     __ptext34:	
  9725 ;; *************** function _USBEnableEndpoint *****************
  9726 ;; Defined at:
  9727 ;;		line 882 in file "mcc_generated_files/usb/usb_device.c"
  9728 ;; Parameters:    Size  Location     Type
  9729 ;;  ep              1    wreg     unsigned char 
  9730 ;;  options         1    7[COMMON] unsigned char 
  9731 ;; Auto vars:     Size  Location     Type
  9732 ;;  ep              1   12[COMMON] unsigned char 
  9733 ;;  p               2   10[COMMON] PTR unsigned char 
  9734 ;;		 -> UEP0(1), 
  9735 ;; Return value:  Size  Location     Type
  9736 ;;                  1    wreg      void 
  9737 ;; Registers used:
  9738 ;;		wreg, fsr1l, fsr1h, status,2, status,0, pclath, cstack
  9739 ;; Tracked objects:
  9740 ;;		On entry : 0/0
  9741 ;;		On exit  : 0/0
  9742 ;;		Unchanged: 0/0
  9743 ;; Data sizes:     COMMON   BANK0   BANK1   BANK2   BANK3   BANK4   BANK5   BANK6   BANK7   BANK8   BANK9  BANK10  BANK1
      +1  BANK12
  9744 ;;      Params:         1       0       0       0       0       0       0       0       0       0       0       0       
      +0       0
  9745 ;;      Locals:         3       0       0       0       0       0       0       0       0       0       0       0       
      +0       0
  9746 ;;      Temps:          2       0       0       0       0       0       0       0       0       0       0       0       
      +0       0
  9747 ;;      Totals:         6       0       0       0       0       0       0       0       0       0       0       0       
      +0       0
  9748 ;;Total ram usage:        6 bytes
  9749 ;; Hardware stack levels used:    1
  9750 ;; Hardware stack levels required when called:    1
  9751 ;; This function calls:
  9752 ;;		_USBConfigureEndpoint
  9753 ;; This function is called by:
  9754 ;;		_CDCInitEP
  9755 ;; This function uses a non-reentrant model
  9756 ;;
  9757                           
  9758                           
  9759                           ;psect for function _USBEnableEndpoint
  9760  17AD                     _USBEnableEndpoint:
  9761                           
  9762                           ;incstack = 0
  9763                           ; Regs used in _USBEnableEndpoint: [wreg+fsr1l+fsr1h+status,2+status,0+pclath+cstack]
  9764                           ;USBEnableEndpoint@ep stored from wreg
  9765  17AD  00FC               	movwf	USBEnableEndpoint@ep
  9766  17AE                     i1l3422:
  9767                           
  9768                           ;mcc_generated_files/usb/usb_device.c: 882: void USBEnableEndpoint(uint8_t ep, uint8_t o
      +                          ptions);mcc_generated_files/usb/usb_device.c: 883: {;mcc_generated_files/usb/usb_device.
      +                          c: 884:     unsigned char* p;;mcc_generated_files/usb/usb_device.c: 888:     if(options 
      +                          & 0x04)
  9769  17AE  1D77               	btfss	USBEnableEndpoint@options,2
  9770  17AF  2FB1               	goto	u206_21
  9771  17B0  2FB2               	goto	u206_20
  9772  17B1                     u206_21:
  9773  17B1  2FB7               	goto	i1l3426
  9774  17B2                     u206_20:
  9775  17B2                     i1l3424:
  9776                           
  9777                           ;mcc_generated_files/usb/usb_device.c: 889:     {;mcc_generated_files/usb/usb_device.c: 
      +                          890:         USBConfigureEndpoint(ep, 0);
  9778  17B2  01F0               	clrf	USBConfigureEndpoint@direction
  9779  17B3  087C               	movf	USBEnableEndpoint@ep,w
  9780  17B4  3188  20B0  3197   	fcall	_USBConfigureEndpoint
  9781  17B7                     i1l3426:
  9782                           
  9783                           ;mcc_generated_files/usb/usb_device.c: 892:     if(options & 0x02)
  9784  17B7  1CF7               	btfss	USBEnableEndpoint@options,1
  9785  17B8  2FBA               	goto	u207_21
  9786  17B9  2FBB               	goto	u207_20
  9787  17BA                     u207_21:
  9788  17BA  2FC1               	goto	i1l3430
  9789  17BB                     u207_20:
  9790  17BB                     i1l3428:
  9791                           
  9792                           ;mcc_generated_files/usb/usb_device.c: 893:     {;mcc_generated_files/usb/usb_device.c: 
      +                          894:         USBConfigureEndpoint(ep, 1);
  9793  17BB  01F0               	clrf	USBConfigureEndpoint@direction
  9794  17BC  0AF0               	incf	USBConfigureEndpoint@direction,f
  9795  17BD  087C               	movf	USBEnableEndpoint@ep,w
  9796  17BE  3188  20B0  3197   	fcall	_USBConfigureEndpoint
  9797  17C1                     i1l3430:
  9798                           
  9799                           ;mcc_generated_files/usb/usb_device.c: 903:         p = (unsigned char*)(&UEP0+ep);
  9800  17C1  087C               	movf	USBEnableEndpoint@ep,w
  9801  17C2  3E98               	addlw	152
  9802  17C3  00F8               	movwf	??_USBEnableEndpoint
  9803  17C4  01F9               	clrf	??_USBEnableEndpoint+1
  9804  17C5  300E               	movlw	14
  9805  17C6  3DF9               	addwfc	??_USBEnableEndpoint+1,f
  9806  17C7  0878               	movf	??_USBEnableEndpoint,w
  9807  17C8  00FA               	movwf	USBEnableEndpoint@p
  9808  17C9  0879               	movf	??_USBEnableEndpoint+1,w
  9809  17CA  00FB               	movwf	USBEnableEndpoint@p+1
  9810  17CB                     i1l3432:
  9811                           
  9812                           ;mcc_generated_files/usb/usb_device.c: 905:     *p = options;
  9813  17CB  087A               	movf	USBEnableEndpoint@p,w
  9814  17CC  0086               	movwf	6
  9815  17CD  087B               	movf	USBEnableEndpoint@p+1,w
  9816  17CE  0087               	movwf	7
  9817  17CF  0877               	movf	USBEnableEndpoint@options,w
  9818  17D0  0081               	movwf	1
  9819  17D1                     i1l171:
  9820  17D1  0008               	return
  9821  17D2                     __end_of_USBEnableEndpoint:
  9822                           
  9823                           	psect	text35
  9824  08B0                     __ptext35:	
  9825 ;; *************** function _USBConfigureEndpoint *****************
  9826 ;; Defined at:
  9827 ;;		line 1547 in file "mcc_generated_files/usb/usb_device.c"
  9828 ;; Parameters:    Size  Location     Type
  9829 ;;  EPNum           1    wreg     unsigned char 
  9830 ;;  direction       1    0[COMMON] unsigned char 
  9831 ;; Auto vars:     Size  Location     Type
  9832 ;;  EPNum           1    5[COMMON] unsigned char 
  9833 ;;  handle          1    6[COMMON] PTR volatile struct __BD
  9834 ;;		 -> BDT(48), 
  9835 ;; Return value:  Size  Location     Type
  9836 ;;                  1    wreg      void 
  9837 ;; Registers used:
  9838 ;;		wreg, fsr1l, fsr1h, status,2, status,0
  9839 ;; Tracked objects:
  9840 ;;		On entry : 0/0
  9841 ;;		On exit  : 0/0
  9842 ;;		Unchanged: 0/0
  9843 ;; Data sizes:     COMMON   BANK0   BANK1   BANK2   BANK3   BANK4   BANK5   BANK6   BANK7   BANK8   BANK9  BANK10  BANK1
      +1  BANK12
  9844 ;;      Params:         1       0       0       0       0       0       0       0       0       0       0       0       
      +0       0
  9845 ;;      Locals:         2       0       0       0       0       0       0       0       0       0       0       0       
      +0       0
  9846 ;;      Temps:          4       0       0       0       0       0       0       0       0       0       0       0       
      +0       0
  9847 ;;      Totals:         7       0       0       0       0       0       0       0       0       0       0       0       
      +0       0
  9848 ;;Total ram usage:        7 bytes
  9849 ;; Hardware stack levels used:    1
  9850 ;; This function calls:
  9851 ;;		Nothing
  9852 ;; This function is called by:
  9853 ;;		_USBEnableEndpoint
  9854 ;; This function uses a non-reentrant model
  9855 ;;
  9856                           
  9857                           
  9858                           ;psect for function _USBConfigureEndpoint
  9859  08B0                     _USBConfigureEndpoint:
  9860                           
  9861                           ;incstack = 0
  9862                           ; Regs used in _USBConfigureEndpoint: [wreg+fsr1l+fsr1h+status,2+status,0]
  9863                           ;USBConfigureEndpoint@EPNum stored from wreg
  9864  08B0  00F5               	movwf	USBConfigureEndpoint@EPNum
  9865  08B1                     i1l3406:
  9866                           
  9867                           ;mcc_generated_files/usb/usb_device.c: 1547: static void USBConfigureEndpoint(uint8_t EP
      +                          Num, uint8_t direction);mcc_generated_files/usb/usb_device.c: 1548: {;mcc_generated_file
      +                          s/usb/usb_device.c: 1549:     volatile BDT_ENTRY* handle;;mcc_generated_files/usb/usb_de
      +                          vice.c: 1553:     handle = (volatile BDT_ENTRY*)&BDT[0];
  9868  08B1  3020               	movlw	32
  9869  08B2  00F1               	movwf	??_USBConfigureEndpoint
  9870  08B3  0871               	movf	??_USBConfigureEndpoint,w
  9871  08B4  00F6               	movwf	USBConfigureEndpoint@handle
  9872  08B5                     i1l3408:
  9873                           
  9874                           ;mcc_generated_files/usb/usb_device.c: 1554:     handle += (4*EPNum+2*direction+0u);
  9875  08B5  0870               	movf	USBConfigureEndpoint@direction,w
  9876  08B6  00F1               	movwf	??_USBConfigureEndpoint
  9877  08B7  3001               	movlw	1
  9878  08B8                     u202_25:
  9879  08B8  35F1               	lslf	??_USBConfigureEndpoint,f
  9880  08B9  0B89               	decfsz	9,f
  9881  08BA  28B8               	goto	u202_25
  9882  08BB  0875               	movf	USBConfigureEndpoint@EPNum,w
  9883  08BC  00F2               	movwf	??_USBConfigureEndpoint+1
  9884  08BD  3001               	movlw	1
  9885  08BE                     u203_25:
  9886  08BE  35F2               	lslf	??_USBConfigureEndpoint+1,f
  9887  08BF  3EFF               	addlw	-1
  9888  08C0  1D03               	skipz
  9889  08C1  28BE               	goto	u203_25
  9890  08C2  3572               	lslf	??_USBConfigureEndpoint+1,w
  9891  08C3  0771               	addwf	??_USBConfigureEndpoint,w
  9892  08C4  00F3               	movwf	??_USBConfigureEndpoint+2
  9893  08C5  3001               	movlw	1
  9894  08C6                     u204_25:
  9895  08C6  35F3               	lslf	??_USBConfigureEndpoint+2,f
  9896  08C7  3EFF               	addlw	-1
  9897  08C8  1D03               	skipz
  9898  08C9  28C6               	goto	u204_25
  9899  08CA  3573               	lslf	??_USBConfigureEndpoint+2,w
  9900  08CB  00F4               	movwf	??_USBConfigureEndpoint+3
  9901  08CC  0874               	movf	??_USBConfigureEndpoint+3,w
  9902  08CD  07F6               	addwf	USBConfigureEndpoint@handle,f
  9903  08CE                     i1l3410:
  9904                           
  9905                           ;mcc_generated_files/usb/usb_device.c: 1556:     handle->STAT.UOWN = 0;
  9906  08CE  0876               	movf	USBConfigureEndpoint@handle,w
  9907  08CF  0086               	movwf	6
  9908  08D0  0187               	clrf	7
  9909  08D1  1381               	bcf	1,7
  9910  08D2                     i1l3412:
  9911                           
  9912                           ;mcc_generated_files/usb/usb_device.c: 1561:     if(direction == 0)
  9913  08D2  0870               	movf	USBConfigureEndpoint@direction,w
  9914  08D3  1D03               	btfss	3,2
  9915  08D4  28D6               	goto	u205_21
  9916  08D5  28D7               	goto	u205_20
  9917  08D6                     u205_21:
  9918  08D6  28E1               	goto	i1l3416
  9919  08D7                     u205_20:
  9920  08D7                     i1l3414:
  9921                           
  9922                           ;mcc_generated_files/usb/usb_device.c: 1562:     {;mcc_generated_files/usb/usb_device.c:
      +                           1563:         pBDTEntryOut[EPNum] = handle;
  9923  08D7  3575               	lslf	USBConfigureEndpoint@EPNum,w
  9924  08D8  3EB0               	addlw	(low (_pBDTEntryOut| (0+256)))& (0+255)
  9925  08D9  0086               	movwf	6
  9926  08DA  3001               	movlw	1	; select bank3/4
  9927  08DB  0087               	movwf	7
  9928  08DC  0876               	movf	USBConfigureEndpoint@handle,w
  9929  08DD  3FC0               	movwi [0]fsr1
  9930  08DE  3000               	movlw	0
  9931  08DF  3FC1               	movwi [1]fsr1
  9932                           
  9933                           ;mcc_generated_files/usb/usb_device.c: 1564:     }
  9934  08E0  28E9               	goto	i1l3418
  9935  08E1                     i1l3416:
  9936                           
  9937                           ;mcc_generated_files/usb/usb_device.c: 1566:     {;mcc_generated_files/usb/usb_device.c:
      +                           1567:         pBDTEntryIn[EPNum] = handle;
  9938  08E1  3575               	lslf	USBConfigureEndpoint@EPNum,w
  9939  08E2  3EA7               	addlw	(low (_pBDTEntryIn| 0))& (0+255)
  9940  08E3  0086               	movwf	6
  9941  08E4  0187               	clrf	7
  9942  08E5  0876               	movf	USBConfigureEndpoint@handle,w
  9943  08E6  3FC0               	movwi [0]fsr1
  9944  08E7  3000               	movlw	0
  9945  08E8  3FC1               	movwi [1]fsr1
  9946  08E9                     i1l3418:
  9947                           
  9948                           ;mcc_generated_files/usb/usb_device.c: 1571:         handle->STAT.DTS = 0;
  9949  08E9  0876               	movf	USBConfigureEndpoint@handle,w
  9950  08EA  0086               	movwf	6
  9951  08EB  0187               	clrf	7
  9952  08EC  1301               	bcf	1,6
  9953  08ED                     i1l3420:
  9954                           
  9955                           ;mcc_generated_files/usb/usb_device.c: 1572:         (handle+1)->STAT.DTS = 1;
  9956  08ED  0876               	movf	USBConfigureEndpoint@handle,w
  9957  08EE  3E04               	addlw	4
  9958  08EF  0086               	movwf	6
  9959  08F0  0187               	clrf	7
  9960  08F1  1701               	bsf	1,6
  9961  08F2                     i1l218:
  9962  08F2  0008               	return
  9963  08F3                     __end_of_USBConfigureEndpoint:
  9964                           
  9965                           	psect	text36
  9966  0876                     __ptext36:	
  9967 ;; *************** function _USBCtrlTrfOutHandler *****************
  9968 ;; Defined at:
  9969 ;;		line 2542 in file "mcc_generated_files/usb/usb_device.c"
  9970 ;; Parameters:    Size  Location     Type
  9971 ;;		None
  9972 ;; Auto vars:     Size  Location     Type
  9973 ;;		None
  9974 ;; Return value:  Size  Location     Type
  9975 ;;                  1    wreg      void 
  9976 ;; Registers used:
  9977 ;;		wreg, fsr1l, fsr1h, status,2, status,0, pclath, cstack
  9978 ;; Tracked objects:
  9979 ;;		On entry : 0/0
  9980 ;;		On exit  : 0/0
  9981 ;;		Unchanged: 0/0
  9982 ;; Data sizes:     COMMON   BANK0   BANK1   BANK2   BANK3   BANK4   BANK5   BANK6   BANK7   BANK8   BANK9  BANK10  BANK1
      +1  BANK12
  9983 ;;      Params:         0       0       0       0       0       0       0       0       0       0       0       0       
      +0       0
  9984 ;;      Locals:         0       0       0       0       0       0       0       0       0       0       0       0       
      +0       0
  9985 ;;      Temps:          2       0       0       0       0       0       0       0       0       0       0       0       
      +0       0
  9986 ;;      Totals:         2       0       0       0       0       0       0       0       0       0       0       0       
      +0       0
  9987 ;;Total ram usage:        2 bytes
  9988 ;; Hardware stack levels used:    1
  9989 ;; Hardware stack levels required when called:    2
  9990 ;; This function calls:
  9991 ;;		_USBCtrlTrfRxService
  9992 ;; This function is called by:
  9993 ;;		_USBCtrlEPService
  9994 ;; This function uses a non-reentrant model
  9995 ;;
  9996                           
  9997                           
  9998                           ;psect for function _USBCtrlTrfOutHandler
  9999  0876                     _USBCtrlTrfOutHandler:
 10000  0876                     i1l4072:	
 10001                           ;incstack = 0
 10002                           ; Regs used in _USBCtrlTrfOutHandler: [wreg+fsr1l+fsr1h+status,2+status,0+pclath+cstack]
 10003                           
 10004                           
 10005                           ;mcc_generated_files/usb/usb_device.c: 2544:     if(controlTransferState == 2)
 10006  0876  3002               	movlw	2
 10007  0877  0021               	movlb	1	; select bank1
 10008  0878  0638               	xorwf	_controlTransferState^(0+128),w	;volatile
 10009  0879  1D03               	btfss	3,2
 10010  087A  287C               	goto	u275_21
 10011  087B  287D               	goto	u275_20
 10012  087C                     u275_21:
 10013  087C  2881               	goto	i1l4076
 10014  087D                     u275_20:
 10015  087D                     i1l4074:
 10016                           
 10017                           ;mcc_generated_files/usb/usb_device.c: 2545:     {;mcc_generated_files/usb/usb_device.c:
      +                           2546:         USBCtrlTrfRxService();
 10018  087D  318F  2758  3188   	fcall	_USBCtrlTrfRxService
 10019                           
 10020                           ;mcc_generated_files/usb/usb_device.c: 2547:     }
 10021  0880  28AF               	goto	i1l328
 10022  0881                     i1l4076:
 10023                           
 10024                           ;mcc_generated_files/usb/usb_device.c: 2549:     {;mcc_generated_files/usb/usb_device.c:
      +                           2552:         controlTransferState = 0;
 10025  0881  01B8               	clrf	_controlTransferState^(0+128)	;volatile
 10026  0882                     i1l4078:
 10027                           
 10028                           ;mcc_generated_files/usb/usb_device.c: 2559:         if(BothEP0OutUOWNsSet == 0)
 10029  0882  0023               	movlb	3	; select bank3
 10030  0883  0868               	movf	_BothEP0OutUOWNsSet^(0+384),w	;volatile
 10031  0884  1D03               	btfss	3,2
 10032  0885  2887               	goto	u276_21
 10033  0886  2888               	goto	u276_20
 10034  0887                     u276_21:
 10035  0887  28AE               	goto	i1l4088
 10036  0888                     u276_20:
 10037  0888                     i1l4080:
 10038                           
 10039                           ;mcc_generated_files/usb/usb_device.c: 2560:         {;mcc_generated_files/usb/usb_devic
      +                          e.c: 2561:             pBDTEntryEP0OutNext->CNT = 8;
 10040  0888  0021               	movlb	1	; select bank1
 10041  0889  0832               	movf	_pBDTEntryEP0OutNext^(0+128),w
 10042  088A  3E01               	addlw	1
 10043  088B  00F6               	movwf	??_USBCtrlTrfOutHandler
 10044  088C  3000               	movlw	0
 10045  088D  3D33               	addwfc	(_pBDTEntryEP0OutNext+1)^(0+128),w
 10046  088E  00F7               	movwf	??_USBCtrlTrfOutHandler+1
 10047  088F  0876               	movf	??_USBCtrlTrfOutHandler,w
 10048  0890  0086               	movwf	6
 10049  0891  0877               	movf	??_USBCtrlTrfOutHandler+1,w
 10050  0892  0087               	movwf	7
 10051  0893  3008               	movlw	8
 10052  0894  0081               	movwf	1
 10053  0895                     i1l4082:
 10054                           
 10055                           ;mcc_generated_files/usb/usb_device.c: 2562:             pBDTEntryEP0OutNext->ADR = (((u
      +                          int16_t)(&SetupPkt)) & 0x7FFF);
 10056  0895  3050               	movlw	80
 10057  0896  00F6               	movwf	??_USBCtrlTrfOutHandler
 10058  0897  3000               	movlw	0
 10059  0898  00F7               	movwf	??_USBCtrlTrfOutHandler+1
 10060  0899  0832               	movf	_pBDTEntryEP0OutNext^(0+128),w
 10061  089A  0086               	movwf	6
 10062  089B  0833               	movf	(_pBDTEntryEP0OutNext+1)^(0+128),w
 10063  089C  0087               	movwf	7
 10064  089D  3142               	addfsr 1,2
 10065  089E  0876               	movf	??_USBCtrlTrfOutHandler,w
 10066  089F  3FC0               	movwi [0]fsr1
 10067  08A0  0877               	movf	??_USBCtrlTrfOutHandler+1,w
 10068  08A1  3FC1               	movwi [1]fsr1
 10069  08A2                     i1l4084:
 10070                           
 10071                           ;mcc_generated_files/usb/usb_device.c: 2563:             pBDTEntryEP0OutNext->STAT.Val =
      +                           0x00|(0x08 & 0x08)|0x04;
 10072  08A2  0832               	movf	_pBDTEntryEP0OutNext^(0+128),w
 10073  08A3  0086               	movwf	6
 10074  08A4  0833               	movf	(_pBDTEntryEP0OutNext+1)^(0+128),w
 10075  08A5  0087               	movwf	7
 10076  08A6  300C               	movlw	12
 10077  08A7  0081               	movwf	1
 10078  08A8                     i1l4086:
 10079                           
 10080                           ;mcc_generated_files/usb/usb_device.c: 2564:             pBDTEntryEP0OutNext->STAT.Val |
      +                          = 0x80;
 10081  08A8  0832               	movf	_pBDTEntryEP0OutNext^(0+128),w
 10082  08A9  0086               	movwf	6
 10083  08AA  0833               	movf	(_pBDTEntryEP0OutNext+1)^(0+128),w
 10084  08AB  0087               	movwf	7
 10085  08AC  1781               	bsf	1,7
 10086                           
 10087                           ;mcc_generated_files/usb/usb_device.c: 2565:         }
 10088  08AD  28AF               	goto	i1l328
 10089  08AE                     i1l4088:
 10090                           
 10091                           ;mcc_generated_files/usb/usb_device.c: 2567:         {;mcc_generated_files/usb/usb_devic
      +                          e.c: 2568:                 BothEP0OutUOWNsSet = 0;
 10092  08AE  01E8               	clrf	_BothEP0OutUOWNsSet^(0+384)	;volatile
 10093  08AF                     i1l328:
 10094  08AF  0008               	return
 10095  08B0                     __end_of_USBCtrlTrfOutHandler:
 10096                           
 10097                           	psect	text37
 10098  0F58                     __ptext37:	
 10099 ;; *************** function _USBCtrlTrfRxService *****************
 10100 ;; Defined at:
 10101 ;;		line 1856 in file "mcc_generated_files/usb/usb_device.c"
 10102 ;; Parameters:    Size  Location     Type
 10103 ;;		None
 10104 ;; Auto vars:     Size  Location     Type
 10105 ;;  byteToRead      1    5[COMMON] unsigned char 
 10106 ;;  i               1    4[COMMON] unsigned char 
 10107 ;; Return value:  Size  Location     Type
 10108 ;;                  1    wreg      void 
 10109 ;; Registers used:
 10110 ;;		wreg, fsr1l, fsr1h, status,2, status,0, pclath, cstack
 10111 ;; Tracked objects:
 10112 ;;		On entry : 0/0
 10113 ;;		On exit  : 0/0
 10114 ;;		Unchanged: 0/0
 10115 ;; Data sizes:     COMMON   BANK0   BANK1   BANK2   BANK3   BANK4   BANK5   BANK6   BANK7   BANK8   BANK9  BANK10  BANK1
      +1  BANK12
 10116 ;;      Params:         0       0       0       0       0       0       0       0       0       0       0       0       
      +0       0
 10117 ;;      Locals:         2       0       0       0       0       0       0       0       0       0       0       0       
      +0       0
 10118 ;;      Temps:          2       0       0       0       0       0       0       0       0       0       0       0       
      +0       0
 10119 ;;      Totals:         4       0       0       0       0       0       0       0       0       0       0       0       
      +0       0
 10120 ;;Total ram usage:        4 bytes
 10121 ;; Hardware stack levels used:    1
 10122 ;; Hardware stack levels required when called:    1
 10123 ;; This function calls:
 10124 ;;		_USBCtrlEPAllowStatusStage
 10125 ;; This function is called by:
 10126 ;;		_USBCtrlTrfOutHandler
 10127 ;; This function uses a non-reentrant model
 10128 ;;
 10129                           
 10130                           
 10131                           ;psect for function _USBCtrlTrfRxService
 10132  0F58                     _USBCtrlTrfRxService:
 10133  0F58                     i1l3950:	
 10134                           ;incstack = 0
 10135                           ; Regs used in _USBCtrlTrfRxService: [wreg+fsr1l+fsr1h+status,2+status,0+pclath+cstack]
 10136                           
 10137                           
 10138                           ;mcc_generated_files/usb/usb_device.c: 1858:     uint8_t byteToRead;;mcc_generated_files
      +                          /usb/usb_device.c: 1859:     uint8_t i;;mcc_generated_files/usb/usb_device.c: 1863:     
      +                          byteToRead = pBDTEntryEP0OutCurrent->CNT;
 10139  0F58  0021               	movlb	1	; select bank1
 10140  0F59  083A               	movf	_pBDTEntryEP0OutCurrent^(0+128),w
 10141  0F5A  0086               	movwf	6
 10142  0F5B  0187               	clrf	7
 10143  0F5C  3F41               	moviw [1]fsr1
 10144  0F5D  00F5               	movwf	USBCtrlTrfRxService@byteToRead
 10145  0F5E                     i1l3952:
 10146                           
 10147                           ;mcc_generated_files/usb/usb_device.c: 1869:     if(byteToRead > outPipes[0].wCount.Val)
 10148  0F5E  0875               	movf	USBCtrlTrfRxService@byteToRead,w
 10149  0F5F  00F2               	movwf	??_USBCtrlTrfRxService
 10150  0F60  01F3               	clrf	??_USBCtrlTrfRxService+1
 10151  0F61  0873               	movf	??_USBCtrlTrfRxService+1,w
 10152  0F62  0224               	subwf	((_outPipes+1)^(0+128)+3),w	;volatile
 10153  0F63  1D03               	skipz
 10154  0F64  2F67               	goto	u268_25
 10155  0F65  0872               	movf	??_USBCtrlTrfRxService,w
 10156  0F66  0223               	subwf	(_outPipes^(0+128)+3),w	;volatile
 10157  0F67                     u268_25:
 10158  0F67  1803               	skipnc
 10159  0F68  2F6A               	goto	u268_21
 10160  0F69  2F6B               	goto	u268_20
 10161  0F6A                     u268_21:
 10162  0F6A  2F6F               	goto	i1l249
 10163  0F6B                     u268_20:
 10164  0F6B                     i1l3954:
 10165                           
 10166                           ;mcc_generated_files/usb/usb_device.c: 1870:     {;mcc_generated_files/usb/usb_device.c:
      +                           1871:         byteToRead = outPipes[0].wCount.Val;
 10167  0F6B  0823               	movf	(_outPipes^(0+128)+3),w	;volatile
 10168  0F6C  00F2               	movwf	??_USBCtrlTrfRxService
 10169  0F6D  0872               	movf	??_USBCtrlTrfRxService,w
 10170  0F6E  00F5               	movwf	USBCtrlTrfRxService@byteToRead
 10171  0F6F                     i1l249:	
 10172                           ;mcc_generated_files/usb/usb_device.c: 1872:     }
 10173                           
 10174                           
 10175                           ;mcc_generated_files/usb/usb_device.c: 1874:     outPipes[0].wCount.Val -= byteToRead;
 10176  0F6F  0875               	movf	USBCtrlTrfRxService@byteToRead,w
 10177  0F70  00F2               	movwf	??_USBCtrlTrfRxService
 10178  0F71  01F3               	clrf	??_USBCtrlTrfRxService+1
 10179  0F72  0872               	movf	??_USBCtrlTrfRxService,w
 10180  0F73  02A3               	subwf	(_outPipes^(0+128)+3),f	;volatile
 10181  0F74  0873               	movf	??_USBCtrlTrfRxService+1,w
 10182  0F75  3BA4               	subwfb	((_outPipes+1)^(0+128)+3),f	;volatile
 10183  0F76                     i1l3956:
 10184                           
 10185                           ;mcc_generated_files/usb/usb_device.c: 1878:     for(i=0;i<byteToRead;i++)
 10186  0F76  01F4               	clrf	USBCtrlTrfRxService@i
 10187  0F77  2F8C               	goto	i1l3964
 10188  0F78                     i1l3958:
 10189                           
 10190                           ;mcc_generated_files/usb/usb_device.c: 1879:     {;mcc_generated_files/usb/usb_device.c:
      +                           1880:         *outPipes[0].pDst.bRam++ = CtrlTrfData[i];
 10191  0F78  0874               	movf	USBCtrlTrfRxService@i,w
 10192  0F79  3E58               	addlw	88
 10193  0F7A  0086               	movwf	6
 10194  0F7B  0187               	clrf	7
 10195  0F7C  0801               	movf	1,w
 10196  0F7D  00F2               	movwf	??_USBCtrlTrfRxService
 10197  0F7E  0820               	movf	_outPipes^(0+128),w	;volatile
 10198  0F7F  0086               	movwf	6
 10199  0F80  3002               	movlw	2	; select bank4/5
 10200  0F81  0087               	movwf	7
 10201  0F82  0872               	movf	??_USBCtrlTrfRxService,w
 10202  0F83  0081               	movwf	1
 10203  0F84                     i1l3960:
 10204  0F84  3001               	movlw	1
 10205  0F85  00F2               	movwf	??_USBCtrlTrfRxService
 10206  0F86  0872               	movf	??_USBCtrlTrfRxService,w
 10207  0F87  07A0               	addwf	_outPipes^(0+128),f	;volatile
 10208  0F88                     i1l3962:
 10209                           
 10210                           ;mcc_generated_files/usb/usb_device.c: 1881:     }
 10211  0F88  3001               	movlw	1
 10212  0F89  00F2               	movwf	??_USBCtrlTrfRxService
 10213  0F8A  0872               	movf	??_USBCtrlTrfRxService,w
 10214  0F8B  07F4               	addwf	USBCtrlTrfRxService@i,f
 10215  0F8C                     i1l3964:
 10216  0F8C  0875               	movf	USBCtrlTrfRxService@byteToRead,w
 10217  0F8D  0274               	subwf	USBCtrlTrfRxService@i,w
 10218  0F8E  1C03               	skipc
 10219  0F8F  2F91               	goto	u269_21
 10220  0F90  2F92               	goto	u269_20
 10221  0F91                     u269_21:
 10222  0F91  2F78               	goto	i1l3958
 10223  0F92                     u269_20:
 10224  0F92                     i1l3966:
 10225                           
 10226                           ;mcc_generated_files/usb/usb_device.c: 1885:     if(outPipes[0].wCount.Val > 0)
 10227  0F92  0823               	movf	(_outPipes^(0+128)+3),w	;volatile
 10228  0F93  0424               	iorwf	((_outPipes+1)^(0+128)+3),w	;volatile
 10229  0F94  1903               	btfsc	3,2
 10230  0F95  2F97               	goto	u270_21
 10231  0F96  2F98               	goto	u270_20
 10232  0F97                     u270_21:
 10233  0F97  2FD0               	goto	i1l3978
 10234  0F98                     u270_20:
 10235  0F98                     i1l3968:
 10236                           
 10237                           ;mcc_generated_files/usb/usb_device.c: 1886:     {;mcc_generated_files/usb/usb_device.c:
      +                           1887:         pBDTEntryEP0OutNext->CNT = 8;
 10238  0F98  0832               	movf	_pBDTEntryEP0OutNext^(0+128),w
 10239  0F99  3E01               	addlw	1
 10240  0F9A  00F2               	movwf	??_USBCtrlTrfRxService
 10241  0F9B  3000               	movlw	0
 10242  0F9C  3D33               	addwfc	(_pBDTEntryEP0OutNext+1)^(0+128),w
 10243  0F9D  00F3               	movwf	??_USBCtrlTrfRxService+1
 10244  0F9E  0872               	movf	??_USBCtrlTrfRxService,w
 10245  0F9F  0086               	movwf	6
 10246  0FA0  0873               	movf	??_USBCtrlTrfRxService+1,w
 10247  0FA1  0087               	movwf	7
 10248  0FA2  3008               	movlw	8
 10249  0FA3  0081               	movwf	1
 10250  0FA4                     i1l3970:
 10251                           
 10252                           ;mcc_generated_files/usb/usb_device.c: 1888:         pBDTEntryEP0OutNext->ADR = (((uint1
      +                          6_t)(&CtrlTrfData)) & 0x7FFF);
 10253  0FA4  3058               	movlw	88
 10254  0FA5  00F2               	movwf	??_USBCtrlTrfRxService
 10255  0FA6  3000               	movlw	0
 10256  0FA7  00F3               	movwf	??_USBCtrlTrfRxService+1
 10257  0FA8  0832               	movf	_pBDTEntryEP0OutNext^(0+128),w
 10258  0FA9  0086               	movwf	6
 10259  0FAA  0833               	movf	(_pBDTEntryEP0OutNext+1)^(0+128),w
 10260  0FAB  0087               	movwf	7
 10261  0FAC  3142               	addfsr 1,2
 10262  0FAD  0872               	movf	??_USBCtrlTrfRxService,w
 10263  0FAE  3FC0               	movwi [0]fsr1
 10264  0FAF  0873               	movf	??_USBCtrlTrfRxService+1,w
 10265  0FB0  3FC1               	movwi [1]fsr1
 10266  0FB1                     i1l3972:
 10267                           
 10268                           ;mcc_generated_files/usb/usb_device.c: 1889:         if(pBDTEntryEP0OutCurrent->STAT.DTS
      +                           == 0)
 10269  0FB1  083A               	movf	_pBDTEntryEP0OutCurrent^(0+128),w
 10270  0FB2  0086               	movwf	6
 10271  0FB3  0187               	clrf	7
 10272  0FB4  1B01               	btfsc	1,6
 10273  0FB5  2FB7               	goto	u271_21
 10274  0FB6  2FB8               	goto	u271_20
 10275  0FB7                     u271_21:
 10276  0FB7  2FC4               	goto	i1l3976
 10277  0FB8                     u271_20:
 10278  0FB8                     i1l3974:
 10279                           
 10280                           ;mcc_generated_files/usb/usb_device.c: 1890:         {;mcc_generated_files/usb/usb_devic
      +                          e.c: 1891:             pBDTEntryEP0OutNext->STAT.Val = 0x40|(0x08 & 0x08);
 10281  0FB8  0832               	movf	_pBDTEntryEP0OutNext^(0+128),w
 10282  0FB9  0086               	movwf	6
 10283  0FBA  0833               	movf	(_pBDTEntryEP0OutNext+1)^(0+128),w
 10284  0FBB  0087               	movwf	7
 10285  0FBC  3048               	movlw	72
 10286  0FBD  0081               	movwf	1
 10287                           
 10288                           ;mcc_generated_files/usb/usb_device.c: 1892:             pBDTEntryEP0OutNext->STAT.Val |
      +                          = 0x80;
 10289  0FBE  0832               	movf	_pBDTEntryEP0OutNext^(0+128),w
 10290  0FBF  0086               	movwf	6
 10291  0FC0  0833               	movf	(_pBDTEntryEP0OutNext+1)^(0+128),w
 10292  0FC1  0087               	movwf	7
 10293  0FC2  1781               	bsf	1,7
 10294                           
 10295                           ;mcc_generated_files/usb/usb_device.c: 1893:         }
 10296  0FC3  2FFF               	goto	i1l259
 10297  0FC4                     i1l3976:
 10298                           
 10299                           ;mcc_generated_files/usb/usb_device.c: 1895:         {;mcc_generated_files/usb/usb_devic
      +                          e.c: 1896:             pBDTEntryEP0OutNext->STAT.Val = 0x00|(0x08 & 0x08);
 10300  0FC4  0832               	movf	_pBDTEntryEP0OutNext^(0+128),w
 10301  0FC5  0086               	movwf	6
 10302  0FC6  0833               	movf	(_pBDTEntryEP0OutNext+1)^(0+128),w
 10303  0FC7  0087               	movwf	7
 10304  0FC8  3008               	movlw	8
 10305  0FC9  0081               	movwf	1
 10306                           
 10307                           ;mcc_generated_files/usb/usb_device.c: 1897:             pBDTEntryEP0OutNext->STAT.Val |
      +                          = 0x80;
 10308  0FCA  0832               	movf	_pBDTEntryEP0OutNext^(0+128),w
 10309  0FCB  0086               	movwf	6
 10310  0FCC  0833               	movf	(_pBDTEntryEP0OutNext+1)^(0+128),w
 10311  0FCD  0087               	movwf	7
 10312  0FCE  1781               	bsf	1,7
 10313  0FCF  2FFF               	goto	i1l259
 10314  0FD0                     i1l3978:
 10315                           
 10316                           ;mcc_generated_files/usb/usb_device.c: 1901:     {;mcc_generated_files/usb/usb_device.c:
      +                           1905:         pBDTEntryEP0OutNext->CNT = 8;
 10317  0FD0  0832               	movf	_pBDTEntryEP0OutNext^(0+128),w
 10318  0FD1  3E01               	addlw	1
 10319  0FD2  00F2               	movwf	??_USBCtrlTrfRxService
 10320  0FD3  3000               	movlw	0
 10321  0FD4  3D33               	addwfc	(_pBDTEntryEP0OutNext+1)^(0+128),w
 10322  0FD5  00F3               	movwf	??_USBCtrlTrfRxService+1
 10323  0FD6  0872               	movf	??_USBCtrlTrfRxService,w
 10324  0FD7  0086               	movwf	6
 10325  0FD8  0873               	movf	??_USBCtrlTrfRxService+1,w
 10326  0FD9  0087               	movwf	7
 10327  0FDA  3008               	movlw	8
 10328  0FDB  0081               	movwf	1
 10329  0FDC                     i1l3980:
 10330                           
 10331                           ;mcc_generated_files/usb/usb_device.c: 1906:         pBDTEntryEP0OutNext->ADR = (((uint1
      +                          6_t)(&SetupPkt)) & 0x7FFF);
 10332  0FDC  3050               	movlw	80
 10333  0FDD  00F2               	movwf	??_USBCtrlTrfRxService
 10334  0FDE  3000               	movlw	0
 10335  0FDF  00F3               	movwf	??_USBCtrlTrfRxService+1
 10336  0FE0  0832               	movf	_pBDTEntryEP0OutNext^(0+128),w
 10337  0FE1  0086               	movwf	6
 10338  0FE2  0833               	movf	(_pBDTEntryEP0OutNext+1)^(0+128),w
 10339  0FE3  0087               	movwf	7
 10340  0FE4  3142               	addfsr 1,2
 10341  0FE5  0872               	movf	??_USBCtrlTrfRxService,w
 10342  0FE6  3FC0               	movwi [0]fsr1
 10343  0FE7  0873               	movf	??_USBCtrlTrfRxService+1,w
 10344  0FE8  3FC1               	movwi [1]fsr1
 10345  0FE9                     i1l3982:
 10346                           
 10347                           ;mcc_generated_files/usb/usb_device.c: 1910:         pBDTEntryEP0OutNext->STAT.Val = 0x0
      +                          4;
 10348  0FE9  0832               	movf	_pBDTEntryEP0OutNext^(0+128),w
 10349  0FEA  0086               	movwf	6
 10350  0FEB  0833               	movf	(_pBDTEntryEP0OutNext+1)^(0+128),w
 10351  0FEC  0087               	movwf	7
 10352  0FED  3004               	movlw	4
 10353  0FEE  0081               	movwf	1
 10354  0FEF                     i1l3984:
 10355                           
 10356                           ;mcc_generated_files/usb/usb_device.c: 1911:         pBDTEntryEP0OutNext->STAT.Val |= 0x
      +                          80;
 10357  0FEF  0832               	movf	_pBDTEntryEP0OutNext^(0+128),w
 10358  0FF0  0086               	movwf	6
 10359  0FF1  0833               	movf	(_pBDTEntryEP0OutNext+1)^(0+128),w
 10360  0FF2  0087               	movwf	7
 10361  0FF3  1781               	bsf	1,7
 10362  0FF4                     i1l3986:
 10363                           
 10364                           ;mcc_generated_files/usb/usb_device.c: 1919:         {
 10365  0FF4  0825               	movf	(low ((_outPipes| 0+5)))^(0+128),w	;volatile
 10366  0FF5  0826               	movf	((low ((_outPipes| 0+5))+1))^(0+128),w	;volatile
 10367  0FF6                     i1l257:
 10368  0FF6  13A2               	bcf	(_outPipes^(0+128)+2),7	;volatile
 10369  0FF7                     i1l3988:
 10370                           
 10371                           ;mcc_generated_files/usb/usb_device.c: 1945:         if(USBDeferStatusStagePacket == 0)
 10372  0FF7  0835               	movf	_USBDeferStatusStagePacket^(0+128),w	;volatile
 10373  0FF8  1D03               	btfss	3,2
 10374  0FF9  2FFB               	goto	u272_21
 10375  0FFA  2FFC               	goto	u272_20
 10376  0FFB                     u272_21:
 10377  0FFB  2FFF               	goto	i1l259
 10378  0FFC                     u272_20:
 10379  0FFC                     i1l3990:
 10380                           
 10381                           ;mcc_generated_files/usb/usb_device.c: 1946:         {;mcc_generated_files/usb/usb_devic
      +                          e.c: 1947:             USBCtrlEPAllowStatusStage();
 10382  0FFC  318B  2397  318F   	fcall	_USBCtrlEPAllowStatusStage
 10383  0FFF                     i1l259:
 10384  0FFF  0008               	return
 10385  1000                     __end_of_USBCtrlTrfRxService:
 10386                           
 10387                           	psect	text38
 10388  0B97                     __ptext38:	
 10389 ;; *************** function _USBCtrlEPAllowStatusStage *****************
 10390 ;; Defined at:
 10391 ;;		line 1420 in file "mcc_generated_files/usb/usb_device.c"
 10392 ;; Parameters:    Size  Location     Type
 10393 ;;		None
 10394 ;; Auto vars:     Size  Location     Type
 10395 ;;		None
 10396 ;; Return value:  Size  Location     Type
 10397 ;;                  1    wreg      void 
 10398 ;; Registers used:
 10399 ;;		wreg, fsr1l, fsr1h, status,2, status,0
 10400 ;; Tracked objects:
 10401 ;;		On entry : 0/0
 10402 ;;		On exit  : 0/0
 10403 ;;		Unchanged: 0/0
 10404 ;; Data sizes:     COMMON   BANK0   BANK1   BANK2   BANK3   BANK4   BANK5   BANK6   BANK7   BANK8   BANK9  BANK10  BANK1
      +1  BANK12
 10405 ;;      Params:         0       0       0       0       0       0       0       0       0       0       0       0       
      +0       0
 10406 ;;      Locals:         0       0       0       0       0       0       0       0       0       0       0       0       
      +0       0
 10407 ;;      Temps:          2       0       0       0       0       0       0       0       0       0       0       0       
      +0       0
 10408 ;;      Totals:         2       0       0       0       0       0       0       0       0       0       0       0       
      +0       0
 10409 ;;Total ram usage:        2 bytes
 10410 ;; Hardware stack levels used:    1
 10411 ;; This function calls:
 10412 ;;		Nothing
 10413 ;; This function is called by:
 10414 ;;		_USBDeviceTasks
 10415 ;;		_USBCtrlEPServiceComplete
 10416 ;;		_USBCtrlTrfRxService
 10417 ;; This function uses a non-reentrant model
 10418 ;;
 10419                           
 10420                           
 10421                           ;psect for function _USBCtrlEPAllowStatusStage
 10422  0B97                     _USBCtrlEPAllowStatusStage:
 10423  0B97                     i1l3630:	
 10424                           ;incstack = 0
 10425                           ; Regs used in _USBCtrlEPAllowStatusStage: [wreg+fsr1l+fsr1h+status,2+status,0]
 10426                           
 10427                           
 10428                           ;mcc_generated_files/usb/usb_device.c: 1427:     if(USBStatusStageEnabledFlag1 == 0)
 10429  0B97  0023               	movlb	3	; select bank3
 10430  0B98  0867               	movf	_USBStatusStageEnabledFlag1^(0+384),w	;volatile
 10431  0B99  1D03               	btfss	3,2
 10432  0B9A  2B9C               	goto	u226_21
 10433  0B9B  2B9D               	goto	u226_20
 10434  0B9C                     u226_21:
 10435  0B9C  2C0F               	goto	i1l207
 10436  0B9D                     u226_20:
 10437  0B9D                     i1l3632:
 10438                           
 10439                           ;mcc_generated_files/usb/usb_device.c: 1428:     {;mcc_generated_files/usb/usb_device.c:
      +                           1429:         USBStatusStageEnabledFlag1 = 1;
 10440  0B9D  3001               	movlw	1
 10441  0B9E  00F0               	movwf	??_USBCtrlEPAllowStatusStage
 10442  0B9F  0870               	movf	??_USBCtrlEPAllowStatusStage,w
 10443  0BA0  00E7               	movwf	_USBStatusStageEnabledFlag1^(0+384)	;volatile
 10444  0BA1                     i1l3634:
 10445                           
 10446                           ;mcc_generated_files/usb/usb_device.c: 1430:         if(USBStatusStageEnabledFlag2 == 0)
 10447  0BA1  0866               	movf	_USBStatusStageEnabledFlag2^(0+384),w	;volatile
 10448  0BA2  1D03               	btfss	3,2
 10449  0BA3  2BA5               	goto	u227_21
 10450  0BA4  2BA6               	goto	u227_20
 10451  0BA5                     u227_21:
 10452  0BA5  2C0F               	goto	i1l207
 10453  0BA6                     u227_20:
 10454  0BA6                     i1l3636:
 10455                           
 10456                           ;mcc_generated_files/usb/usb_device.c: 1431:         {;mcc_generated_files/usb/usb_devic
      +                          e.c: 1432:             USBStatusStageEnabledFlag2 = 1;
 10457  0BA6  3001               	movlw	1
 10458  0BA7  00F0               	movwf	??_USBCtrlEPAllowStatusStage
 10459  0BA8  0870               	movf	??_USBCtrlEPAllowStatusStage,w
 10460  0BA9  00E6               	movwf	_USBStatusStageEnabledFlag2^(0+384)	;volatile
 10461  0BAA                     i1l3638:
 10462                           
 10463                           ;mcc_generated_files/usb/usb_device.c: 1436:             if(controlTransferState == 2)
 10464  0BAA  3002               	movlw	2
 10465  0BAB  0021               	movlb	1	; select bank1
 10466  0BAC  0638               	xorwf	_controlTransferState^(0+128),w	;volatile
 10467  0BAD  1D03               	btfss	3,2
 10468  0BAE  2BB0               	goto	u228_21
 10469  0BAF  2BB1               	goto	u228_20
 10470  0BB0                     u228_21:
 10471  0BB0  2BC3               	goto	i1l3646
 10472  0BB1                     u228_20:
 10473  0BB1                     i1l3640:
 10474                           
 10475                           ;mcc_generated_files/usb/usb_device.c: 1437:             {;mcc_generated_files/usb/usb_d
      +                          evice.c: 1438:                 pBDTEntryIn[0]->CNT = 0;
 10476  0BB1  0827               	movf	_pBDTEntryIn^(0+128),w
 10477  0BB2  0086               	movwf	6
 10478  0BB3  0828               	movf	(_pBDTEntryIn+1)^(0+128),w
 10479  0BB4  0087               	movwf	7
 10480  0BB5  3141               	addfsr 1,1
 10481  0BB6  0181               	clrf	1
 10482  0BB7                     i1l3642:
 10483                           
 10484                           ;mcc_generated_files/usb/usb_device.c: 1439:                 pBDTEntryIn[0]->STAT.Val = 
      +                          0x40|(0x08 & 0x08);
 10485  0BB7  0827               	movf	_pBDTEntryIn^(0+128),w
 10486  0BB8  0086               	movwf	6
 10487  0BB9  0828               	movf	(_pBDTEntryIn+1)^(0+128),w
 10488  0BBA  0087               	movwf	7
 10489  0BBB  3048               	movlw	72
 10490  0BBC  0081               	movwf	1
 10491  0BBD                     i1l3644:
 10492                           
 10493                           ;mcc_generated_files/usb/usb_device.c: 1440:                 pBDTEntryIn[0]->STAT.Val |=
      +                           0x80;
 10494  0BBD  0827               	movf	_pBDTEntryIn^(0+128),w
 10495  0BBE  0086               	movwf	6
 10496  0BBF  0828               	movf	(_pBDTEntryIn+1)^(0+128),w
 10497  0BC0  0087               	movwf	7
 10498  0BC1  1781               	bsf	1,7
 10499                           
 10500                           ;mcc_generated_files/usb/usb_device.c: 1441:             }
 10501  0BC2  2C0F               	goto	i1l207
 10502  0BC3                     i1l3646:
 10503  0BC3  0338               	decf	_controlTransferState^(0+128),w	;volatile
 10504  0BC4  1D03               	btfss	3,2
 10505  0BC5  2BC7               	goto	u229_21
 10506  0BC6  2BC8               	goto	u229_20
 10507  0BC7                     u229_21:
 10508  0BC7  2C0F               	goto	i1l203
 10509  0BC8                     u229_20:
 10510  0BC8                     i1l3648:
 10511                           
 10512                           ;mcc_generated_files/usb/usb_device.c: 1443:             {;mcc_generated_files/usb/usb_d
      +                          evice.c: 1444:                 BothEP0OutUOWNsSet = 0;
 10513  0BC8  0023               	movlb	3	; select bank3
 10514  0BC9  01E8               	clrf	_BothEP0OutUOWNsSet^(0+384)	;volatile
 10515  0BCA                     i1l3650:
 10516                           
 10517                           ;mcc_generated_files/usb/usb_device.c: 1449:                     pBDTEntryEP0OutCurrent-
      +                          >CNT = 8;
 10518  0BCA  3008               	movlw	8
 10519  0BCB  00F0               	movwf	??_USBCtrlEPAllowStatusStage
 10520  0BCC  0021               	movlb	1	; select bank1
 10521  0BCD  0A3A               	incf	_pBDTEntryEP0OutCurrent^(0+128),w
 10522  0BCE  0086               	movwf	6
 10523  0BCF  0187               	clrf	7
 10524  0BD0  0870               	movf	??_USBCtrlEPAllowStatusStage,w
 10525  0BD1  0081               	movwf	1
 10526  0BD2                     i1l3652:
 10527                           
 10528                           ;mcc_generated_files/usb/usb_device.c: 1450:                     pBDTEntryEP0OutCurrent-
      +                          >ADR = (((uint16_t)(&SetupPkt)) & 0x7FFF);
 10529  0BD2  3050               	movlw	80
 10530  0BD3  00F0               	movwf	??_USBCtrlEPAllowStatusStage
 10531  0BD4  3000               	movlw	0
 10532  0BD5  00F1               	movwf	??_USBCtrlEPAllowStatusStage+1
 10533  0BD6  083A               	movf	_pBDTEntryEP0OutCurrent^(0+128),w
 10534  0BD7  3E02               	addlw	2
 10535  0BD8  0086               	movwf	6
 10536  0BD9  0187               	clrf	7
 10537  0BDA  0870               	movf	??_USBCtrlEPAllowStatusStage,w
 10538  0BDB  3FC0               	movwi [0]fsr1
 10539  0BDC  0871               	movf	??_USBCtrlEPAllowStatusStage+1,w
 10540  0BDD  3FC1               	movwi [1]fsr1
 10541  0BDE                     i1l3654:
 10542                           
 10543                           ;mcc_generated_files/usb/usb_device.c: 1451:                     pBDTEntryEP0OutCurrent-
      +                          >STAT.Val = 0x04;
 10544  0BDE  3004               	movlw	4
 10545  0BDF  00F0               	movwf	??_USBCtrlEPAllowStatusStage
 10546  0BE0  083A               	movf	_pBDTEntryEP0OutCurrent^(0+128),w
 10547  0BE1  0086               	movwf	6
 10548  0BE2  0187               	clrf	7
 10549  0BE3  0870               	movf	??_USBCtrlEPAllowStatusStage,w
 10550  0BE4  0081               	movwf	1
 10551  0BE5                     i1l3656:
 10552                           
 10553                           ;mcc_generated_files/usb/usb_device.c: 1452:                     pBDTEntryEP0OutCurrent-
      +                          >STAT.Val |= 0x80;
 10554  0BE5  083A               	movf	_pBDTEntryEP0OutCurrent^(0+128),w
 10555  0BE6  0086               	movwf	6
 10556  0BE7  0187               	clrf	7
 10557  0BE8  1781               	bsf	1,7
 10558  0BE9                     i1l3658:
 10559                           
 10560                           ;mcc_generated_files/usb/usb_device.c: 1453:                     BothEP0OutUOWNsSet = 1;
 10561  0BE9  3001               	movlw	1
 10562  0BEA  00F0               	movwf	??_USBCtrlEPAllowStatusStage
 10563  0BEB  0870               	movf	??_USBCtrlEPAllowStatusStage,w
 10564  0BEC  0023               	movlb	3	; select bank3
 10565  0BED  00E8               	movwf	_BothEP0OutUOWNsSet^(0+384)	;volatile
 10566  0BEE                     i1l3660:
 10567                           
 10568                           ;mcc_generated_files/usb/usb_device.c: 1457:                 pBDTEntryEP0OutNext->CNT = 
      +                          8;
 10569  0BEE  0021               	movlb	1	; select bank1
 10570  0BEF  0832               	movf	_pBDTEntryEP0OutNext^(0+128),w
 10571  0BF0  3E01               	addlw	1
 10572  0BF1  00F0               	movwf	??_USBCtrlEPAllowStatusStage
 10573  0BF2  3000               	movlw	0
 10574  0BF3  3D33               	addwfc	(_pBDTEntryEP0OutNext+1)^(0+128),w
 10575  0BF4  00F1               	movwf	??_USBCtrlEPAllowStatusStage+1
 10576  0BF5  0870               	movf	??_USBCtrlEPAllowStatusStage,w
 10577  0BF6  0086               	movwf	6
 10578  0BF7  0871               	movf	??_USBCtrlEPAllowStatusStage+1,w
 10579  0BF8  0087               	movwf	7
 10580  0BF9  3008               	movlw	8
 10581  0BFA  0081               	movwf	1
 10582  0BFB                     i1l3662:
 10583                           
 10584                           ;mcc_generated_files/usb/usb_device.c: 1458:                 pBDTEntryEP0OutNext->ADR = 
      +                          (((uint16_t)(&SetupPkt)) & 0x7FFF);
 10585  0BFB  3050               	movlw	80
 10586  0BFC  00F0               	movwf	??_USBCtrlEPAllowStatusStage
 10587  0BFD  3000               	movlw	0
 10588  0BFE  00F1               	movwf	??_USBCtrlEPAllowStatusStage+1
 10589  0BFF  0832               	movf	_pBDTEntryEP0OutNext^(0+128),w
 10590  0C00  0086               	movwf	6
 10591  0C01  0833               	movf	(_pBDTEntryEP0OutNext+1)^(0+128),w
 10592  0C02  0087               	movwf	7
 10593  0C03  3142               	addfsr 1,2
 10594  0C04  0870               	movf	??_USBCtrlEPAllowStatusStage,w
 10595  0C05  3FC0               	movwi [0]fsr1
 10596  0C06  0871               	movf	??_USBCtrlEPAllowStatusStage+1,w
 10597  0C07  3FC1               	movwi [1]fsr1
 10598  0C08                     i1l3664:
 10599                           
 10600                           ;mcc_generated_files/usb/usb_device.c: 1459:                 pBDTEntryEP0OutNext->STAT.V
      +                          al = 0x80;
 10601  0C08  0832               	movf	_pBDTEntryEP0OutNext^(0+128),w
 10602  0C09  0086               	movwf	6
 10603  0C0A  0833               	movf	(_pBDTEntryEP0OutNext+1)^(0+128),w
 10604  0C0B  0087               	movwf	7
 10605  0C0C  3080               	movlw	128
 10606  0C0D  0081               	movwf	1
 10607  0C0E  2C0F               	goto	i1l207
 10608  0C0F                     i1l203:	
 10609                           ;mcc_generated_files/usb/usb_device.c: 1461:         }
 10610                           
 10611  0C0F                     i1l207:
 10612  0C0F  0008               	return
 10613  0C10                     __end_of_USBCtrlEPAllowStatusStage:
 10614                           
 10615                           	psect	text39
 10616  0B1F                     __ptext39:	
 10617 ;; *************** function _USBCtrlTrfInHandler *****************
 10618 ;; Defined at:
 10619 ;;		line 2596 in file "mcc_generated_files/usb/usb_device.c"
 10620 ;; Parameters:    Size  Location     Type
 10621 ;;		None
 10622 ;; Auto vars:     Size  Location     Type
 10623 ;;  lastDTS         1    5[COMMON] unsigned char 
 10624 ;; Return value:  Size  Location     Type
 10625 ;;                  1    wreg      void 
 10626 ;; Registers used:
 10627 ;;		wreg, fsr0l, fsr0h, fsr1l, fsr1h, status,2, status,0, pclath, cstack
 10628 ;; Tracked objects:
 10629 ;;		On entry : 0/0
 10630 ;;		On exit  : 0/0
 10631 ;;		Unchanged: 0/0
 10632 ;; Data sizes:     COMMON   BANK0   BANK1   BANK2   BANK3   BANK4   BANK5   BANK6   BANK7   BANK8   BANK9  BANK10  BANK1
      +1  BANK12
 10633 ;;      Params:         0       0       0       0       0       0       0       0       0       0       0       0       
      +0       0
 10634 ;;      Locals:         1       0       0       0       0       0       0       0       0       0       0       0       
      +0       0
 10635 ;;      Temps:          2       0       0       0       0       0       0       0       0       0       0       0       
      +0       0
 10636 ;;      Totals:         3       0       0       0       0       0       0       0       0       0       0       0       
      +0       0
 10637 ;;Total ram usage:        3 bytes
 10638 ;; Hardware stack levels used:    1
 10639 ;; Hardware stack levels required when called:    1
 10640 ;; This function calls:
 10641 ;;		_USBCtrlTrfTxService
 10642 ;; This function is called by:
 10643 ;;		_USBCtrlEPService
 10644 ;; This function uses a non-reentrant model
 10645 ;;
 10646                           
 10647                           
 10648                           ;psect for function _USBCtrlTrfInHandler
 10649  0B1F                     _USBCtrlTrfInHandler:
 10650  0B1F                     i1l4090:	
 10651                           ;incstack = 0
 10652                           ; Regs used in _USBCtrlTrfInHandler: [wreg-fsr1h+status,2+status,0+pclath+cstack]
 10653                           
 10654                           
 10655                           ;mcc_generated_files/usb/usb_device.c: 2598:     uint8_t lastDTS;;mcc_generated_files/us
      +                          b/usb_device.c: 2600:     lastDTS = pBDTEntryIn[0]->STAT.DTS;
 10656  0B1F  0021               	movlb	1	; select bank1
 10657  0B20  0827               	movf	_pBDTEntryIn^(0+128),w
 10658  0B21  0086               	movwf	6
 10659  0B22  0828               	movf	(_pBDTEntryIn+1)^(0+128),w
 10660  0B23  0087               	movwf	7
 10661  0B24  3000               	movlw	0
 10662  0B25  1B01               	btfsc	1,6
 10663  0B26  3001               	movlw	1
 10664  0B27  00F5               	movwf	USBCtrlTrfInHandler@lastDTS
 10665  0B28                     i1l4092:
 10666                           
 10667                           ;mcc_generated_files/usb/usb_device.c: 2603:     pBDTEntryIn[0] = (volatile BDT_ENTRY*)(
      +                          ((uint16_t)pBDTEntryIn[0]) ^ 0x0004);
 10668  0B28  3004               	movlw	4
 10669  0B29  0627               	xorwf	_pBDTEntryIn^(0+128),w
 10670  0B2A  00A7               	movwf	_pBDTEntryIn^(0+128)
 10671  0B2B  3000               	movlw	0
 10672  0B2C  0628               	xorwf	(_pBDTEntryIn+1)^(0+128),w
 10673  0B2D  00A8               	movwf	(_pBDTEntryIn+1)^(0+128)
 10674  0B2E                     i1l4094:
 10675                           
 10676                           ;mcc_generated_files/usb/usb_device.c: 2608:     if(USBDeviceState == ADR_PENDING_STATE)
 10677  0B2E  3008               	movlw	8
 10678  0B2F  063B               	xorwf	_USBDeviceState^(0+128),w	;volatile
 10679  0B30  1D03               	btfss	3,2
 10680  0B31  2B33               	goto	u277_21
 10681  0B32  2B34               	goto	u277_20
 10682  0B33                     u277_21:
 10683  0B33  2B49               	goto	i1l4104
 10684  0B34                     u277_20:
 10685  0B34                     i1l4096:
 10686                           
 10687                           ;mcc_generated_files/usb/usb_device.c: 2609:     {;mcc_generated_files/usb/usb_device.c:
      +                           2610:         UADDR = (SetupPkt.bDevADR & 0x7F);
 10688  0B34  0020               	movlb	0	; select bank0
 10689  0B35  0852               	movf	82,w	;volatile
 10690  0B36  397F               	andlw	127
 10691  0B37  003D               	movlb	29	; select bank29
 10692  0B38  0096               	movwf	22	;volatile
 10693  0B39                     i1l4098:
 10694                           
 10695                           ;mcc_generated_files/usb/usb_device.c: 2611:         if(UADDR != 0u)
 10696  0B39  0816               	movf	22,w	;volatile
 10697  0B3A  1903               	btfsc	3,2
 10698  0B3B  2B3D               	goto	u278_21
 10699  0B3C  2B3E               	goto	u278_20
 10700  0B3D                     u278_21:
 10701  0B3D  2B44               	goto	i1l4102
 10702  0B3E                     u278_20:
 10703  0B3E                     i1l4100:
 10704                           
 10705                           ;mcc_generated_files/usb/usb_device.c: 2612:         {;mcc_generated_files/usb/usb_devic
      +                          e.c: 2613:             USBDeviceState=ADDRESS_STATE;
 10706  0B3E  3010               	movlw	16
 10707  0B3F  00F3               	movwf	??_USBCtrlTrfInHandler
 10708  0B40  0873               	movf	??_USBCtrlTrfInHandler,w
 10709  0B41  0021               	movlb	1	; select bank1
 10710  0B42  00BB               	movwf	_USBDeviceState^(0+128)	;volatile
 10711                           
 10712                           ;mcc_generated_files/usb/usb_device.c: 2614:         }
 10713  0B43  2B49               	goto	i1l4104
 10714  0B44                     i1l4102:
 10715                           
 10716                           ;mcc_generated_files/usb/usb_device.c: 2616:         {;mcc_generated_files/usb/usb_devic
      +                          e.c: 2617:             USBDeviceState=DEFAULT_STATE;
 10717  0B44  3004               	movlw	4
 10718  0B45  00F3               	movwf	??_USBCtrlTrfInHandler
 10719  0B46  0873               	movf	??_USBCtrlTrfInHandler,w
 10720  0B47  0021               	movlb	1	; select bank1
 10721  0B48  00BB               	movwf	_USBDeviceState^(0+128)	;volatile
 10722  0B49                     i1l4104:
 10723                           
 10724                           ;mcc_generated_files/usb/usb_device.c: 2622:     if(controlTransferState == 1)
 10725  0B49  0338               	decf	_controlTransferState^(0+128),w	;volatile
 10726  0B4A  1D03               	btfss	3,2
 10727  0B4B  2B4D               	goto	u279_21
 10728  0B4C  2B4E               	goto	u279_20
 10729  0B4D                     u279_21:
 10730  0B4D  2B8E               	goto	i1l334
 10731  0B4E                     u279_20:
 10732  0B4E                     i1l4106:
 10733                           
 10734                           ;mcc_generated_files/usb/usb_device.c: 2623:     {;mcc_generated_files/usb/usb_device.c:
      +                           2624:         pBDTEntryIn[0]->ADR = (((uint16_t)(CtrlTrfData)) & 0x7FFF);
 10735  0B4E  3058               	movlw	88
 10736  0B4F  00F3               	movwf	??_USBCtrlTrfInHandler
 10737  0B50  3000               	movlw	0
 10738  0B51  00F4               	movwf	??_USBCtrlTrfInHandler+1
 10739  0B52  0827               	movf	_pBDTEntryIn^(0+128),w
 10740  0B53  0086               	movwf	6
 10741  0B54  0828               	movf	(_pBDTEntryIn+1)^(0+128),w
 10742  0B55  0087               	movwf	7
 10743  0B56  3142               	addfsr 1,2
 10744  0B57  0873               	movf	??_USBCtrlTrfInHandler,w
 10745  0B58  3FC0               	movwi [0]fsr1
 10746  0B59  0874               	movf	??_USBCtrlTrfInHandler+1,w
 10747  0B5A  3FC1               	movwi [1]fsr1
 10748  0B5B                     i1l4108:
 10749                           
 10750                           ;mcc_generated_files/usb/usb_device.c: 2625:         USBCtrlTrfTxService();
 10751  0B5B  318C  2410  318B   	fcall	_USBCtrlTrfTxService
 10752  0B5E                     i1l4110:
 10753                           
 10754                           ;mcc_generated_files/usb/usb_device.c: 2631:         if(shortPacketStatus == 2)
 10755  0B5E  3002               	movlw	2
 10756  0B5F  0021               	movlb	1	; select bank1
 10757  0B60  0639               	xorwf	_shortPacketStatus^(0+128),w	;volatile
 10758  0B61  1D03               	btfss	3,2
 10759  0B62  2B64               	goto	u280_21
 10760  0B63  2B65               	goto	u280_20
 10761  0B64                     u280_21:
 10762  0B64  2B71               	goto	i1l4114
 10763  0B65                     u280_20:
 10764  0B65                     i1l4112:
 10765                           
 10766                           ;mcc_generated_files/usb/usb_device.c: 2632:         {;mcc_generated_files/usb/usb_devic
      +                          e.c: 2635:             pBDTEntryIn[0]->STAT.Val = 0x04;
 10767  0B65  0827               	movf	_pBDTEntryIn^(0+128),w
 10768  0B66  0086               	movwf	6
 10769  0B67  0828               	movf	(_pBDTEntryIn+1)^(0+128),w
 10770  0B68  0087               	movwf	7
 10771  0B69  3004               	movlw	4
 10772  0B6A  0081               	movwf	1
 10773                           
 10774                           ;mcc_generated_files/usb/usb_device.c: 2636:             pBDTEntryIn[0]->STAT.Val |= 0x8
      +                          0;
 10775  0B6B  0827               	movf	_pBDTEntryIn^(0+128),w
 10776  0B6C  0086               	movwf	6
 10777  0B6D  0828               	movf	(_pBDTEntryIn+1)^(0+128),w
 10778  0B6E  0087               	movwf	7
 10779  0B6F  1781               	bsf	1,7
 10780                           
 10781                           ;mcc_generated_files/usb/usb_device.c: 2637:         }
 10782  0B70  2B96               	goto	i1l342
 10783  0B71                     i1l4114:
 10784                           
 10785                           ;mcc_generated_files/usb/usb_device.c: 2639:         {;mcc_generated_files/usb/usb_devic
      +                          e.c: 2640:             if(lastDTS == 0)
 10786  0B71  0875               	movf	USBCtrlTrfInHandler@lastDTS,w
 10787  0B72  1D03               	btfss	3,2
 10788  0B73  2B75               	goto	u281_21
 10789  0B74  2B76               	goto	u281_20
 10790  0B75                     u281_21:
 10791  0B75  2B82               	goto	i1l4118
 10792  0B76                     u281_20:
 10793  0B76                     i1l4116:
 10794                           
 10795                           ;mcc_generated_files/usb/usb_device.c: 2641:             {;mcc_generated_files/usb/usb_d
      +                          evice.c: 2642:                 pBDTEntryIn[0]->STAT.Val = 0x40|(0x08 & 0x08);
 10796  0B76  0827               	movf	_pBDTEntryIn^(0+128),w
 10797  0B77  0086               	movwf	6
 10798  0B78  0828               	movf	(_pBDTEntryIn+1)^(0+128),w
 10799  0B79  0087               	movwf	7
 10800  0B7A  3048               	movlw	72
 10801  0B7B  0081               	movwf	1
 10802                           
 10803                           ;mcc_generated_files/usb/usb_device.c: 2643:                 pBDTEntryIn[0]->STAT.Val |=
      +                           0x80;
 10804  0B7C  0827               	movf	_pBDTEntryIn^(0+128),w
 10805  0B7D  0086               	movwf	6
 10806  0B7E  0828               	movf	(_pBDTEntryIn+1)^(0+128),w
 10807  0B7F  0087               	movwf	7
 10808  0B80  1781               	bsf	1,7
 10809                           
 10810                           ;mcc_generated_files/usb/usb_device.c: 2644:             }
 10811  0B81  2B96               	goto	i1l342
 10812  0B82                     i1l4118:
 10813                           
 10814                           ;mcc_generated_files/usb/usb_device.c: 2646:             {;mcc_generated_files/usb/usb_d
      +                          evice.c: 2647:                 pBDTEntryIn[0]->STAT.Val = 0x00|(0x08 & 0x08);
 10815  0B82  0827               	movf	_pBDTEntryIn^(0+128),w
 10816  0B83  0086               	movwf	6
 10817  0B84  0828               	movf	(_pBDTEntryIn+1)^(0+128),w
 10818  0B85  0087               	movwf	7
 10819  0B86  3008               	movlw	8
 10820  0B87  0081               	movwf	1
 10821                           
 10822                           ;mcc_generated_files/usb/usb_device.c: 2648:                 pBDTEntryIn[0]->STAT.Val |=
      +                           0x80;
 10823  0B88  0827               	movf	_pBDTEntryIn^(0+128),w
 10824  0B89  0086               	movwf	6
 10825  0B8A  0828               	movf	(_pBDTEntryIn+1)^(0+128),w
 10826  0B8B  0087               	movwf	7
 10827  0B8C  1781               	bsf	1,7
 10828  0B8D  2B96               	goto	i1l342
 10829  0B8E                     i1l334:	
 10830                           ;mcc_generated_files/usb/usb_device.c: 2652:  else
 10831                           
 10832                           
 10833                           ;mcc_generated_files/usb/usb_device.c: 2653:  {;mcc_generated_files/usb/usb_device.c: 26
      +                          57:         if(outPipes[0].info.bits.busy == 1)
 10834  0B8E  1FA2               	btfss	(_outPipes^(0+128)+2),7	;volatile
 10835  0B8F  2B91               	goto	u282_21
 10836  0B90  2B92               	goto	u282_20
 10837  0B91                     u282_21:
 10838  0B91  2B95               	goto	i1l4122
 10839  0B92                     u282_20:
 10840  0B92                     i1l4120:
 10841                           
 10842                           ;mcc_generated_files/usb/usb_device.c: 2660:             {;mcc_generated_files/usb/usb_d
      +                          evice.c: 2661:                 outPipes[0].pFunc();
 10843  0B92  0825               	movf	(low ((_outPipes| 0+5)))^(0+128),w	;volatile
 10844  0B93  0826               	movf	((low ((_outPipes| 0+5))+1))^(0+128),w	;volatile
 10845  0B94                     i1l341:	
 10846                           ;mcc_generated_files/usb/usb_device.c: 2662:             }
 10847                           
 10848                           
 10849                           ;mcc_generated_files/usb/usb_device.c: 2663:             outPipes[0].info.bits.busy = 0;
 10850  0B94  13A2               	bcf	(_outPipes^(0+128)+2),7	;volatile
 10851  0B95                     i1l4122:
 10852                           
 10853                           ;mcc_generated_files/usb/usb_device.c: 2666:         controlTransferState = 0;
 10854  0B95  01B8               	clrf	_controlTransferState^(0+128)	;volatile
 10855  0B96                     i1l342:
 10856  0B96  0008               	return
 10857  0B97                     __end_of_USBCtrlTrfInHandler:
 10858                           
 10859                           	psect	text40
 10860  0C10                     __ptext40:	
 10861 ;; *************** function _USBCtrlTrfTxService *****************
 10862 ;; Defined at:
 10863 ;;		line 1775 in file "mcc_generated_files/usb/usb_device.c"
 10864 ;; Parameters:    Size  Location     Type
 10865 ;;		None
 10866 ;; Auto vars:     Size  Location     Type
 10867 ;;  byteToSend      1    2[COMMON] unsigned char 
 10868 ;; Return value:  Size  Location     Type
 10869 ;;                  1    wreg      void 
 10870 ;; Registers used:
 10871 ;;		wreg, fsr0l, fsr0h, fsr1l, fsr1h, status,2, status,0, pclath
 10872 ;; Tracked objects:
 10873 ;;		On entry : 0/0
 10874 ;;		On exit  : 0/0
 10875 ;;		Unchanged: 0/0
 10876 ;; Data sizes:     COMMON   BANK0   BANK1   BANK2   BANK3   BANK4   BANK5   BANK6   BANK7   BANK8   BANK9  BANK10  BANK1
      +1  BANK12
 10877 ;;      Params:         0       0       0       0       0       0       0       0       0       0       0       0       
      +0       0
 10878 ;;      Locals:         1       0       0       0       0       0       0       0       0       0       0       0       
      +0       0
 10879 ;;      Temps:          2       0       0       0       0       0       0       0       0       0       0       0       
      +0       0
 10880 ;;      Totals:         3       0       0       0       0       0       0       0       0       0       0       0       
      +0       0
 10881 ;;Total ram usage:        3 bytes
 10882 ;; Hardware stack levels used:    1
 10883 ;; This function calls:
 10884 ;;		Nothing
 10885 ;; This function is called by:
 10886 ;;		_USBCtrlEPAllowDataStage
 10887 ;;		_USBCtrlTrfInHandler
 10888 ;; This function uses a non-reentrant model
 10889 ;;
 10890                           
 10891                           
 10892                           ;psect for function _USBCtrlTrfTxService
 10893  0C10                     _USBCtrlTrfTxService:
 10894  0C10                     i1l3548:	
 10895                           ;incstack = 0
 10896                           ; Regs used in _USBCtrlTrfTxService: [wreg-fsr1h+status,2+status,0+pclath]
 10897                           
 10898                           
 10899                           ;mcc_generated_files/usb/usb_device.c: 1777:     uint8_t byteToSend;;mcc_generated_files
      +                          /usb/usb_device.c: 1781:     byteToSend = 8;
 10900  0C10  3008               	movlw	8
 10901  0C11  00F0               	movwf	??_USBCtrlTrfTxService
 10902  0C12  0870               	movf	??_USBCtrlTrfTxService,w
 10903  0C13  00F2               	movwf	USBCtrlTrfTxService@byteToSend
 10904                           
 10905                           ;mcc_generated_files/usb/usb_device.c: 1782:     if(inPipes[0].wCount.Val < (uint8_t)8)
 10906  0C14  3000               	movlw	0
 10907  0C15  0021               	movlb	1	; select bank1
 10908  0C16  0231               	subwf	((_inPipes+1)^(0+128)+3),w	;volatile
 10909  0C17  3008               	movlw	8
 10910  0C18  1903               	skipnz
 10911  0C19  0230               	subwf	(_inPipes^(0+128)+3),w	;volatile
 10912  0C1A  1803               	skipnc
 10913  0C1B  2C1D               	goto	u215_21
 10914  0C1C  2C1E               	goto	u215_20
 10915  0C1D                     u215_21:
 10916  0C1D  2C35               	goto	i1l234
 10917  0C1E                     u215_20:
 10918  0C1E                     i1l3550:
 10919                           
 10920                           ;mcc_generated_files/usb/usb_device.c: 1783:     {;mcc_generated_files/usb/usb_device.c:
      +                           1784:         byteToSend = inPipes[0].wCount.Val;
 10921  0C1E  0830               	movf	(_inPipes^(0+128)+3),w	;volatile
 10922  0C1F  00F0               	movwf	??_USBCtrlTrfTxService
 10923  0C20  0870               	movf	??_USBCtrlTrfTxService,w
 10924  0C21  00F2               	movwf	USBCtrlTrfTxService@byteToSend
 10925  0C22                     i1l3552:
 10926                           
 10927                           ;mcc_generated_files/usb/usb_device.c: 1791:         if(shortPacketStatus == 0)
 10928  0C22  0839               	movf	_shortPacketStatus^(0+128),w	;volatile
 10929  0C23  1D03               	btfss	3,2
 10930  0C24  2C26               	goto	u216_21
 10931  0C25  2C27               	goto	u216_20
 10932  0C26                     u216_21:
 10933  0C26  2C2C               	goto	i1l3556
 10934  0C27                     u216_20:
 10935  0C27                     i1l3554:
 10936                           
 10937                           ;mcc_generated_files/usb/usb_device.c: 1792:         {;mcc_generated_files/usb/usb_devic
      +                          e.c: 1793:             shortPacketStatus = 1;
 10938  0C27  3001               	movlw	1
 10939  0C28  00F0               	movwf	??_USBCtrlTrfTxService
 10940  0C29  0870               	movf	??_USBCtrlTrfTxService,w
 10941  0C2A  00B9               	movwf	_shortPacketStatus^(0+128)	;volatile
 10942                           
 10943                           ;mcc_generated_files/usb/usb_device.c: 1794:         }
 10944  0C2B  2C35               	goto	i1l234
 10945  0C2C                     i1l3556:
 10946  0C2C  0339               	decf	_shortPacketStatus^(0+128),w	;volatile
 10947  0C2D  1D03               	btfss	3,2
 10948  0C2E  2C30               	goto	u217_21
 10949  0C2F  2C31               	goto	u217_20
 10950  0C30                     u217_21:
 10951  0C30  2C35               	goto	i1l234
 10952  0C31                     u217_20:
 10953  0C31                     i1l3558:
 10954                           
 10955                           ;mcc_generated_files/usb/usb_device.c: 1796:         {;mcc_generated_files/usb/usb_devic
      +                          e.c: 1797:             shortPacketStatus = 2;
 10956  0C31  3002               	movlw	2
 10957  0C32  00F0               	movwf	??_USBCtrlTrfTxService
 10958  0C33  0870               	movf	??_USBCtrlTrfTxService,w
 10959  0C34  00B9               	movwf	_shortPacketStatus^(0+128)	;volatile
 10960  0C35                     i1l234:	
 10961                           ;mcc_generated_files/usb/usb_device.c: 1799:     }
 10962                           
 10963                           
 10964                           ;mcc_generated_files/usb/usb_device.c: 1803:     inPipes[0].wCount.Val -= byteToSend;
 10965  0C35  0872               	movf	USBCtrlTrfTxService@byteToSend,w
 10966  0C36  00F0               	movwf	??_USBCtrlTrfTxService
 10967  0C37  01F1               	clrf	??_USBCtrlTrfTxService+1
 10968  0C38  0870               	movf	??_USBCtrlTrfTxService,w
 10969  0C39  02B0               	subwf	(_inPipes^(0+128)+3),f	;volatile
 10970  0C3A  0871               	movf	??_USBCtrlTrfTxService+1,w
 10971  0C3B  3BB1               	subwfb	((_inPipes+1)^(0+128)+3),f	;volatile
 10972  0C3C                     i1l3560:
 10973                           
 10974                           ;mcc_generated_files/usb/usb_device.c: 1808:     pBDTEntryIn[0]->CNT = byteToSend;
 10975  0C3C  0827               	movf	_pBDTEntryIn^(0+128),w
 10976  0C3D  3E01               	addlw	1
 10977  0C3E  00F0               	movwf	??_USBCtrlTrfTxService
 10978  0C3F  3000               	movlw	0
 10979  0C40  3D28               	addwfc	(_pBDTEntryIn+1)^(0+128),w
 10980  0C41  00F1               	movwf	??_USBCtrlTrfTxService+1
 10981  0C42  0870               	movf	??_USBCtrlTrfTxService,w
 10982  0C43  0086               	movwf	6
 10983  0C44  0871               	movf	??_USBCtrlTrfTxService+1,w
 10984  0C45  0087               	movwf	7
 10985  0C46  0872               	movf	USBCtrlTrfTxService@byteToSend,w
 10986  0C47  0081               	movwf	1
 10987  0C48                     i1l3562:
 10988                           
 10989                           ;mcc_generated_files/usb/usb_device.c: 1812:     pDst = (volatile uint8_t*)CtrlTrfData;
 10990  0C48  3058               	movlw	88
 10991  0C49  00F0               	movwf	??_USBCtrlTrfTxService
 10992  0C4A  0870               	movf	??_USBCtrlTrfTxService,w
 10993  0C4B  0023               	movlb	3	; select bank3
 10994  0C4C  00EB               	movwf	_pDst^(0+384)
 10995  0C4D                     i1l3564:
 10996                           
 10997                           ;mcc_generated_files/usb/usb_device.c: 1813:     if(inPipes[0].info.bits.ctrl_trf_mem ==
      +                           0x00)
 10998  0C4D  0021               	movlb	1	; select bank1
 10999  0C4E  182F               	btfsc	(_inPipes^(0+128)+2),0	;volatile
 11000  0C4F  2C51               	goto	u218_21
 11001  0C50  2C52               	goto	u218_20
 11002  0C51                     u218_21:
 11003  0C51  2C8B               	goto	i1l3586
 11004  0C52                     u218_20:
 11005  0C52  2C6C               	goto	i1l3576
 11006  0C53                     i1l3568:
 11007                           
 11008                           ;mcc_generated_files/usb/usb_device.c: 1816:         {;mcc_generated_files/usb/usb_devic
      +                          e.c: 1817:             *pDst++ = *inPipes[0].pSrc.bRom++;
 11009  0C53  0021               	movlb	1	; select bank1
 11010  0C54  082D               	movf	_inPipes^(0+128),w	;volatile
 11011  0C55  0084               	movwf	4
 11012  0C56  082E               	movf	(_inPipes+1)^(0+128),w	;volatile
 11013  0C57  0085               	movwf	5
 11014  0C58  0800               	movf	0,w	;code access
 11015  0C59  00F0               	movwf	??_USBCtrlTrfTxService
 11016  0C5A  0023               	movlb	3	; select bank3
 11017  0C5B  086B               	movf	_pDst^(0+384),w
 11018  0C5C  0086               	movwf	6
 11019  0C5D  0187               	clrf	7
 11020  0C5E  0870               	movf	??_USBCtrlTrfTxService,w
 11021  0C5F  0081               	movwf	1
 11022  0C60                     i1l3570:
 11023  0C60  3001               	movlw	1
 11024  0C61  0021               	movlb	1	; select bank1
 11025  0C62  07AD               	addwf	_inPipes^(0+128),f	;volatile
 11026  0C63  3000               	movlw	0
 11027  0C64  3DAE               	addwfc	(_inPipes+1)^(0+128),f	;volatile
 11028  0C65                     i1l3572:
 11029  0C65  3001               	movlw	1
 11030  0C66  00F0               	movwf	??_USBCtrlTrfTxService
 11031  0C67  0870               	movf	??_USBCtrlTrfTxService,w
 11032  0C68  0023               	movlb	3	; select bank3
 11033  0C69  07EB               	addwf	_pDst^(0+384),f
 11034  0C6A                     i1l3574:
 11035                           
 11036                           ;mcc_generated_files/usb/usb_device.c: 1818:             byteToSend--;
 11037  0C6A  3001               	movlw	1
 11038  0C6B  02F2               	subwf	USBCtrlTrfTxService@byteToSend,f
 11039  0C6C                     i1l3576:
 11040                           
 11041                           ;mcc_generated_files/usb/usb_device.c: 1815:         while(byteToSend)
 11042  0C6C  0872               	movf	USBCtrlTrfTxService@byteToSend,w
 11043  0C6D  1D03               	btfss	3,2
 11044  0C6E  2C70               	goto	u219_21
 11045  0C6F  2C71               	goto	u219_20
 11046  0C70                     u219_21:
 11047  0C70  2C53               	goto	i1l3568
 11048  0C71                     u219_20:
 11049  0C71  2C90               	goto	i1l246
 11050  0C72                     i1l3578:
 11051                           
 11052                           ;mcc_generated_files/usb/usb_device.c: 1824:         {;mcc_generated_files/usb/usb_devic
      +                          e.c: 1825:             *pDst++ = *inPipes[0].pSrc.bRam++;
 11053  0C72  0021               	movlb	1	; select bank1
 11054  0C73  082D               	movf	_inPipes^(0+128),w	;volatile
 11055  0C74  0084               	movwf	4
 11056  0C75  082E               	movf	(_inPipes+1)^(0+128),w	;volatile
 11057  0C76  0085               	movwf	5
 11058  0C77  0800               	movf	0,w	;code access
 11059  0C78  00F0               	movwf	??_USBCtrlTrfTxService
 11060  0C79  0023               	movlb	3	; select bank3
 11061  0C7A  086B               	movf	_pDst^(0+384),w
 11062  0C7B  0086               	movwf	6
 11063  0C7C  0187               	clrf	7
 11064  0C7D  0870               	movf	??_USBCtrlTrfTxService,w
 11065  0C7E  0081               	movwf	1
 11066  0C7F                     i1l3580:
 11067  0C7F  3001               	movlw	1
 11068  0C80  0021               	movlb	1	; select bank1
 11069  0C81  07AD               	addwf	_inPipes^(0+128),f	;volatile
 11070  0C82  3000               	movlw	0
 11071  0C83  3DAE               	addwfc	(_inPipes+1)^(0+128),f	;volatile
 11072  0C84                     i1l3582:
 11073  0C84  3001               	movlw	1
 11074  0C85  00F0               	movwf	??_USBCtrlTrfTxService
 11075  0C86  0870               	movf	??_USBCtrlTrfTxService,w
 11076  0C87  0023               	movlb	3	; select bank3
 11077  0C88  07EB               	addwf	_pDst^(0+384),f
 11078  0C89                     i1l3584:
 11079                           
 11080                           ;mcc_generated_files/usb/usb_device.c: 1826:             byteToSend--;
 11081  0C89  3001               	movlw	1
 11082  0C8A  02F2               	subwf	USBCtrlTrfTxService@byteToSend,f
 11083  0C8B                     i1l3586:
 11084                           
 11085                           ;mcc_generated_files/usb/usb_device.c: 1823:         while(byteToSend)
 11086  0C8B  0872               	movf	USBCtrlTrfTxService@byteToSend,w
 11087  0C8C  1D03               	btfss	3,2
 11088  0C8D  2C8F               	goto	u220_21
 11089  0C8E  2C90               	goto	u220_20
 11090  0C8F                     u220_21:
 11091  0C8F  2C72               	goto	i1l3578
 11092  0C90                     u220_20:
 11093  0C90                     i1l246:
 11094  0C90  0008               	return
 11095  0C91                     __end_of_USBCtrlTrfTxService:
 11096                           
 11097                           	psect	text41
 11098  08F3                     __ptext41:	
 11099 ;; *************** function _TMR0_ISR *****************
 11100 ;; Defined at:
 11101 ;;		line 113 in file "mcc_generated_files/tmr0.c"
 11102 ;; Parameters:    Size  Location     Type
 11103 ;;		None
 11104 ;; Auto vars:     Size  Location     Type
 11105 ;;		None
 11106 ;; Return value:  Size  Location     Type
 11107 ;;                  1    wreg      void 
 11108 ;; Registers used:
 11109 ;;		wreg, status,2, status,0, pclath, cstack
 11110 ;; Tracked objects:
 11111 ;;		On entry : 0/0
 11112 ;;		On exit  : 0/0
 11113 ;;		Unchanged: 0/0
 11114 ;; Data sizes:     COMMON   BANK0   BANK1   BANK2   BANK3   BANK4   BANK5   BANK6   BANK7   BANK8   BANK9  BANK10  BANK1
      +1  BANK12
 11115 ;;      Params:         0       0       0       0       0       0       0       0       0       0       0       0       
      +0       0
 11116 ;;      Locals:         0       0       0       0       0       0       0       0       0       0       0       0       
      +0       0
 11117 ;;      Temps:          1       0       0       0       0       0       0       0       0       0       0       0       
      +0       0
 11118 ;;      Totals:         1       0       0       0       0       0       0       0       0       0       0       0       
      +0       0
 11119 ;;Total ram usage:        1 bytes
 11120 ;; Hardware stack levels used:    1
 11121 ;; Hardware stack levels required when called:    1
 11122 ;; This function calls:
 11123 ;;		Absolute function
 11124 ;;		_TMR0_DefaultInterruptHandler
 11125 ;; This function is called by:
 11126 ;;		_INTERRUPT_InterruptManager
 11127 ;; This function uses a non-reentrant model
 11128 ;;
 11129                           
 11130                           
 11131                           ;psect for function _TMR0_ISR
 11132  08F3                     _TMR0_ISR:
 11133  08F3                     i1l4652:	
 11134                           ;incstack = 0
 11135                           ; Regs used in _TMR0_ISR: [wreg+status,2+status,0+pclath+cstack]
 11136                           
 11137                           
 11138                           ;mcc_generated_files/tmr0.c: 117:     INTCONbits.TMR0IF = 0;
 11139  08F3  110B               	bcf	11,2	;volatile
 11140  08F4                     i1l4654:
 11141                           
 11142                           ;mcc_generated_files/tmr0.c: 119:     TMR0 = timer0ReloadVal;
 11143  08F4  0023               	movlb	3	; select bank3
 11144  08F5  085A               	movf	_timer0ReloadVal^(0+384),w	;volatile
 11145  08F6  0020               	movlb	0	; select bank0
 11146  08F7  0095               	movwf	21	;volatile
 11147  08F8                     i1l4656:
 11148                           
 11149                           ;mcc_generated_files/tmr0.c: 121:     if(TMR0_InterruptHandler)
 11150  08F8  0023               	movlb	3	; select bank3
 11151  08F9  0846               	movf	_TMR0_InterruptHandler^(0+384),w
 11152  08FA  0447               	iorwf	(_TMR0_InterruptHandler+1)^(0+384),w
 11153  08FB  1903               	btfsc	3,2
 11154  08FC  28FE               	goto	u346_21
 11155  08FD  28FF               	goto	u346_20
 11156  08FE                     u346_21:
 11157  08FE  2904               	goto	i1l4660
 11158  08FF                     u346_20:
 11159  08FF                     i1l4658:
 11160                           
 11161                           ;mcc_generated_files/tmr0.c: 122:     {;mcc_generated_files/tmr0.c: 123:         TMR0_In
      +                          terruptHandler();
 11162  08FF  0847               	movf	(_TMR0_InterruptHandler+1)^(0+384),w
 11163  0900  008A               	movwf	10
 11164  0901  0846               	movf	_TMR0_InterruptHandler^(0+384),w
 11165  0902  000A               	callw
 11166  0903  3188               	pagesel	$
 11167  0904                     i1l4660:
 11168                           
 11169                           ;mcc_generated_files/tmr0.c: 125:     if(++waitforsleep_count >= 5000)
 11170  0904  3001               	movlw	1
 11171  0905  0023               	movlb	3	; select bank3
 11172  0906  07C8               	addwf	_waitforsleep_count^(0+384),f
 11173  0907  3000               	movlw	0
 11174  0908  3DC9               	addwfc	(_waitforsleep_count+1)^(0+384),f
 11175  0909  0849               	movf	(_waitforsleep_count+1)^(0+384),w
 11176  090A  3A80               	xorlw	128
 11177  090B  00F0               	movwf	??_TMR0_ISR
 11178  090C  3093               	movlw	147
 11179  090D  0270               	subwf	??_TMR0_ISR,w
 11180  090E  1D03               	skipz
 11181  090F  2912               	goto	u347_25
 11182  0910  3088               	movlw	136
 11183  0911  0248               	subwf	_waitforsleep_count^(0+384),w
 11184  0912                     u347_25:
 11185  0912  1C03               	skipc
 11186  0913  2915               	goto	u347_21
 11187  0914  2916               	goto	u347_20
 11188  0915                     u347_21:
 11189  0915  291B               	goto	i1l4666
 11190  0916                     u347_20:
 11191  0916                     i1l4662:
 11192                           
 11193                           ;mcc_generated_files/tmr0.c: 126:     {;mcc_generated_files/tmr0.c: 127:         waitfor
      +                          sleep_count = 0;
 11194  0916  0023               	movlb	3	; select bank3
 11195  0917  01C8               	clrf	_waitforsleep_count^(0+384)
 11196  0918  01C9               	clrf	(_waitforsleep_count+1)^(0+384)
 11197  0919                     i1l4664:
 11198                           
 11199                           ;mcc_generated_files/tmr0.c: 128:         sleep_flag = 1;
 11200  0919  01DE               	clrf	_sleep_flag^(0+384)
 11201  091A  0ADE               	incf	_sleep_flag^(0+384),f
 11202  091B                     i1l4666:
 11203                           
 11204                           ;mcc_generated_files/tmr0.c: 130:     if(++counter >= 38)
 11205  091B  3001               	movlw	1
 11206  091C  0023               	movlb	3	; select bank3
 11207  091D  07CA               	addwf	_counter^(0+384),f
 11208  091E  3000               	movlw	0
 11209  091F  3DCB               	addwfc	(_counter+1)^(0+384),f
 11210  0920  084B               	movf	(_counter+1)^(0+384),w
 11211  0921  3A80               	xorlw	128
 11212  0922  00F0               	movwf	??_TMR0_ISR
 11213  0923  3080               	movlw	128
 11214  0924  0270               	subwf	??_TMR0_ISR,w
 11215  0925  1D03               	skipz
 11216  0926  2929               	goto	u348_25
 11217  0927  3026               	movlw	38
 11218  0928  024A               	subwf	_counter^(0+384),w
 11219  0929                     u348_25:
 11220  0929  1C03               	skipc
 11221  092A  292C               	goto	u348_21
 11222  092B  292D               	goto	u348_20
 11223  092C                     u348_21:
 11224  092C  293F               	goto	i1l761
 11225  092D                     u348_20:
 11226  092D                     i1l4668:
 11227                           
 11228                           ;mcc_generated_files/tmr0.c: 131:     {;mcc_generated_files/tmr0.c: 132:         if(meas
      +                          urement_count < 52)
 11229  092D  3034               	movlw	52
 11230  092E  0023               	movlb	3	; select bank3
 11231  092F  025C               	subwf	_measurement_count^(0+384),w
 11232  0930  1803               	skipnc
 11233  0931  2933               	goto	u349_21
 11234  0932  2934               	goto	u349_20
 11235  0933                     u349_21:
 11236  0933  293B               	goto	i1l759
 11237  0934                     u349_20:
 11238  0934                     i1l4670:
 11239                           
 11240                           ;mcc_generated_files/tmr0.c: 133:         {;mcc_generated_files/tmr0.c: 134:         mea
      +                          surement_count++;
 11241  0934  3001               	movlw	1
 11242  0935  00F0               	movwf	??_TMR0_ISR
 11243  0936  0870               	movf	??_TMR0_ISR,w
 11244  0937  07DC               	addwf	_measurement_count^(0+384),f
 11245  0938                     i1l4672:
 11246                           
 11247                           ;mcc_generated_files/tmr0.c: 135:         measurement_flag = 1;
 11248  0938  01DB               	clrf	_measurement_flag^(0+384)
 11249  0939  0ADB               	incf	_measurement_flag^(0+384),f
 11250                           
 11251                           ;mcc_generated_files/tmr0.c: 136:         }
 11252  093A  293D               	goto	i1l4674
 11253  093B                     i1l759:	
 11254                           ;mcc_generated_files/tmr0.c: 137:         else
 11255                           
 11256                           
 11257                           ;mcc_generated_files/tmr0.c: 138:         {;mcc_generated_files/tmr0.c: 139:            
      +                           writeout_flag = 1;
 11258  093B  01DD               	clrf	_writeout_flag^(0+384)
 11259  093C  0ADD               	incf	_writeout_flag^(0+384),f
 11260  093D                     i1l4674:
 11261                           
 11262                           ;mcc_generated_files/tmr0.c: 141:         counter = 0;
 11263  093D  01CA               	clrf	_counter^(0+384)
 11264  093E  01CB               	clrf	(_counter+1)^(0+384)
 11265  093F                     i1l761:
 11266  093F  0008               	return
 11267  0940                     __end_of_TMR0_ISR:
 11268                           
 11269                           	psect	text42
 11270  07FE                     __ptext42:	
 11271 ;; *************** function _TMR0_DefaultInterruptHandler *****************
 11272 ;; Defined at:
 11273 ;;		line 152 in file "mcc_generated_files/tmr0.c"
 11274 ;; Parameters:    Size  Location     Type
 11275 ;;		None
 11276 ;; Auto vars:     Size  Location     Type
 11277 ;;		None
 11278 ;; Return value:  Size  Location     Type
 11279 ;;                  1    wreg      void 
 11280 ;; Registers used:
 11281 ;;		None
 11282 ;; Tracked objects:
 11283 ;;		On entry : 0/0
 11284 ;;		On exit  : 0/0
 11285 ;;		Unchanged: 0/0
 11286 ;; Data sizes:     COMMON   BANK0   BANK1   BANK2   BANK3   BANK4   BANK5   BANK6   BANK7   BANK8   BANK9  BANK10  BANK1
      +1  BANK12
 11287 ;;      Params:         0       0       0       0       0       0       0       0       0       0       0       0       
      +0       0
 11288 ;;      Locals:         0       0       0       0       0       0       0       0       0       0       0       0       
      +0       0
 11289 ;;      Temps:          0       0       0       0       0       0       0       0       0       0       0       0       
      +0       0
 11290 ;;      Totals:         0       0       0       0       0       0       0       0       0       0       0       0       
      +0       0
 11291 ;;Total ram usage:        0 bytes
 11292 ;; Hardware stack levels used:    1
 11293 ;; This function calls:
 11294 ;;		Nothing
 11295 ;; This function is called by:
 11296 ;;		_TMR0_Initialize
 11297 ;;		_TMR0_ISR
 11298 ;; This function uses a non-reentrant model
 11299 ;;
 11300                           
 11301                           
 11302                           ;psect for function _TMR0_DefaultInterruptHandler
 11303  07FE                     _TMR0_DefaultInterruptHandler:
 11304  07FE                     i1l767:	
 11305                           ;incstack = 0
 11306                           ; Regs used in _TMR0_DefaultInterruptHandler: []
 11307                           
 11308  07FE  0008               	return
 11309  07FF                     __end_of_TMR0_DefaultInterruptHandler:
 11310  007E                     btemp	set	126	;btemp
 11311  007E                     int$flags	set	126
 11312  007E                     wtemp0	set	126
 11313  2250                     
 11314                           	psect	config
 11315                           
 11316                           ;Config register CONFIG1 @ 0x8007
 11317                           ;	Oscillator Selection Bits
 11318                           ;	FOSC = INTOSC, INTOSC oscillator: I/O function on CLKIN pin
 11319                           ;	Watchdog Timer Enable
 11320                           ;	WDTE = OFF, WDT disabled
 11321                           ;	Power-up Timer Enable
 11322                           ;	PWRTE = OFF, PWRT disabled
 11323                           ;	MCLR Pin Function Select
 11324                           ;	MCLRE = ON, MCLR/VPP pin function is MCLR
 11325                           ;	Flash Program Memory Code Protection
 11326                           ;	CP = OFF, Program memory code protection is disabled
 11327                           ;	Brown-out Reset Enable
 11328                           ;	BOREN = ON, Brown-out Reset enabled
 11329                           ;	Clock Out Enable
 11330                           ;	CLKOUTEN = OFF, CLKOUT function is disabled. I/O or oscillator function on the CLKOUT 
      +                          pin
 11331                           ;	Internal/External Switchover Mode
 11332                           ;	IESO = ON, Internal/External Switchover Mode is enabled
 11333                           ;	Fail-Safe Clock Monitor Enable
 11334                           ;	FCMEN = ON, Fail-Safe Clock Monitor is enabled
 11335  8007                     	org	32775
 11336  8007  3FE4               	dw	16356
 11337                           
 11338                           ;Config register CONFIG2 @ 0x8008
 11339                           ;	Flash Memory Self-Write Protection
 11340                           ;	WRT = OFF, Write protection off
 11341                           ;	CPU System Clock Selection Bit
 11342                           ;	CPUDIV = CLKDIV6, CPU system clock divided by 6
 11343                           ;	USB Low SPeed Clock Selection bit
 11344                           ;	USBLSCLK = 48MHz, System clock expects 48 MHz, FS/LS USB CLKENs divide-by is set to 8.
 11345                           ;	PLL Multipler Selection Bit
 11346                           ;	PLLMULT = 3x, 3x Output Frequency Selected
 11347                           ;	PLL Enable Bit
 11348                           ;	PLLEN = ENABLED, 3x or 4x PLL Enabled
 11349                           ;	Stack Overflow/Underflow Reset Enable
 11350                           ;	STVREN = ON, Stack Overflow or Underflow will cause a Reset
 11351                           ;	Brown-out Reset Voltage Selection
 11352                           ;	BORV = LO, Brown-out Reset Voltage (Vbor), low trip point selected.
 11353                           ;	Low-Power Brown Out Reset
 11354                           ;	LPBOR = OFF, Low-Power BOR is disabled
 11355                           ;	Low-Voltage Programming Enable
 11356                           ;	LVP = ON, Low-voltage programming enabled
 11357  8008                     	org	32776
 11358  8008  3FFF               	dw	16383

Data Sizes:
    Strings     0
    Constant    181
    Data        448
    BSS         245
    Persistent  34
    Stack       0

Auto Spaces:
    Space          Size  Autos    Used
    COMMON           14     14      14
    BANK0            16     16      16
    BANK1            48     10      40
    BANK2             0      0       0
    BANK3            64      0      64
    BANK4            80      8      65
    BANK5            80      0      64
    BANK6            80      0      64
    BANK7            32      0       0
    BANK8             0      0       0
    BANK9             0      0       0
    BANK10            0      0       0
    BANK11            0      0       0
    BANK12            0      0       0

Pointer List with Targets:

    USER_USB_CALLBACK_EVENT_HANDLER@pdata	PTR void  size(2) Largest target is 4096
		 -> RAM(DATA[4096]), USTATcopy(BANK1[1]), USBActiveConfiguration(BANK1[1]), NULL(NULL[0]), 
		 -> BDT(BANK0[48]), 

    ADC_InterruptHandler	PTR FTN()void  size(2) Largest target is 1
		 -> Absolute function(), 

    memset@dest	PTR void  size(2) Largest target is 48
		 -> USBAlternateInterface(BANK3[2]), BDT(BANK0[48]), 

    memset@s	PTR unsigned char  size(2) Largest target is 48
		 -> USBAlternateInterface(BANK3[2]), BDT(BANK0[48]), 

    memcpy@d1	PTR void  size(1) Largest target is 8
		 -> SetupPkt(BANK0[8]), 

    memcpy@d	PTR unsigned char  size(1) Largest target is 8
		 -> SetupPkt(BANK0[8]), 

    memcpy@s1	PTR const void  size(2) Largest target is 4096
		 -> CtrlTrfData(BANK0[8]), RAM(DATA[4096]), SetupPkt(BANK0[8]), 

    memcpy@s	PTR const unsigned char  size(2) Largest target is 4096
		 -> CtrlTrfData(BANK0[8]), RAM(DATA[4096]), SetupPkt(BANK0[8]), 

    TMR0_SetInterruptHandler@InterruptHandler	PTR FTN()void  size(2) Largest target is 1
		 -> TMR0_DefaultInterruptHandler(), 

    TMR0_InterruptHandler	PTR FTN()void  size(2) Largest target is 1
		 -> TMR0_DefaultInterruptHandler(), Absolute function(), 

    IOCAF5_SetInterruptHandler@InterruptHandler	PTR FTN()void  size(2) Largest target is 1
		 -> IOCAF5_DefaultInterruptHandler(), 

    IOCAF5_InterruptHandler	PTR FTN()void  size(2) Largest target is 1
		 -> Absolute function(), IOCAF5_DefaultInterruptHandler(), 

    CDCDataInHandle	PTR void  size(2) Largest target is 4096
		 -> RAM(DATA[4096]), NULL(NULL[0]), BDT(BANK0[48]), 

    CDCDataOutHandle	PTR void  size(2) Largest target is 4096
		 -> RAM(DATA[4096]), NULL(NULL[0]), BDT(BANK0[48]), 

    pCDCDst.wRom	PTR const unsigned short  size(2) Largest target is 0

    pCDCDst.bRom	PTR const unsigned char  size(2) Largest target is 0

    pCDCDst.wRam	PTR unsigned short  size(2) Largest target is 0

    pCDCDst.bRam	PTR unsigned char  size(2) Largest target is 0

    S1607_POINTER$wRom	PTR const unsigned short  size(2) Largest target is 0

    pCDCSrc.wRom	PTR const unsigned short  size(2) Largest target is 0

    S1607_POINTER$bRom	PTR const unsigned char  size(2) Largest target is 0

    pCDCSrc.bRom	PTR const unsigned char  size(2) Largest target is 0

    S1607_POINTER$wRam	PTR unsigned short  size(2) Largest target is 0

    pCDCSrc.wRam	PTR unsigned short  size(2) Largest target is 0

    S1607_POINTER$bRam	PTR unsigned char  size(2) Largest target is 0

    pCDCSrc.bRam	PTR unsigned char  size(2) Largest target is 0

    USBStdFeatureReqHandler@pUEP	PTR unsigned char  size(2) Largest target is 1
		 -> UEP0(SFR29[1]), 

    USBStdFeatureReqHandler@p	PTR struct __BDT size(2) Largest target is 4096
		 -> RAM(DATA[4096]), NULL(NULL[0]), BDT(BANK0[48]), 

    sp__memcpy	PTR void  size(1) Largest target is 8
		 -> SetupPkt(BANK0[8]), 

    USBStdGetStatusHandler@p	PTR struct __BDT size(2) Largest target is 4096
		 -> RAM(DATA[4096]), NULL(NULL[0]), BDT(BANK0[48]), 

    USB_SD_Ptr	const PTR const unsigned char [4] size(2) Largest target is 52
		 -> sd003(CODE[8]), sd002(CODE[22]), sd001(CODE[52]), sd000(CODE[4]), 

    USB_CD_Ptr	const PTR const unsigned char [1] size(2) Largest target is 67
		 -> configDescriptor1(CODE[67]), 

    sp__memset	PTR void  size(2) Largest target is 48
		 -> USBAlternateInterface(BANK3[2]), BDT(BANK0[48]), 

    USBStdSetCfgHandler@p	PTR unsigned char  size(2) Largest target is 1
		 -> UEP1(SFR29[1]), 

    pDst	PTR volatile unsigned char  size(1) Largest target is 8
		 -> CtrlTrfData(BANK0[8]), NULL(NULL[0]), 

    USBConfigureEndpoint@handle	PTR volatile struct __BDT size(1) Largest target is 48
		 -> BDT(BANK0[48]), 

    pBDTEntryEP0OutCurrent	PTR volatile struct __BDT size(1) Largest target is 48
		 -> NULL(NULL[0]), BDT(BANK0[48]), 

    pBDTEntryEP0OutNext	PTR volatile struct __BDT size(2) Largest target is 4096
		 -> RAM(DATA[4096]), NULL(NULL[0]), BDT(BANK0[48]), 

    USBTransferOnePacket@data	PTR unsigned char  size(2) Largest target is 64
		 -> cdc_data_tx(BIGRAM[64]), cdc_data_rx(BIGRAM[64]), NULL(NULL[0]), 

    sp__USBTransferOnePacket	PTR void  size(2) Largest target is 4096
		 -> RAM(DATA[4096]), NULL(NULL[0]), BDT(BANK0[48]), 

    USBTransferOnePacket@handle	PTR volatile struct __BDT size(2) Largest target is 4096
		 -> RAM(DATA[4096]), NULL(NULL[0]), BDT(BANK0[48]), 

    USBEnableEndpoint@p	PTR unsigned char  size(2) Largest target is 1
		 -> UEP0(SFR29[1]), 

    pBDTEntryOut	PTR volatile struct __BDT[3] size(2) Largest target is 4096
		 -> RAM(DATA[4096]), NULL(NULL[0]), BDT(BANK0[48]), 

    pBDTEntryIn	PTR volatile struct __BDT[3] size(2) Largest target is 4096
		 -> RAM(DATA[4096]), NULL(NULL[0]), BDT(BANK0[48]), 

    S103$pFunc	PTR FTN()void  size(2) Largest target is 0
		 -> NULL(NULL[0]), 

    outPipes.pFunc	PTR FTN()void  size(2) Largest target is 0
		 -> NULL(NULL[0]), 

    S93$wRam	PTR unsigned short  size(1) Largest target is 0

    outPipes.pDst.wRam	PTR unsigned short  size(1) Largest target is 0

    S93$bRam	PTR unsigned char  size(1) Largest target is 0

    outPipes.pDst.bRam	PTR unsigned char  size(1) Largest target is 0

    S69$wRom	PTR const unsigned short  size(1) Largest target is 0

    inPipes.pSrc.wRom	PTR const unsigned short  size(1) Largest target is 0

    S69$wRam	PTR unsigned short  size(1) Largest target is 0

    inPipes.pSrc.wRam	PTR unsigned short  size(1) Largest target is 0

    S69$bRom	PTR const unsigned char  size(1) Largest target is 0

    inPipes.pSrc.bRom	PTR const unsigned char  size(1) Largest target is 0

    S69$bRam	PTR unsigned char  size(1) Largest target is 0

    inPipes.pSrc.bRam	PTR unsigned char  size(1) Largest target is 0

    USBDeviceInit@p	PTR unsigned char  size(2) Largest target is 1
		 -> UEP1(SFR29[1]), 


Critical Paths under _main in COMMON

    None.

Critical Paths under _INTERRUPT_InterruptManager in COMMON

    _USBCtrlEPServiceComplete->_USBCtrlEPAllowDataStage
    _USBCtrlEPAllowDataStage->_USBCtrlTrfTxService
    _USBStdSetCfgHandler->_memset
    _USER_USB_CALLBACK_EVENT_HANDLER->_CDCInitEP
    _CDCInitEP->_USBEnableEndpoint
    _USBEnableEndpoint->_USBConfigureEndpoint
    _USBCtrlTrfOutHandler->_USBCtrlTrfRxService
    _USBCtrlTrfRxService->_USBCtrlEPAllowStatusStage
    _USBCtrlTrfInHandler->_USBCtrlTrfTxService

Critical Paths under _main in BANK0

    None.

Critical Paths under _INTERRUPT_InterruptManager in BANK0

    _USBWakeFromSuspend->_USER_USB_CALLBACK_EVENT_HANDLER
    _USBSuspend->_USER_USB_CALLBACK_EVENT_HANDLER
    _USBCtrlEPService->_USBCtrlTrfSetupHandler
    _USBCtrlTrfSetupHandler->_USBCheckStdRequest
    _USBCheckStdRequest->_USBStdFeatureReqHandler
    _USBStdSetCfgHandler->_USER_USB_CALLBACK_EVENT_HANDLER
    _USBStdFeatureReqHandler->_USER_USB_CALLBACK_EVENT_HANDLER

Critical Paths under _main in BANK1

    _SYSTEM_Initialize->_USBDeviceInit
    _TMR0_Initialize->_TMR0_SetInterruptHandler
    _PIN_MANAGER_Initialize->_IOCAF5_SetInterruptHandler

Critical Paths under _INTERRUPT_InterruptManager in BANK1

    _INTERRUPT_InterruptManager->_USBDeviceTasks
    _USBDeviceTasks->_USBCtrlEPService

Critical Paths under _main in BANK2

    None.

Critical Paths under _INTERRUPT_InterruptManager in BANK2

    None.

Critical Paths under _main in BANK3

    None.

Critical Paths under _INTERRUPT_InterruptManager in BANK3

    None.

Critical Paths under _main in BANK4

    None.

Critical Paths under _INTERRUPT_InterruptManager in BANK4

    None.

Critical Paths under _main in BANK5

    None.

Critical Paths under _INTERRUPT_InterruptManager in BANK5

    None.

Critical Paths under _main in BANK6

    None.

Critical Paths under _INTERRUPT_InterruptManager in BANK6

    None.

Critical Paths under _main in BANK7

    None.

Critical Paths under _INTERRUPT_InterruptManager in BANK7

    None.

Critical Paths under _main in BANK8

    None.

Critical Paths under _INTERRUPT_InterruptManager in BANK8

    None.

Critical Paths under _main in BANK9

    None.

Critical Paths under _INTERRUPT_InterruptManager in BANK9

    None.

Critical Paths under _main in BANK10

    None.

Critical Paths under _INTERRUPT_InterruptManager in BANK10

    None.

Critical Paths under _main in BANK11

    None.

Critical Paths under _INTERRUPT_InterruptManager in BANK11

    None.

Critical Paths under _main in BANK12

    None.

Critical Paths under _INTERRUPT_InterruptManager in BANK12

    None.

Call Graph Tables:

 ---------------------------------------------------------------------------------
 (Depth) Function   	        Calls       Base Space   Used Autos Params    Refs
 ---------------------------------------------------------------------------------
 (0) _main                                                 8     8      0     494
                                              0 BANK4      8     8      0
                     _I2C_Initialize
                  _SYSTEM_Initialize
 ---------------------------------------------------------------------------------
 (1) _SYSTEM_Initialize                                    0     0      0     494
                     _ADC_Initialize
              _OSCILLATOR_Initialize
             _PIN_MANAGER_Initialize
                    _TMR0_Initialize
                    _USBDeviceAttach
                      _USBDeviceInit
                     _WDT_Initialize
 ---------------------------------------------------------------------------------
 (2) _WDT_Initialize                                       0     0      0       0
 ---------------------------------------------------------------------------------
 (2) _USBDeviceInit                                        5     5      0     272
                                              5 BANK1      5     5      0
 ---------------------------------------------------------------------------------
 (2) _USBDeviceAttach                                      1     1      0       0
                                              5 BANK1      1     1      0
 ---------------------------------------------------------------------------------
 (2) _TMR0_Initialize                                      1     1      0     111
                                              7 BANK1      1     1      0
           _TMR0_SetInterruptHandler
 ---------------------------------------------------------------------------------
 (3) _TMR0_SetInterruptHandler                             2     0      2     111
                                              5 BANK1      2     0      2
 ---------------------------------------------------------------------------------
 (2) _PIN_MANAGER_Initialize                               0     0      0     111
         _IOCAF5_SetInterruptHandler
 ---------------------------------------------------------------------------------
 (3) _IOCAF5_SetInterruptHandler                           2     0      2     111
                                              5 BANK1      2     0      2
 ---------------------------------------------------------------------------------
 (2) _OSCILLATOR_Initialize                                0     0      0       0
 ---------------------------------------------------------------------------------
 (2) _ADC_Initialize                                       0     0      0       0
 ---------------------------------------------------------------------------------
 (1) _I2C_Initialize                                       0     0      0       0
 ---------------------------------------------------------------------------------
 Estimated maximum stack depth 3
 ---------------------------------------------------------------------------------
 (Depth) Function   	        Calls       Base Space   Used Autos Params    Refs
 ---------------------------------------------------------------------------------
 (4) _INTERRUPT_InterruptManager                           0     0      0   39247
                           _TMR0_ISR
                     _USBDeviceTasks
 ---------------------------------------------------------------------------------
 (5) _USBDeviceTasks                                       3     3      0   39247
                                              2 BANK1      3     3      0
          _USBCtrlEPAllowStatusStage
                   _USBCtrlEPService
      _USBIncrement1msInternalTimers
                    _USBStallHandler
                         _USBSuspend
                 _USBWakeFromSuspend
    _USER_USB_CALLBACK_EVENT_HANDLER
                    i1_USBDeviceInit
 ---------------------------------------------------------------------------------
 (6) i1_USBDeviceInit                                      5     5      0     272
                                              0 COMMON     5     5      0
 ---------------------------------------------------------------------------------
 (6) _USBWakeFromSuspend                                   1     1      0    5136
                                              6 BANK0      1     1      0
    _USER_USB_CALLBACK_EVENT_HANDLER
 ---------------------------------------------------------------------------------
 (6) _USBSuspend                                           1     1      0    5136
                                              6 BANK0      1     1      0
    _USER_USB_CALLBACK_EVENT_HANDLER
 ---------------------------------------------------------------------------------
 (6) _USBStallHandler                                      1     1      0       0
                                              0 COMMON     1     1      0
 ---------------------------------------------------------------------------------
 (6) _USBIncrement1msInternalTimers                        1     1      0       0
                                              0 COMMON     1     1      0
 ---------------------------------------------------------------------------------
 (6) _USBCtrlEPService                                     2     2      0   23499
                                              0 BANK1      2     2      0
                _USBCtrlTrfInHandler
               _USBCtrlTrfOutHandler
             _USBCtrlTrfSetupHandler
                             _memcpy
 ---------------------------------------------------------------------------------
 (7) _memcpy                                              10     6      4     363
                                              0 COMMON    10     6      4
 ---------------------------------------------------------------------------------
 (7) _USBCtrlTrfSetupHandler                               1     1      0   22907
                                             15 BANK0      1     1      0
                 _USBCheckStdRequest
           _USBCtrlEPServiceComplete
    _USER_USB_CALLBACK_EVENT_HANDLER
 ---------------------------------------------------------------------------------
 (8) _USBCtrlEPServiceComplete                             2     2      0      92
                                              5 COMMON     2     2      0
            _USBCtrlEPAllowDataStage
          _USBCtrlEPAllowStatusStage
 ---------------------------------------------------------------------------------
 (9) _USBCtrlEPAllowDataStage                              2     2      0      92
                                              3 COMMON     2     2      0
                _USBCtrlTrfTxService
 ---------------------------------------------------------------------------------
 (8) _USBCheckStdRequest                                   2     2      0   17679
                                             13 BANK0      2     2      0
            _USBStdFeatureReqHandler
                _USBStdGetDscHandler
             _USBStdGetStatusHandler
                _USBStdSetCfgHandler
    _USER_USB_CALLBACK_EVENT_HANDLER
 ---------------------------------------------------------------------------------
 (9) _USBStdSetCfgHandler                                  5     5      0    6890
                                              6 BANK0      5     5      0
    _USER_USB_CALLBACK_EVENT_HANDLER
                             _memset
 ---------------------------------------------------------------------------------
 (10) _memset                                             14     8      6    1519
                                              0 COMMON    14     8      6
 ---------------------------------------------------------------------------------
 (9) _USBStdGetStatusHandler                               4     4      0      46
                                              0 COMMON     4     4      0
 ---------------------------------------------------------------------------------
 (9) _USBStdGetDscHandler                                  3     3      0       0
                                              0 COMMON     3     3      0
 ---------------------------------------------------------------------------------
 (9) _USBStdFeatureReqHandler                              7     7      0    5607
                                              6 BANK0      7     7      0
    _USER_USB_CALLBACK_EVENT_HANDLER
 ---------------------------------------------------------------------------------
 (6) _USER_USB_CALLBACK_EVENT_HANDLER                      6     0      6    5136
                                              0 BANK0      6     0      6
                          _CDCInitEP
                 _USBCheckCDCRequest
 ---------------------------------------------------------------------------------
 (7) _USBCheckCDCRequest                                   2     2      0       0
                                              0 COMMON     2     2      0
 ---------------------------------------------------------------------------------
 (7) _CDCInitEP                                            1     1      0    2444
                                             13 COMMON     1     1      0
                  _USBEnableEndpoint
               _USBTransferOnePacket
 ---------------------------------------------------------------------------------
 (8) _USBTransferOnePacket                                11     7      4    1711
                                              0 COMMON    11     7      4
 ---------------------------------------------------------------------------------
 (8) _USBEnableEndpoint                                    6     5      1     733
                                              7 COMMON     6     5      1
               _USBConfigureEndpoint
 ---------------------------------------------------------------------------------
 (9) _USBConfigureEndpoint                                 7     6      1     400
                                              0 COMMON     7     6      1
 ---------------------------------------------------------------------------------
 (7) _USBCtrlTrfOutHandler                                 2     2      0     114
                                              6 COMMON     2     2      0
                _USBCtrlTrfRxService
 ---------------------------------------------------------------------------------
 (8) _USBCtrlTrfRxService                                  4     4      0     114
                                              2 COMMON     4     4      0
          _USBCtrlEPAllowStatusStage
 ---------------------------------------------------------------------------------
 (9) _USBCtrlEPAllowStatusStage                            2     2      0       0
                                              0 COMMON     2     2      0
 ---------------------------------------------------------------------------------
 (7) _USBCtrlTrfInHandler                                  3     3      0     115
                                              3 COMMON     3     3      0
                _USBCtrlTrfTxService
 ---------------------------------------------------------------------------------
 (10) _USBCtrlTrfTxService                                 3     3      0      92
                                              0 COMMON     3     3      0
 ---------------------------------------------------------------------------------
 (5) _TMR0_ISR                                             1     1      0       0
                                              0 COMMON     1     1      0
                   Absolute function *
       _TMR0_DefaultInterruptHandler *
 ---------------------------------------------------------------------------------
 (6) _TMR0_DefaultInterruptHandler                         0     0      0       0
 ---------------------------------------------------------------------------------
 (6) Absolute function(Fake)                               0     0      0       0
 ---------------------------------------------------------------------------------
 Estimated maximum stack depth 10
 ---------------------------------------------------------------------------------

 Call Graph Graphs:

 _main (ROOT)
   _I2C_Initialize
   _SYSTEM_Initialize
     _ADC_Initialize
     _OSCILLATOR_Initialize
     _PIN_MANAGER_Initialize
       _IOCAF5_SetInterruptHandler
     _TMR0_Initialize
       _TMR0_SetInterruptHandler
     _USBDeviceAttach
     _USBDeviceInit
     _WDT_Initialize

 _INTERRUPT_InterruptManager (ROOT)
   _TMR0_ISR
     Absolute function(Fake) *
     _TMR0_DefaultInterruptHandler *
   _USBDeviceTasks
     _USBCtrlEPAllowStatusStage
     _USBCtrlEPService
       _USBCtrlTrfInHandler
         _USBCtrlTrfTxService
       _USBCtrlTrfOutHandler
         _USBCtrlTrfRxService
           _USBCtrlEPAllowStatusStage
       _USBCtrlTrfSetupHandler
         _USBCheckStdRequest
           _USBStdFeatureReqHandler
             _USER_USB_CALLBACK_EVENT_HANDLER
               _CDCInitEP
                 _USBEnableEndpoint
                   _USBConfigureEndpoint
                 _USBTransferOnePacket
               _USBCheckCDCRequest
           _USBStdGetDscHandler
           _USBStdGetStatusHandler
           _USBStdSetCfgHandler
             _USER_USB_CALLBACK_EVENT_HANDLER
               _CDCInitEP
                 _USBEnableEndpoint
                   _USBConfigureEndpoint
                 _USBTransferOnePacket
               _USBCheckCDCRequest
             _memset
           _USER_USB_CALLBACK_EVENT_HANDLER
             _CDCInitEP
               _USBEnableEndpoint
                 _USBConfigureEndpoint
               _USBTransferOnePacket
             _USBCheckCDCRequest
         _USBCtrlEPServiceComplete
           _USBCtrlEPAllowDataStage
             _USBCtrlTrfTxService
           _USBCtrlEPAllowStatusStage
         _USER_USB_CALLBACK_EVENT_HANDLER
           _CDCInitEP
             _USBEnableEndpoint
               _USBConfigureEndpoint
             _USBTransferOnePacket
           _USBCheckCDCRequest
       _memcpy
     _USBIncrement1msInternalTimers
     _USBStallHandler
     _USBSuspend
       _USER_USB_CALLBACK_EVENT_HANDLER
         _CDCInitEP
           _USBEnableEndpoint
             _USBConfigureEndpoint
           _USBTransferOnePacket
         _USBCheckCDCRequest
     _USBWakeFromSuspend
       _USER_USB_CALLBACK_EVENT_HANDLER
         _CDCInitEP
           _USBEnableEndpoint
             _USBConfigureEndpoint
           _USBTransferOnePacket
         _USBCheckCDCRequest
     _USER_USB_CALLBACK_EVENT_HANDLER
       _CDCInitEP
         _USBEnableEndpoint
           _USBConfigureEndpoint
         _USBTransferOnePacket
       _USBCheckCDCRequest
     i1_USBDeviceInit

 Address spaces:
Name               Size   Autos  Total    Cost      Usage
BIGRAM             3F0      0       0       0        0.0%
NULL                 0      0       0       0        0.0%
CODE                 0      0       0       0        0.0%
BITCOMMON            E      0       0       1        0.0%
BITSFR0              0      0       0       1        0.0%
SFR0                 0      0       0       1        0.0%
COMMON               E      E       E       2      100.0%
BITSFR1              0      0       0       2        0.0%
SFR1                 0      0       0       2        0.0%
BITSFR2              0      0       0       3        0.0%
SFR2                 0      0       0       3        0.0%
STACK                0      0       0       3        0.0%
BITBANK0            10      0       0       4        0.0%
BITSFR3              0      0       0       4        0.0%
SFR3                 0      0       0       4        0.0%
BANK0               10     10      10       5      100.0%
BITSFR4              0      0       0       5        0.0%
SFR4                 0      0       0       5        0.0%
BITBANK1            50      0       0       6        0.0%
BITSFR5              0      0       0       6        0.0%
SFR5                 0      0       0       6        0.0%
BANK1               30      A      28       7       83.3%
BITSFR6              0      0       0       7        0.0%
SFR6                 0      0       0       7        0.0%
BITBANK2            50      0       0       8        0.0%
BITSFR7              0      0       0       8        0.0%
SFR7                 0      0       0       8        0.0%
BITSFR8              0      0       0       9        0.0%
SFR8                 0      0       0       9        0.0%
BANK2                0      0       0       9        0.0%
BITBANK3            50      0       0      10        0.0%
BITSFR9              0      0       0      10        0.0%
SFR9                 0      0       0      10        0.0%
BANK3               40      0      40      11      100.0%
BITSFR10             0      0       0      11        0.0%
SFR10                0      0       0      11        0.0%
BITBANK4            50      0       0      12        0.0%
BITSFR11             0      0       0      12        0.0%
SFR11                0      0       0      12        0.0%
BANK4               50      8      41      13       81.2%
BITSFR12             0      0       0      13        0.0%
SFR12                0      0       0      13        0.0%
BITBANK5            50      0       0      14        0.0%
BITSFR13             0      0       0      14        0.0%
SFR13                0      0       0      14        0.0%
BANK5               50      0      40      15       80.0%
BITSFR14             0      0       0      15        0.0%
SFR14                0      0       0      15        0.0%
BITBANK6            50      0       0      16        0.0%
BITSFR15             0      0       0      16        0.0%
SFR15                0      0       0      16        0.0%
BANK6               50      0      40      17       80.0%
BITSFR16             0      0       0      17        0.0%
SFR16                0      0       0      17        0.0%
BITBANK7            50      0       0      18        0.0%
BITSFR17             0      0       0      18        0.0%
SFR17                0      0       0      18        0.0%
BANK7               20      0       0      19        0.0%
BITSFR18             0      0       0      19        0.0%
SFR18                0      0       0      19        0.0%
BITSFR19             0      0       0      20        0.0%
SFR19                0      0       0      20        0.0%
ABS                  0      0     147      20        0.0%
BITBANK8            50      0       0      21        0.0%
BITSFR20             0      0       0      21        0.0%
SFR20                0      0       0      21        0.0%
BITSFR21             0      0       0      22        0.0%
SFR21                0      0       0      22        0.0%
BANK8                0      0       0      22        0.0%
BITBANK9            50      0       0      23        0.0%
BITSFR22             0      0       0      23        0.0%
SFR22                0      0       0      23        0.0%
BITSFR23             0      0       0      24        0.0%
SFR23                0      0       0      24        0.0%
BANK9                0      0       0      24        0.0%
BITBANK10           50      0       0      25        0.0%
BITSFR24             0      0       0      25        0.0%
SFR24                0      0       0      25        0.0%
BITSFR25             0      0       0      26        0.0%
SFR25                0      0       0      26        0.0%
BANK10               0      0       0      26        0.0%
BITBANK11           50      0       0      27        0.0%
BITSFR26             0      0       0      27        0.0%
SFR26                0      0       0      27        0.0%
BITSFR27             0      0       0      28        0.0%
SFR27                0      0       0      28        0.0%
BANK11               0      0       0      28        0.0%
BITBANK12           30      0       0      29        0.0%
BITSFR28             0      0       0      29        0.0%
SFR28                0      0       0      29        0.0%
BITSFR29             0      0       0      30        0.0%
SFR29                0      0       0      30        0.0%
BANK12               0      0       0      30        0.0%
BITSFR30             0      0       0      31        0.0%
SFR30                0      0       0      31        0.0%
DATA                 0      0     147      31        0.0%
BITSFR31             0      0       0      32        0.0%
SFR31                0      0       0      32        0.0%


Microchip Technology PIC Macro Assembler V2.31 build 20201012212115 
Symbol Table                                                                                   Sun Apr 04 16:47:41 2021

                                _USB_SD_Ptr 1828                               _USBDeviceInit 0678  
                        __size_of_CDCInitEP 0038                             _timer0ReloadVal 01DA  
      USER_USB_CALLBACK_EVENT_HANDLER@event 0060        USER_USB_CALLBACK_EVENT_HANDLER@pdata 0062  
                                       l141 0729                                         l136 06BB  
               __end_of_USBStdGetDscHandler 0E2B                                         l612 16B8  
                                       l196 171C                                         l701 17AC  
                                       l197 171B                                         l615 16BD  
                                       l199 1726                                         l712 168E  
                                       l609 16D3                                         l618 167C  
                                       l637 1685                                         l831 038E  
                                       l744 16EC                                         l840 03C4  
                                       l833 0392                                         l842 03C8  
                                       l834 0393                                         l851 043F  
                                       l843 03FD                                         l764 1697  
                                       l852 0440                                         l836 0397  
                                       _BDT 0020                                         l845 0401  
                                       l837 03BF                                         l846 0402  
                                       l839 03C3                                         l849 043B  
                                       l888 16A3                                         _UIE 0E92  
                                       _UIR 0E90                                  _USBSuspend 1727  
                                       _row 01D8                        USBStdSetCfgHandler@i 006A  
                      USBStdSetCfgHandler@p 0067                                         wreg 0009  
                            _USBDeviceTasks 0495                              _USBDeviceState 00BB  
        __end_of_IOCAF5_SetInterruptHandler 168F                  _IOCAF5_SetInterruptHandler 1686  
                     ??_USBCtrlTrfRxService 0072                    USBEnableEndpoint@options 0077  
                                      l4200 0712                                        l4210 0726  
                                      l4202 0714                                        l4130 067A  
                                      l4124 1686                                        l4300 1790  
                                      l4212 0727                                        l4204 071A  
                                      l4140 0689                                        l4132 067E  
                USBConfigureEndpoint@handle 0076                                        l4310 17A2  
                                      l4302 1792                                        l4126 168F  
                                      l4206 071B                                        l4142 068D  
                                      l4320 16B4                                        l4312 17A3  
                                      l4304 1794                                        l4208 071D  
                                      l4160 06BD                                        l4144 0691  
                                      l4128 0678                                        l4330 1681  
                                      l4322 16B6                                        l4314 17A4  
                                      l4306 179C                                        l4170 06C8  
                                      l4162 06BE                                        l4154 06A0  
                                      l4146 0697                                        l4138 0684  
                                      l4332 1682                                        l4316 16B0  
                                      l4308 17A0                                        l4340 16DC  
                                      l4180 06DD                                        l4172 06C9  
                                      l4164 06BF                                        l4156 06B1  
                                      l4148 069E                                        l4324 1679  
                                      l4334 1683                                        l4326 167D  
                                      l4318 16B3                                        l4342 16E2  
                                      l4190 06FC                                        l4182 06DE  
                                      l4174 06CB                                        l4166 06C0  
                                      l4158 06B5                                        l4328 1680  
                                      l4344 16E3                                        l4336 16D4  
                                      l4192 0700                                        l4184 06DF  
                                      l4176 06D0                                        l4168 06C6  
                                      l5400 0471                                        l4346 16E4  
                                      l4338 16D9                                        l4290 1716  
                                      l4282 1709                                        l4194 0706  
                                      l4178 06DC                                        l5410 047E  
                                      l5402 0473                                        l4292 1718  
                                      l4284 170F                                        l4196 070A  
                                      l4188 06E1                                        l5420 0490  
                                      l5412 047F                                        l5404 0479  
                                      l4294 1721                                        l4286 1712  
                                      l4198 070D                                        l5406 047A  
                                      l5414 0485                                        l5350 037D  
                                      l4296 1789                                        l4288 1714  
                                      l5416 048A                                        l5408 047C  
                                      l5360 038C                                        l5352 037E  
                                      l4298 178D                                        l4650 16D0  
                                      l4642 16BE                                        l5418 048F  
                                      l5370 03BD                                        l5362 038D  
                                      l5354 037F                                        l5346 0377  
                                      l4644 16C7                                        l5380 03FB  
                                      l5372 03BE                                        l5364 0398  
                                      l5356 0385                                        l5348 037A  
                                      l4646 16CA                                        l5390 0435  
                                      l5382 03FC                                        l5374 03C9  
                                      l5366 03B2                                        l5358 0387  
                                      l4680 169C                                        l4648 16CD  
                                      l5392 0439                                        l5384 0406  
                                      l5376 03F0                                        l5368 03B8  
                                      l4682 169F                                        l5394 043A  
                                      l5386 042D                                        l5378 03F6  
                                      l4684 16A1                                        l4676 1698  
                                      l5396 0444                                        l5388 0433  
                                      l4678 169A                                        l5398 046B  
                                      u3000 16BD                                        u3001 16BC  
                                      _LATA 010C                                        _LATB 010D  
                                      _LATC 010E                                        u4300 0385  
                                      u4301 0384                                        u4310 0392  
                                      u4311 0391                                        u4400 048A  
                                      u4320 0397                                        u4401 0489  
                                      u4321 0396                                        u4410 048F  
                                      u4330 03C3                                        u4411 048E  
                                      u4331 03C2                                        u4340 03C8  
                                      u4341 03C7                                        u2830 0697  
                                      u4350 0401                                        u2831 0696  
                                      u4351 0400                                        u4360 0406  
                                      u4361 0405                                        u2850 06BB  
                                      u4370 043F                                        u2851 06BA  
                                      u4371 043E                                        u2860 06D0  
                                      u4380 0444                                        u2861 06CF  
                                      u2845 06A3                                        u4381 0443  
                                      u2870 0706                                        u4390 0479  
                                      u2871 0705                                        u4391 0478  
                                      u2980 170F                                        u2981 170E  
                                      u2990 1721                                        u2991 1720  
                     ??_USBCtrlTrfTxService 0070                                        _UCFG 0E91  
                                      _UEP0 0E98                                        _UEP1 0E99  
                                      _UEIE 0E97                                        _UEIR 0E93  
                                      _UCON 0E8E                                        _TMR0 0015  
                                      _WPUA 020C                                        _WPUB 020D  
                           _CDCDataInHandle 01CE      USBStdFeatureReqHandler@current_ep_data 006A  
                                      _pDst 01EB                                        _data 0220  
                                      _main 0377                                        _byte 01D9  
                                      fsr0h 0005                                        fsr1h 0007  
                                      indf0 0000                                        fsr0l 0004  
                                      indf1 0001                                 _BaudRateGen 01B6  
                                      fsr1l 0006                             _USBDeviceAttach 1709  
                                      btemp 007E                                        start 0026  
                __end_of_USBCheckStdRequest 0DA0                      ??_USBCtrlTrfOutHandler 0076  
                 ??_USBStdFeatureReqHandler 0066                    ??_USBStdGetStatusHandler 0070  
                            ?_USBDeviceInit 0070                     __end_of_TMR0_Initialize 16ED  
            ??_TMR0_DefaultInterruptHandler 0070              __size_of_OSCILLATOR_Initialize 000E  
             __end_of_OSCILLATOR_Initialize 16BE                                 _writeBuffer 0320  
                                     ?_main 0070           __size_of_USBCtrlEPServiceComplete 00A0  
                    __end_of_USBDeviceTasks 05AE                   ?_USBCtrlEPServiceComplete 0070  
                                     i1l203 0C0F                                       i1l213 0A48  
                                     i1l221 0F04                                       i1l301 07FD  
                                     i1l141 07D2                                       i1l310 1788  
                                     i1l207 0C0F                                       i1l231 0F57  
                                     i1l304 1746                                       i1l136 076B  
                                     i1l321 09E8                                       i1l153 050D  
                                     i1l234 0C35                                       i1l218 08F2  
                                     i1l171 17D1                                       i1l147 04C2  
                                     i1l148 05AD                                       i1l341 0B94  
                                     i1l157 0546                                       i1l246 0C90  
                                     i1l342 0B96                                       i1l334 0B8E  
                                     i1l318 0993                                       i1l158 05AB  
                                     i1l159 054D                                       i1l328 08AF  
                                     i1l257 0FF6                                       i1l249 0F6F  
                                     i1l177 0D17                                       i1l442 0B1E  
                                     i1l282 0E2A                                       i1l290 0A58  
                                     i1l346 0D9F                                       i1l259 0FFF  
                                     i1l291 0A5B                                       i1l268 0EB7  
                                     i1l348 0D22                                       i1l357 0D58  
                                     i1l382 032F                                       i1l286 0A4D  
                                     i1l455 0875                                       i1l391 1708  
                                     i1l384 0342                                       i1l296 0AAF  
                                     i1l289 0AA1                                       i1l386 0376  
                                     i1l549 083D                                       i1l761 093F  
                                     i1l782 0012                                       i1l767 07FE  
                                     i1l759 093B                                       i1l787 0024  
                                     i1l788 0024                                       _UADDR 0E96  
                                     _TRISA 008C                                       _TRISB 008D  
                                     _TRISC 008E                                       _USTAT 0E8F  
         __size_of_TMR0_SetInterruptHandler 0009          __size_of_USBCtrlEPAllowStatusStage 0079  
                 ?_TMR0_SetInterruptHandler 00C3             __end_of_USBCtrlEPAllowDataStage 0A49  
                          __end_of_TMR0_ISR 0940                                       _sd000 1838  
                                     _sd001 1043                                       _sd002 1800  
                                     _sd003 1830              ?_USBIncrement1msInternalTimers 0070  
                            _WDT_Initialize 1679                                       pclath 000A  
                         __end_of_CDCInitEP 0876                                       status 0003  
                                     wtemp0 007E                __size_of_USBStdSetCfgHandler 008D  
                           __initialization 0028                                __end_of_main 0495  
                     _control_signal_bitmap 01DF                 ?_INTERRUPT_InterruptManager 0070  
                 __size_of_USBCtrlEPService 0054                                      ??_main 0259  
                           ?_USBDeviceTasks 0070                                 ?_USBSuspend 0070  
                           i1_USBDeviceInit 072A                      __end_of_WDT_Initialize 167D  
                              _cdc_mem_type 01E0                     __end_of_USBDeviceAttach 1727  
                                    _ADCON0 009D                                      _ADCON1 009E  
                                    _ADCON2 009F                            _CDCDataOutHandle 01D0  
                                    _ACTCON 039B                                      _ADRESH 009C  
                                    _ADRESL 009B                                      _APFCON 011D  
                                    _ANSELA 018C                                      _ANSELB 018D  
                                    _ANSELC 018E                                      _BORCON 0116  
                                    i1l4100 0B3E                                      i1l4110 0B5E  
                                    i1l4102 0B44                                      i1l4120 0B92  
                                    i1l4112 0B65                                      i1l4104 0B49  
                                    i1l4040 17E8                                      i1l4122 0B95  
                                    i1l4114 0B71                                      i1l4106 0B4E  
                                    i1l3410 08CE                                      i1l1474 17FF  
                                    i1l4042 17EF                                      i1l4034 17D3  
                                    i1l4116 0B76                                      i1l4108 0B5B  
                                    i1l3420 08ED                                      i1l3412 08D2  
                                    i1l3500 0AFD                                      i1l5100 0E38  
                                    i1l4036 17DC                                      i1l4044 17F3  
                                    i1l4220 177A                                      i1l4118 0B82  
                                    i1l3414 08D7                                      i1l3406 08B1  
                                    i1l3430 17C1                                      i1l3422 17AE  
                                    i1l3502 0B02                                      i1l1478 0677  
                                    i1l5110 0E56                                      i1l5102 0E3C  
                                    i1l4038 17E4                                      i1l4230 1729  
                                    i1l4222 177C                                      i1l4214 1767  
                                    i1l4080 0888                                      i1l4072 0876  
                                    i1l3416 08E1                                      i1l3408 08B5  
                                    i1l3432 17CB                                      i1l3424 17B2  
                                    u210_20 0CE4                                      i1l3440 0CA9  
                                    i1l3520 084F                                      i1l3512 083E  
                                    i1l5120 0E68                                      i1l5104 0E40  
                                    i1l5200 09D0                                      i1l4240 16ED  
                                    i1l4232 172F                                      i1l4224 1782  
                                    i1l4216 1769                                      i1l4400 0788  
                                    u210_21 0CE3                                      i1l4090 0B1F  
                                    i1l4082 0895                                      i1l4074 087D  
                                    i1l3418 08E9                                      i1l3426 17B7  
                                    i1l3450 0CCD                                      i1l3442 0CAF  
                                    i1l3434 0C92                                      i1l3522 0857  
                                    i1l3514 0847                                      i1l3506 0B05  
                                    i1l3530 080C                                      i1l5050 05B2  
                                    i1l5130 0E89                                      i1l5122 0E6E  
                                    i1l5106 0E46                                      i1l5202 09D1  
                                    i1l5210 0940                                      i1l4242 16F6  
                                    i1l4250 07D8                                      i1l4234 1730  
                                    i1l4226 1786                                      i1l4218 1778  
                                    i1l4410 07A6                                      i1l4402 0789  
                                    i1l4092 0B28                                      i1l4084 08A2  
                                    i1l4076 0881                                      i1l3428 17BB  
                                    i1l3452 0CDF                                      i1l3436 0C97  
                                    i1l3524 085F                                      i1l3516 0848  
                                    i1l3532 080D                                      i1l5140 0EB1  
                                    i1l5132 0E8F                                      i1l5124 0E7C  
                                    i1l5116 0E58                                      i1l5108 0E54  
                                    i1l5204 09D3                                      i1l5220 0964  
                                    i1l5212 0945                                      i1l4244 16FB  
                                    i1l4252 07E2                                      i1l4236 1736  
                                    i1l4228 1727                                      i1l4420 07BD  
                                    i1l4412 07AA                                      i1l4404 078A  
                                    i1l5300 053A                                      u202_25 08B8  
                                    i1l3550 0C1E                                      i1l4094 0B2E  
                                    i1l3630 0B97                                      i1l4086 08A8  
                                    i1l4078 0882                                      i1l3454 0CE4  
                                    i1l3446 0CB2                                      i1l3438 0CA0  
                                    i1l3526 0871                                      i1l3518 084D  
                                    i1l3470 0AC2                                      i1l3462 0AB0  
                                    i1l3534 0811                                      i1l5070 063F  
                                    i1l5062 05DB                                      i1l5054 05B9  
                                    i1l5134 0E95                                      i1l5126 0E7E  
                                    i1l5118 0E64                                      i1l5150 0D2F  
                                    i1l5142 0D18                                      i1l5206 09D6  
                                    i1l5230 0990                                      i1l5222 096F  
                                    i1l5214 094B                                      i1l4246 1704  
                                    i1l4254 07EC                                      i1l4238 1737  
                                    i1l4430 07CF                                      i1l4422 07BF  
                                    i1l4414 07B0                                      i1l4350 072C  
                                    i1l5302 053C                                      i1l3560 0C3C  
                                    i1l3552 0C22                                      i1l4096 0B34  
                                    i1l3640 0BB1                                      i1l3632 0B9D  
                                    i1l4088 08AE                                      i1l3456 0CFB  
                                    i1l3448 0CC1                                      i1l3528 0873  
                                    i1l3480 0AD6                                      i1l3472 0AC7  
                                    u211_20 0AB8                                      i1l3800 0AA6  
                                    i1l5080 065E                                      i1l5064 0617  
                                    i1l5056 05BF                                      i1l5048 05AE  
                                    i1l5136 0E9A                                      i1l5128 0E83  
                                    i1l5160 0D41                                      i1l5152 0D33  
                                    i1l5208 09E5                                      i1l5224 097F  
                                    i1l5216 0958                                      i1l4256 07F7  
                                    i1l4248 07D3                                      i1l4432 07D0  
                                    i1l4424 07C3                                      i1l4416 07B5  
                                    i1l4408 078B                                      i1l4360 073A  
                                    i1l4352 0730                                      i1l5320 0569  
                                    i1l5312 0552                                      i1l5304 0543  
                                    i1l5240 04A2                                      i1l5232 0495  
                                    u211_21 0AB7                                      i1l3570 0C60  
                                    i1l3562 0C48                                      i1l3554 0C27  
                                    i1l4098 0B39                                      i1l3650 0BCA  
                                    i1l3642 0BB7                                      i1l3634 0BA1  
                                    i1l3458 0D13                                      i1l3490 0AEB  
                                    i1l3482 0AD7                                      i1l3466 0AB9  
                                    i1l3538 0815                                      i1l3810 021F  
                                    i1l3802 0AAA                                      i1l5082 0663  
                                    i1l5074 0649                                      i1l5058 05D1  
                                    i1l5138 0EA1                                      i1l5090 0E2B  
                                    i1l5170 0D56                                      i1l5162 0D45  
                                    i1l5154 0D38                                      i1l5146 0D24  
                                    i1l5226 0983                                      i1l5218 095E  
                                    i1l4258 07F9                                      i1l4426 07C4  
                                    i1l4418 07B8                                      i1l4362 073E  
                                    i1l5330 05A0                                      i1l5322 0579  
                                    i1l5314 0557                                      i1l5306 054B  
                                    i1l5250 04B7                                      i1l5242 04A3  
                                    i1l5234 049B                                      i1l3580 0C7F  
                                    i1l3572 0C65                                      i1l3564 0C4D  
                                    i1l3556 0C2C                                      i1l3548 0C10  
                                    i1l3660 0BEE                                      i1l3652 0BD2  
                                    i1l3644 0BBD                                      i1l3636 0BA6  
                                    i1l3492 0AED                                      i1l3484 0AD9  
                                    i1l3476 0ACD                                      i1l3820 023B  
                                    i1l3812 0225                                      i1l3804 0AAB  
                                    i1l5084 0669                                      i1l5076 0656  
                                    i1l5068 0621                                      i1l5092 0E32  
                                    i1l5172 0D5A                                      i1l5164 0D49  
                                    i1l5156 0D39                                      i1l5148 0D2B  
                                    i1l3900 0EC7                                      i1l5228 0987  
                                    i1l4428 07C6                                      i1l4380 076D  
                                    i1l4364 0742                                      i1l4348 072A  
                                    i1l5332 05A5                                      i1l5324 0588  
                                    i1l5316 055F                                      i1l5260 04CD  
                                    i1l5252 04BA                                      i1l5236 04A0  
                                    i1l5244 04A8                                      i1l5340 0016  
                                    u203_25 08BE                                      i1l3582 0C84  
                                    i1l3574 0C6A                                      i1l3558 0C31  
                                    i1l3662 0BFB                                      i1l3654 0BDE  
                                    i1l3646 0BC3                                      i1l3638 0BAA  
                                    i1l3494 0AEF                                      i1l3486 0ADE  
                                    i1l3478 0AD2                                      i1l3830 025A  
                                    i1l3814 022C                                      i1l3822 023D  
                                    i1l3750 0DB7                                      i1l3742 0DA0  
                                    i1l5086 066D                                      i1l5078 065A  
                                    i1l5174 0D65                                      i1l5166 0D4F  
                                    i1l5158 0D3F                                      i1l3670 09F3  
                                    i1l3910 0EE0                                      i1l3902 0ECD  
                                    i1l5190 09AF                                      i1l4390 0776  
                                    i1l4382 076E                                      i1l4374 0750  
                                    i1l4366 0748                                      i1l4358 0735  
                                    i1l5326 058D                                      i1l5318 0564  
                                    i1l5270 04E0                                      i1l5262 04CF  
                                    i1l5254 04BF                                      i1l5246 04AD  
                                    i1l5238 04A1                                      i1l5342 001B  
                                    i1l5334 0006                                      u220_20 0C90  
                                    i1l3584 0C89                                      i1l3568 0C53  
                                    i1l3576 0C6C                                      i1l3664 0C08  
                                    i1l3656 0BE5                                      i1l3648 0BC8  
                                    i1l3496 0AF4                                      i1l3488 0AE0  
                                    u212_20 0AC1                                      i1l3840 0295  
                                    i1l3832 0261                                      i1l3824 0243  
                                    i1l3816 022E                                      i1l3760 0DEE  
                                    i1l3752 0DBC                                      i1l3744 0DA7  
                                    i1l5088 0671                                      i1l5168 0D50  
                                    i1l3680 0A25                                      i1l3672 09FF  
                                    i1l3920 0F09                                      i1l3912 0EED  
                                    i1l3904 0ED0                                      i1l5192 09BA  
                                    i1l5184 0994                                      i1l4392 0777  
                                    i1l4384 076F                                      i1l4376 0761  
                                    i1l4368 074F                                      i1l5328 0591  
                                    i1l5280 0502                                      i1l5272 04E3  
                                    i1l5264 04D3                                      i1l5256 04C6  
                                    i1l5248 04B1                                      i1l5344 0020  
                                    i1l5336 000A                                      u220_21 0C8F  
                                    u212_21 0AC0                                      i1l3578 0C72  
                                    i1l3586 0C8B                                      i1l3658 0BE9  
                                    i1l3498 0AF8                                      i1l3850 02C0  
                                    i1l3842 02A0                                      i1l3834 0267  
                                    i1l3826 024A                                      i1l3818 0235  
                                    i1l3762 0DF4                                      i1l3754 0DCC  
                                    i1l3746 0DAD                                      i1l5098 0E33  
                                    i1l5178 0D74                                      i1l3682 0A2C  
                                    i1l3674 0A0C                                      i1l3666 09E9  
                                    i1l3930 0F1A                                      i1l3922 0F0E  
                                    i1l3914 0EF3                                      i1l3906 0ED2  
                                    i1l5194 09C1                                      i1l5186 099D  
                                    i1l4394 0779                                      i1l4386 0770  
                                    i1l4378 0765                                      i1l5290 051A  
                                    i1l5282 0505                                      i1l5274 04E8  
                                    i1l5258 04CA                                      i1l5266 04D8  
                                    i1l5338 000E                                      i1l4660 0904  
                                    i1l4652 08F3                                      i1l3860 02E1  
                                    i1l3852 02C6                                      i1l3844 02A6  
                                    i1l3836 027D                                      i1l3828 0251  
                                    i1l3764 0E04                                      i1l3756 0DDB  
                                    i1l3748 0DB2                                      i1l3772 0E16  
                                    i1l3684 0A2F                                      i1l3676 0A12  
                                    i1l3668 09EC                                      i1l3940 0F42  
                                    i1l3932 0F20                                      i1l3924 0F14  
                                    i1l3916 0EF8                                      i1l3908 0ED4  
                                    i1l5196 09CC                                      i1l5188 09A8  
                                    i1l4396 077E                                      i1l4388 0774  
                                    i1l5292 051E                                      i1l5284 050B  
                                    i1l5276 04EC                                      i1l5268 04DC  
                                    u204_25 08C6                                      i1l4670 0934  
                                    i1l4662 0916                                      i1l4654 08F4  
                                    i1l3950 0F58                                      i1l5550 0838  
                                    i1l3870 0302                                      i1l3862 02E6  
                                    i1l3854 02CE                                      i1l3846 02AA  
                                    i1l3838 0291                                      i1l3766 0E10  
                                    i1l3758 0DEB                                      i1l3790 0A78  
                                    i1l3782 0A4F                                      i1l5542 0D7C  
                                    i1l3686 0A3D                                      i1l3678 0A18  
                                    i1l3942 0F48                                      i1l3926 0F17  
                                    i1l3934 0F24                                      i1l3918 0EFE  
                                    i1l5198 09CE                                      i1l4398 0787  
                                    i1l5294 0521                                      i1l5286 0512  
                                    i1l5278 04FC                                      i1l4672 0938  
                                    i1l4664 0919                                      i1l4656 08F8  
                                    i1l3960 0F84                                      i1l3952 0F5E  
                                    u205_20 08D7                                      i1l5552 0B0D  
                                    u213_20 0AC7                                      i1l3880 0327  
                                    i1l3872 0307                                      i1l3856 02D2  
                                    i1l3864 02EC                                      i1l3848 02B6  
                                    i1l3768 0E13                                      i1l5544 0A96  
                                    i1l3792 0A80                                      i1l3784 0A55  
                                    i1l3688 0A43                                      i1l3944 0F4D  
                                    i1l3936 0F29                                      i1l3928 0F19  
                                    u301_20 0748                                      i1l5296 0526  
                                    i1l5288 0515                                      u205_21 08D6  
                                    u213_21 0AC6                                      u301_21 0747  
                                    i1l4674 093D                                      i1l4666 091B  
                                    i1l4658 08FF                                      i1l3970 0FA4  
                                    i1l3962 0F88                                      i1l3954 0F6B  
                                    i1l3890 0362                                      i1l3882 0333  
                                    i1l3874 0317                                      i1l3866 02F2  
                                    i1l3858 02DA                                      i1l5546 0E1F  
                                    i1l3794 0A88                                      i1l3786 0A62  
                                    i1l3778 0A49                                      i1l3946 0F4F  
                                    i1l3938 0F35                                      i1l5298 052A  
                                    i1l4668 092D                                      i1l3980 0FDC  
                                    i1l3972 0FB1                                      i1l3964 0F8C  
                                    i1l3956 0F76                                      i1l5548 081E  
                                    i1l3892 036E                                      i1l3884 033B  
                                    i1l3876 031C                                      i1l3868 02FA  
                                    i1l3788 0A6E                                      i1l3990 0FFC  
                                    i1l3982 0FE9                                      i1l3974 0FB8  
                                    i1l3966 0F92                                      i1l3958 0F78  
                                    i1l3886 034A                                      i1l3878 0323  
                                    i1l3798 0A8D                                      i1l3894 0EB8  
                                    i1l3984 0FEF                                      i1l3976 0FC4  
                                    i1l3968 0F98                                      u206_20 17B2  
                                    u214_20 0ACC                                      i1l3888 035A  
                                    u230_20 09F3                                      i1l3896 0EBF  
                                    u206_21 17B1                                      u214_21 0ACB  
                                    u230_21 09F2                                      i1l3986 0FF4  
                                    i1l3978 0FD0                                      i1l3898 0EC3  
                                    i1l3988 0FF7                                      u302_25 0753  
                                    u215_20 0C1E                                      u207_20 17BB  
                                    u231_20 0A25                                      u303_20 076B  
                                    u215_21 0C1D                                      u207_21 17BA  
                                    u231_21 0A24                                      u303_21 076A  
                                    u231_25 0A21                                      u216_20 0C27  
                                    u208_20 0C97                                      u240_20 0A80  
                                    u400_20 096F                                      u304_20 077E  
                                    u216_21 0C26                                      u208_21 0C96  
                                    u240_21 0A7F                                      u400_21 096E  
                                    u304_21 077D                                      u217_20 0C31  
                                    u209_20 0CAF                                      u241_20 0A88  
                                    u401_20 0990                                      u305_20 07B0  
                                    u217_21 0C30                                      u209_21 0CAE  
                                    u241_21 0A87                                      u401_21 098F  
                                    u305_21 07AF                                      u218_20 0C52  
                                    u226_20 0B9D                                      u250_20 0261  
                                    u242_20 0AA6                                      u410_20 04E0  
                                    u402_20 049B                                      u218_21 0C51  
                                    u226_21 0B9C                                      u250_21 0260  
                                    u242_21 0AA5                                      u410_21 04DF  
                                    u402_21 049A                                      u219_20 0C71  
                                    u227_20 0BA6                                      u251_20 0267  
                                    u243_20 0225                                      u235_20 0DA7  
                                    u411_20 04E8                                      u403_20 04A0  
                                    u219_21 0C70                                      u227_21 0BA5  
                                    u251_21 0266                                      u243_21 0224  
                                    u235_21 0DA6                                      u411_21 04E7  
                                    u403_21 049F                                      u228_20 0BB1  
                                    u260_20 0333                                      u252_20 0295  
                                    u244_20 022C                                      u236_20 0DBC  
                                    u420_20 054B                                      u412_20 04EC  
                                    u404_20 04AD                                      u228_21 0BB0  
                                    u260_21 0332                                      u252_21 0294  
                                    u244_21 022B                                      u236_21 0DBB  
                                    u420_21 054A                                      u412_21 04EB  
                                    u404_21 04AC                                      u229_20 0BC8  
                                    u253_20 02AA                                      u245_20 0235  
                                    u237_20 0DF4                                      u261_20 0EBF  
                                    u421_20 0552                                      u413_20 050B  
                                    u405_20 04B1                                      u229_21 0BC7  
                                    u253_21 02A9                                      u245_21 0234  
                                    u237_21 0DF3                                      u261_21 0EBE  
                                    u421_21 0551                                      u413_21 050A  
                                    u405_21 04B0                                      u270_20 0F98  
                                    u254_20 02C6                                      u246_20 0243  
                                    u238_20 0A55                                      u262_20 0EC3  
                                    u422_20 0569                                      u414_20 0512  
                                    u406_20 04BF                                      u270_21 0F97  
                                    u254_21 02C5                                      u246_21 0242  
                                    u238_21 0A54                                      u262_21 0EC2  
                                    u422_21 0568                                      u414_21 0511  
                                    u406_21 04BE                                      u271_20 0FB8  
                                    u255_20 02CE                                      u247_20 024A  
                                    u239_20 0A62                                      u263_20 0ECD  
                                    u423_20 058D                                      u415_20 051A  
                                    u407_20 04C6                                      u271_21 0FB7  
                                    u255_21 02CD                                      u247_21 0249  
                                    u239_21 0A61                                      u263_21 0ECC  
                                    u423_21 058C                                      u415_21 0519  
                                    u407_21 04C5                                      u280_20 0B65  
                                    u272_20 0FFC                                      u256_20 02D2  
                                    u248_20 0251                                      u264_20 0F09  
                                    u424_20 05AB                                      u416_20 051E  
                                    u408_20 04CA                                      u280_21 0B64  
                                    u272_21 0FFB                                      u256_21 02D1  
                                    u248_21 0250                                      u264_21 0F08  
                                    u424_21 05AA                                      u416_21 051D  
                                    u408_21 04C9                                      u281_20 0B76  
                                    u257_20 02FA                                      u249_20 025A  
                                    u265_20 0F14                                      u417_20 0526  
                                    u409_20 04DC                                      u425_20 000A  
                                    u281_21 0B75                                      u257_21 02F9  
                                    u249_21 0259                                      u265_21 0F13  
                                    u417_21 0525                                      u409_21 04DB  
                                    u425_21 0009                                      u346_20 08FF  
                                    u282_20 0B92                                      u258_20 0327  
                                    u266_20 0F20                                      u274_20 17FF  
                                    u290_20 1704                                      u418_20 052A  
                                    u426_20 000E                                      u346_21 08FE  
                                    u282_21 0B91                                      u258_21 0326  
                                    u266_21 0F1F                                      u274_21 17FE  
                                    u290_21 1703                                      u418_21 0529  
                                    u426_21 000D                                      u347_20 0916  
                                    u275_20 087D                                      u259_20 032F  
                                    u267_20 0F56                                      u291_20 07D8  
                                    u419_20 0543                                      u427_20 0016  
                                    u347_21 0915                                      u275_21 087C  
                                    u259_21 032E                                      u267_21 0F55  
                                    u291_21 07D7                                      u419_21 0542  
                                    u427_21 0015                                      u347_25 0912  
                                    u348_20 092D                                      u268_20 0F6B  
                                    u276_20 0888                                      u292_20 07E2  
                                    u428_20 001B                                      u348_21 092C  
                                    u268_21 0F6A                                      u276_21 0887  
                                    u292_21 07E1                                      u428_21 001A  
                                    u348_25 0929                                      u268_25 0F67  
                                    u349_20 0934                                      u277_20 0B34  
                                    u269_20 0F92                                      u293_20 07EC  
                                    u429_20 0020                                      u349_21 0933  
                                    u277_21 0B33                                      u269_21 0F91  
                                    u293_21 07EB                                      u429_21 001F  
                                    u278_20 0B3E                                      u390_20 05DA  
                                    u278_21 0B3D                                      u390_21 05D9  
                                    u279_20 0B4E                                      u391_20 0620  
                                    u279_21 0B4D                                      u391_21 061F  
                                    u392_20 0648                                      u288_20 1786  
                                    u392_21 0647                                      u288_21 1785  
                                    u393_20 0677                                      u289_20 16FB  
                                    u393_21 0676                                      u289_21 16FA  
                                    u394_20 0E46                                      _OSCCON 0099  
                                    u394_21 0E45                                      u395_20 0E6E  
                                    u395_21 0E6D                                      u396_20 0E9A  
                                    u396_21 0E99                                      u389_20 05B8  
                                    u397_20 0D21                                      u389_21 05B7  
                                    u397_21 0D20                                      u398_20 094B  
                                    u398_21 094A                                      _PLLRDY 04D6  
                                    u399_25 094F                                      _WDTCON 0097  
                                    _SSPBUF 0211                           _shortPacketStatus 00B9  
                           USBDeviceTasks@i 00C2                 USBStdFeatureReqHandler@pUEP 0068  
                  USBTransferOnePacket@data 0071                  USBCtrlTrfInHandler@lastDTS 0075  
                           ??_USBDeviceInit 00C3                           _USBEnableEndpoint 17AD  
           __size_of_USBStdGetStatusHandler 0067                                      _column 01D7  
                                    _memcpy 17D2                            ?_TMR0_Initialize 0070  
                                    _memset 05AE                     __size_of_I2C_Initialize 000C  
                        ?_USBEnableEndpoint 0077               __size_of_USBTransferOnePacket 0087  
                              __pdataBIGRAM 2250                             ?_WDT_Initialize 0070  
                       ??_USBEnableEndpoint 0078    TMR0_SetInterruptHandler@InterruptHandler 00C3  
IOCAF5_SetInterruptHandler@InterruptHandler 00C3                                 _CtrlTrfData 0058  
                      _controlTransferState 00B8                           _SYSTEM_Initialize 16BE  
                   __end_of__initialization 007B                          ?_SYSTEM_Initialize 0070  
                  __size_of_USBStallHandler 002B                         __size_of_USBSuspend 0020  
                      i1USBDeviceInit@i_665 0073                              __pcstackCOMMON 0070  
                 __end_of_USBEnableEndpoint 17D2                               __end_of_sd000 183C  
                             __end_of_sd001 1077                               __end_of_sd002 1816  
                             __end_of_sd003 1838                                __pidataBANK4 1747  
                       ??_SYSTEM_Initialize 00C8                                   ?_TMR0_ISR 0070  
          __size_of_USBCtrlEPAllowDataStage 0060               __size_of_USBConfigureEndpoint 0043  
                   __end_ofi1_USBDeviceInit 07D3                 __end_of_USBCtrlTrfInHandler 0B97  
                            _OPTION_REGbits 0095                                  _cdc_notice 0240  
                                _cdc_rx_len 01E2                                  _cdc_tx_len 01E1  
               ?_IOCAF5_SetInterruptHandler 00C3                    ??_USBCtrlTrfSetupHandler 006F  
                   _USBTicksSinceSuspendEnd 01E3                        _currentEepromAddress 01C4  
                          ?_USBDeviceAttach 0070                   __end_of_SYSTEM_Initialize 16D4  
                    _USBStdGetStatusHandler 0A49                                  __pbssBANK1 00A0  
                                __pbssBANK3 01B0                                  __pbssBANK4 0240  
                                __pbssBANK5 02A0                                  __pbssBANK6 0320  
               __size_of_USBWakeFromSuspend 0022                                 _pBDTEntryIn 00A7  
                   _IOCAF5_InterruptHandler 01EE            __end_of_USBCtrlEPServiceComplete 0F58  
               __size_of_USBCheckCDCRequest 006F                                  __pmaintext 0377  
                      USBCtrlTrfRxService@i 0074            __end_of_TMR0_SetInterruptHandler 1698  
                                ??_TMR0_ISR 0070                                  __pintentry 0004  
                                   ?_memcpy 0070                                     ?_memset 0070  
                                _device_dsc 1816                            _USBCtrlEPService 0940  
                                _ep_data_in 01C1                     __size_of_ADC_Initialize 0009  
               __end_of_USBCtrlTrfRxService 1000                          _USBCheckStdRequest 0D18  
                         _configDescriptor1 1000                 __end_of_USBCtrlTrfTxService 0C91  
                       _USBStdSetCfgHandler 0E2B                                     _OSCTUNE 0098  
                                   _SSP1ADD 0212                                     _SSP1BUF 0211  
                       ?_USBCheckStdRequest 0070                __size_of_USBStdGetDscHandler 008B  
                                   _UIEbits 0E92                                     _UIRbits 0E90  
                             _cdc_trf_state 00B4                                     _pCDCDst 01D2  
                                   _pCDCSrc 01D4                        _ADC_InterruptHandler 01CC  
           ??_USBIncrement1msInternalTimers 0070                        ?_USBStdSetCfgHandler 0070  
                                 _CDCInitEP 083E                  __size_of_USBEnableEndpoint 0025  
                                _readBuffer 02A0                        ??_USBCheckStdRequest 006D  
             __size_of_USBCtrlTrfOutHandler 003A                            ??_USBDeviceTasks 00C0  
                         ??_USBStallHandler 0070                               _writecomplete 01D6  
                          ?i1_USBDeviceInit 0070                             __size_of_memcpy 002E  
                            _I2C_Initialize 1698                             __size_of_memset 00CA  
                 __end_of_configDescriptor1 1043                                     __ptext1 16BE  
                                   __ptext2 1679                                     __ptext3 0678  
                                   __ptext4 1709                                     __ptext5 16D4  
                                   __ptext6 168F                                     __ptext7 1789  
                                   __ptext8 1686                                     __ptext9 16B0  
                                   _inPipes 00AD                 _USBDeferOUTDataStagePackets 01E4  
                                   _counter 01CA                       _OSCILLATOR_Initialize 16B0  
                              ??_USBSuspend 0066                    ??_PIN_MANAGER_Initialize 00C5  
                                 _IOCAFbits 0393                                   _IOCANbits 0392  
                                 _IOCAPbits 0391                          __end_of_USB_CD_Ptr 183E  
                __size_of_SYSTEM_Initialize 0016             __size_of_USBCtrlTrfSetupHandler 0055  
                                   clrloop0 16A5                               _writeout_flag 01DD  
                      end_of_initialization 007B                          __end_of_USB_SD_Ptr 1830  
                                   memcpy@d 0079                                     memcpy@n 0072  
                                   memcpy@s 0075                         _pBDTEntryEP0OutNext 00B2  
                                   init_ram 0800                                     memset@c 0072  
                                   memset@k 007A                                     memset@n 0074  
                                   memset@s 007C                                     initloop 0801  
                           _USB1msTickCount 01BA             _dummy_encapsulated_cmd_response 024A  
                  ?_USBStdFeatureReqHandler 0070                       ??_USBStdSetCfgHandler 0066  
                                ?_CDCInitEP 0070                          __end_of_USBSuspend 1747  
                   _USBCtrlEPAllowDataStage 09E9                                  _sleep_flag 01DE  
                    __end_of_I2C_Initialize 16A4                    _USBCtrlEPServiceComplete 0EB8  
                _USBStatusStageEnabledFlag1 01E7                  _USBStatusStageEnabledFlag2 01E6  
                          ??_WDT_Initialize 00C3                          USBEnableEndpoint@p 007A  
                  _TMR0_SetInterruptHandler 168F                                   _TRISCbits 008E  
                        _BothEP0OutUOWNsSet 01E8                   USBStdSetCfgHandler@i_1402 0069  
                 USBConfigureEndpoint@EPNum 0075                  ?_USBCtrlEPAllowStatusStage 0070  
       USER_USB_CALLBACK_EVENT_HANDLER@size 0064                                   _USTATcopy 00BC  
              __end_of_USBTransferOnePacket 0D18                          USBDeviceInit@i_665 00C6  
                    _USBCtrlTrfSetupHandler 0994                             ?_I2C_Initialize 0070  
                     __end_of_USBDeviceInit 072A       __end_of_USBIncrement1msInternalTimers 1709  
    __size_of_USBIncrement1msInternalTimers 001C               _USBIncrement1msInternalTimers 16ED  
                             __pidataBIGRAM 007F                           __size_of_TMR0_ISR 004D  
                            _ADC_Initialize 167D                              __end_of_memcpy 1800  
                    ?_OSCILLATOR_Initialize 0070                              __end_of_memset 0678  
                         _USBBusIsSuspended 01E9                         start_initialization 0028  
                   ?_USBStdGetStatusHandler 0070               USBCtrlTrfRxService@byteToRead 0075  
                  __size_of_TMR0_Initialize 0019             __size_of_PIN_MANAGER_Initialize 0024  
                               _cdc_data_rx 20C0                                 _cdc_data_tx 2080  
              __end_of_USBConfigureEndpoint 08F3             __end_of_USBStdFeatureReqHandler 0377  
         __end_of_USBCtrlEPAllowStatusStage 0C10                    __end_of_USBCtrlEPService 0994  
                 ??_USBCtrlEPAllowDataStage 0073                                 ??_CDCInitEP 007D  
                            USBDeviceInit@i 00C7                              USBDeviceInit@p 00C4  
                    _pBDTEntryEP0OutCurrent 00BA                     USBTransferOnePacket@dir 0070  
                   USBTransferOnePacket@len 0073                         _USBStdGetDscHandler 0DA0  
                    __end_of_ADC_Initialize 1686                                 __pdataBANK4 0220  
                                  ??_memcpy 0074                                    ??_memset 0076  
                                memset@dest 0070              _IOCAF5_DefaultInterruptHandler 0000  
                    _USBActiveConfiguration 00BD              __end_of_USBStdGetStatusHandler 0AB0  
                                 ___latbits 0002                               __pcstackBANK0 0060  
                             __pcstackBANK1 00BE                __size_of_USBCtrlTrfInHandler 0078  
                             __pcstackBANK4 0259                        ?_USBStdGetDscHandler 0070  
                __end_of_USBWakeFromSuspend 1789                             _USBStallHandler 07D3  
                              _pBDTEntryOut 01B0                  __end_of_USBCheckCDCRequest 0B1F  
                     _TMR0_InterruptHandler 01C6                                   __pnvBANK3 01EE  
                  __size_of_USBDeviceAttach 001E                      _PIN_MANAGER_Initialize 1789  
                           ?_ADC_Initialize 0070                ??_INTERRUPT_InterruptManager 007E  
                      _USBTransferOnePacket 0C91                                   _measarray 2250  
              __end_of_USBCtrlTrfOutHandler 08B0                       ??_USBStdGetDscHandler 0070  
                               _ep_data_out 01BE                __size_of_USBCtrlTrfRxService 00A8  
             USBConfigureEndpoint@direction 0070                __size_of_USBCtrlTrfTxService 0081  
                         ??_TMR0_Initialize 00C5                  ??_USBCtrlEPServiceComplete 0075  
                                 clear_ram0 16A4                                    _PIE2bits 0092  
       __size_of_INTERRUPT_InterruptManager 0022                  ??_TMR0_SetInterruptHandler 00C5  
                                  _PIR1bits 0011                                    _PIR2bits 0012  
                                  _UEP0bits 0E98                  _USBDeferINDataStagePackets 01E5  
                                  _SSP1CON1 0215                                    _SSP1CON2 0216  
                                  _TMR0_ISR 08F3                 __size_of_USBCheckStdRequest 0088  
                                  _SSP1STAT 0214                                    _UCONbits 0E8E  
                      _USBConfigureEndpoint 08B0            __size_of_USBStdFeatureReqHandler 0158  
                                _ADCON0bits 009D                       ?_USBTransferOnePacket 0070  
                              _RemoteWakeup 01EA                    __size_ofi1_USBDeviceInit 00A9  
                   __end_of_USBStallHandler 07FE                 ??_USBCtrlEPAllowStatusStage 0070  
               __end_of_USBStdSetCfgHandler 0EB8                           _measurement_count 01DC  
                        __end_of_device_dsc 1828                     ?_USBCtrlTrfSetupHandler 0070  
                          ??_I2C_Initialize 00C3                     USBStdGetStatusHandler@p 0072  
                                 memcpy@tmp 0077                      USBTransferOnePacket@ep 0078  
                                  _SetupPkt 0050                     ??_OSCILLATOR_Initialize 00C3  
                     ?_USBConfigureEndpoint 0070                           ??_USBDeviceAttach 00C3  
                        _waitforsleep_count 01C8                                 _line_coding 0252  
                   __size_of_USBDeviceTasks 0119                                    __ptext10 167D  
                                  __ptext11 1698                                    __ptext20 17D2  
                                  __ptext21 0994                                    __ptext13 0495  
                                  __ptext30 080C                                    __ptext22 0EB8  
                                  __ptext14 072A                                    __ptext31 0AB0  
                                  __ptext23 09E9                                    __ptext15 1767  
                                  __ptext40 0C10                                    __ptext32 083E  
                                  __ptext24 0D18                                    __ptext16 1727  
                                  __ptext41 08F3                                    __ptext33 0C91  
                                  __ptext25 0E2B                                    __ptext17 07D3  
                                  __ptext42 07FE                                    __ptext34 17AD  
                                  __ptext26 05AE                                    __ptext18 16ED  
                                  __ptext35 08B0                                    __ptext27 0A49  
                                  __ptext19 0940                                    __ptext36 0876  
                                  __ptext28 0DA0                                    __ptext37 0F58  
                                  __ptext29 021F                                    __ptext38 0B97  
                                  __ptext39 0B1F                ??_IOCAF5_SetInterruptHandler 00C5  
                              _SSP1CON1bits 0215                                _SSP1CON2bits 0216  
            __end_of_USBCtrlTrfSetupHandler 09E9                               __size_of_main 011E  
                         ?_USBCtrlEPService 0070        __end_of_TMR0_DefaultInterruptHandler 07FF  
     __size_of_TMR0_DefaultInterruptHandler 0001                _TMR0_DefaultInterruptHandler 07FE  
                        ??_USBCtrlEPService 00BE                         _USBCtrlTrfInHandler 0B1F  
                                  _outPipes 00A0                        _USBCtrlTrfOutHandler 0876  
                                  int$flags 007E                   _USBCtrlEPAllowStatusStage 0B97  
        __end_of_INTERRUPT_InterruptManager 0026                  _INTERRUPT_InterruptManager 0004  
                    ??_USBTransferOnePacket 0074         __size_of_IOCAF5_SetInterruptHandler 0009  
                          _measurement_flag 01DB                   _USBDeferStatusStagePacket 00B5  
                          i1USBDeviceInit@i 0074                            i1USBDeviceInit@p 0071  
                                _INTCONbits 000B                        ?_USBCtrlTrfInHandler 0070  
                                  memcpy@d1 0078                                    memcpy@s1 0070  
             USBCtrlTrfTxService@byteToSend 0072                            ?_USBStallHandler 0070  
                  USBStdFeatureReqHandler@p 006B                     __size_of_WDT_Initialize 0004  
                                  intlevel1 0000                      __size_of_USBDeviceInit 00B2  
   __end_of_USER_USB_CALLBACK_EVENT_HANDLER 083E    __size_of_USER_USB_CALLBACK_EVENT_HANDLER 0032  
          ?_USER_USB_CALLBACK_EVENT_HANDLER 0060           ??_USER_USB_CALLBACK_EVENT_HANDLER 007E  
           _USER_USB_CALLBACK_EVENT_HANDLER 080C                           ??i1_USBDeviceInit 0070  
                   ?_PIN_MANAGER_Initialize 0070                            ??_ADC_Initialize 00C3  
             ?_TMR0_DefaultInterruptHandler 0070                      ??_USBConfigureEndpoint 0071  
                     ?_USBCtrlTrfOutHandler 0070                         _USBCtrlTrfRxService 0F58  
                        _USBWakeFromSuspend 1767                     _USBStdFeatureReqHandler 021F  
                        _USBCheckCDCRequest 0AB0                         _USBCtrlTrfTxService 0C10  
                             __pstringtext1 1828                               __pstringtext2 183C  
                             __pstringtext3 1000                               __pstringtext4 1043  
                             __pstringtext5 1800                               __pstringtext6 1816  
                             __pstringtext7 1830                               __pstringtext8 1838  
                                _OPTION_REG 0095                         ?_USBWakeFromSuspend 0070  
                           _TMR0_Initialize 16D4                       ??_USBCtrlTrfInHandler 0073  
                     _USBAlternateInterface 01EC                         ?_USBCheckCDCRequest 0070  
                               _SSPCON2bits 0216                         USBEnableEndpoint@ep 007C  
                           _endpoint_number 00B7                        ?_USBCtrlTrfRxService 0070  
            __end_of_PIN_MANAGER_Initialize 17AD                    ?_USBCtrlEPAllowDataStage 0070  
                      ?_USBCtrlTrfTxService 0070                _USBStatusStageTimeoutCounter 00B6  
                      ??_USBWakeFromSuspend 0066                  USBTransferOnePacket@handle 0079  
                      ??_USBCheckCDCRequest 0070                                  _USB_CD_Ptr 183C  
