

Microchip MPLAB XC8 Assembler V2.31 build 20201012212115 
                                                                                               Sun Apr 04 12:32:13 2021

Microchip MPLAB XC8 C Compiler v2.31 (Free license) build 20201012212115 Og1 
     1                           	processor	16F1459
     2                           	pagewidth 120
     3                           	opt	flic
     4                           	psect	idataBIGRAM,global,class=CODE,delta=2,noexec
     5                           	psect	idataBANK4,global,class=CODE,delta=2,noexec
     6                           	psect	stringtext1,global,class=STRCODE,delta=2,noexec
     7                           	psect	stringtext2,global,class=STRCODE,delta=2,noexec
     8                           	psect	stringtext3,global,class=STRCODE,delta=2,noexec
     9                           	psect	stringtext4,global,class=STRCODE,delta=2,noexec
    10                           	psect	stringtext5,global,class=STRCODE,delta=2,noexec
    11                           	psect	stringtext6,global,class=STRCODE,delta=2,noexec
    12                           	psect	stringtext7,global,class=STRCODE,delta=2,noexec
    13                           	psect	stringtext8,global,class=STRCODE,delta=2,noexec
    14                           	psect	nvBANK3,global,class=BANK3,space=1,delta=1,noexec
    15                           	psect	cinit,global,class=CODE,merge=1,delta=2
    16                           	psect	bssBANK1,global,class=BANK1,space=1,delta=1,noexec
    17                           	psect	bssBANK3,global,class=BANK3,space=1,delta=1,noexec
    18                           	psect	bssBANK4,global,class=BANK4,space=1,delta=1,noexec
    19                           	psect	dataBANK4,global,class=BANK4,space=1,delta=1,noexec
    20                           	psect	bssBANK5,global,class=BANK5,space=1,delta=1,noexec
    21                           	psect	bssBANK6,global,class=BANK6,space=1,delta=1,noexec
    22                           	psect	inittext,global,class=CODE,delta=2
    23                           	psect	clrtext,global,class=CODE,delta=2
    24                           	psect	cstackBANK4,global,class=BANK4,space=1,delta=1,noexec
    25                           	psect	cstackBANK1,global,class=BANK1,space=1,delta=1,noexec
    26                           	psect	cstackCOMMON,global,class=COMMON,space=1,delta=1,noexec
    27                           	psect	cstackBANK0,global,class=BANK0,space=1,delta=1,noexec
    28                           	psect	maintext,global,class=CODE,merge=1,split=1,delta=2
    29                           	psect	text1,local,class=CODE,merge=1,delta=2
    30                           	psect	text2,local,class=CODE,merge=1,delta=2
    31                           	psect	text3,local,class=CODE,merge=1,delta=2
    32                           	psect	text4,local,class=CODE,merge=1,delta=2
    33                           	psect	text5,local,class=CODE,merge=1,delta=2
    34                           	psect	text6,local,class=CODE,merge=1,delta=2
    35                           	psect	text7,local,class=CODE,merge=1,delta=2
    36                           	psect	text8,local,class=CODE,merge=1,delta=2
    37                           	psect	text9,local,class=CODE,merge=1,delta=2
    38                           	psect	text10,local,class=CODE,merge=1,delta=2
    39                           	psect	text11,local,class=CODE,merge=1,delta=2
    40                           	psect	text12,local,class=CODE,merge=1,delta=2
    41                           	psect	text13,local,class=CODE,merge=1,delta=2
    42                           	psect	text14,local,class=CODE,merge=1,delta=2
    43                           	psect	text15,local,class=CODE,merge=1,delta=2
    44                           	psect	text16,local,class=CODE,merge=1,delta=2
    45                           	psect	text17,local,class=CODE,merge=1,delta=2
    46                           	psect	intentry,global,class=CODE,delta=2
    47                           	psect	text19,local,class=CODE,merge=1,delta=2
    48                           	psect	text20,local,class=CODE,merge=1,delta=2
    49                           	psect	text21,local,class=CODE,merge=1,delta=2
    50                           	psect	text22,local,class=CODE,merge=1,delta=2
    51                           	psect	text23,local,class=CODE,merge=1,delta=2
    52                           	psect	text24,local,class=CODE,merge=1,delta=2
    53                           	psect	text25,local,class=CODE,merge=1,delta=2
    54                           	psect	text26,local,class=CODE,merge=1,delta=2,group=2
    55                           	psect	text27,local,class=CODE,merge=1,delta=2
    56                           	psect	text28,local,class=CODE,merge=1,delta=2
    57                           	psect	text29,local,class=CODE,merge=1,delta=2
    58                           	psect	text30,local,class=CODE,merge=1,delta=2
    59                           	psect	text31,local,class=CODE,merge=1,delta=2
    60                           	psect	text32,local,class=CODE,merge=1,delta=2,group=2
    61                           	psect	text33,local,class=CODE,merge=1,delta=2
    62                           	psect	text34,local,class=CODE,merge=1,delta=2
    63                           	psect	text35,local,class=CODE,merge=1,delta=2
    64                           	psect	text36,local,class=CODE,merge=1,delta=2
    65                           	psect	text37,local,class=CODE,merge=1,delta=2
    66                           	psect	text38,local,class=CODE,merge=1,delta=2
    67                           	psect	text39,local,class=CODE,merge=1,delta=2
    68                           	psect	text40,local,class=CODE,merge=1,delta=2
    69                           	psect	text41,local,class=CODE,merge=1,delta=2
    70                           	psect	text42,local,class=CODE,merge=1,delta=2
    71                           	psect	text43,local,class=CODE,merge=1,delta=2
    72                           	psect	text44,local,class=CODE,merge=1,delta=2
    73                           	psect	text45,local,class=CODE,merge=1,delta=2
    74                           	psect	text46,local,class=CODE,merge=1,delta=2
    75                           	psect	text47,local,class=CODE,merge=1,delta=2
    76                           	psect	text48,local,class=CODE,merge=1,delta=2
    77                           	psect	text49,local,class=CODE,merge=1,delta=2
    78                           	psect	text50,local,class=CODE,merge=1,delta=2
    79                           	psect	text51,local,class=CODE,merge=1,delta=2
    80                           	psect	config,global,abs,ovrld,class=CONFIG,space=4,delta=2,noexec
    81                           	dabs	1,0x1A0,16
    82                           	dabs	1,0x140,48
    83                           	dabs	1,0x120,32
    84                           	dabs	1,0xD0,32
    85                           	dabs	1,0x620,48
    86                           	dabs	1,0x5A0,80
    87                           	dabs	1,0x528,72
    88                           	dabs	1,0x20,48,_BDT
    89                           	dabs	1,0x58,8,_CtrlTrfData
    90                           	dabs	1,0x50,8,_SetupPkt
    91                           	dabs	1,0x2328,0,_measarray
    92                           	dabs	1,0x7E,2
    93  0000                     
    94                           ; Version 2.20
    95                           ; Generated 12/02/2020 GMT
    96                           ; 
    97                           ; Copyright © 2020, Microchip Technology Inc. and its subsidiaries ("Microchip")
    98                           ; All rights reserved.
    99                           ; 
   100                           ; This software is developed by Microchip Technology Inc. and its subsidiaries ("Microch
      +                          ip").
   101                           ; 
   102                           ; Redistribution and use in source and binary forms, with or without modification, are
   103                           ; permitted provided that the following conditions are met:
   104                           ; 
   105                           ;     1. Redistributions of source code must retain the above copyright notice, this lis
      +                          t of
   106                           ;        conditions and the following disclaimer.
   107                           ; 
   108                           ;     2. Redistributions in binary form must reproduce the above copyright notice, this 
      +                          list
   109                           ;        of conditions and the following disclaimer in the documentation and/or other
   110                           ;        materials provided with the distribution.
   111                           ; 
   112                           ;     3. Microchip's name may not be used to endorse or promote products derived from th
      +                          is
   113                           ;        software without specific prior written permission.
   114                           ; 
   115                           ; THIS SOFTWARE IS PROVIDED BY MICROCHIP "AS IS" AND ANY EXPRESS OR IMPLIED WARRANTIES,
   116                           ; INCLUDING, BUT NOT LIMITED TO, THE IMPLIED WARRANTIES OF MERCHANTABILITY AND FITNESS F
      +                          OR
   117                           ; PURPOSE ARE DISCLAIMED.  IN NO EVENT SHALL MICROCHIP BE LIABLE FOR ANY DIRECT, INDIREC
      +                          T,
   118                           ; INCIDENTAL, SPECIAL, EXEMPLARY, OR CONSEQUENTIAL DAMAGES (INCLUDING BUT NOT LIMITED TO
   119                           ; PROCUREMENT OF SUBSTITUTE GOODS OR SERVICES; LOSS OF USE, DATA OR PROFITS; OR BUSINESS
   120                           ; INTERRUPTION) HOWSOEVER CAUSED AND ON ANY THEORY OF LIABILITY, WHETHER IN CONTRACT, ST
      +                          RICT
   121                           ; LIABILITY, OR TORT (INCLUDING NEGLIGENCE OR OTHERWISE) ARISING IN ANY WAY OUT OF THE U
      +                          SE OF
   122                           ; THIS SOFTWARE, EVEN IF ADVISED OF THE POSSIBILITY OF SUCH DAMAGE.
   123                           ; 
   124                           ; 
   125                           ; Code-generator required, PIC16F1459 Definitions
   126                           ; 
   127                           ; SFR Addresses
   128  0000                     	;# 
   129  0001                     	;# 
   130  0002                     	;# 
   131  0003                     	;# 
   132  0004                     	;# 
   133  0005                     	;# 
   134  0006                     	;# 
   135  0007                     	;# 
   136  0008                     	;# 
   137  0009                     	;# 
   138  000A                     	;# 
   139  000B                     	;# 
   140  000C                     	;# 
   141  000D                     	;# 
   142  000E                     	;# 
   143  0011                     	;# 
   144  0012                     	;# 
   145  0015                     	;# 
   146  0016                     	;# 
   147  0016                     	;# 
   148  0017                     	;# 
   149  0018                     	;# 
   150  0019                     	;# 
   151  001A                     	;# 
   152  001B                     	;# 
   153  001C                     	;# 
   154  008C                     	;# 
   155  008D                     	;# 
   156  008E                     	;# 
   157  0091                     	;# 
   158  0092                     	;# 
   159  0095                     	;# 
   160  0096                     	;# 
   161  0097                     	;# 
   162  0098                     	;# 
   163  0099                     	;# 
   164  009A                     	;# 
   165  009B                     	;# 
   166  009B                     	;# 
   167  009C                     	;# 
   168  009D                     	;# 
   169  009E                     	;# 
   170  009F                     	;# 
   171  010C                     	;# 
   172  010D                     	;# 
   173  010E                     	;# 
   174  0111                     	;# 
   175  0112                     	;# 
   176  0113                     	;# 
   177  0114                     	;# 
   178  0115                     	;# 
   179  0116                     	;# 
   180  0117                     	;# 
   181  0118                     	;# 
   182  0119                     	;# 
   183  011D                     	;# 
   184  018C                     	;# 
   185  018D                     	;# 
   186  018E                     	;# 
   187  0191                     	;# 
   188  0191                     	;# 
   189  0192                     	;# 
   190  0193                     	;# 
   191  0193                     	;# 
   192  0194                     	;# 
   193  0195                     	;# 
   194  0196                     	;# 
   195  0197                     	;# 
   196  0199                     	;# 
   197  019A                     	;# 
   198  019B                     	;# 
   199  019B                     	;# 
   200  019C                     	;# 
   201  019D                     	;# 
   202  019E                     	;# 
   203  019F                     	;# 
   204  020C                     	;# 
   205  020D                     	;# 
   206  0211                     	;# 
   207  0211                     	;# 
   208  0212                     	;# 
   209  0212                     	;# 
   210  0213                     	;# 
   211  0213                     	;# 
   212  0214                     	;# 
   213  0214                     	;# 
   214  0215                     	;# 
   215  0215                     	;# 
   216  0215                     	;# 
   217  0216                     	;# 
   218  0216                     	;# 
   219  0217                     	;# 
   220  0217                     	;# 
   221  0391                     	;# 
   222  0392                     	;# 
   223  0393                     	;# 
   224  0394                     	;# 
   225  0395                     	;# 
   226  0396                     	;# 
   227  039A                     	;# 
   228  039B                     	;# 
   229  0611                     	;# 
   230  0612                     	;# 
   231  0613                     	;# 
   232  0613                     	;# 
   233  0614                     	;# 
   234  0615                     	;# 
   235  0616                     	;# 
   236  0616                     	;# 
   237  0691                     	;# 
   238  0692                     	;# 
   239  0693                     	;# 
   240  0694                     	;# 
   241  0695                     	;# 
   242  0E8E                     	;# 
   243  0E8F                     	;# 
   244  0E90                     	;# 
   245  0E91                     	;# 
   246  0E92                     	;# 
   247  0E93                     	;# 
   248  0E94                     	;# 
   249  0E94                     	;# 
   250  0E95                     	;# 
   251  0E96                     	;# 
   252  0E97                     	;# 
   253  0E98                     	;# 
   254  0E99                     	;# 
   255  0E9A                     	;# 
   256  0E9B                     	;# 
   257  0E9C                     	;# 
   258  0E9D                     	;# 
   259  0E9E                     	;# 
   260  0E9F                     	;# 
   261  0FE4                     	;# 
   262  0FE5                     	;# 
   263  0FE6                     	;# 
   264  0FE7                     	;# 
   265  0FE8                     	;# 
   266  0FE9                     	;# 
   267  0FEA                     	;# 
   268  0FEB                     	;# 
   269  0FED                     	;# 
   270  0FEE                     	;# 
   271  0FEF                     	;# 
   272  0000                     	;# 
   273  0001                     	;# 
   274  0002                     	;# 
   275  0003                     	;# 
   276  0004                     	;# 
   277  0005                     	;# 
   278  0006                     	;# 
   279  0007                     	;# 
   280  0008                     	;# 
   281  0009                     	;# 
   282  000A                     	;# 
   283  000B                     	;# 
   284  000C                     	;# 
   285  000D                     	;# 
   286  000E                     	;# 
   287  0011                     	;# 
   288  0012                     	;# 
   289  0015                     	;# 
   290  0016                     	;# 
   291  0016                     	;# 
   292  0017                     	;# 
   293  0018                     	;# 
   294  0019                     	;# 
   295  001A                     	;# 
   296  001B                     	;# 
   297  001C                     	;# 
   298  008C                     	;# 
   299  008D                     	;# 
   300  008E                     	;# 
   301  0091                     	;# 
   302  0092                     	;# 
   303  0095                     	;# 
   304  0096                     	;# 
   305  0097                     	;# 
   306  0098                     	;# 
   307  0099                     	;# 
   308  009A                     	;# 
   309  009B                     	;# 
   310  009B                     	;# 
   311  009C                     	;# 
   312  009D                     	;# 
   313  009E                     	;# 
   314  009F                     	;# 
   315  010C                     	;# 
   316  010D                     	;# 
   317  010E                     	;# 
   318  0111                     	;# 
   319  0112                     	;# 
   320  0113                     	;# 
   321  0114                     	;# 
   322  0115                     	;# 
   323  0116                     	;# 
   324  0117                     	;# 
   325  0118                     	;# 
   326  0119                     	;# 
   327  011D                     	;# 
   328  018C                     	;# 
   329  018D                     	;# 
   330  018E                     	;# 
   331  0191                     	;# 
   332  0191                     	;# 
   333  0192                     	;# 
   334  0193                     	;# 
   335  0193                     	;# 
   336  0194                     	;# 
   337  0195                     	;# 
   338  0196                     	;# 
   339  0197                     	;# 
   340  0199                     	;# 
   341  019A                     	;# 
   342  019B                     	;# 
   343  019B                     	;# 
   344  019C                     	;# 
   345  019D                     	;# 
   346  019E                     	;# 
   347  019F                     	;# 
   348  020C                     	;# 
   349  020D                     	;# 
   350  0211                     	;# 
   351  0211                     	;# 
   352  0212                     	;# 
   353  0212                     	;# 
   354  0213                     	;# 
   355  0213                     	;# 
   356  0214                     	;# 
   357  0214                     	;# 
   358  0215                     	;# 
   359  0215                     	;# 
   360  0215                     	;# 
   361  0216                     	;# 
   362  0216                     	;# 
   363  0217                     	;# 
   364  0217                     	;# 
   365  0391                     	;# 
   366  0392                     	;# 
   367  0393                     	;# 
   368  0394                     	;# 
   369  0395                     	;# 
   370  0396                     	;# 
   371  039A                     	;# 
   372  039B                     	;# 
   373  0611                     	;# 
   374  0612                     	;# 
   375  0613                     	;# 
   376  0613                     	;# 
   377  0614                     	;# 
   378  0615                     	;# 
   379  0616                     	;# 
   380  0616                     	;# 
   381  0691                     	;# 
   382  0692                     	;# 
   383  0693                     	;# 
   384  0694                     	;# 
   385  0695                     	;# 
   386  0E8E                     	;# 
   387  0E8F                     	;# 
   388  0E90                     	;# 
   389  0E91                     	;# 
   390  0E92                     	;# 
   391  0E93                     	;# 
   392  0E94                     	;# 
   393  0E94                     	;# 
   394  0E95                     	;# 
   395  0E96                     	;# 
   396  0E97                     	;# 
   397  0E98                     	;# 
   398  0E99                     	;# 
   399  0E9A                     	;# 
   400  0E9B                     	;# 
   401  0E9C                     	;# 
   402  0E9D                     	;# 
   403  0E9E                     	;# 
   404  0E9F                     	;# 
   405  0FE4                     	;# 
   406  0FE5                     	;# 
   407  0FE6                     	;# 
   408  0FE7                     	;# 
   409  0FE8                     	;# 
   410  0FE9                     	;# 
   411  0FEA                     	;# 
   412  0FEB                     	;# 
   413  0FED                     	;# 
   414  0FEE                     	;# 
   415  0FEF                     	;# 
   416  0000                     	;# 
   417  0001                     	;# 
   418  0002                     	;# 
   419  0003                     	;# 
   420  0004                     	;# 
   421  0005                     	;# 
   422  0006                     	;# 
   423  0007                     	;# 
   424  0008                     	;# 
   425  0009                     	;# 
   426  000A                     	;# 
   427  000B                     	;# 
   428  000C                     	;# 
   429  000D                     	;# 
   430  000E                     	;# 
   431  0011                     	;# 
   432  0012                     	;# 
   433  0015                     	;# 
   434  0016                     	;# 
   435  0016                     	;# 
   436  0017                     	;# 
   437  0018                     	;# 
   438  0019                     	;# 
   439  001A                     	;# 
   440  001B                     	;# 
   441  001C                     	;# 
   442  008C                     	;# 
   443  008D                     	;# 
   444  008E                     	;# 
   445  0091                     	;# 
   446  0092                     	;# 
   447  0095                     	;# 
   448  0096                     	;# 
   449  0097                     	;# 
   450  0098                     	;# 
   451  0099                     	;# 
   452  009A                     	;# 
   453  009B                     	;# 
   454  009B                     	;# 
   455  009C                     	;# 
   456  009D                     	;# 
   457  009E                     	;# 
   458  009F                     	;# 
   459  010C                     	;# 
   460  010D                     	;# 
   461  010E                     	;# 
   462  0111                     	;# 
   463  0112                     	;# 
   464  0113                     	;# 
   465  0114                     	;# 
   466  0115                     	;# 
   467  0116                     	;# 
   468  0117                     	;# 
   469  0118                     	;# 
   470  0119                     	;# 
   471  011D                     	;# 
   472  018C                     	;# 
   473  018D                     	;# 
   474  018E                     	;# 
   475  0191                     	;# 
   476  0191                     	;# 
   477  0192                     	;# 
   478  0193                     	;# 
   479  0193                     	;# 
   480  0194                     	;# 
   481  0195                     	;# 
   482  0196                     	;# 
   483  0197                     	;# 
   484  0199                     	;# 
   485  019A                     	;# 
   486  019B                     	;# 
   487  019B                     	;# 
   488  019C                     	;# 
   489  019D                     	;# 
   490  019E                     	;# 
   491  019F                     	;# 
   492  020C                     	;# 
   493  020D                     	;# 
   494  0211                     	;# 
   495  0211                     	;# 
   496  0212                     	;# 
   497  0212                     	;# 
   498  0213                     	;# 
   499  0213                     	;# 
   500  0214                     	;# 
   501  0214                     	;# 
   502  0215                     	;# 
   503  0215                     	;# 
   504  0215                     	;# 
   505  0216                     	;# 
   506  0216                     	;# 
   507  0217                     	;# 
   508  0217                     	;# 
   509  0391                     	;# 
   510  0392                     	;# 
   511  0393                     	;# 
   512  0394                     	;# 
   513  0395                     	;# 
   514  0396                     	;# 
   515  039A                     	;# 
   516  039B                     	;# 
   517  0611                     	;# 
   518  0612                     	;# 
   519  0613                     	;# 
   520  0613                     	;# 
   521  0614                     	;# 
   522  0615                     	;# 
   523  0616                     	;# 
   524  0616                     	;# 
   525  0691                     	;# 
   526  0692                     	;# 
   527  0693                     	;# 
   528  0694                     	;# 
   529  0695                     	;# 
   530  0E8E                     	;# 
   531  0E8F                     	;# 
   532  0E90                     	;# 
   533  0E91                     	;# 
   534  0E92                     	;# 
   535  0E93                     	;# 
   536  0E94                     	;# 
   537  0E94                     	;# 
   538  0E95                     	;# 
   539  0E96                     	;# 
   540  0E97                     	;# 
   541  0E98                     	;# 
   542  0E99                     	;# 
   543  0E9A                     	;# 
   544  0E9B                     	;# 
   545  0E9C                     	;# 
   546  0E9D                     	;# 
   547  0E9E                     	;# 
   548  0E9F                     	;# 
   549  0FE4                     	;# 
   550  0FE5                     	;# 
   551  0FE6                     	;# 
   552  0FE7                     	;# 
   553  0FE8                     	;# 
   554  0FE9                     	;# 
   555  0FEA                     	;# 
   556  0FEB                     	;# 
   557  0FED                     	;# 
   558  0FEE                     	;# 
   559  0FEF                     	;# 
   560  0000                     	;# 
   561  0001                     	;# 
   562  0002                     	;# 
   563  0003                     	;# 
   564  0004                     	;# 
   565  0005                     	;# 
   566  0006                     	;# 
   567  0007                     	;# 
   568  0008                     	;# 
   569  0009                     	;# 
   570  000A                     	;# 
   571  000B                     	;# 
   572  000C                     	;# 
   573  000D                     	;# 
   574  000E                     	;# 
   575  0011                     	;# 
   576  0012                     	;# 
   577  0015                     	;# 
   578  0016                     	;# 
   579  0016                     	;# 
   580  0017                     	;# 
   581  0018                     	;# 
   582  0019                     	;# 
   583  001A                     	;# 
   584  001B                     	;# 
   585  001C                     	;# 
   586  008C                     	;# 
   587  008D                     	;# 
   588  008E                     	;# 
   589  0091                     	;# 
   590  0092                     	;# 
   591  0095                     	;# 
   592  0096                     	;# 
   593  0097                     	;# 
   594  0098                     	;# 
   595  0099                     	;# 
   596  009A                     	;# 
   597  009B                     	;# 
   598  009B                     	;# 
   599  009C                     	;# 
   600  009D                     	;# 
   601  009E                     	;# 
   602  009F                     	;# 
   603  010C                     	;# 
   604  010D                     	;# 
   605  010E                     	;# 
   606  0111                     	;# 
   607  0112                     	;# 
   608  0113                     	;# 
   609  0114                     	;# 
   610  0115                     	;# 
   611  0116                     	;# 
   612  0117                     	;# 
   613  0118                     	;# 
   614  0119                     	;# 
   615  011D                     	;# 
   616  018C                     	;# 
   617  018D                     	;# 
   618  018E                     	;# 
   619  0191                     	;# 
   620  0191                     	;# 
   621  0192                     	;# 
   622  0193                     	;# 
   623  0193                     	;# 
   624  0194                     	;# 
   625  0195                     	;# 
   626  0196                     	;# 
   627  0197                     	;# 
   628  0199                     	;# 
   629  019A                     	;# 
   630  019B                     	;# 
   631  019B                     	;# 
   632  019C                     	;# 
   633  019D                     	;# 
   634  019E                     	;# 
   635  019F                     	;# 
   636  020C                     	;# 
   637  020D                     	;# 
   638  0211                     	;# 
   639  0211                     	;# 
   640  0212                     	;# 
   641  0212                     	;# 
   642  0213                     	;# 
   643  0213                     	;# 
   644  0214                     	;# 
   645  0214                     	;# 
   646  0215                     	;# 
   647  0215                     	;# 
   648  0215                     	;# 
   649  0216                     	;# 
   650  0216                     	;# 
   651  0217                     	;# 
   652  0217                     	;# 
   653  0391                     	;# 
   654  0392                     	;# 
   655  0393                     	;# 
   656  0394                     	;# 
   657  0395                     	;# 
   658  0396                     	;# 
   659  039A                     	;# 
   660  039B                     	;# 
   661  0611                     	;# 
   662  0612                     	;# 
   663  0613                     	;# 
   664  0613                     	;# 
   665  0614                     	;# 
   666  0615                     	;# 
   667  0616                     	;# 
   668  0616                     	;# 
   669  0691                     	;# 
   670  0692                     	;# 
   671  0693                     	;# 
   672  0694                     	;# 
   673  0695                     	;# 
   674  0E8E                     	;# 
   675  0E8F                     	;# 
   676  0E90                     	;# 
   677  0E91                     	;# 
   678  0E92                     	;# 
   679  0E93                     	;# 
   680  0E94                     	;# 
   681  0E94                     	;# 
   682  0E95                     	;# 
   683  0E96                     	;# 
   684  0E97                     	;# 
   685  0E98                     	;# 
   686  0E99                     	;# 
   687  0E9A                     	;# 
   688  0E9B                     	;# 
   689  0E9C                     	;# 
   690  0E9D                     	;# 
   691  0E9E                     	;# 
   692  0E9F                     	;# 
   693  0FE4                     	;# 
   694  0FE5                     	;# 
   695  0FE6                     	;# 
   696  0FE7                     	;# 
   697  0FE8                     	;# 
   698  0FE9                     	;# 
   699  0FEA                     	;# 
   700  0FEB                     	;# 
   701  0FED                     	;# 
   702  0FEE                     	;# 
   703  0FEF                     	;# 
   704  0000                     	;# 
   705  0001                     	;# 
   706  0002                     	;# 
   707  0003                     	;# 
   708  0004                     	;# 
   709  0005                     	;# 
   710  0006                     	;# 
   711  0007                     	;# 
   712  0008                     	;# 
   713  0009                     	;# 
   714  000A                     	;# 
   715  000B                     	;# 
   716  000C                     	;# 
   717  000D                     	;# 
   718  000E                     	;# 
   719  0011                     	;# 
   720  0012                     	;# 
   721  0015                     	;# 
   722  0016                     	;# 
   723  0016                     	;# 
   724  0017                     	;# 
   725  0018                     	;# 
   726  0019                     	;# 
   727  001A                     	;# 
   728  001B                     	;# 
   729  001C                     	;# 
   730  008C                     	;# 
   731  008D                     	;# 
   732  008E                     	;# 
   733  0091                     	;# 
   734  0092                     	;# 
   735  0095                     	;# 
   736  0096                     	;# 
   737  0097                     	;# 
   738  0098                     	;# 
   739  0099                     	;# 
   740  009A                     	;# 
   741  009B                     	;# 
   742  009B                     	;# 
   743  009C                     	;# 
   744  009D                     	;# 
   745  009E                     	;# 
   746  009F                     	;# 
   747  010C                     	;# 
   748  010D                     	;# 
   749  010E                     	;# 
   750  0111                     	;# 
   751  0112                     	;# 
   752  0113                     	;# 
   753  0114                     	;# 
   754  0115                     	;# 
   755  0116                     	;# 
   756  0117                     	;# 
   757  0118                     	;# 
   758  0119                     	;# 
   759  011D                     	;# 
   760  018C                     	;# 
   761  018D                     	;# 
   762  018E                     	;# 
   763  0191                     	;# 
   764  0191                     	;# 
   765  0192                     	;# 
   766  0193                     	;# 
   767  0193                     	;# 
   768  0194                     	;# 
   769  0195                     	;# 
   770  0196                     	;# 
   771  0197                     	;# 
   772  0199                     	;# 
   773  019A                     	;# 
   774  019B                     	;# 
   775  019B                     	;# 
   776  019C                     	;# 
   777  019D                     	;# 
   778  019E                     	;# 
   779  019F                     	;# 
   780  020C                     	;# 
   781  020D                     	;# 
   782  0211                     	;# 
   783  0211                     	;# 
   784  0212                     	;# 
   785  0212                     	;# 
   786  0213                     	;# 
   787  0213                     	;# 
   788  0214                     	;# 
   789  0214                     	;# 
   790  0215                     	;# 
   791  0215                     	;# 
   792  0215                     	;# 
   793  0216                     	;# 
   794  0216                     	;# 
   795  0217                     	;# 
   796  0217                     	;# 
   797  0391                     	;# 
   798  0392                     	;# 
   799  0393                     	;# 
   800  0394                     	;# 
   801  0395                     	;# 
   802  0396                     	;# 
   803  039A                     	;# 
   804  039B                     	;# 
   805  0611                     	;# 
   806  0612                     	;# 
   807  0613                     	;# 
   808  0613                     	;# 
   809  0614                     	;# 
   810  0615                     	;# 
   811  0616                     	;# 
   812  0616                     	;# 
   813  0691                     	;# 
   814  0692                     	;# 
   815  0693                     	;# 
   816  0694                     	;# 
   817  0695                     	;# 
   818  0E8E                     	;# 
   819  0E8F                     	;# 
   820  0E90                     	;# 
   821  0E91                     	;# 
   822  0E92                     	;# 
   823  0E93                     	;# 
   824  0E94                     	;# 
   825  0E94                     	;# 
   826  0E95                     	;# 
   827  0E96                     	;# 
   828  0E97                     	;# 
   829  0E98                     	;# 
   830  0E99                     	;# 
   831  0E9A                     	;# 
   832  0E9B                     	;# 
   833  0E9C                     	;# 
   834  0E9D                     	;# 
   835  0E9E                     	;# 
   836  0E9F                     	;# 
   837  0FE4                     	;# 
   838  0FE5                     	;# 
   839  0FE6                     	;# 
   840  0FE7                     	;# 
   841  0FE8                     	;# 
   842  0FE9                     	;# 
   843  0FEA                     	;# 
   844  0FEB                     	;# 
   845  0FED                     	;# 
   846  0FEE                     	;# 
   847  0FEF                     	;# 
   848  0000                     	;# 
   849  0001                     	;# 
   850  0002                     	;# 
   851  0003                     	;# 
   852  0004                     	;# 
   853  0005                     	;# 
   854  0006                     	;# 
   855  0007                     	;# 
   856  0008                     	;# 
   857  0009                     	;# 
   858  000A                     	;# 
   859  000B                     	;# 
   860  000C                     	;# 
   861  000D                     	;# 
   862  000E                     	;# 
   863  0011                     	;# 
   864  0012                     	;# 
   865  0015                     	;# 
   866  0016                     	;# 
   867  0016                     	;# 
   868  0017                     	;# 
   869  0018                     	;# 
   870  0019                     	;# 
   871  001A                     	;# 
   872  001B                     	;# 
   873  001C                     	;# 
   874  008C                     	;# 
   875  008D                     	;# 
   876  008E                     	;# 
   877  0091                     	;# 
   878  0092                     	;# 
   879  0095                     	;# 
   880  0096                     	;# 
   881  0097                     	;# 
   882  0098                     	;# 
   883  0099                     	;# 
   884  009A                     	;# 
   885  009B                     	;# 
   886  009B                     	;# 
   887  009C                     	;# 
   888  009D                     	;# 
   889  009E                     	;# 
   890  009F                     	;# 
   891  010C                     	;# 
   892  010D                     	;# 
   893  010E                     	;# 
   894  0111                     	;# 
   895  0112                     	;# 
   896  0113                     	;# 
   897  0114                     	;# 
   898  0115                     	;# 
   899  0116                     	;# 
   900  0117                     	;# 
   901  0118                     	;# 
   902  0119                     	;# 
   903  011D                     	;# 
   904  018C                     	;# 
   905  018D                     	;# 
   906  018E                     	;# 
   907  0191                     	;# 
   908  0191                     	;# 
   909  0192                     	;# 
   910  0193                     	;# 
   911  0193                     	;# 
   912  0194                     	;# 
   913  0195                     	;# 
   914  0196                     	;# 
   915  0197                     	;# 
   916  0199                     	;# 
   917  019A                     	;# 
   918  019B                     	;# 
   919  019B                     	;# 
   920  019C                     	;# 
   921  019D                     	;# 
   922  019E                     	;# 
   923  019F                     	;# 
   924  020C                     	;# 
   925  020D                     	;# 
   926  0211                     	;# 
   927  0211                     	;# 
   928  0212                     	;# 
   929  0212                     	;# 
   930  0213                     	;# 
   931  0213                     	;# 
   932  0214                     	;# 
   933  0214                     	;# 
   934  0215                     	;# 
   935  0215                     	;# 
   936  0215                     	;# 
   937  0216                     	;# 
   938  0216                     	;# 
   939  0217                     	;# 
   940  0217                     	;# 
   941  0391                     	;# 
   942  0392                     	;# 
   943  0393                     	;# 
   944  0394                     	;# 
   945  0395                     	;# 
   946  0396                     	;# 
   947  039A                     	;# 
   948  039B                     	;# 
   949  0611                     	;# 
   950  0612                     	;# 
   951  0613                     	;# 
   952  0613                     	;# 
   953  0614                     	;# 
   954  0615                     	;# 
   955  0616                     	;# 
   956  0616                     	;# 
   957  0691                     	;# 
   958  0692                     	;# 
   959  0693                     	;# 
   960  0694                     	;# 
   961  0695                     	;# 
   962  0E8E                     	;# 
   963  0E8F                     	;# 
   964  0E90                     	;# 
   965  0E91                     	;# 
   966  0E92                     	;# 
   967  0E93                     	;# 
   968  0E94                     	;# 
   969  0E94                     	;# 
   970  0E95                     	;# 
   971  0E96                     	;# 
   972  0E97                     	;# 
   973  0E98                     	;# 
   974  0E99                     	;# 
   975  0E9A                     	;# 
   976  0E9B                     	;# 
   977  0E9C                     	;# 
   978  0E9D                     	;# 
   979  0E9E                     	;# 
   980  0E9F                     	;# 
   981  0FE4                     	;# 
   982  0FE5                     	;# 
   983  0FE6                     	;# 
   984  0FE7                     	;# 
   985  0FE8                     	;# 
   986  0FE9                     	;# 
   987  0FEA                     	;# 
   988  0FEB                     	;# 
   989  0FED                     	;# 
   990  0FEE                     	;# 
   991  0FEF                     	;# 
   992  0000                     	;# 
   993  0001                     	;# 
   994  0002                     	;# 
   995  0003                     	;# 
   996  0004                     	;# 
   997  0005                     	;# 
   998  0006                     	;# 
   999  0007                     	;# 
  1000  0008                     	;# 
  1001  0009                     	;# 
  1002  000A                     	;# 
  1003  000B                     	;# 
  1004  000C                     	;# 
  1005  000D                     	;# 
  1006  000E                     	;# 
  1007  0011                     	;# 
  1008  0012                     	;# 
  1009  0015                     	;# 
  1010  0016                     	;# 
  1011  0016                     	;# 
  1012  0017                     	;# 
  1013  0018                     	;# 
  1014  0019                     	;# 
  1015  001A                     	;# 
  1016  001B                     	;# 
  1017  001C                     	;# 
  1018  008C                     	;# 
  1019  008D                     	;# 
  1020  008E                     	;# 
  1021  0091                     	;# 
  1022  0092                     	;# 
  1023  0095                     	;# 
  1024  0096                     	;# 
  1025  0097                     	;# 
  1026  0098                     	;# 
  1027  0099                     	;# 
  1028  009A                     	;# 
  1029  009B                     	;# 
  1030  009B                     	;# 
  1031  009C                     	;# 
  1032  009D                     	;# 
  1033  009E                     	;# 
  1034  009F                     	;# 
  1035  010C                     	;# 
  1036  010D                     	;# 
  1037  010E                     	;# 
  1038  0111                     	;# 
  1039  0112                     	;# 
  1040  0113                     	;# 
  1041  0114                     	;# 
  1042  0115                     	;# 
  1043  0116                     	;# 
  1044  0117                     	;# 
  1045  0118                     	;# 
  1046  0119                     	;# 
  1047  011D                     	;# 
  1048  018C                     	;# 
  1049  018D                     	;# 
  1050  018E                     	;# 
  1051  0191                     	;# 
  1052  0191                     	;# 
  1053  0192                     	;# 
  1054  0193                     	;# 
  1055  0193                     	;# 
  1056  0194                     	;# 
  1057  0195                     	;# 
  1058  0196                     	;# 
  1059  0197                     	;# 
  1060  0199                     	;# 
  1061  019A                     	;# 
  1062  019B                     	;# 
  1063  019B                     	;# 
  1064  019C                     	;# 
  1065  019D                     	;# 
  1066  019E                     	;# 
  1067  019F                     	;# 
  1068  020C                     	;# 
  1069  020D                     	;# 
  1070  0211                     	;# 
  1071  0211                     	;# 
  1072  0212                     	;# 
  1073  0212                     	;# 
  1074  0213                     	;# 
  1075  0213                     	;# 
  1076  0214                     	;# 
  1077  0214                     	;# 
  1078  0215                     	;# 
  1079  0215                     	;# 
  1080  0215                     	;# 
  1081  0216                     	;# 
  1082  0216                     	;# 
  1083  0217                     	;# 
  1084  0217                     	;# 
  1085  0391                     	;# 
  1086  0392                     	;# 
  1087  0393                     	;# 
  1088  0394                     	;# 
  1089  0395                     	;# 
  1090  0396                     	;# 
  1091  039A                     	;# 
  1092  039B                     	;# 
  1093  0611                     	;# 
  1094  0612                     	;# 
  1095  0613                     	;# 
  1096  0613                     	;# 
  1097  0614                     	;# 
  1098  0615                     	;# 
  1099  0616                     	;# 
  1100  0616                     	;# 
  1101  0691                     	;# 
  1102  0692                     	;# 
  1103  0693                     	;# 
  1104  0694                     	;# 
  1105  0695                     	;# 
  1106  0E8E                     	;# 
  1107  0E8F                     	;# 
  1108  0E90                     	;# 
  1109  0E91                     	;# 
  1110  0E92                     	;# 
  1111  0E93                     	;# 
  1112  0E94                     	;# 
  1113  0E94                     	;# 
  1114  0E95                     	;# 
  1115  0E96                     	;# 
  1116  0E97                     	;# 
  1117  0E98                     	;# 
  1118  0E99                     	;# 
  1119  0E9A                     	;# 
  1120  0E9B                     	;# 
  1121  0E9C                     	;# 
  1122  0E9D                     	;# 
  1123  0E9E                     	;# 
  1124  0E9F                     	;# 
  1125  0FE4                     	;# 
  1126  0FE5                     	;# 
  1127  0FE6                     	;# 
  1128  0FE7                     	;# 
  1129  0FE8                     	;# 
  1130  0FE9                     	;# 
  1131  0FEA                     	;# 
  1132  0FEB                     	;# 
  1133  0FED                     	;# 
  1134  0FEE                     	;# 
  1135  0FEF                     	;# 
  1136  0000                     	;# 
  1137  0001                     	;# 
  1138  0002                     	;# 
  1139  0003                     	;# 
  1140  0004                     	;# 
  1141  0005                     	;# 
  1142  0006                     	;# 
  1143  0007                     	;# 
  1144  0008                     	;# 
  1145  0009                     	;# 
  1146  000A                     	;# 
  1147  000B                     	;# 
  1148  000C                     	;# 
  1149  000D                     	;# 
  1150  000E                     	;# 
  1151  0011                     	;# 
  1152  0012                     	;# 
  1153  0015                     	;# 
  1154  0016                     	;# 
  1155  0016                     	;# 
  1156  0017                     	;# 
  1157  0018                     	;# 
  1158  0019                     	;# 
  1159  001A                     	;# 
  1160  001B                     	;# 
  1161  001C                     	;# 
  1162  008C                     	;# 
  1163  008D                     	;# 
  1164  008E                     	;# 
  1165  0091                     	;# 
  1166  0092                     	;# 
  1167  0095                     	;# 
  1168  0096                     	;# 
  1169  0097                     	;# 
  1170  0098                     	;# 
  1171  0099                     	;# 
  1172  009A                     	;# 
  1173  009B                     	;# 
  1174  009B                     	;# 
  1175  009C                     	;# 
  1176  009D                     	;# 
  1177  009E                     	;# 
  1178  009F                     	;# 
  1179  010C                     	;# 
  1180  010D                     	;# 
  1181  010E                     	;# 
  1182  0111                     	;# 
  1183  0112                     	;# 
  1184  0113                     	;# 
  1185  0114                     	;# 
  1186  0115                     	;# 
  1187  0116                     	;# 
  1188  0117                     	;# 
  1189  0118                     	;# 
  1190  0119                     	;# 
  1191  011D                     	;# 
  1192  018C                     	;# 
  1193  018D                     	;# 
  1194  018E                     	;# 
  1195  0191                     	;# 
  1196  0191                     	;# 
  1197  0192                     	;# 
  1198  0193                     	;# 
  1199  0193                     	;# 
  1200  0194                     	;# 
  1201  0195                     	;# 
  1202  0196                     	;# 
  1203  0197                     	;# 
  1204  0199                     	;# 
  1205  019A                     	;# 
  1206  019B                     	;# 
  1207  019B                     	;# 
  1208  019C                     	;# 
  1209  019D                     	;# 
  1210  019E                     	;# 
  1211  019F                     	;# 
  1212  020C                     	;# 
  1213  020D                     	;# 
  1214  0211                     	;# 
  1215  0211                     	;# 
  1216  0212                     	;# 
  1217  0212                     	;# 
  1218  0213                     	;# 
  1219  0213                     	;# 
  1220  0214                     	;# 
  1221  0214                     	;# 
  1222  0215                     	;# 
  1223  0215                     	;# 
  1224  0215                     	;# 
  1225  0216                     	;# 
  1226  0216                     	;# 
  1227  0217                     	;# 
  1228  0217                     	;# 
  1229  0391                     	;# 
  1230  0392                     	;# 
  1231  0393                     	;# 
  1232  0394                     	;# 
  1233  0395                     	;# 
  1234  0396                     	;# 
  1235  039A                     	;# 
  1236  039B                     	;# 
  1237  0611                     	;# 
  1238  0612                     	;# 
  1239  0613                     	;# 
  1240  0613                     	;# 
  1241  0614                     	;# 
  1242  0615                     	;# 
  1243  0616                     	;# 
  1244  0616                     	;# 
  1245  0691                     	;# 
  1246  0692                     	;# 
  1247  0693                     	;# 
  1248  0694                     	;# 
  1249  0695                     	;# 
  1250  0E8E                     	;# 
  1251  0E8F                     	;# 
  1252  0E90                     	;# 
  1253  0E91                     	;# 
  1254  0E92                     	;# 
  1255  0E93                     	;# 
  1256  0E94                     	;# 
  1257  0E94                     	;# 
  1258  0E95                     	;# 
  1259  0E96                     	;# 
  1260  0E97                     	;# 
  1261  0E98                     	;# 
  1262  0E99                     	;# 
  1263  0E9A                     	;# 
  1264  0E9B                     	;# 
  1265  0E9C                     	;# 
  1266  0E9D                     	;# 
  1267  0E9E                     	;# 
  1268  0E9F                     	;# 
  1269  0FE4                     	;# 
  1270  0FE5                     	;# 
  1271  0FE6                     	;# 
  1272  0FE7                     	;# 
  1273  0FE8                     	;# 
  1274  0FE9                     	;# 
  1275  0FEA                     	;# 
  1276  0FEB                     	;# 
  1277  0FED                     	;# 
  1278  0FEE                     	;# 
  1279  0FEF                     	;# 
  1280  0000                     	;# 
  1281  0001                     	;# 
  1282  0002                     	;# 
  1283  0003                     	;# 
  1284  0004                     	;# 
  1285  0005                     	;# 
  1286  0006                     	;# 
  1287  0007                     	;# 
  1288  0008                     	;# 
  1289  0009                     	;# 
  1290  000A                     	;# 
  1291  000B                     	;# 
  1292  000C                     	;# 
  1293  000D                     	;# 
  1294  000E                     	;# 
  1295  0011                     	;# 
  1296  0012                     	;# 
  1297  0015                     	;# 
  1298  0016                     	;# 
  1299  0016                     	;# 
  1300  0017                     	;# 
  1301  0018                     	;# 
  1302  0019                     	;# 
  1303  001A                     	;# 
  1304  001B                     	;# 
  1305  001C                     	;# 
  1306  008C                     	;# 
  1307  008D                     	;# 
  1308  008E                     	;# 
  1309  0091                     	;# 
  1310  0092                     	;# 
  1311  0095                     	;# 
  1312  0096                     	;# 
  1313  0097                     	;# 
  1314  0098                     	;# 
  1315  0099                     	;# 
  1316  009A                     	;# 
  1317  009B                     	;# 
  1318  009B                     	;# 
  1319  009C                     	;# 
  1320  009D                     	;# 
  1321  009E                     	;# 
  1322  009F                     	;# 
  1323  010C                     	;# 
  1324  010D                     	;# 
  1325  010E                     	;# 
  1326  0111                     	;# 
  1327  0112                     	;# 
  1328  0113                     	;# 
  1329  0114                     	;# 
  1330  0115                     	;# 
  1331  0116                     	;# 
  1332  0117                     	;# 
  1333  0118                     	;# 
  1334  0119                     	;# 
  1335  011D                     	;# 
  1336  018C                     	;# 
  1337  018D                     	;# 
  1338  018E                     	;# 
  1339  0191                     	;# 
  1340  0191                     	;# 
  1341  0192                     	;# 
  1342  0193                     	;# 
  1343  0193                     	;# 
  1344  0194                     	;# 
  1345  0195                     	;# 
  1346  0196                     	;# 
  1347  0197                     	;# 
  1348  0199                     	;# 
  1349  019A                     	;# 
  1350  019B                     	;# 
  1351  019B                     	;# 
  1352  019C                     	;# 
  1353  019D                     	;# 
  1354  019E                     	;# 
  1355  019F                     	;# 
  1356  020C                     	;# 
  1357  020D                     	;# 
  1358  0211                     	;# 
  1359  0211                     	;# 
  1360  0212                     	;# 
  1361  0212                     	;# 
  1362  0213                     	;# 
  1363  0213                     	;# 
  1364  0214                     	;# 
  1365  0214                     	;# 
  1366  0215                     	;# 
  1367  0215                     	;# 
  1368  0215                     	;# 
  1369  0216                     	;# 
  1370  0216                     	;# 
  1371  0217                     	;# 
  1372  0217                     	;# 
  1373  0391                     	;# 
  1374  0392                     	;# 
  1375  0393                     	;# 
  1376  0394                     	;# 
  1377  0395                     	;# 
  1378  0396                     	;# 
  1379  039A                     	;# 
  1380  039B                     	;# 
  1381  0611                     	;# 
  1382  0612                     	;# 
  1383  0613                     	;# 
  1384  0613                     	;# 
  1385  0614                     	;# 
  1386  0615                     	;# 
  1387  0616                     	;# 
  1388  0616                     	;# 
  1389  0691                     	;# 
  1390  0692                     	;# 
  1391  0693                     	;# 
  1392  0694                     	;# 
  1393  0695                     	;# 
  1394  0E8E                     	;# 
  1395  0E8F                     	;# 
  1396  0E90                     	;# 
  1397  0E91                     	;# 
  1398  0E92                     	;# 
  1399  0E93                     	;# 
  1400  0E94                     	;# 
  1401  0E94                     	;# 
  1402  0E95                     	;# 
  1403  0E96                     	;# 
  1404  0E97                     	;# 
  1405  0E98                     	;# 
  1406  0E99                     	;# 
  1407  0E9A                     	;# 
  1408  0E9B                     	;# 
  1409  0E9C                     	;# 
  1410  0E9D                     	;# 
  1411  0E9E                     	;# 
  1412  0E9F                     	;# 
  1413  0FE4                     	;# 
  1414  0FE5                     	;# 
  1415  0FE6                     	;# 
  1416  0FE7                     	;# 
  1417  0FE8                     	;# 
  1418  0FE9                     	;# 
  1419  0FEA                     	;# 
  1420  0FEB                     	;# 
  1421  0FED                     	;# 
  1422  0FEE                     	;# 
  1423  0FEF                     	;# 
  1424  0000                     	;# 
  1425  0001                     	;# 
  1426  0002                     	;# 
  1427  0003                     	;# 
  1428  0004                     	;# 
  1429  0005                     	;# 
  1430  0006                     	;# 
  1431  0007                     	;# 
  1432  0008                     	;# 
  1433  0009                     	;# 
  1434  000A                     	;# 
  1435  000B                     	;# 
  1436  000C                     	;# 
  1437  000D                     	;# 
  1438  000E                     	;# 
  1439  0011                     	;# 
  1440  0012                     	;# 
  1441  0015                     	;# 
  1442  0016                     	;# 
  1443  0016                     	;# 
  1444  0017                     	;# 
  1445  0018                     	;# 
  1446  0019                     	;# 
  1447  001A                     	;# 
  1448  001B                     	;# 
  1449  001C                     	;# 
  1450  008C                     	;# 
  1451  008D                     	;# 
  1452  008E                     	;# 
  1453  0091                     	;# 
  1454  0092                     	;# 
  1455  0095                     	;# 
  1456  0096                     	;# 
  1457  0097                     	;# 
  1458  0098                     	;# 
  1459  0099                     	;# 
  1460  009A                     	;# 
  1461  009B                     	;# 
  1462  009B                     	;# 
  1463  009C                     	;# 
  1464  009D                     	;# 
  1465  009E                     	;# 
  1466  009F                     	;# 
  1467  010C                     	;# 
  1468  010D                     	;# 
  1469  010E                     	;# 
  1470  0111                     	;# 
  1471  0112                     	;# 
  1472  0113                     	;# 
  1473  0114                     	;# 
  1474  0115                     	;# 
  1475  0116                     	;# 
  1476  0117                     	;# 
  1477  0118                     	;# 
  1478  0119                     	;# 
  1479  011D                     	;# 
  1480  018C                     	;# 
  1481  018D                     	;# 
  1482  018E                     	;# 
  1483  0191                     	;# 
  1484  0191                     	;# 
  1485  0192                     	;# 
  1486  0193                     	;# 
  1487  0193                     	;# 
  1488  0194                     	;# 
  1489  0195                     	;# 
  1490  0196                     	;# 
  1491  0197                     	;# 
  1492  0199                     	;# 
  1493  019A                     	;# 
  1494  019B                     	;# 
  1495  019B                     	;# 
  1496  019C                     	;# 
  1497  019D                     	;# 
  1498  019E                     	;# 
  1499  019F                     	;# 
  1500  020C                     	;# 
  1501  020D                     	;# 
  1502  0211                     	;# 
  1503  0211                     	;# 
  1504  0212                     	;# 
  1505  0212                     	;# 
  1506  0213                     	;# 
  1507  0213                     	;# 
  1508  0214                     	;# 
  1509  0214                     	;# 
  1510  0215                     	;# 
  1511  0215                     	;# 
  1512  0215                     	;# 
  1513  0216                     	;# 
  1514  0216                     	;# 
  1515  0217                     	;# 
  1516  0217                     	;# 
  1517  0391                     	;# 
  1518  0392                     	;# 
  1519  0393                     	;# 
  1520  0394                     	;# 
  1521  0395                     	;# 
  1522  0396                     	;# 
  1523  039A                     	;# 
  1524  039B                     	;# 
  1525  0611                     	;# 
  1526  0612                     	;# 
  1527  0613                     	;# 
  1528  0613                     	;# 
  1529  0614                     	;# 
  1530  0615                     	;# 
  1531  0616                     	;# 
  1532  0616                     	;# 
  1533  0691                     	;# 
  1534  0692                     	;# 
  1535  0693                     	;# 
  1536  0694                     	;# 
  1537  0695                     	;# 
  1538  0E8E                     	;# 
  1539  0E8F                     	;# 
  1540  0E90                     	;# 
  1541  0E91                     	;# 
  1542  0E92                     	;# 
  1543  0E93                     	;# 
  1544  0E94                     	;# 
  1545  0E94                     	;# 
  1546  0E95                     	;# 
  1547  0E96                     	;# 
  1548  0E97                     	;# 
  1549  0E98                     	;# 
  1550  0E99                     	;# 
  1551  0E9A                     	;# 
  1552  0E9B                     	;# 
  1553  0E9C                     	;# 
  1554  0E9D                     	;# 
  1555  0E9E                     	;# 
  1556  0E9F                     	;# 
  1557  0FE4                     	;# 
  1558  0FE5                     	;# 
  1559  0FE6                     	;# 
  1560  0FE7                     	;# 
  1561  0FE8                     	;# 
  1562  0FE9                     	;# 
  1563  0FEA                     	;# 
  1564  0FEB                     	;# 
  1565  0FED                     	;# 
  1566  0FEE                     	;# 
  1567  0FEF                     	;# 
  1568  0000                     	;# 
  1569  0001                     	;# 
  1570  0002                     	;# 
  1571  0003                     	;# 
  1572  0004                     	;# 
  1573  0005                     	;# 
  1574  0006                     	;# 
  1575  0007                     	;# 
  1576  0008                     	;# 
  1577  0009                     	;# 
  1578  000A                     	;# 
  1579  000B                     	;# 
  1580  000C                     	;# 
  1581  000D                     	;# 
  1582  000E                     	;# 
  1583  0011                     	;# 
  1584  0012                     	;# 
  1585  0015                     	;# 
  1586  0016                     	;# 
  1587  0016                     	;# 
  1588  0017                     	;# 
  1589  0018                     	;# 
  1590  0019                     	;# 
  1591  001A                     	;# 
  1592  001B                     	;# 
  1593  001C                     	;# 
  1594  008C                     	;# 
  1595  008D                     	;# 
  1596  008E                     	;# 
  1597  0091                     	;# 
  1598  0092                     	;# 
  1599  0095                     	;# 
  1600  0096                     	;# 
  1601  0097                     	;# 
  1602  0098                     	;# 
  1603  0099                     	;# 
  1604  009A                     	;# 
  1605  009B                     	;# 
  1606  009B                     	;# 
  1607  009C                     	;# 
  1608  009D                     	;# 
  1609  009E                     	;# 
  1610  009F                     	;# 
  1611  010C                     	;# 
  1612  010D                     	;# 
  1613  010E                     	;# 
  1614  0111                     	;# 
  1615  0112                     	;# 
  1616  0113                     	;# 
  1617  0114                     	;# 
  1618  0115                     	;# 
  1619  0116                     	;# 
  1620  0117                     	;# 
  1621  0118                     	;# 
  1622  0119                     	;# 
  1623  011D                     	;# 
  1624  018C                     	;# 
  1625  018D                     	;# 
  1626  018E                     	;# 
  1627  0191                     	;# 
  1628  0191                     	;# 
  1629  0192                     	;# 
  1630  0193                     	;# 
  1631  0193                     	;# 
  1632  0194                     	;# 
  1633  0195                     	;# 
  1634  0196                     	;# 
  1635  0197                     	;# 
  1636  0199                     	;# 
  1637  019A                     	;# 
  1638  019B                     	;# 
  1639  019B                     	;# 
  1640  019C                     	;# 
  1641  019D                     	;# 
  1642  019E                     	;# 
  1643  019F                     	;# 
  1644  020C                     	;# 
  1645  020D                     	;# 
  1646  0211                     	;# 
  1647  0211                     	;# 
  1648  0212                     	;# 
  1649  0212                     	;# 
  1650  0213                     	;# 
  1651  0213                     	;# 
  1652  0214                     	;# 
  1653  0214                     	;# 
  1654  0215                     	;# 
  1655  0215                     	;# 
  1656  0215                     	;# 
  1657  0216                     	;# 
  1658  0216                     	;# 
  1659  0217                     	;# 
  1660  0217                     	;# 
  1661  0391                     	;# 
  1662  0392                     	;# 
  1663  0393                     	;# 
  1664  0394                     	;# 
  1665  0395                     	;# 
  1666  0396                     	;# 
  1667  039A                     	;# 
  1668  039B                     	;# 
  1669  0611                     	;# 
  1670  0612                     	;# 
  1671  0613                     	;# 
  1672  0613                     	;# 
  1673  0614                     	;# 
  1674  0615                     	;# 
  1675  0616                     	;# 
  1676  0616                     	;# 
  1677  0691                     	;# 
  1678  0692                     	;# 
  1679  0693                     	;# 
  1680  0694                     	;# 
  1681  0695                     	;# 
  1682  0E8E                     	;# 
  1683  0E8F                     	;# 
  1684  0E90                     	;# 
  1685  0E91                     	;# 
  1686  0E92                     	;# 
  1687  0E93                     	;# 
  1688  0E94                     	;# 
  1689  0E94                     	;# 
  1690  0E95                     	;# 
  1691  0E96                     	;# 
  1692  0E97                     	;# 
  1693  0E98                     	;# 
  1694  0E99                     	;# 
  1695  0E9A                     	;# 
  1696  0E9B                     	;# 
  1697  0E9C                     	;# 
  1698  0E9D                     	;# 
  1699  0E9E                     	;# 
  1700  0E9F                     	;# 
  1701  0FE4                     	;# 
  1702  0FE5                     	;# 
  1703  0FE6                     	;# 
  1704  0FE7                     	;# 
  1705  0FE8                     	;# 
  1706  0FE9                     	;# 
  1707  0FEA                     	;# 
  1708  0FEB                     	;# 
  1709  0FED                     	;# 
  1710  0FEE                     	;# 
  1711  0FEF                     	;# 
  1712  0000                     	;# 
  1713  0001                     	;# 
  1714  0002                     	;# 
  1715  0003                     	;# 
  1716  0004                     	;# 
  1717  0005                     	;# 
  1718  0006                     	;# 
  1719  0007                     	;# 
  1720  0008                     	;# 
  1721  0009                     	;# 
  1722  000A                     	;# 
  1723  000B                     	;# 
  1724  000C                     	;# 
  1725  000D                     	;# 
  1726  000E                     	;# 
  1727  0011                     	;# 
  1728  0012                     	;# 
  1729  0015                     	;# 
  1730  0016                     	;# 
  1731  0016                     	;# 
  1732  0017                     	;# 
  1733  0018                     	;# 
  1734  0019                     	;# 
  1735  001A                     	;# 
  1736  001B                     	;# 
  1737  001C                     	;# 
  1738  008C                     	;# 
  1739  008D                     	;# 
  1740  008E                     	;# 
  1741  0091                     	;# 
  1742  0092                     	;# 
  1743  0095                     	;# 
  1744  0096                     	;# 
  1745  0097                     	;# 
  1746  0098                     	;# 
  1747  0099                     	;# 
  1748  009A                     	;# 
  1749  009B                     	;# 
  1750  009B                     	;# 
  1751  009C                     	;# 
  1752  009D                     	;# 
  1753  009E                     	;# 
  1754  009F                     	;# 
  1755  010C                     	;# 
  1756  010D                     	;# 
  1757  010E                     	;# 
  1758  0111                     	;# 
  1759  0112                     	;# 
  1760  0113                     	;# 
  1761  0114                     	;# 
  1762  0115                     	;# 
  1763  0116                     	;# 
  1764  0117                     	;# 
  1765  0118                     	;# 
  1766  0119                     	;# 
  1767  011D                     	;# 
  1768  018C                     	;# 
  1769  018D                     	;# 
  1770  018E                     	;# 
  1771  0191                     	;# 
  1772  0191                     	;# 
  1773  0192                     	;# 
  1774  0193                     	;# 
  1775  0193                     	;# 
  1776  0194                     	;# 
  1777  0195                     	;# 
  1778  0196                     	;# 
  1779  0197                     	;# 
  1780  0199                     	;# 
  1781  019A                     	;# 
  1782  019B                     	;# 
  1783  019B                     	;# 
  1784  019C                     	;# 
  1785  019D                     	;# 
  1786  019E                     	;# 
  1787  019F                     	;# 
  1788  020C                     	;# 
  1789  020D                     	;# 
  1790  0211                     	;# 
  1791  0211                     	;# 
  1792  0212                     	;# 
  1793  0212                     	;# 
  1794  0213                     	;# 
  1795  0213                     	;# 
  1796  0214                     	;# 
  1797  0214                     	;# 
  1798  0215                     	;# 
  1799  0215                     	;# 
  1800  0215                     	;# 
  1801  0216                     	;# 
  1802  0216                     	;# 
  1803  0217                     	;# 
  1804  0217                     	;# 
  1805  0391                     	;# 
  1806  0392                     	;# 
  1807  0393                     	;# 
  1808  0394                     	;# 
  1809  0395                     	;# 
  1810  0396                     	;# 
  1811  039A                     	;# 
  1812  039B                     	;# 
  1813  0611                     	;# 
  1814  0612                     	;# 
  1815  0613                     	;# 
  1816  0613                     	;# 
  1817  0614                     	;# 
  1818  0615                     	;# 
  1819  0616                     	;# 
  1820  0616                     	;# 
  1821  0691                     	;# 
  1822  0692                     	;# 
  1823  0693                     	;# 
  1824  0694                     	;# 
  1825  0695                     	;# 
  1826  0E8E                     	;# 
  1827  0E8F                     	;# 
  1828  0E90                     	;# 
  1829  0E91                     	;# 
  1830  0E92                     	;# 
  1831  0E93                     	;# 
  1832  0E94                     	;# 
  1833  0E94                     	;# 
  1834  0E95                     	;# 
  1835  0E96                     	;# 
  1836  0E97                     	;# 
  1837  0E98                     	;# 
  1838  0E99                     	;# 
  1839  0E9A                     	;# 
  1840  0E9B                     	;# 
  1841  0E9C                     	;# 
  1842  0E9D                     	;# 
  1843  0E9E                     	;# 
  1844  0E9F                     	;# 
  1845  0FE4                     	;# 
  1846  0FE5                     	;# 
  1847  0FE6                     	;# 
  1848  0FE7                     	;# 
  1849  0FE8                     	;# 
  1850  0FE9                     	;# 
  1851  0FEA                     	;# 
  1852  0FEB                     	;# 
  1853  0FED                     	;# 
  1854  0FEE                     	;# 
  1855  0FEF                     	;_measarray
  1856                           
  1857                           	psect	idataBIGRAM
  1858  0000'                    __pidataBIGRAM:
  1859                           
  1860                           ;initializer for _measarray
  1861  0000' 3400               	retlw	0
  1862  0001' 3401               	retlw	1
  1863  0002' 3402               	retlw	2
  1864  0003' 3403               	retlw	3
  1865  0004' 3404               	retlw	4
  1866  0005' 3405               	retlw	5
  1867  0006' 3406               	retlw	6
  1868  0007' 3407               	retlw	7
  1869  0008' 3408               	retlw	8
  1870  0009' 3409               	retlw	9
  1871  000A' 340A               	retlw	10
  1872  000B' 340B               	retlw	11
  1873  000C' 340C               	retlw	12
  1874  000D' 340D               	retlw	13
  1875  000E' 340E               	retlw	14
  1876  000F' 340F               	retlw	15
  1877  0010' 3410               	retlw	16
  1878  0011' 3411               	retlw	17
  1879  0012' 3412               	retlw	18
  1880  0013' 3413               	retlw	19
  1881  0014' 3414               	retlw	20
  1882  0015' 3415               	retlw	21
  1883  0016' 3416               	retlw	22
  1884  0017' 3417               	retlw	23
  1885  0018' 3418               	retlw	24
  1886  0019' 3419               	retlw	25
  1887  001A' 341A               	retlw	26
  1888  001B' 341B               	retlw	27
  1889  001C' 341C               	retlw	28
  1890  001D' 341D               	retlw	29
  1891  001E' 341E               	retlw	30
  1892  001F' 341F               	retlw	31
  1893  0020' 3420               	retlw	32
  1894  0021' 3421               	retlw	33
  1895  0022' 3422               	retlw	34
  1896  0023' 3423               	retlw	35
  1897  0024' 3424               	retlw	36
  1898  0025' 3425               	retlw	37
  1899  0026' 3426               	retlw	38
  1900  0027' 3427               	retlw	39
  1901  0028' 3428               	retlw	40
  1902  0029' 3429               	retlw	41
  1903  002A' 342A               	retlw	42
  1904  002B' 342B               	retlw	43
  1905  002C' 342C               	retlw	44
  1906  002D' 342D               	retlw	45
  1907  002E' 342E               	retlw	46
  1908  002F' 342F               	retlw	47
  1909  0030' 3430               	retlw	48
  1910  0031' 3431               	retlw	49
  1911  0032' 3432               	retlw	50
  1912  0033' 3433               	retlw	51
  1913  0034' 3434               	retlw	52
  1914  0035' 3435               	retlw	53
  1915  0036' 3436               	retlw	54
  1916  0037' 3437               	retlw	55
  1917  0038' 3438               	retlw	56
  1918  0039' 3439               	retlw	57
  1919  003A' 343A               	retlw	58
  1920  003B' 343B               	retlw	59
  1921  003C' 343C               	retlw	60
  1922  003D' 343D               	retlw	61
  1923  003E' 343E               	retlw	62
  1924  003F' 343F               	retlw	63
  1925  0040' 3440               	retlw	64
  1926  0041' 3441               	retlw	65
  1927  0042' 3442               	retlw	66
  1928  0043' 3443               	retlw	67
  1929  0044' 3444               	retlw	68
  1930  0045' 3445               	retlw	69
  1931  0046' 3446               	retlw	70
  1932  0047' 3447               	retlw	71
  1933  0048' 3448               	retlw	72
  1934  0049' 3449               	retlw	73
  1935  004A' 344A               	retlw	74
  1936  004B' 344B               	retlw	75
  1937  004C' 344C               	retlw	76
  1938  004D' 344D               	retlw	77
  1939  004E' 344E               	retlw	78
  1940  004F' 344F               	retlw	79
  1941  0050' 3450               	retlw	80
  1942  0051' 3451               	retlw	81
  1943  0052' 3452               	retlw	82
  1944  0053' 3453               	retlw	83
  1945  0054' 3454               	retlw	84
  1946  0055' 3455               	retlw	85
  1947  0056' 3456               	retlw	86
  1948  0057' 3457               	retlw	87
  1949  0058' 3458               	retlw	88
  1950  0059' 3459               	retlw	89
  1951  005A' 345A               	retlw	90
  1952  005B' 345B               	retlw	91
  1953  005C' 345C               	retlw	92
  1954  005D' 345D               	retlw	93
  1955  005E' 345E               	retlw	94
  1956  005F' 345F               	retlw	95
  1957  0060' 3460               	retlw	96
  1958  0061' 3461               	retlw	97
  1959  0062' 3462               	retlw	98
  1960  0063' 3463               	retlw	99
  1961  0064' 3464               	retlw	100
  1962  0065' 3465               	retlw	101
  1963  0066' 3466               	retlw	102
  1964  0067' 3467               	retlw	103
  1965  0068' 3468               	retlw	104
  1966  0069' 3469               	retlw	105
  1967  006A' 346A               	retlw	106
  1968  006B' 346B               	retlw	107
  1969  006C' 346C               	retlw	108
  1970  006D' 346D               	retlw	109
  1971  006E' 346E               	retlw	110
  1972  006F' 346F               	retlw	111
  1973  0070' 3470               	retlw	112
  1974  0071' 3471               	retlw	113
  1975  0072' 3472               	retlw	114
  1976  0073' 3473               	retlw	115
  1977  0074' 3474               	retlw	116
  1978  0075' 3475               	retlw	117
  1979  0076' 3476               	retlw	118
  1980  0077' 3477               	retlw	119
  1981  0078' 3478               	retlw	120
  1982  0079' 3479               	retlw	121
  1983  007A' 347A               	retlw	122
  1984  007B' 347B               	retlw	123
  1985  007C' 347C               	retlw	124
  1986  007D' 347D               	retlw	125
  1987  007E' 347E               	retlw	126
  1988  007F' 347F               	retlw	127
  1989  0080' 3480               	retlw	128
  1990  0081' 3481               	retlw	129
  1991  0082' 3482               	retlw	130
  1992  0083' 3483               	retlw	131
  1993  0084' 3484               	retlw	132
  1994  0085' 3485               	retlw	133
  1995  0086' 3486               	retlw	134
  1996  0087' 3487               	retlw	135
  1997  0088' 3488               	retlw	136
  1998  0089' 3489               	retlw	137
  1999  008A' 348A               	retlw	138
  2000  008B' 348B               	retlw	139
  2001  008C' 348C               	retlw	140
  2002  008D' 348D               	retlw	141
  2003  008E' 348E               	retlw	142
  2004  008F' 348F               	retlw	143
  2005  0090' 3490               	retlw	144
  2006  0091' 3491               	retlw	145
  2007  0092' 3492               	retlw	146
  2008  0093' 3493               	retlw	147
  2009  0094' 3494               	retlw	148
  2010  0095' 3495               	retlw	149
  2011  0096' 3496               	retlw	150
  2012  0097' 3497               	retlw	151
  2013  0098' 3498               	retlw	152
  2014  0099' 3499               	retlw	153
  2015  009A' 349A               	retlw	154
  2016  009B' 349B               	retlw	155
  2017  009C' 349C               	retlw	156
  2018  009D' 349D               	retlw	157
  2019  009E' 349E               	retlw	158
  2020  009F' 349F               	retlw	159
  2021  00A0' 34A0               	retlw	160
  2022  00A1' 34A1               	retlw	161
  2023  00A2' 34A2               	retlw	162
  2024  00A3' 34A3               	retlw	163
  2025  00A4' 34A4               	retlw	164
  2026  00A5' 34A5               	retlw	165
  2027  00A6' 34A6               	retlw	166
  2028  00A7' 34A7               	retlw	167
  2029  00A8' 34A8               	retlw	168
  2030  00A9' 34A9               	retlw	169
  2031  00AA' 34AA               	retlw	170
  2032  00AB' 34AB               	retlw	171
  2033  00AC' 34AC               	retlw	172
  2034  00AD' 34AD               	retlw	173
  2035  00AE' 34AE               	retlw	174
  2036  00AF' 34AF               	retlw	175
  2037  00B0' 34B0               	retlw	176
  2038  00B1' 34B1               	retlw	177
  2039  00B2' 34B2               	retlw	178
  2040  00B3' 34B3               	retlw	179
  2041  00B4' 34B4               	retlw	180
  2042  00B5' 34B5               	retlw	181
  2043  00B6' 34B6               	retlw	182
  2044  00B7' 34B7               	retlw	183
  2045  00B8' 34B8               	retlw	184
  2046  00B9' 34B9               	retlw	185
  2047  00BA' 34BA               	retlw	186
  2048  00BB' 34BB               	retlw	187
  2049  00BC' 34BC               	retlw	188
  2050  00BD' 34BD               	retlw	189
  2051  00BE' 34BE               	retlw	190
  2052  00BF' 34BF               	retlw	191
  2053  00C0' 34C0               	retlw	192
  2054  00C1' 34C1               	retlw	193
  2055  00C2' 34C2               	retlw	194
  2056  00C3' 34C3               	retlw	195
  2057  00C4' 34C4               	retlw	196
  2058  00C5' 34C5               	retlw	197
  2059  00C6' 34C6               	retlw	198
  2060  00C7' 34C7               	retlw	199
  2061                           
  2062                           	psect	idataBANK4
  2063  0000'                    __pidataBANK4:
  2064                           
  2065                           ;initializer for _data
  2066  0000' 3400               	retlw	0
  2067  0001' 3401               	retlw	1
  2068  0002' 3402               	retlw	2
  2069  0003' 3403               	retlw	3
  2070  0004' 3404               	retlw	4
  2071  0005' 3405               	retlw	5
  2072  0006' 3406               	retlw	6
  2073  0007' 3407               	retlw	7
  2074  0008' 3408               	retlw	8
  2075  0009' 3409               	retlw	9
  2076  000A' 340A               	retlw	10
  2077  000B' 340B               	retlw	11
  2078  000C' 340C               	retlw	12
  2079  000D' 340D               	retlw	13
  2080  000E' 340E               	retlw	14
  2081  000F' 340F               	retlw	15
  2082  0010' 3410               	retlw	16
  2083  0011' 3411               	retlw	17
  2084  0012' 3412               	retlw	18
  2085  0013' 3413               	retlw	19
  2086  0014' 3414               	retlw	20
  2087  0015' 3415               	retlw	21
  2088  0016' 3416               	retlw	22
  2089  0017' 3417               	retlw	23
  2090  0018' 3418               	retlw	24
  2091  0019' 3419               	retlw	25
  2092  001A' 341A               	retlw	26
  2093  001B' 341B               	retlw	27
  2094  001C' 341C               	retlw	28
  2095  001D' 341D               	retlw	29
  2096  001E' 341E               	retlw	30
  2097  001F' 341F               	retlw	31
  2098                           
  2099                           	psect	stringtext1
  2100  0000'                    __pstringtext1:
  2101  0000'                    _USB_SD_Ptr:
  2102  0000' 3400'              	retlw	low (_sd000| (0+32768))
  2103  0001' 3400'              	retlw	high (_sd000| (0+32768))
  2104  0002' 3400'              	retlw	low (_sd001| (0+32768))
  2105  0003' 3400'              	retlw	high (_sd001| (0+32768))
  2106  0004' 3400'              	retlw	low (_sd002| (0+32768))
  2107  0005' 3400'              	retlw	high (_sd002| (0+32768))
  2108  0006' 3400'              	retlw	low (_sd003| (0+32768))
  2109  0007' 3400'              	retlw	high (_sd003| (0+32768))
  2110  0008'                    __end_of_USB_SD_Ptr:
  2111                           
  2112                           	psect	stringtext2
  2113  0000'                    __pstringtext2:
  2114  0000'                    _USB_CD_Ptr:
  2115  0000' 3400'              	retlw	low (_configDescriptor1| (0+32768))
  2116  0001' 3400'              	retlw	high (_configDescriptor1| (0+32768))
  2117  0002'                    __end_of_USB_CD_Ptr:
  2118                           
  2119                           	psect	stringtext3
  2120  0000'                    __pstringtext3:
  2121  0000'                    _configDescriptor1:
  2122  0000' 3409               	retlw	9
  2123  0001' 3402               	retlw	2
  2124  0002' 3443               	retlw	67
  2125  0003' 3400               	retlw	0
  2126  0004' 3402               	retlw	2
  2127  0005' 3401               	retlw	1
  2128  0006' 3400               	retlw	0
  2129  0007' 34C0               	retlw	192
  2130  0008' 3432               	retlw	50
  2131  0009' 3409               	retlw	9
  2132  000A' 3404               	retlw	4
  2133  000B' 3400               	retlw	0
  2134  000C' 3400               	retlw	0
  2135  000D' 3401               	retlw	1
  2136  000E' 3402               	retlw	2
  2137  000F' 3402               	retlw	2
  2138  0010' 3401               	retlw	1
  2139  0011' 3400               	retlw	0
  2140  0012' 3405               	retlw	5
  2141  0013' 3424               	retlw	36
  2142  0014' 3400               	retlw	0
  2143  0015' 3410               	retlw	16
  2144  0016' 3401               	retlw	1
  2145  0017' 3404               	retlw	4
  2146  0018' 3424               	retlw	36
  2147  0019' 3402               	retlw	2
  2148  001A' 3402               	retlw	2
  2149  001B' 3405               	retlw	5
  2150  001C' 3424               	retlw	36
  2151  001D' 3406               	retlw	6
  2152  001E' 3400               	retlw	0
  2153  001F' 3401               	retlw	1
  2154  0020' 3405               	retlw	5
  2155  0021' 3424               	retlw	36
  2156  0022' 3401               	retlw	1
  2157  0023' 3400               	retlw	0
  2158  0024' 3401               	retlw	1
  2159  0025' 3407               	retlw	7
  2160  0026' 3405               	retlw	5
  2161  0027' 3481               	retlw	129
  2162  0028' 3403               	retlw	3
  2163  0029' 340A               	retlw	10
  2164  002A' 3400               	retlw	0
  2165  002B' 3402               	retlw	2
  2166  002C' 3409               	retlw	9
  2167  002D' 3404               	retlw	4
  2168  002E' 3401               	retlw	1
  2169  002F' 3400               	retlw	0
  2170  0030' 3402               	retlw	2
  2171  0031' 340A               	retlw	10
  2172  0032' 3400               	retlw	0
  2173  0033' 3400               	retlw	0
  2174  0034' 3400               	retlw	0
  2175  0035' 3407               	retlw	7
  2176  0036' 3405               	retlw	5
  2177  0037' 3402               	retlw	2
  2178  0038' 3402               	retlw	2
  2179  0039' 3440               	retlw	64
  2180  003A' 3400               	retlw	0
  2181  003B' 3400               	retlw	0
  2182  003C' 3407               	retlw	7
  2183  003D' 3405               	retlw	5
  2184  003E' 3482               	retlw	130
  2185  003F' 3402               	retlw	2
  2186  0040' 3440               	retlw	64
  2187  0041' 3400               	retlw	0
  2188  0042' 3400               	retlw	0
  2189  0043'                    __end_of_configDescriptor1:
  2190                           
  2191                           	psect	stringtext4
  2192  0000'                    __pstringtext4:
  2193  0000'                    _sd001:
  2194  0000' 3434               	retlw	52
  2195  0001' 3403               	retlw	3
  2196  0002' 344D               	retlw	77
  2197  0003' 3400               	retlw	0
  2198  0004' 3469               	retlw	105
  2199  0005' 3400               	retlw	0
  2200  0006' 3463               	retlw	99
  2201  0007' 3400               	retlw	0
  2202  0008' 3472               	retlw	114
  2203  0009' 3400               	retlw	0
  2204  000A' 346F               	retlw	111
  2205  000B' 3400               	retlw	0
  2206  000C' 3463               	retlw	99
  2207  000D' 3400               	retlw	0
  2208  000E' 3468               	retlw	104
  2209  000F' 3400               	retlw	0
  2210  0010' 3469               	retlw	105
  2211  0011' 3400               	retlw	0
  2212  0012' 3470               	retlw	112
  2213  0013' 3400               	retlw	0
  2214  0014' 3420               	retlw	32
  2215  0015' 3400               	retlw	0
  2216  0016' 3454               	retlw	84
  2217  0017' 3400               	retlw	0
  2218  0018' 3465               	retlw	101
  2219  0019' 3400               	retlw	0
  2220  001A' 3463               	retlw	99
  2221  001B' 3400               	retlw	0
  2222  001C' 3468               	retlw	104
  2223  001D' 3400               	retlw	0
  2224  001E' 346E               	retlw	110
  2225  001F' 3400               	retlw	0
  2226  0020' 346F               	retlw	111
  2227  0021' 3400               	retlw	0
  2228  0022' 346C               	retlw	108
  2229  0023' 3400               	retlw	0
  2230  0024' 346F               	retlw	111
  2231  0025' 3400               	retlw	0
  2232  0026' 3467               	retlw	103
  2233  0027' 3400               	retlw	0
  2234  0028' 3479               	retlw	121
  2235  0029' 3400               	retlw	0
  2236  002A' 3420               	retlw	32
  2237  002B' 3400               	retlw	0
  2238  002C' 3449               	retlw	73
  2239  002D' 3400               	retlw	0
  2240  002E' 346E               	retlw	110
  2241  002F' 3400               	retlw	0
  2242  0030' 3463               	retlw	99
  2243  0031' 3400               	retlw	0
  2244  0032' 342E               	retlw	46
  2245  0033' 3400               	retlw	0
  2246  0034'                    __end_of_sd001:
  2247                           
  2248                           	psect	stringtext5
  2249  0000'                    __pstringtext5:
  2250  0000'                    _sd002:
  2251  0000' 3416               	retlw	22
  2252  0001' 3403               	retlw	3
  2253  0002' 3453               	retlw	83
  2254  0003' 3400               	retlw	0
  2255  0004' 346D               	retlw	109
  2256  0005' 3400               	retlw	0
  2257  0006' 3461               	retlw	97
  2258  0007' 3400               	retlw	0
  2259  0008' 3472               	retlw	114
  2260  0009' 3400               	retlw	0
  2261  000A' 3474               	retlw	116
  2262  000B' 3400               	retlw	0
  2263  000C' 3420               	retlw	32
  2264  000D' 3400               	retlw	0
  2265  000E' 3453               	retlw	83
  2266  000F' 3400               	retlw	0
  2267  0010' 3468               	retlw	104
  2268  0011' 3400               	retlw	0
  2269  0012' 346F               	retlw	111
  2270  0013' 3400               	retlw	0
  2271  0014' 3465               	retlw	101
  2272  0015' 3400               	retlw	0
  2273  0016'                    __end_of_sd002:
  2274                           
  2275                           	psect	stringtext6
  2276  0000'                    __pstringtext6:
  2277  0000'                    _device_dsc:
  2278  0000' 3412               	retlw	18
  2279  0001' 3401               	retlw	1
  2280  0002' 3400               	retlw	0
  2281  0003' 3402               	retlw	2
  2282  0004' 3402               	retlw	2
  2283  0005' 3400               	retlw	0
  2284  0006' 3400               	retlw	0
  2285  0007' 3408               	retlw	8
  2286  0008' 34D8               	retlw	216
  2287  0009' 3404               	retlw	4
  2288  000A' 340A               	retlw	10
  2289  000B' 3400               	retlw	0
  2290  000C' 3400               	retlw	0
  2291  000D' 3401               	retlw	1
  2292  000E' 3401               	retlw	1
  2293  000F' 3402               	retlw	2
  2294  0010' 3403               	retlw	3
  2295  0011' 3401               	retlw	1
  2296  0012'                    __end_of_device_dsc:
  2297                           
  2298                           	psect	stringtext7
  2299  0000'                    __pstringtext7:
  2300  0000'                    _sd003:
  2301  0000' 3408               	retlw	8
  2302  0001' 3403               	retlw	3
  2303  0002' 3431               	retlw	49
  2304  0003' 3400               	retlw	0
  2305  0004' 3432               	retlw	50
  2306  0005' 3400               	retlw	0
  2307  0006' 3434               	retlw	52
  2308  0007' 3400               	retlw	0
  2309  0008'                    __end_of_sd003:
  2310                           
  2311                           	psect	stringtext8
  2312  0000'                    __pstringtext8:
  2313  0000'                    _sd000:
  2314  0000' 3404               	retlw	4
  2315  0001' 3403               	retlw	3
  2316  0002' 3409               	retlw	9
  2317  0003' 3404               	retlw	4
  2318  0004'                    __end_of_sd000:
  2319                           
  2320                           	psect	nvBANK3
  2321  0000'                    __pnvBANK3:
  2322  0000'                    _IOCAF5_InterruptHandler:
  2323  0000'                    	ds	2
  2324  20C0                     _cdc_data_rx	set	8384
  2325  2080                     _cdc_data_tx	set	8320
  2326  0015                     _TMR0	set	21
  2327  0012                     _PIR2bits	set	18
  2328  0011                     _PIR1bits	set	17
  2329  000B                     _INTCONbits	set	11
  2330  0095                     _OPTION_REG	set	149
  2331  0095                     _OPTION_REGbits	set	149
  2332  008E                     _TRISC	set	142
  2333  008D                     _TRISB	set	141
  2334  008C                     _TRISA	set	140
  2335  0092                     _PIE2bits	set	146
  2336  009D                     _ADCON0bits	set	157
  2337  009D                     _ADCON0	set	157
  2338  009C                     _ADRESH	set	156
  2339  009B                     _ADRESL	set	155
  2340  009F                     _ADCON2	set	159
  2341  009E                     _ADCON1	set	158
  2342  0097                     _WDTCON	set	151
  2343  0098                     _OSCTUNE	set	152
  2344  0099                     _OSCCON	set	153
  2345  04D6                     _PLLRDY	set	1238
  2346  011D                     _APFCON	set	285
  2347  010E                     _LATC	set	270
  2348  010D                     _LATB	set	269
  2349  010C                     _LATA	set	268
  2350  0116                     _BORCON	set	278
  2351  018C                     _ANSELA	set	396
  2352  018D                     _ANSELB	set	397
  2353  018E                     _ANSELC	set	398
  2354  020C                     _WPUA	set	524
  2355  020D                     _WPUB	set	525
  2356  0211                     _SSPBUF	set	529
  2357  0216                     _SSPCON2bits	set	534
  2358  0211                     _SSP1BUF	set	529
  2359  0216                     _SSP1CON2bits	set	534
  2360  0215                     _SSP1CON1bits	set	533
  2361  0212                     _SSP1ADD	set	530
  2362  0216                     _SSP1CON2	set	534
  2363  0215                     _SSP1CON1	set	533
  2364  0214                     _SSP1STAT	set	532
  2365  0391                     _IOCAPbits	set	913
  2366  0392                     _IOCANbits	set	914
  2367  0393                     _IOCAFbits	set	915
  2368  039B                     _ACTCON	set	923
  2369  0E98                     _UEP0bits	set	3736
  2370  0E8E                     _UCON	set	3726
  2371  0E8F                     _USTAT	set	3727
  2372  0E92                     _UIEbits	set	3730
  2373  0E90                     _UIRbits	set	3728
  2374  0E96                     _UADDR	set	3734
  2375  0E8E                     _UCONbits	set	3726
  2376  0E92                     _UIE	set	3730
  2377  0E97                     _UEIE	set	3735
  2378  0E91                     _UCFG	set	3729
  2379  0E90                     _UIR	set	3728
  2380  0E93                     _UEIR	set	3731
  2381  0E99                     _UEP1	set	3737
  2382  0E98                     _UEP0	set	3736
  2383                           
  2384                           	psect	cinit
  2385  0000'                    start_initialization:	
  2386                           ; #config settings
  2387                           
  2388  0000'                    __initialization:	;BIGRAM
  2389                           
  2390                           ; Initialize objects allocated to BIGRAM
  2391  0000' 3000'              	movlw	low __pidataBIGRAM
  2392  0001' 0084               	movwf	4
  2393  0002' 3000'              	movlw	(high __pidataBIGRAM)| (0+128)
  2394  0003' 0085               	movwf	5
  2395  0004' 3028               	movlw	low (0+9000)
  2396  0005' 0086               	movwf	6
  2397  0006' 3023               	movlw	high (0+9000)
  2398  0007' 0087               	movwf	7
  2399  0008' 3000               	movlw	0
  2400  0009' 00FF               	movwf	btemp+1
  2401  000A' 30C8               	movlw	200
  2402  000B' 3180' 2000' 3180'  	fcall	init_ram
  2403                           
  2404                           ; Initialize objects allocated to BANK4
  2405  000E' 3000'              	movlw	low __pidataBANK4
  2406  000F' 0084               	movwf	4
  2407  0010' 3000'              	movlw	(high __pidataBANK4)| (0+128)
  2408  0011' 0085               	movwf	5
  2409  0012' 3000'              	movlw	low __pdataBANK4
  2410  0013' 0086               	movwf	6
  2411  0014' 3000'              	movlw	high __pdataBANK4
  2412  0015' 0087               	movwf	7
  2413  0016' 3000               	movlw	0
  2414  0017' 00FF               	movwf	btemp+1
  2415  0018' 3020               	movlw	32
  2416  0019' 3180' 2000' 3180'  	fcall	init_ram
  2417                           
  2418                           ; Clear objects allocated to BANK1
  2419  001C' 3000'              	movlw	low __pbssBANK1
  2420  001D' 0084               	movwf	4
  2421  001E' 3000'              	movlw	high __pbssBANK1
  2422  001F' 0085               	movwf	5
  2423  0020' 301C               	movlw	28
  2424  0021' 00FE               	movwf	btemp
  2425  0022' 3000               	movlw	0
  2426  0023' 00FF               	movwf	btemp+1
  2427  0024' 3180' 2000' 3180'  	fcall	clear_ram0
  2428                           
  2429                           ; Clear objects allocated to BANK3
  2430  0027' 3000'              	movlw	low __pbssBANK3
  2431  0028' 0084               	movwf	4
  2432  0029' 3000'              	movlw	high __pbssBANK3
  2433  002A' 0085               	movwf	5
  2434  002B' 303E               	movlw	62
  2435  002C' 00FE               	movwf	btemp
  2436  002D' 3000               	movlw	0
  2437  002E' 00FF               	movwf	btemp+1
  2438  002F' 3180' 2000' 3180'  	fcall	clear_ram0
  2439                           
  2440                           ; Clear objects allocated to BANK4
  2441  0032' 3000'              	movlw	low __pbssBANK4
  2442  0033' 0084               	movwf	4
  2443  0034' 3000'              	movlw	high __pbssBANK4
  2444  0035' 0085               	movwf	5
  2445  0036' 3016               	movlw	22
  2446  0037' 00FE               	movwf	btemp
  2447  0038' 3000               	movlw	0
  2448  0039' 00FF               	movwf	btemp+1
  2449  003A' 3180' 2000' 3180'  	fcall	clear_ram0
  2450                           
  2451                           ; Clear objects allocated to BANK5
  2452  003D' 3000'              	movlw	low __pbssBANK5
  2453  003E' 0084               	movwf	4
  2454  003F' 3000'              	movlw	high __pbssBANK5
  2455  0040' 0085               	movwf	5
  2456  0041' 3040               	movlw	64
  2457  0042' 00FE               	movwf	btemp
  2458  0043' 3000               	movlw	0
  2459  0044' 00FF               	movwf	btemp+1
  2460  0045' 3180' 2000' 3180'  	fcall	clear_ram0
  2461                           
  2462                           ; Clear objects allocated to BANK6
  2463  0048' 3000'              	movlw	low __pbssBANK6
  2464  0049' 0084               	movwf	4
  2465  004A' 3000'              	movlw	high __pbssBANK6
  2466  004B' 0085               	movwf	5
  2467  004C' 3040               	movlw	64
  2468  004D' 00FE               	movwf	btemp
  2469  004E' 3000               	movlw	0
  2470  004F' 00FF               	movwf	btemp+1
  2471  0050' 3180' 2000' 3180'  	fcall	clear_ram0
  2472  0053'                    end_of_initialization:	
  2473                           ;End of C runtime variable initialization code
  2474                           
  2475  0053'                    __end_of__initialization:
  2476  0053' 107E               	bcf	int$flags,0	;clear compiler interrupt flag (level 1)
  2477  0054' 0020               	movlb	0
  2478  0055' 3180' 2800'        	ljmp	_main	;jump to C main() function
  2479                           
  2480                           	psect	bssBANK1
  2481  0000'                    __pbssBANK1:
  2482  0000'                    _outPipes:
  2483  0000'                    	ds	7
  2484  0007'                    _pBDTEntryIn:
  2485  0007'                    	ds	6
  2486  000D'                    _inPipes:
  2487  000D'                    	ds	5
  2488  0012'                    _pBDTEntryEP0OutNext:
  2489  0012'                    	ds	2
  2490  0014'                    _cdc_trf_state:
  2491  0014'                    	ds	1
  2492  0015'                    _endpoint_number:
  2493  0015'                    	ds	1
  2494  0016'                    _controlTransferState:
  2495  0016'                    	ds	1
  2496  0017'                    _shortPacketStatus:
  2497  0017'                    	ds	1
  2498  0018'                    _pBDTEntryEP0OutCurrent:
  2499  0018'                    	ds	1
  2500  0019'                    _USBDeviceState:
  2501  0019'                    	ds	1
  2502  001A'                    _USTATcopy:
  2503  001A'                    	ds	1
  2504  001B'                    _USBActiveConfiguration:
  2505  001B'                    	ds	1
  2506                           
  2507                           	psect	bssBANK3
  2508  0000'                    __pbssBANK3:
  2509  0000'                    _pBDTEntryOut:
  2510  0000'                    	ds	6
  2511  0006'                    _USB1msTickCount:
  2512  0006'                    	ds	4
  2513  000A'                    _ep_data_out:
  2514  000A'                    	ds	3
  2515  000D'                    _ep_data_in:
  2516  000D'                    	ds	3
  2517  0010'                    _CDCDataInHandle:
  2518  0010'                    	ds	2
  2519  0012'                    _CDCDataOutHandle:
  2520  0012'                    	ds	2
  2521  0014'                    _pCDCDst:
  2522  0014'                    	ds	2
  2523  0016'                    _pCDCSrc:
  2524  0016'                    	ds	2
  2525  0018'                    _TMR0_InterruptHandler:
  2526  0018'                    	ds	2
  2527  001A'                    _waitforsleep_count:
  2528  001A'                    	ds	2
  2529  001C'                    _counter:
  2530  001C'                    	ds	2
  2531  001E'                    _ADC_InterruptHandler:
  2532  001E'                    	ds	2
  2533  0020'                    _control_signal_bitmap:
  2534  0020'                    	ds	1
  2535  0021'                    _cdc_mem_type:
  2536  0021'                    	ds	1
  2537  0022'                    _cdc_tx_len:
  2538  0022'                    	ds	1
  2539  0023'                    _cdc_rx_len:
  2540  0023'                    	ds	1
  2541  0024'                    _timer0ReloadVal:
  2542  0024'                    	ds	1
  2543  0025'                    _measurement_count:
  2544  0025'                    	ds	1
  2545  0026'                    _USBTicksSinceSuspendEnd:
  2546  0026'                    	ds	1
  2547  0027'                    _USBDeferOUTDataStagePackets:
  2548  0027'                    	ds	1
  2549  0028'                    _USBDeferINDataStagePackets:
  2550  0028'                    	ds	1
  2551  0029'                    _USBStatusStageEnabledFlag2:
  2552  0029'                    	ds	1
  2553  002A'                    _USBStatusStageEnabledFlag1:
  2554  002A'                    	ds	1
  2555  002B'                    _USBDeferStatusStagePacket:
  2556  002B'                    	ds	1
  2557  002C'                    _USBStatusStageTimeoutCounter:
  2558  002C'                    	ds	1
  2559  002D'                    _BothEP0OutUOWNsSet:
  2560  002D'                    	ds	1
  2561  002E'                    _USBBusIsSuspended:
  2562  002E'                    	ds	1
  2563  002F'                    _RemoteWakeup:
  2564  002F'                    	ds	1
  2565  0030'                    _pDst:
  2566  0030'                    	ds	1
  2567  0031'                    _byte:
  2568  0031'                    	ds	1
  2569  0032'                    _writeout_flag:
  2570  0032'                    	ds	1
  2571  0033'                    _sleep_flag:
  2572  0033'                    	ds	1
  2573  0034'                    _measurement_flag:
  2574  0034'                    	ds	1
  2575  0035'                    _line_coding:
  2576  0035'                    	ds	7
  2577  003C'                    _USBAlternateInterface:
  2578  003C'                    	ds	2
  2579                           
  2580                           	psect	bssBANK4
  2581  0000'                    __pbssBANK4:
  2582  0000'                    _cdc_notice:
  2583  0000'                    	ds	10
  2584  000A'                    _BaudRateGen:
  2585  000A'                    	ds	4
  2586  000E'                    _dummy_encapsulated_cmd_response:
  2587  000E'                    	ds	8
  2588                           
  2589                           	psect	dataBANK4
  2590  0000'                    __pdataBANK4:
  2591  0000'                    _data:
  2592  0000'                    	ds	32
  2593                           
  2594                           	psect	bssBANK5
  2595  0000'                    __pbssBANK5:
  2596  0000'                    _readBuffer:
  2597  0000'                    	ds	64
  2598                           
  2599                           	psect	bssBANK6
  2600  0000'                    __pbssBANK6:
  2601  0000'                    _writeBuffer:
  2602  0000'                    	ds	64
  2603                           
  2604                           	psect	inittext
  2605  0000'                    init_ram:
  2606  0000' 00FE               	movwf	btemp
  2607  0001'                    initloop:
  2608  0001' 0012               	moviw fsr0++
  2609  0002' 001E               	movwi fsr1++
  2610  0003' 3001               	movlw	1
  2611  0004' 02FE               	subwf	btemp,f
  2612  0005' 3000               	movlw	0
  2613  0006' 3BFF               	subwfb	btemp+1,f
  2614  0007' 087F               	movf	btemp+1,w
  2615  0008' 047E               	iorwf	btemp,w
  2616  0009' 1D03               	skipz
  2617  000A' 2800'              	goto	initloop
  2618  000B' 3400               	retlw	0
  2619                           
  2620                           	psect	clrtext
  2621  0000'                    clear_ram0:	
  2622                           ;	Called with FSR0 containing the base address, and
  2623                           ;	btemp/btemp+1 has the size to clear
  2624                           
  2625  0000' 0064               	clrwdt	;clear the watchdog before getting into this loop
  2626  0001'                    clrloop0:
  2627  0001' 0180               	clrf	0	;clear RAM location pointed to by FSR
  2628  0002' 3101               	addfsr 0,1
  2629  0003' 3001               	movlw	1
  2630  0004' 02FE               	subwf	btemp,f
  2631  0005' 3000               	movlw	0
  2632  0006' 3BFF               	subwfb	btemp+1,f
  2633  0007' 087F               	movf	btemp+1,w
  2634  0008' 047E               	iorwf	btemp,w
  2635  0009' 1D03               	skipz
  2636  000A' 2800'              	goto	clrloop0	;have we reached the end yet?
  2637  000B' 3400               	retlw	0	;all done for this memory range, return
  2638                           
  2639                           	psect	cstackBANK4
  2640  0000'                    __pcstackBANK4:
  2641  0000'                    ??_eeprom_storeBurstGroup:
  2642                           
  2643                           ; 1 bytes @ 0x0
  2644  0000'                    	ds	6
  2645                           
  2646                           	psect	cstackBANK1
  2647  0000'                    __pcstackBANK1:
  2648  0000'                    ??_USBCtrlEPService:
  2649                           
  2650                           ; 1 bytes @ 0x0
  2651  0000'                    	ds	2
  2652  0002'                    ??_USBDeviceTasks:
  2653                           
  2654                           ; 1 bytes @ 0x2
  2655  0002'                    	ds	2
  2656  0004'                    USBDeviceTasks@i:
  2657                           
  2658                           ; 1 bytes @ 0x4
  2659  0004'                    	ds	1
  2660  0005'                    ??_I2C_Initialize:
  2661  0005'                    ??_I2C_MasterStart:	
  2662                           ; 1 bytes @ 0x5
  2663                           
  2664  0005'                    ??_I2C_MasterWrite:	
  2665                           ; 1 bytes @ 0x5
  2666                           
  2667  0005'                    ??_I2C_MasterStop:	
  2668                           ; 1 bytes @ 0x5
  2669                           
  2670  0005'                    ??_OSCILLATOR_Initialize:	
  2671                           ; 1 bytes @ 0x5
  2672                           
  2673  0005'                    ??_WDT_Initialize:	
  2674                           ; 1 bytes @ 0x5
  2675                           
  2676  0005'                    ??_USBDeviceInit:	
  2677                           ; 1 bytes @ 0x5
  2678                           
  2679  0005'                    ??_ADC_Initialize:	
  2680                           ; 1 bytes @ 0x5
  2681                           
  2682  0005'                    ??_USBDeviceAttach:	
  2683                           ; 1 bytes @ 0x5
  2684                           
  2685  0005'                    ?_IOCAF5_SetInterruptHandler:	
  2686                           ; 1 bytes @ 0x5
  2687                           
  2688  0005'                    ?_TMR0_SetInterruptHandler:	
  2689                           ; 1 bytes @ 0x5
  2690                           
  2691  0005'                    ??_I2C_WaitForCompletion:	
  2692                           ; 1 bytes @ 0x5
  2693                           
  2694  0005'                    I2C_MasterWrite@data:	
  2695                           ; 1 bytes @ 0x5
  2696                           
  2697  0005'                    IOCAF5_SetInterruptHandler@InterruptHandler:	
  2698                           ; 1 bytes @ 0x5
  2699                           
  2700  0005'                    TMR0_SetInterruptHandler@InterruptHandler:	
  2701                           ; 2 bytes @ 0x5
  2702                           
  2703                           
  2704                           ; 2 bytes @ 0x5
  2705  0005'                    	ds	1
  2706  0006'                    ?_eeprom_storeBurstGroup:
  2707  0006'                    ??_ACK_Poll:	
  2708                           ; 1 bytes @ 0x6
  2709                           
  2710  0006'                    eeprom_storeBurstGroup@address:	
  2711                           ; 1 bytes @ 0x6
  2712                           
  2713  0006'                    USBDeviceInit@p:	
  2714                           ; 2 bytes @ 0x6
  2715                           
  2716                           
  2717                           ; 2 bytes @ 0x6
  2718  0006'                    	ds	1
  2719  0007'                    ??_PIN_MANAGER_Initialize:
  2720  0007'                    ??_TMR0_Initialize:	
  2721                           ; 1 bytes @ 0x7
  2722                           
  2723  0007'                    ??_IOCAF5_SetInterruptHandler:	
  2724                           ; 1 bytes @ 0x7
  2725                           
  2726  0007'                    ??_TMR0_SetInterruptHandler:	
  2727                           ; 1 bytes @ 0x7
  2728                           
  2729                           
  2730                           ; 1 bytes @ 0x7
  2731  0007'                    	ds	1
  2732  0008'                    USBDeviceInit@i_1026:
  2733  0008'                    eeprom_storeBurstGroup@data:	
  2734                           ; 1 bytes @ 0x8
  2735                           
  2736                           
  2737                           ; 2 bytes @ 0x8
  2738  0008'                    	ds	1
  2739  0009'                    USBDeviceInit@i:
  2740                           
  2741                           ; 1 bytes @ 0x9
  2742  0009'                    	ds	1
  2743  000A'                    ??_SYSTEM_Initialize:
  2744                           
  2745                           ; 1 bytes @ 0xA
  2746  000A'                    	ds	1
  2747  000B'                    eeprom_storeBurstGroup@addresslsb:
  2748                           
  2749                           ; 1 bytes @ 0xB
  2750  000B'                    	ds	1
  2751  000C'                    eeprom_storeBurstGroup@column:
  2752                           
  2753                           ; 1 bytes @ 0xC
  2754  000C'                    	ds	1
  2755  000D'                    eeprom_storeBurstGroup@row:
  2756                           
  2757                           ; 1 bytes @ 0xD
  2758  000D'                    	ds	1
  2759  000E'                    ??_main:
  2760                           
  2761                           	psect	cstackCOMMON
  2762  0000'                    __pcstackCOMMON:	
  2763                           ; 1 bytes @ 0xE
  2764                           
  2765  0000'                    ?_SYSTEM_Initialize:
  2766  0000'                    ?_I2C_Initialize:	
  2767                           ; 1 bytes @ 0x0
  2768                           
  2769  0000'                    ?_I2C_MasterStart:	
  2770                           ; 1 bytes @ 0x0
  2771                           
  2772  0000'                    ?_I2C_MasterWrite:	
  2773                           ; 1 bytes @ 0x0
  2774                           
  2775  0000'                    ?_I2C_MasterStop:	
  2776                           ; 1 bytes @ 0x0
  2777                           
  2778  0000'                    ?_PIN_MANAGER_Initialize:	
  2779                           ; 1 bytes @ 0x0
  2780                           
  2781  0000'                    ?_OSCILLATOR_Initialize:	
  2782                           ; 1 bytes @ 0x0
  2783                           
  2784  0000'                    ?_WDT_Initialize:	
  2785                           ; 1 bytes @ 0x0
  2786                           
  2787  0000'                    ?_USBDeviceInit:	
  2788                           ; 1 bytes @ 0x0
  2789                           
  2790  0000'                    ?_ADC_Initialize:	
  2791                           ; 1 bytes @ 0x0
  2792                           
  2793  0000'                    ?_TMR0_Initialize:	
  2794                           ; 1 bytes @ 0x0
  2795                           
  2796  0000'                    ?_USBDeviceAttach:	
  2797                           ; 1 bytes @ 0x0
  2798                           
  2799  0000'                    ?_USBWakeFromSuspend:	
  2800                           ; 1 bytes @ 0x0
  2801                           
  2802  0000'                    ?_USBSuspend:	
  2803                           ; 1 bytes @ 0x0
  2804                           
  2805  0000'                    ?_USBIncrement1msInternalTimers:	
  2806                           ; 1 bytes @ 0x0
  2807                           
  2808  0000'                    ??_USBIncrement1msInternalTimers:	
  2809                           ; 1 bytes @ 0x0
  2810                           
  2811  0000'                    ?_USBCtrlEPAllowStatusStage:	
  2812                           ; 1 bytes @ 0x0
  2813                           
  2814  0000'                    ??_USBCtrlEPAllowStatusStage:	
  2815                           ; 1 bytes @ 0x0
  2816                           
  2817  0000'                    ?_USBStallHandler:	
  2818                           ; 1 bytes @ 0x0
  2819                           
  2820  0000'                    ??_USBStallHandler:	
  2821                           ; 1 bytes @ 0x0
  2822                           
  2823  0000'                    ?_USBCtrlEPService:	
  2824                           ; 1 bytes @ 0x0
  2825                           
  2826  0000'                    ?_USBConfigureEndpoint:	
  2827                           ; 1 bytes @ 0x0
  2828                           
  2829  0000'                    ?_USBCtrlTrfTxService:	
  2830                           ; 1 bytes @ 0x0
  2831                           
  2832  0000'                    ??_USBCtrlTrfTxService:	
  2833                           ; 1 bytes @ 0x0
  2834                           
  2835  0000'                    ?_memcpy:	
  2836                           ; 1 bytes @ 0x0
  2837                           
  2838  0000'                    ?_USBCtrlTrfSetupHandler:	
  2839                           ; 1 bytes @ 0x0
  2840                           
  2841  0000'                    ?_USBCtrlTrfOutHandler:	
  2842                           ; 1 bytes @ 0x0
  2843                           
  2844  0000'                    ?_USBCtrlTrfInHandler:	
  2845                           ; 1 bytes @ 0x0
  2846                           
  2847  0000'                    ?_USBCheckStdRequest:	
  2848                           ; 1 bytes @ 0x0
  2849                           
  2850  0000'                    ?_USBStdFeatureReqHandler:	
  2851                           ; 1 bytes @ 0x0
  2852                           
  2853  0000'                    ?_IOCAF5_DefaultInterruptHandler:	
  2854                           ; 1 bytes @ 0x0
  2855                           
  2856  0000'                    ??_IOCAF5_DefaultInterruptHandler:	
  2857                           ; 1 bytes @ 0x0
  2858                           
  2859  0000'                    ?_IOCAF5_ISR:	
  2860                           ; 1 bytes @ 0x0
  2861                           
  2862  0000'                    ??_IOCAF5_ISR:	
  2863                           ; 1 bytes @ 0x0
  2864                           
  2865  0000'                    ?_TMR0_DefaultInterruptHandler:	
  2866                           ; 1 bytes @ 0x0
  2867                           
  2868  0000'                    ??_TMR0_DefaultInterruptHandler:	
  2869                           ; 1 bytes @ 0x0
  2870                           
  2871  0000'                    ?_main:	
  2872                           ; 1 bytes @ 0x0
  2873                           
  2874  0000'                    ?_ACK_Poll:	
  2875                           ; 1 bytes @ 0x0
  2876                           
  2877  0000'                    ?_I2C_WaitForCompletion:	
  2878                           ; 1 bytes @ 0x0
  2879                           
  2880  0000'                    ?_USBDeviceTasks:	
  2881                           ; 1 bytes @ 0x0
  2882                           
  2883  0000'                    ?_USBCtrlEPAllowDataStage:	
  2884                           ; 1 bytes @ 0x0
  2885                           
  2886  0000'                    ?_USBCtrlEPServiceComplete:	
  2887                           ; 1 bytes @ 0x0
  2888                           
  2889  0000'                    ?_USBCtrlTrfRxService:	
  2890                           ; 1 bytes @ 0x0
  2891                           
  2892  0000'                    ?_USBStdSetCfgHandler:	
  2893                           ; 1 bytes @ 0x0
  2894                           
  2895  0000'                    ?_USBStdGetDscHandler:	
  2896                           ; 1 bytes @ 0x0
  2897                           
  2898  0000'                    ??_USBStdGetDscHandler:	
  2899                           ; 1 bytes @ 0x0
  2900                           
  2901  0000'                    ?_USBStdGetStatusHandler:	
  2902                           ; 1 bytes @ 0x0
  2903                           
  2904  0000'                    ??_USBStdGetStatusHandler:	
  2905                           ; 1 bytes @ 0x0
  2906                           
  2907  0000'                    ?_PIN_MANAGER_IOC:	
  2908                           ; 1 bytes @ 0x0
  2909                           
  2910  0000'                    ??_PIN_MANAGER_IOC:	
  2911                           ; 1 bytes @ 0x0
  2912                           
  2913  0000'                    ?_TMR0_ISR:	
  2914                           ; 1 bytes @ 0x0
  2915                           
  2916  0000'                    ??_TMR0_ISR:	
  2917                           ; 1 bytes @ 0x0
  2918                           
  2919  0000'                    ?_INTERRUPT_InterruptManager:	
  2920                           ; 1 bytes @ 0x0
  2921                           
  2922  0000'                    ?_USBCheckCDCRequest:	
  2923                           ; 1 bytes @ 0x0
  2924                           
  2925  0000'                    ??_USBCheckCDCRequest:	
  2926                           ; 1 bytes @ 0x0
  2927                           
  2928  0000'                    ?_CDCInitEP:	
  2929                           ; 1 bytes @ 0x0
  2930                           
  2931  0000'                    ?i1_USBDeviceInit:	
  2932                           ; 1 bytes @ 0x0
  2933                           
  2934  0000'                    ??i1_USBDeviceInit:	
  2935                           ; 1 bytes @ 0x0
  2936                           
  2937  0000'                    ?_memset:	
  2938                           ; 1 bytes @ 0x0
  2939                           
  2940  0000'                    ?_USBTransferOnePacket:	
  2941                           ; 2 bytes @ 0x0
  2942                           
  2943  0000'                    USBTransferOnePacket@dir:	
  2944                           ; 2 bytes @ 0x0
  2945                           
  2946  0000'                    USBConfigureEndpoint@direction:	
  2947                           ; 1 bytes @ 0x0
  2948                           
  2949  0000'                    memcpy@s1:	
  2950                           ; 1 bytes @ 0x0
  2951                           
  2952  0000'                    memset@dest:	
  2953                           ; 2 bytes @ 0x0
  2954                           
  2955                           
  2956                           ; 2 bytes @ 0x0
  2957  0000'                    	ds	1
  2958  0001'                    ??_USBConfigureEndpoint:
  2959  0001'                    USBTransferOnePacket@data:	
  2960                           ; 1 bytes @ 0x1
  2961                           
  2962  0001'                    i1USBDeviceInit@p:	
  2963                           ; 2 bytes @ 0x1
  2964                           
  2965                           
  2966                           ; 2 bytes @ 0x1
  2967  0001'                    	ds	1
  2968  0002'                    ??_USBCtrlTrfRxService:
  2969  0002'                    USBCtrlTrfTxService@byteToSend:	
  2970                           ; 1 bytes @ 0x2
  2971                           
  2972  0002'                    USBStdGetStatusHandler@p:	
  2973                           ; 1 bytes @ 0x2
  2974                           
  2975  0002'                    memcpy@n:	
  2976                           ; 2 bytes @ 0x2
  2977                           
  2978  0002'                    memset@c:	
  2979                           ; 2 bytes @ 0x2
  2980                           
  2981                           
  2982                           ; 2 bytes @ 0x2
  2983  0002'                    	ds	1
  2984  0003'                    ??_USBCtrlTrfInHandler:
  2985  0003'                    ??_USBCtrlEPAllowDataStage:	
  2986                           ; 1 bytes @ 0x3
  2987                           
  2988  0003'                    USBTransferOnePacket@len:	
  2989                           ; 1 bytes @ 0x3
  2990                           
  2991  0003'                    i1USBDeviceInit@i_1026:	
  2992                           ; 1 bytes @ 0x3
  2993                           
  2994                           
  2995                           ; 1 bytes @ 0x3
  2996  0003'                    	ds	1
  2997  0004'                    ??_memcpy:
  2998  0004'                    ??_USBTransferOnePacket:	
  2999                           ; 1 bytes @ 0x4
  3000                           
  3001  0004'                    USBCtrlTrfRxService@i:	
  3002                           ; 1 bytes @ 0x4
  3003                           
  3004  0004'                    i1USBDeviceInit@i:	
  3005                           ; 1 bytes @ 0x4
  3006                           
  3007  0004'                    memset@n:	
  3008                           ; 1 bytes @ 0x4
  3009                           
  3010                           
  3011                           ; 2 bytes @ 0x4
  3012  0004'                    	ds	1
  3013  0005'                    ??_USBCtrlEPServiceComplete:
  3014  0005'                    USBConfigureEndpoint@EPNum:	
  3015                           ; 1 bytes @ 0x5
  3016                           
  3017  0005'                    USBCtrlTrfRxService@byteToRead:	
  3018                           ; 1 bytes @ 0x5
  3019                           
  3020  0005'                    USBCtrlTrfInHandler@lastDTS:	
  3021                           ; 1 bytes @ 0x5
  3022                           
  3023  0005'                    memcpy@s:	
  3024                           ; 1 bytes @ 0x5
  3025                           
  3026                           
  3027                           ; 2 bytes @ 0x5
  3028  0005'                    	ds	1
  3029  0006'                    ??_memset:
  3030  0006'                    ??_USBCtrlTrfOutHandler:	
  3031                           ; 1 bytes @ 0x6
  3032                           
  3033  0006'                    USBConfigureEndpoint@handle:	
  3034                           ; 1 bytes @ 0x6
  3035                           
  3036                           
  3037                           ; 1 bytes @ 0x6
  3038  0006'                    	ds	1
  3039  0007'                    ?_USBEnableEndpoint:
  3040  0007'                    USBEnableEndpoint@options:	
  3041                           ; 1 bytes @ 0x7
  3042                           
  3043  0007'                    memcpy@tmp:	
  3044                           ; 1 bytes @ 0x7
  3045                           
  3046                           
  3047                           ; 1 bytes @ 0x7
  3048  0007'                    	ds	1
  3049  0008'                    ??_USBEnableEndpoint:
  3050  0008'                    USBTransferOnePacket@ep:	
  3051                           ; 1 bytes @ 0x8
  3052                           
  3053  0008'                    memcpy@d1:	
  3054                           ; 1 bytes @ 0x8
  3055                           
  3056                           
  3057                           ; 1 bytes @ 0x8
  3058  0008'                    	ds	1
  3059  0009'                    memcpy@d:
  3060  0009'                    USBTransferOnePacket@handle:	
  3061                           ; 1 bytes @ 0x9
  3062                           
  3063                           
  3064                           ; 2 bytes @ 0x9
  3065  0009'                    	ds	1
  3066  000A'                    USBEnableEndpoint@p:
  3067  000A'                    memset@k:	
  3068                           ; 2 bytes @ 0xA
  3069                           
  3070                           
  3071                           ; 2 bytes @ 0xA
  3072  000A'                    	ds	2
  3073  000C'                    USBEnableEndpoint@ep:
  3074  000C'                    memset@s:	
  3075                           ; 1 bytes @ 0xC
  3076                           
  3077                           
  3078                           ; 2 bytes @ 0xC
  3079  000C'                    	ds	1
  3080  000D'                    ??_CDCInitEP:
  3081                           
  3082                           ; 1 bytes @ 0xD
  3083  000D'                    	ds	1
  3084  000E'                    ??_USER_USB_CALLBACK_EVENT_HANDLER:
  3085  000E'                    ??_INTERRUPT_InterruptManager:	
  3086                           ; 1 bytes @ 0xE
  3087                           
  3088                           
  3089                           	psect	cstackBANK0
  3090  0000'                    __pcstackBANK0:	
  3091                           ; 1 bytes @ 0xE
  3092                           
  3093  0000'                    ?_USER_USB_CALLBACK_EVENT_HANDLER:
  3094  0000'                    USER_USB_CALLBACK_EVENT_HANDLER@event:	
  3095                           ; 1 bytes @ 0x0
  3096                           
  3097                           
  3098                           ; 2 bytes @ 0x0
  3099  0000'                    	ds	2
  3100  0002'                    USER_USB_CALLBACK_EVENT_HANDLER@pdata:
  3101                           
  3102                           ; 2 bytes @ 0x2
  3103  0002'                    	ds	2
  3104  0004'                    USER_USB_CALLBACK_EVENT_HANDLER@size:
  3105                           
  3106                           ; 2 bytes @ 0x4
  3107  0004'                    	ds	2
  3108  0006'                    ??_USBWakeFromSuspend:
  3109  0006'                    ??_USBSuspend:	
  3110                           ; 1 bytes @ 0x6
  3111                           
  3112  0006'                    ??_USBStdFeatureReqHandler:	
  3113                           ; 1 bytes @ 0x6
  3114                           
  3115  0006'                    ??_USBStdSetCfgHandler:	
  3116                           ; 1 bytes @ 0x6
  3117                           
  3118                           
  3119                           ; 1 bytes @ 0x6
  3120  0006'                    	ds	1
  3121  0007'                    USBStdSetCfgHandler@p:
  3122                           
  3123                           ; 2 bytes @ 0x7
  3124  0007'                    	ds	1
  3125  0008'                    USBStdFeatureReqHandler@pUEP:
  3126                           
  3127                           ; 2 bytes @ 0x8
  3128  0008'                    	ds	1
  3129  0009'                    USBStdSetCfgHandler@i_1762:
  3130                           
  3131                           ; 1 bytes @ 0x9
  3132  0009'                    	ds	1
  3133  000A'                    USBStdSetCfgHandler@i:
  3134  000A'                    USBStdFeatureReqHandler@current_ep_data:	
  3135                           ; 1 bytes @ 0xA
  3136                           
  3137                           
  3138                           ; 1 bytes @ 0xA
  3139  000A'                    	ds	1
  3140  000B'                    USBStdFeatureReqHandler@p:
  3141                           
  3142                           ; 2 bytes @ 0xB
  3143  000B'                    	ds	2
  3144  000D'                    ??_USBCheckStdRequest:
  3145                           
  3146                           ; 1 bytes @ 0xD
  3147  000D'                    	ds	2
  3148  000F'                    ??_USBCtrlTrfSetupHandler:
  3149                           
  3150                           ; 1 bytes @ 0xF
  3151  000F'                    	ds	1
  3152                           
  3153                           	psect	maintext
  3154  0000'                    __pmaintext:	
  3155 ;;
  3156 ;;Main: autosize = 0, tempsize = 0, incstack = 0, save=0
  3157 ;;
  3158 ;; *************** function _main *****************
  3159 ;; Defined at:
  3160 ;;		line 64 in file "main.c"
  3161 ;; Parameters:    Size  Location     Type
  3162 ;;		None
  3163 ;; Auto vars:     Size  Location     Type
  3164 ;;		None
  3165 ;; Return value:  Size  Location     Type
  3166 ;;                  1    wreg      void 
  3167 ;; Registers used:
  3168 ;;		wreg, fsr1l, fsr1h, status,2, status,0, pclath, cstack
  3169 ;; Tracked objects:
  3170 ;;		On entry : B1F/0
  3171 ;;		On exit  : 0/0
  3172 ;;		Unchanged: 0/0
  3173 ;; Data sizes:     COMMON   BANK0   BANK1   BANK2   BANK3   BANK4   BANK5   BANK6   BANK7   BANK8   BANK9  BANK10  BANK1
      +1  BANK12
  3174 ;;      Params:         0       0       0       0       0       0       0       0       0       0       0       0       
      +0       0
  3175 ;;      Locals:         0       0       0       0       0       0       0       0       0       0       0       0       
      +0       0
  3176 ;;      Temps:          0       0       0       0       0       0       0       0       0       0       0       0       
      +0       0
  3177 ;;      Totals:         0       0       0       0       0       0       0       0       0       0       0       0       
      +0       0
  3178 ;;Total ram usage:        0 bytes
  3179 ;; Hardware stack levels required when called:   14
  3180 ;; This function calls:
  3181 ;;		_I2C_Initialize
  3182 ;;		_SYSTEM_Initialize
  3183 ;;		_eeprom_storeBurstGroup
  3184 ;; This function is called by:
  3185 ;;		Startup code after reset
  3186 ;; This function uses a non-reentrant model
  3187 ;;
  3188                           
  3189                           
  3190                           ;psect for function _main
  3191  0000'                    _main:
  3192  0000'                    l5424:	
  3193                           ;incstack = 0
  3194                           ; Regs used in _main: [wreg+fsr1l+fsr1h+status,2+status,0+pclath+cstack]
  3195                           
  3196                           
  3197                           ;main.c: 66:     SYSTEM_Initialize();
  3198  0000' 3180' 2000' 3180'  	fcall	_SYSTEM_Initialize
  3199  0003'                    l5426:
  3200                           
  3201                           ;main.c: 67:     I2C_Initialize();
  3202  0003' 3180' 2000' 3180'  	fcall	_I2C_Initialize
  3203  0006'                    l5428:
  3204                           
  3205                           ;main.c: 68:     (INTCONbits.GIE = 1);
  3206  0006' 178B               	bsf	11,7	;volatile
  3207  0007'                    l5430:
  3208                           
  3209                           ;main.c: 69:     (INTCONbits.PEIE = 1);
  3210  0007' 170B               	bsf	11,6	;volatile
  3211  0008'                    l5432:
  3212                           
  3213                           ;main.c: 71:     {;main.c: 72:         if(measurement_flag)
  3214  0008' 0023               	movlb	3	; select bank3
  3215  0009' 0800'              	movf	_measurement_flag^(0+384),w
  3216  000A' 1903               	btfsc	3,2
  3217  000B' 2800'              	goto	u4171
  3218  000C' 2800'              	goto	u4170
  3219  000D'                    u4171:
  3220  000D' 2800'              	goto	l5436
  3221  000E'                    u4170:
  3222  000E'                    l5434:
  3223                           
  3224                           ;main.c: 73:         {;main.c: 74:             measurement_flag = 0;
  3225  000E' 0180'              	clrf	_measurement_flag^(0+384)
  3226  000F'                    l5436:
  3227                           
  3228                           ;main.c: 77:         if(sleep_flag)
  3229  000F' 0800'              	movf	_sleep_flag^(0+384),w
  3230  0010' 1903               	btfsc	3,2
  3231  0011' 2800'              	goto	u4181
  3232  0012' 2800'              	goto	u4180
  3233  0013'                    u4181:
  3234  0013' 2800'              	goto	l5440
  3235  0014'                    u4180:
  3236  0014'                    l5438:
  3237                           
  3238                           ;main.c: 78:         {;main.c: 79:             sleep_flag = 0;
  3239  0014' 0180'              	clrf	_sleep_flag^(0+384)
  3240  0015'                    l5440:
  3241                           
  3242                           ;main.c: 81:         if(writeout_flag)
  3243  0015' 0800'              	movf	_writeout_flag^(0+384),w
  3244  0016' 1903               	btfsc	3,2
  3245  0017' 2800'              	goto	u4191
  3246  0018' 2800'              	goto	u4190
  3247  0019'                    u4191:
  3248  0019' 2800'              	goto	l5432
  3249  001A'                    u4190:
  3250  001A'                    l5442:
  3251                           
  3252                           ;main.c: 82:         {;main.c: 84:             writeout_flag = 0;
  3253  001A' 0180'              	clrf	_writeout_flag^(0+384)
  3254  001B'                    l5444:
  3255                           
  3256                           ;main.c: 85:             eeprom_storeBurstGroup(0x00, measarray);
  3257  001B' 3000               	movlw	0
  3258  001C' 0021               	movlb	1	; select bank1
  3259  001D' 0080'              	movwf	eeprom_storeBurstGroup@address^(0+128)
  3260  001E' 0080'              	movwf	(eeprom_storeBurstGroup@address+1)^(0+128)
  3261  001F' 3028               	movlw	40
  3262  0020' 0080'              	movwf	eeprom_storeBurstGroup@data^(0+128)
  3263  0021' 3023               	movlw	35
  3264  0022' 0081'              	movwf	(eeprom_storeBurstGroup@data^(0+128)+1)
  3265  0023' 3180' 2000' 3180'  	fcall	_eeprom_storeBurstGroup
  3266  0026' 2800'              	goto	l5432
  3267  0027' 3180' 2800'        	ljmp	start
  3268  0029'                    __end_of_main:
  3269                           
  3270                           	psect	text1
  3271  0000'                    __ptext1:	
  3272 ;; *************** function _eeprom_storeBurstGroup *****************
  3273 ;; Defined at:
  3274 ;;		line 130 in file "24aa32a.c"
  3275 ;; Parameters:    Size  Location     Type
  3276 ;;  address         2    6[BANK1 ] unsigned short 
  3277 ;;  data            2    8[BANK1 ] PTR unsigned char [4]
  3278 ;;		 -> measarray(200), 
  3279 ;; Auto vars:     Size  Location     Type
  3280 ;;  column          1   12[BANK1 ] unsigned char 
  3281 ;;  addresslsb      1   11[BANK1 ] unsigned char 
  3282 ;;  addressmsb      1    0        unsigned char 
  3283 ;;  row             1   13[BANK1 ] unsigned char 
  3284 ;; Return value:  Size  Location     Type
  3285 ;;                  1    wreg      void 
  3286 ;; Registers used:
  3287 ;;		wreg, fsr1l, fsr1h, status,2, status,0, pclath, cstack
  3288 ;; Tracked objects:
  3289 ;;		On entry : 0/0
  3290 ;;		On exit  : 0/0
  3291 ;;		Unchanged: 0/0
  3292 ;; Data sizes:     COMMON   BANK0   BANK1   BANK2   BANK3   BANK4   BANK5   BANK6   BANK7   BANK8   BANK9  BANK10  BANK1
      +1  BANK12
  3293 ;;      Params:         0       0       4       0       0       0       0       0       0       0       0       0       
      +0       0
  3294 ;;      Locals:         0       0       4       0       0       0       0       0       0       0       0       0       
      +0       0
  3295 ;;      Temps:          0       0       0       0       0       6       0       0       0       0       0       0       
      +0       0
  3296 ;;      Totals:         0       0       8       0       0       6       0       0       0       0       0       0       
      +0       0
  3297 ;;Total ram usage:       14 bytes
  3298 ;; Hardware stack levels used:    1
  3299 ;; Hardware stack levels required when called:   13
  3300 ;; This function calls:
  3301 ;;		_ACK_Poll
  3302 ;;		_I2C_MasterStart
  3303 ;;		_I2C_MasterStop
  3304 ;;		_I2C_MasterWrite
  3305 ;; This function is called by:
  3306 ;;		_main
  3307 ;; This function uses a non-reentrant model
  3308 ;;
  3309                           
  3310                           
  3311                           ;psect for function _eeprom_storeBurstGroup
  3312  0000'                    _eeprom_storeBurstGroup:
  3313  0000'                    l5280:	
  3314                           ;incstack = 0
  3315                           ; Regs used in _eeprom_storeBurstGroup: [wreg+fsr1l+fsr1h+status,2+status,0+pclath+cstac
      +                          k]
  3316                           
  3317  0000' 301F               	movlw	31
  3318  0001' 0021               	movlb	1	; select bank1
  3319  0002' 0500'              	andwf	eeprom_storeBurstGroup@address^(0+128),w
  3320  0003' 0024               	movlb	4	; select bank4
  3321  0004' 0080'              	movwf	??_eeprom_storeBurstGroup^(0+512)
  3322  0005' 3000               	movlw	0
  3323  0006' 0021               	movlb	1	; select bank1
  3324  0007' 0500'              	andwf	(eeprom_storeBurstGroup@address+1)^(0+128),w
  3325  0008' 0024               	movlb	4	; select bank4
  3326  0009' 0080'              	movwf	(??_eeprom_storeBurstGroup+1)^(0+512)
  3327  000A' 0800'              	movf	??_eeprom_storeBurstGroup^(0+512),w
  3328  000B' 0401'              	iorwf	(??_eeprom_storeBurstGroup^(0+512)+1),w
  3329  000C' 1903               	btfsc	3,2
  3330  000D' 2800'              	goto	u3901
  3331  000E' 2800'              	goto	u3900
  3332  000F'                    u3901:
  3333  000F' 2800'              	goto	l5284
  3334  0010'                    u3900:
  3335  0010' 2800'              	goto	l102
  3336  0011'                    l5284:
  3337  0011' 0021               	movlb	1	; select bank1
  3338  0012' 0180'              	clrf	eeprom_storeBurstGroup@row^(0+128)
  3339  0013'                    l5290:
  3340  0013' 0800'              	movf	eeprom_storeBurstGroup@row^(0+128),w
  3341  0014' 0024               	movlb	4	; select bank4
  3342  0015' 0080'              	movwf	??_eeprom_storeBurstGroup^(0+512)
  3343  0016' 0181'              	clrf	(??_eeprom_storeBurstGroup^(0+512)+1)
  3344  0017' 3005               	movlw	5
  3345  0018'                    u3915:
  3346  0018' 3580'              	lslf	??_eeprom_storeBurstGroup^(0+512),f
  3347  0019' 0D81'              	rlf	(??_eeprom_storeBurstGroup^(0+512)+1),f
  3348  001A' 0B89               	decfsz	9,f
  3349  001B' 2800'              	goto	u3915
  3350  001C' 0800'              	movf	??_eeprom_storeBurstGroup^(0+512),w
  3351  001D' 0021               	movlb	1	; select bank1
  3352  001E' 0780'              	addwf	eeprom_storeBurstGroup@address^(0+128),f
  3353  001F' 0024               	movlb	4	; select bank4
  3354  0020' 0800'              	movf	(??_eeprom_storeBurstGroup+1)^(0+512),w
  3355  0021' 0021               	movlb	1	; select bank1
  3356  0022' 3D80'              	addwfc	(eeprom_storeBurstGroup@address+1)^(0+128),f
  3357  0023'                    l5292:
  3358  0023'                    l5294:
  3359  0023' 0800'              	movf	eeprom_storeBurstGroup@address^(0+128),w
  3360  0024' 0024               	movlb	4	; select bank4
  3361  0025' 0080'              	movwf	??_eeprom_storeBurstGroup^(0+512)
  3362  0026' 0800'              	movf	??_eeprom_storeBurstGroup^(0+512),w
  3363  0027' 0021               	movlb	1	; select bank1
  3364  0028' 0080'              	movwf	eeprom_storeBurstGroup@addresslsb^(0+128)
  3365  0029'                    l5296:
  3366  0029' 3180' 2000' 3180'  	fcall	_I2C_MasterStart
  3367  002C'                    l5298:
  3368  002C' 30A0               	movlw	160
  3369  002D' 3180' 2000' 3180'  	fcall	_I2C_MasterWrite
  3370  0030'                    l5300:
  3371  0030' 3000               	movlw	0
  3372  0031' 3180' 2000' 3180'  	fcall	_I2C_MasterWrite
  3373  0034'                    l5302:
  3374  0034' 0021               	movlb	1	; select bank1
  3375  0035' 0800'              	movf	eeprom_storeBurstGroup@addresslsb^(0+128),w
  3376  0036' 3180' 2000' 3180'  	fcall	_I2C_MasterWrite
  3377  0039'                    l5304:
  3378  0039' 0021               	movlb	1	; select bank1
  3379  003A' 0180'              	clrf	eeprom_storeBurstGroup@column^(0+128)
  3380  003B'                    l5308:
  3381  003B' 0800'              	movf	eeprom_storeBurstGroup@column^(0+128),w
  3382  003C' 0024               	movlb	4	; select bank4
  3383  003D' 0080'              	movwf	??_eeprom_storeBurstGroup^(0+512)
  3384  003E' 0181'              	clrf	(??_eeprom_storeBurstGroup^(0+512)+1)
  3385  003F' 0021               	movlb	1	; select bank1
  3386  0040' 0800'              	movf	eeprom_storeBurstGroup@row^(0+128),w
  3387  0041' 0024               	movlb	4	; select bank4
  3388  0042' 0080'              	movwf	(??_eeprom_storeBurstGroup+2)^(0+512)
  3389  0043' 0181'              	clrf	((??_eeprom_storeBurstGroup+2)^(0+512)+1)
  3390  0044' 3580'              	lslf	(??_eeprom_storeBurstGroup+2)^(0+512),f
  3391  0045' 0D81'              	rlf	((??_eeprom_storeBurstGroup+2)^(0+512)+1),f
  3392  0046' 3580'              	lslf	(??_eeprom_storeBurstGroup+2)^(0+512),f
  3393  0047' 0D81'              	rlf	((??_eeprom_storeBurstGroup+2)^(0+512)+1),f
  3394  0048' 0800'              	movf	(??_eeprom_storeBurstGroup+2)^(0+512),w
  3395  0049' 0021               	movlb	1	; select bank1
  3396  004A' 0700'              	addwf	eeprom_storeBurstGroup@data^(0+128),w
  3397  004B' 0024               	movlb	4	; select bank4
  3398  004C' 0080'              	movwf	(??_eeprom_storeBurstGroup+4)^(0+512)
  3399  004D' 0800'              	movf	(??_eeprom_storeBurstGroup+3)^(0+512),w
  3400  004E' 0021               	movlb	1	; select bank1
  3401  004F' 3D00'              	addwfc	(eeprom_storeBurstGroup@data+1)^(0+128),w
  3402  0050' 0024               	movlb	4	; select bank4
  3403  0051' 0080'              	movwf	(??_eeprom_storeBurstGroup+5)^(0+512)
  3404  0052' 0800'              	movf	??_eeprom_storeBurstGroup^(0+512),w
  3405  0053' 0700'              	addwf	(??_eeprom_storeBurstGroup+4)^(0+512),w
  3406  0054' 0086               	movwf	6
  3407  0055' 0800'              	movf	(??_eeprom_storeBurstGroup+1)^(0+512),w
  3408  0056' 3D00'              	addwfc	(??_eeprom_storeBurstGroup+5)^(0+512),w
  3409  0057' 0087               	movwf	7
  3410  0058' 0801               	movf	1,w
  3411  0059' 3180' 2000' 3180'  	fcall	_I2C_MasterWrite
  3412  005C'                    l5310:
  3413  005C' 3001               	movlw	1
  3414  005D' 0024               	movlb	4	; select bank4
  3415  005E' 0080'              	movwf	??_eeprom_storeBurstGroup^(0+512)
  3416  005F' 0800'              	movf	??_eeprom_storeBurstGroup^(0+512),w
  3417  0060' 0021               	movlb	1	; select bank1
  3418  0061' 0780'              	addwf	eeprom_storeBurstGroup@column^(0+128),f
  3419  0062'                    l5312:
  3420  0062' 3020               	movlw	32
  3421  0063' 0200'              	subwf	eeprom_storeBurstGroup@column^(0+128),w
  3422  0064' 1C03               	skipc
  3423  0065' 2800'              	goto	u3921
  3424  0066' 2800'              	goto	u3920
  3425  0067'                    u3921:
  3426  0067' 2800'              	goto	l5308
  3427  0068'                    u3920:
  3428  0068'                    l5314:
  3429  0068' 3180' 2000' 3180'  	fcall	_I2C_MasterStop
  3430  006B'                    l5316:
  3431  006B' 3180' 2000' 3180'  	fcall	_ACK_Poll
  3432  006E'                    l5318:
  3433  006E' 3001               	movlw	1
  3434  006F' 0024               	movlb	4	; select bank4
  3435  0070' 0080'              	movwf	??_eeprom_storeBurstGroup^(0+512)
  3436  0071' 0800'              	movf	??_eeprom_storeBurstGroup^(0+512),w
  3437  0072' 0021               	movlb	1	; select bank1
  3438  0073' 0780'              	addwf	eeprom_storeBurstGroup@row^(0+128),f
  3439  0074'                    l5320:
  3440  0074' 3032               	movlw	50
  3441  0075' 0200'              	subwf	eeprom_storeBurstGroup@row^(0+128),w
  3442  0076' 1C03               	skipc
  3443  0077' 2800'              	goto	u3931
  3444  0078' 2800'              	goto	u3930
  3445  0079'                    u3931:
  3446  0079' 2800'              	goto	l5290
  3447  007A'                    u3930:
  3448  007A'                    l102:
  3449  007A' 0008               	return
  3450  007B'                    __end_of_eeprom_storeBurstGroup:
  3451                           
  3452                           	psect	text2
  3453  0000'                    __ptext2:	
  3454 ;; *************** function _ACK_Poll *****************
  3455 ;; Defined at:
  3456 ;;		line 15 in file "24aa32a.c"
  3457 ;; Parameters:    Size  Location     Type
  3458 ;;		None
  3459 ;; Auto vars:     Size  Location     Type
  3460 ;;		None
  3461 ;; Return value:  Size  Location     Type
  3462 ;;                  1    wreg      void 
  3463 ;; Registers used:
  3464 ;;		wreg, status,2, status,0, pclath, cstack
  3465 ;; Tracked objects:
  3466 ;;		On entry : 0/0
  3467 ;;		On exit  : 0/0
  3468 ;;		Unchanged: 0/0
  3469 ;; Data sizes:     COMMON   BANK0   BANK1   BANK2   BANK3   BANK4   BANK5   BANK6   BANK7   BANK8   BANK9  BANK10  BANK1
      +1  BANK12
  3470 ;;      Params:         0       0       0       0       0       0       0       0       0       0       0       0       
      +0       0
  3471 ;;      Locals:         0       0       0       0       0       0       0       0       0       0       0       0       
      +0       0
  3472 ;;      Temps:          0       0       0       0       0       0       0       0       0       0       0       0       
      +0       0
  3473 ;;      Totals:         0       0       0       0       0       0       0       0       0       0       0       0       
      +0       0
  3474 ;;Total ram usage:        0 bytes
  3475 ;; Hardware stack levels used:    1
  3476 ;; Hardware stack levels required when called:   12
  3477 ;; This function calls:
  3478 ;;		_I2C_MasterStart
  3479 ;;		_I2C_MasterStop
  3480 ;;		_I2C_MasterWrite
  3481 ;; This function is called by:
  3482 ;;		_eeprom_storeBurstGroup
  3483 ;;		_eeprom_writeByte
  3484 ;;		_eeprom_writePage
  3485 ;; This function uses a non-reentrant model
  3486 ;;
  3487                           
  3488                           
  3489                           ;psect for function _ACK_Poll
  3490  0000'                    _ACK_Poll:
  3491  0000'                    l63:	
  3492                           ;incstack = 0
  3493                           ; Regs used in _ACK_Poll: [wreg+status,2+status,0+pclath+cstack]
  3494                           
  3495  0000'                    l4050:
  3496  0000' 3180' 2000' 3180'  	fcall	_I2C_MasterStart
  3497  0003'                    l4052:
  3498  0003' 30A0               	movlw	160
  3499  0004' 3180' 2000' 3180'  	fcall	_I2C_MasterWrite
  3500  0007'                    l4054:
  3501  0007' 0024               	movlb	4	; select bank4
  3502  0008' 1B16               	btfsc	22,6	;volatile
  3503  0009' 2800'              	goto	u2701
  3504  000A' 2800'              	goto	u2700
  3505  000B'                    u2701:
  3506  000B' 2800'              	goto	l63
  3507  000C'                    u2700:
  3508  000C'                    l4056:
  3509  000C' 3180' 2000' 3180'  	fcall	_I2C_MasterStop
  3510  000F'                    l65:
  3511  000F' 0008               	return
  3512  0010'                    __end_of_ACK_Poll:
  3513                           
  3514                           	psect	text3
  3515  0000'                    __ptext3:	
  3516 ;; *************** function _I2C_MasterWrite *****************
  3517 ;; Defined at:
  3518 ;;		line 52 in file "24aa32a.c"
  3519 ;; Parameters:    Size  Location     Type
  3520 ;;  data            1    wreg     unsigned char 
  3521 ;; Auto vars:     Size  Location     Type
  3522 ;;  data            1    5[BANK1 ] unsigned char 
  3523 ;; Return value:  Size  Location     Type
  3524 ;;                  1    wreg      void 
  3525 ;; Registers used:
  3526 ;;		wreg, status,2, status,0, pclath, cstack
  3527 ;; Tracked objects:
  3528 ;;		On entry : 0/0
  3529 ;;		On exit  : 0/0
  3530 ;;		Unchanged: 0/0
  3531 ;; Data sizes:     COMMON   BANK0   BANK1   BANK2   BANK3   BANK4   BANK5   BANK6   BANK7   BANK8   BANK9  BANK10  BANK1
      +1  BANK12
  3532 ;;      Params:         0       0       0       0       0       0       0       0       0       0       0       0       
      +0       0
  3533 ;;      Locals:         0       0       1       0       0       0       0       0       0       0       0       0       
      +0       0
  3534 ;;      Temps:          0       0       0       0       0       0       0       0       0       0       0       0       
      +0       0
  3535 ;;      Totals:         0       0       1       0       0       0       0       0       0       0       0       0       
      +0       0
  3536 ;;Total ram usage:        1 bytes
  3537 ;; Hardware stack levels used:    1
  3538 ;; Hardware stack levels required when called:   11
  3539 ;; This function calls:
  3540 ;;		_I2C_WaitForCompletion
  3541 ;; This function is called by:
  3542 ;;		_ACK_Poll
  3543 ;;		_eeprom_storeBurstGroup
  3544 ;;		_eeprom_writeByte
  3545 ;;		_eeprom_writePage
  3546 ;;		_eeprom_readByte
  3547 ;;		_eeprom_readMem
  3548 ;; This function uses a non-reentrant model
  3549 ;;
  3550                           
  3551                           
  3552                           ;psect for function _I2C_MasterWrite
  3553  0000'                    _I2C_MasterWrite:
  3554                           
  3555                           ;incstack = 0
  3556                           ; Regs used in _I2C_MasterWrite: [wreg+status,2+status,0+pclath+cstack]
  3557                           ;I2C_MasterWrite@data stored from wreg
  3558  0000' 0021               	movlb	1	; select bank1
  3559  0001' 0080'              	movwf	I2C_MasterWrite@data^(0+128)
  3560  0002'                    l3948:
  3561  0002' 0800'              	movf	I2C_MasterWrite@data^(0+128),w
  3562  0003' 0024               	movlb	4	; select bank4
  3563  0004' 0091               	movwf	17	;volatile
  3564  0005'                    l3950:
  3565  0005' 3180' 2000' 3180'  	fcall	_I2C_WaitForCompletion
  3566  0008'                    l80:
  3567  0008' 0008               	return
  3568  0009'                    __end_of_I2C_MasterWrite:
  3569                           
  3570                           	psect	text4
  3571  0000'                    __ptext4:	
  3572 ;; *************** function _I2C_MasterStop *****************
  3573 ;; Defined at:
  3574 ;;		line 46 in file "24aa32a.c"
  3575 ;; Parameters:    Size  Location     Type
  3576 ;;		None
  3577 ;; Auto vars:     Size  Location     Type
  3578 ;;		None
  3579 ;; Return value:  Size  Location     Type
  3580 ;;                  1    wreg      void 
  3581 ;; Registers used:
  3582 ;;		status,2, status,0, pclath, cstack
  3583 ;; Tracked objects:
  3584 ;;		On entry : 0/0
  3585 ;;		On exit  : 0/0
  3586 ;;		Unchanged: 0/0
  3587 ;; Data sizes:     COMMON   BANK0   BANK1   BANK2   BANK3   BANK4   BANK5   BANK6   BANK7   BANK8   BANK9  BANK10  BANK1
      +1  BANK12
  3588 ;;      Params:         0       0       0       0       0       0       0       0       0       0       0       0       
      +0       0
  3589 ;;      Locals:         0       0       0       0       0       0       0       0       0       0       0       0       
      +0       0
  3590 ;;      Temps:          0       0       0       0       0       0       0       0       0       0       0       0       
      +0       0
  3591 ;;      Totals:         0       0       0       0       0       0       0       0       0       0       0       0       
      +0       0
  3592 ;;Total ram usage:        0 bytes
  3593 ;; Hardware stack levels used:    1
  3594 ;; Hardware stack levels required when called:   11
  3595 ;; This function calls:
  3596 ;;		_I2C_WaitForCompletion
  3597 ;; This function is called by:
  3598 ;;		_ACK_Poll
  3599 ;;		_eeprom_storeBurstGroup
  3600 ;;		_eeprom_writeByte
  3601 ;;		_eeprom_writePage
  3602 ;;		_eeprom_readByte
  3603 ;;		_eeprom_readMem
  3604 ;; This function uses a non-reentrant model
  3605 ;;
  3606                           
  3607                           
  3608                           ;psect for function _I2C_MasterStop
  3609  0000'                    _I2C_MasterStop:
  3610  0000'                    l3952:	
  3611                           ;incstack = 0
  3612                           ; Regs used in _I2C_MasterStop: [status,2+status,0+pclath+cstack]
  3613                           
  3614  0000' 0024               	movlb	4	; select bank4
  3615  0001' 1516               	bsf	22,2	;volatile
  3616  0002'                    l3954:
  3617  0002' 3180' 2000' 3180'  	fcall	_I2C_WaitForCompletion
  3618  0005'                    l77:
  3619  0005' 0008               	return
  3620  0006'                    __end_of_I2C_MasterStop:
  3621                           
  3622                           	psect	text5
  3623  0000'                    __ptext5:	
  3624 ;; *************** function _I2C_MasterStart *****************
  3625 ;; Defined at:
  3626 ;;		line 40 in file "24aa32a.c"
  3627 ;; Parameters:    Size  Location     Type
  3628 ;;		None
  3629 ;; Auto vars:     Size  Location     Type
  3630 ;;		None
  3631 ;; Return value:  Size  Location     Type
  3632 ;;                  1    wreg      void 
  3633 ;; Registers used:
  3634 ;;		status,2, status,0, pclath, cstack
  3635 ;; Tracked objects:
  3636 ;;		On entry : 0/0
  3637 ;;		On exit  : 0/0
  3638 ;;		Unchanged: 0/0
  3639 ;; Data sizes:     COMMON   BANK0   BANK1   BANK2   BANK3   BANK4   BANK5   BANK6   BANK7   BANK8   BANK9  BANK10  BANK1
      +1  BANK12
  3640 ;;      Params:         0       0       0       0       0       0       0       0       0       0       0       0       
      +0       0
  3641 ;;      Locals:         0       0       0       0       0       0       0       0       0       0       0       0       
      +0       0
  3642 ;;      Temps:          0       0       0       0       0       0       0       0       0       0       0       0       
      +0       0
  3643 ;;      Totals:         0       0       0       0       0       0       0       0       0       0       0       0       
      +0       0
  3644 ;;Total ram usage:        0 bytes
  3645 ;; Hardware stack levels used:    1
  3646 ;; Hardware stack levels required when called:   11
  3647 ;; This function calls:
  3648 ;;		_I2C_WaitForCompletion
  3649 ;; This function is called by:
  3650 ;;		_ACK_Poll
  3651 ;;		_eeprom_storeBurstGroup
  3652 ;;		_eeprom_writeByte
  3653 ;;		_eeprom_writePage
  3654 ;;		_eeprom_readByte
  3655 ;;		_eeprom_readMem
  3656 ;; This function uses a non-reentrant model
  3657 ;;
  3658                           
  3659                           
  3660                           ;psect for function _I2C_MasterStart
  3661  0000'                    _I2C_MasterStart:
  3662  0000'                    l3944:	
  3663                           ;incstack = 0
  3664                           ; Regs used in _I2C_MasterStart: [status,2+status,0+pclath+cstack]
  3665                           
  3666  0000' 0024               	movlb	4	; select bank4
  3667  0001' 1416               	bsf	22,0	;volatile
  3668  0002'                    l3946:
  3669  0002' 3180' 2000' 3180'  	fcall	_I2C_WaitForCompletion
  3670  0005'                    l74:
  3671  0005' 0008               	return
  3672  0006'                    __end_of_I2C_MasterStart:
  3673                           
  3674                           	psect	text6
  3675  0000'                    __ptext6:	
  3676 ;; *************** function _I2C_WaitForCompletion *****************
  3677 ;; Defined at:
  3678 ;;		line 35 in file "24aa32a.c"
  3679 ;; Parameters:    Size  Location     Type
  3680 ;;		None
  3681 ;; Auto vars:     Size  Location     Type
  3682 ;;		None
  3683 ;; Return value:  Size  Location     Type
  3684 ;;                  1    wreg      void 
  3685 ;; Registers used:
  3686 ;;		None
  3687 ;; Tracked objects:
  3688 ;;		On entry : 0/0
  3689 ;;		On exit  : 0/0
  3690 ;;		Unchanged: 0/0
  3691 ;; Data sizes:     COMMON   BANK0   BANK1   BANK2   BANK3   BANK4   BANK5   BANK6   BANK7   BANK8   BANK9  BANK10  BANK1
      +1  BANK12
  3692 ;;      Params:         0       0       0       0       0       0       0       0       0       0       0       0       
      +0       0
  3693 ;;      Locals:         0       0       0       0       0       0       0       0       0       0       0       0       
      +0       0
  3694 ;;      Temps:          0       0       0       0       0       0       0       0       0       0       0       0       
      +0       0
  3695 ;;      Totals:         0       0       0       0       0       0       0       0       0       0       0       0       
      +0       0
  3696 ;;Total ram usage:        0 bytes
  3697 ;; Hardware stack levels used:    1
  3698 ;; Hardware stack levels required when called:   10
  3699 ;; This function calls:
  3700 ;;		Nothing
  3701 ;; This function is called by:
  3702 ;;		_I2C_MasterStart
  3703 ;;		_I2C_MasterStop
  3704 ;;		_I2C_MasterWrite
  3705 ;;		_I2C_MasterSetReceive
  3706 ;;		_I2C_MasterSendAck
  3707 ;;		_I2C_MasterSendNack
  3708 ;; This function uses a non-reentrant model
  3709 ;;
  3710                           
  3711                           
  3712                           ;psect for function _I2C_WaitForCompletion
  3713  0000'                    _I2C_WaitForCompletion:
  3714  0000'                    l3802:	
  3715                           ;incstack = 0
  3716                           ; Regs used in _I2C_WaitForCompletion: []
  3717                           
  3718  0000'                    l68:
  3719  0000' 0020               	movlb	0	; select bank0
  3720  0001' 1D91               	btfss	17,3	;volatile
  3721  0002' 2800'              	goto	u2471
  3722  0003' 2800'              	goto	u2470
  3723  0004'                    u2471:
  3724  0004' 2800'              	goto	l68
  3725  0005'                    u2470:
  3726  0005'                    l70:
  3727  0005' 1191               	bcf	17,3	;volatile
  3728  0006'                    l71:
  3729  0006' 0008               	return
  3730  0007'                    __end_of_I2C_WaitForCompletion:
  3731                           
  3732                           	psect	text7
  3733  0000'                    __ptext7:	
  3734 ;; *************** function _SYSTEM_Initialize *****************
  3735 ;; Defined at:
  3736 ;;		line 50 in file "mcc_generated_files/mcc.c"
  3737 ;; Parameters:    Size  Location     Type
  3738 ;;		None
  3739 ;; Auto vars:     Size  Location     Type
  3740 ;;		None
  3741 ;; Return value:  Size  Location     Type
  3742 ;;                  1    wreg      void 
  3743 ;; Registers used:
  3744 ;;		wreg, fsr1l, fsr1h, status,2, status,0, pclath, cstack
  3745 ;; Tracked objects:
  3746 ;;		On entry : 0/0
  3747 ;;		On exit  : 0/0
  3748 ;;		Unchanged: 0/0
  3749 ;; Data sizes:     COMMON   BANK0   BANK1   BANK2   BANK3   BANK4   BANK5   BANK6   BANK7   BANK8   BANK9  BANK10  BANK1
      +1  BANK12
  3750 ;;      Params:         0       0       0       0       0       0       0       0       0       0       0       0       
      +0       0
  3751 ;;      Locals:         0       0       0       0       0       0       0       0       0       0       0       0       
      +0       0
  3752 ;;      Temps:          0       0       0       0       0       0       0       0       0       0       0       0       
      +0       0
  3753 ;;      Totals:         0       0       0       0       0       0       0       0       0       0       0       0       
      +0       0
  3754 ;;Total ram usage:        0 bytes
  3755 ;; Hardware stack levels used:    1
  3756 ;; Hardware stack levels required when called:   12
  3757 ;; This function calls:
  3758 ;;		_ADC_Initialize
  3759 ;;		_OSCILLATOR_Initialize
  3760 ;;		_PIN_MANAGER_Initialize
  3761 ;;		_TMR0_Initialize
  3762 ;;		_USBDeviceAttach
  3763 ;;		_USBDeviceInit
  3764 ;;		_WDT_Initialize
  3765 ;; This function is called by:
  3766 ;;		_main
  3767 ;; This function uses a non-reentrant model
  3768 ;;
  3769                           
  3770                           
  3771                           ;psect for function _SYSTEM_Initialize
  3772  0000'                    _SYSTEM_Initialize:
  3773  0000'                    l4382:	
  3774                           ;incstack = 0
  3775                           ; Regs used in _SYSTEM_Initialize: [wreg+fsr1l+fsr1h+status,2+status,0+pclath+cstack]
  3776                           
  3777                           
  3778                           ;mcc_generated_files/mcc.c: 53:     PIN_MANAGER_Initialize();
  3779  0000' 3180' 2000' 3180'  	fcall	_PIN_MANAGER_Initialize
  3780                           
  3781                           ;mcc_generated_files/mcc.c: 54:     OSCILLATOR_Initialize();
  3782  0003' 3180' 2000' 3180'  	fcall	_OSCILLATOR_Initialize
  3783                           
  3784                           ;mcc_generated_files/mcc.c: 55:     WDT_Initialize();
  3785  0006' 3180' 2000' 3180'  	fcall	_WDT_Initialize
  3786  0009'                    l4384:
  3787                           
  3788                           ;mcc_generated_files/mcc.c: 56:     USBDeviceInit();
  3789  0009' 3180' 2000' 3180'  	fcall	_USBDeviceInit
  3790  000C'                    l4386:
  3791                           
  3792                           ;mcc_generated_files/mcc.c: 57:     ADC_Initialize();
  3793  000C' 3180' 2000' 3180'  	fcall	_ADC_Initialize
  3794  000F'                    l4388:
  3795                           
  3796                           ;mcc_generated_files/mcc.c: 58:     TMR0_Initialize();
  3797  000F' 3180' 2000' 3180'  	fcall	_TMR0_Initialize
  3798  0012'                    l4390:
  3799                           
  3800                           ;mcc_generated_files/mcc.c: 59:     USBDeviceAttach();
  3801  0012' 3180' 2000' 3180'  	fcall	_USBDeviceAttach
  3802  0015'                    l143:
  3803  0015' 0008               	return
  3804  0016'                    __end_of_SYSTEM_Initialize:
  3805                           
  3806                           	psect	text8
  3807  0000'                    __ptext8:	
  3808 ;; *************** function _WDT_Initialize *****************
  3809 ;; Defined at:
  3810 ;;		line 78 in file "mcc_generated_files/mcc.c"
  3811 ;; Parameters:    Size  Location     Type
  3812 ;;		None
  3813 ;; Auto vars:     Size  Location     Type
  3814 ;;		None
  3815 ;; Return value:  Size  Location     Type
  3816 ;;                  1    wreg      void 
  3817 ;; Registers used:
  3818 ;;		wreg
  3819 ;; Tracked objects:
  3820 ;;		On entry : 0/0
  3821 ;;		On exit  : 0/0
  3822 ;;		Unchanged: 0/0
  3823 ;; Data sizes:     COMMON   BANK0   BANK1   BANK2   BANK3   BANK4   BANK5   BANK6   BANK7   BANK8   BANK9  BANK10  BANK1
      +1  BANK12
  3824 ;;      Params:         0       0       0       0       0       0       0       0       0       0       0       0       
      +0       0
  3825 ;;      Locals:         0       0       0       0       0       0       0       0       0       0       0       0       
      +0       0
  3826 ;;      Temps:          0       0       0       0       0       0       0       0       0       0       0       0       
      +0       0
  3827 ;;      Totals:         0       0       0       0       0       0       0       0       0       0       0       0       
      +0       0
  3828 ;;Total ram usage:        0 bytes
  3829 ;; Hardware stack levels used:    1
  3830 ;; Hardware stack levels required when called:   10
  3831 ;; This function calls:
  3832 ;;		Nothing
  3833 ;; This function is called by:
  3834 ;;		_SYSTEM_Initialize
  3835 ;; This function uses a non-reentrant model
  3836 ;;
  3837                           
  3838                           
  3839                           ;psect for function _WDT_Initialize
  3840  0000'                    _WDT_Initialize:
  3841  0000'                    l4098:	
  3842                           ;incstack = 0
  3843                           ; Regs used in _WDT_Initialize: [wreg]
  3844                           
  3845                           
  3846                           ;mcc_generated_files/mcc.c: 81:     WDTCON = 0x16;
  3847  0000' 3016               	movlw	22
  3848  0001' 0021               	movlb	1	; select bank1
  3849  0002' 0097               	movwf	23	;volatile
  3850  0003'                    l152:
  3851  0003' 0008               	return
  3852  0004'                    __end_of_WDT_Initialize:
  3853                           
  3854                           	psect	text9
  3855  0000'                    __ptext9:	
  3856 ;; *************** function _USBDeviceInit *****************
  3857 ;; Defined at:
  3858 ;;		line 281 in file "mcc_generated_files/usb/usb_device.c"
  3859 ;; Parameters:    Size  Location     Type
  3860 ;;		None
  3861 ;; Auto vars:     Size  Location     Type
  3862 ;;  p               2    6[BANK1 ] PTR unsigned char 
  3863 ;;		 -> UEP1(1), 
  3864 ;;  i               1    8[BANK1 ] unsigned char 
  3865 ;;  i               1    9[BANK1 ] unsigned char 
  3866 ;; Return value:  Size  Location     Type
  3867 ;;                  1    wreg      void 
  3868 ;; Registers used:
  3869 ;;		wreg, fsr1l, fsr1h, status,2, status,0
  3870 ;; Tracked objects:
  3871 ;;		On entry : 0/0
  3872 ;;		On exit  : 0/0
  3873 ;;		Unchanged: 0/0
  3874 ;; Data sizes:     COMMON   BANK0   BANK1   BANK2   BANK3   BANK4   BANK5   BANK6   BANK7   BANK8   BANK9  BANK10  BANK1
      +1  BANK12
  3875 ;;      Params:         0       0       0       0       0       0       0       0       0       0       0       0       
      +0       0
  3876 ;;      Locals:         0       0       4       0       0       0       0       0       0       0       0       0       
      +0       0
  3877 ;;      Temps:          0       0       1       0       0       0       0       0       0       0       0       0       
      +0       0
  3878 ;;      Totals:         0       0       5       0       0       0       0       0       0       0       0       0       
      +0       0
  3879 ;;Total ram usage:        5 bytes
  3880 ;; Hardware stack levels used:    1
  3881 ;; Hardware stack levels required when called:   10
  3882 ;; This function calls:
  3883 ;;		Nothing
  3884 ;; This function is called by:
  3885 ;;		_SYSTEM_Initialize
  3886 ;; This function uses a non-reentrant model
  3887 ;;
  3888                           
  3889                           
  3890                           ;psect for function _USBDeviceInit
  3891  0000'                    _USBDeviceInit:
  3892  0000'                    l4100:	
  3893                           ;incstack = 0
  3894                           ; Regs used in _USBDeviceInit: [wreg+fsr1l+fsr1h+status,2+status,0]
  3895                           
  3896                           
  3897                           ;mcc_generated_files/usb/usb_device.c: 283:     uint8_t i;;mcc_generated_files/usb/usb_d
      +                          evice.c: 285:     {PIE2bits.USBIE = 0;};
  3898  0000' 0021               	movlb	1	; select bank1
  3899  0001' 1112               	bcf	18,2	;volatile
  3900  0002'                    l4102:
  3901                           
  3902                           ;mcc_generated_files/usb/usb_device.c: 292:     {UEIR = 0;};
  3903  0002' 003D               	movlb	29	; select bank29
  3904  0003' 0193               	clrf	19	;volatile
  3905                           
  3906                           ;mcc_generated_files/usb/usb_device.c: 295:     {UIR = 0;};
  3907  0004' 0190               	clrf	16	;volatile
  3908                           
  3909                           ;mcc_generated_files/usb/usb_device.c: 298:     UEP0 = 0;
  3910  0005' 0198               	clrf	24	;volatile
  3911  0006'                    l4104:
  3912                           
  3913                           ;mcc_generated_files/usb/usb_device.c: 300:     { uint8_t i; uint8_t* p = (uint8_t*)&UEP
      +                          1; for(i=0;i<2;i++) *p++ = 0; };
  3914  0006' 300E               	movlw	14
  3915  0007' 0021               	movlb	1	; select bank1
  3916  0008' 0080'              	movwf	(USBDeviceInit@p+1)^(0+128)
  3917  0009' 3099               	movlw	153
  3918  000A' 0080'              	movwf	USBDeviceInit@p^(0+128)
  3919  000B' 0180'              	clrf	USBDeviceInit@i_1026^(0+128)
  3920  000C'                    l4110:
  3921  000C' 0800'              	movf	USBDeviceInit@p^(0+128),w
  3922  000D' 0086               	movwf	6
  3923  000E' 0800'              	movf	(USBDeviceInit@p+1)^(0+128),w
  3924  000F' 0087               	movwf	7
  3925  0010' 0181               	clrf	1
  3926  0011'                    l4112:
  3927  0011' 3001               	movlw	1
  3928  0012' 0780'              	addwf	USBDeviceInit@p^(0+128),f
  3929  0013' 3000               	movlw	0
  3930  0014' 3D80'              	addwfc	(USBDeviceInit@p+1)^(0+128),f
  3931  0015'                    l4114:
  3932  0015' 3001               	movlw	1
  3933  0016' 0080'              	movwf	??_USBDeviceInit^(0+128)
  3934  0017' 0800'              	movf	??_USBDeviceInit^(0+128),w
  3935  0018' 0780'              	addwf	USBDeviceInit@i_1026^(0+128),f
  3936  0019'                    l4116:
  3937  0019' 3002               	movlw	2
  3938  001A' 0200'              	subwf	USBDeviceInit@i_1026^(0+128),w
  3939  001B' 1C03               	skipc
  3940  001C' 2800'              	goto	u2721
  3941  001D' 2800'              	goto	u2720
  3942  001E'                    u2721:
  3943  001E' 2800'              	goto	l4110
  3944  001F'                    u2720:
  3945  001F'                    l4118:
  3946                           
  3947                           ;mcc_generated_files/usb/usb_device.c: 302:     { UCFG = 0x10 | 0x00 | 0x04 | 0x02; UEIE
      +                           = 0x9F; UIE = 0x39 | 0x40 | 0x02; };
  3948  001F' 3016               	movlw	22
  3949  0020' 003D               	movlb	29	; select bank29
  3950  0021' 0091               	movwf	17	;volatile
  3951  0022' 309F               	movlw	159
  3952  0023' 0097               	movwf	23	;volatile
  3953  0024' 307B               	movlw	123
  3954  0025' 0092               	movwf	18	;volatile
  3955  0026'                    l4120:
  3956                           
  3957                           ;mcc_generated_files/usb/usb_device.c: 311:     for(i = 0; i < (sizeof(BDT)/sizeof(BDT_E
      +                          NTRY)); i++)
  3958  0026' 0021               	movlb	1	; select bank1
  3959  0027' 0180'              	clrf	USBDeviceInit@i^(0+128)
  3960  0028'                    l4126:
  3961                           
  3962                           ;mcc_generated_files/usb/usb_device.c: 312:     {;mcc_generated_files/usb/usb_device.c: 
      +                          313:         BDT[i].Val = 0x00;
  3963  0028' 0800'              	movf	USBDeviceInit@i^(0+128),w
  3964  0029' 0080'              	movwf	??_USBDeviceInit^(0+128)
  3965  002A' 3001               	movlw	1
  3966  002B'                    u2735:
  3967  002B' 3580'              	lslf	??_USBDeviceInit^(0+128),f
  3968  002C' 3EFF               	addlw	-1
  3969  002D' 1D03               	skipz
  3970  002E' 2800'              	goto	u2735
  3971  002F' 3500'              	lslf	??_USBDeviceInit^(0+128),w
  3972  0030' 3E20               	addlw	32
  3973  0031' 0086               	movwf	6
  3974  0032' 0187               	clrf	7
  3975  0033' 3000               	movlw	0
  3976  0034' 3FC0               	movwi [0]fsr1
  3977  0035' 3000               	movlw	0
  3978  0036' 3FC1               	movwi [1]fsr1
  3979  0037' 3FC2               	movwi [2]fsr1
  3980  0038' 3FC3               	movwi [3]fsr1
  3981  0039'                    l4128:
  3982                           
  3983                           ;mcc_generated_files/usb/usb_device.c: 314:     }
  3984  0039' 3001               	movlw	1
  3985  003A' 0080'              	movwf	??_USBDeviceInit^(0+128)
  3986  003B' 0800'              	movf	??_USBDeviceInit^(0+128),w
  3987  003C' 0780'              	addwf	USBDeviceInit@i^(0+128),f
  3988  003D'                    l4130:
  3989  003D' 300C               	movlw	12
  3990  003E' 0200'              	subwf	USBDeviceInit@i^(0+128),w
  3991  003F' 1C03               	skipc
  3992  0040' 2800'              	goto	u2741
  3993  0041' 2800'              	goto	u2740
  3994  0042'                    u2741:
  3995  0042' 2800'              	goto	l4126
  3996  0043'                    u2740:
  3997  0043'                    l328:
  3998                           
  3999                           ;mcc_generated_files/usb/usb_device.c: 317:     UCONbits.PPBRST = 1;
  4000  0043' 003D               	movlb	29	; select bank29
  4001  0044' 170E               	bsf	14,6	;volatile
  4002  0045'                    l4132:
  4003                           
  4004                           ;mcc_generated_files/usb/usb_device.c: 320:     UADDR = 0x00;
  4005  0045' 0196               	clrf	22	;volatile
  4006  0046'                    l4134:
  4007                           
  4008                           ;mcc_generated_files/usb/usb_device.c: 323:     UCONbits.PKTDIS = 0;
  4009  0046' 120E               	bcf	14,4	;volatile
  4010  0047'                    l4136:
  4011                           
  4012                           ;mcc_generated_files/usb/usb_device.c: 326:     UCONbits.PPBRST = 0;
  4013  0047' 130E               	bcf	14,6	;volatile
  4014  0048'                    l4138:
  4015                           
  4016                           ;mcc_generated_files/usb/usb_device.c: 330:     {;mcc_generated_files/usb/usb_device.c: 
      +                          331:         (UIR &= 0xF7);
  4017  0048' 30F7               	movlw	247
  4018  0049' 0021               	movlb	1	; select bank1
  4019  004A' 0080'              	movwf	??_USBDeviceInit^(0+128)
  4020  004B' 0800'              	movf	??_USBDeviceInit^(0+128),w
  4021  004C' 003D               	movlb	29	; select bank29
  4022  004D' 0590               	andwf	16,f	;volatile
  4023  004E'                    l4140:
  4024                           
  4025                           ;mcc_generated_files/usb/usb_device.c: 333:         inPipes[0].info.Val = 0;
  4026  004E' 0021               	movlb	1	; select bank1
  4027  004F' 0182'              	clrf	(_inPipes^(0+128)+2)	;volatile
  4028  0050'                    l4142:
  4029                           
  4030                           ;mcc_generated_files/usb/usb_device.c: 334:         outPipes[0].info.Val = 0;
  4031  0050' 0182'              	clrf	(_outPipes^(0+128)+2)	;volatile
  4032  0051'                    l4144:
  4033                           
  4034                           ;mcc_generated_files/usb/usb_device.c: 335:         outPipes[0].wCount.Val = 0;
  4035  0051' 0183'              	clrf	(_outPipes^(0+128)+3)	;volatile
  4036  0052' 0183'              	clrf	((_outPipes+1)^(0+128)+3)	;volatile
  4037  0053'                    l4146:
  4038                           
  4039                           ;mcc_generated_files/usb/usb_device.c: 336:     }while(UIRbits.TRNIF == 1);
  4040  0053' 003D               	movlb	29	; select bank29
  4041  0054' 1990               	btfsc	16,3	;volatile
  4042  0055' 2800'              	goto	u2751
  4043  0056' 2800'              	goto	u2750
  4044  0057'                    u2751:
  4045  0057' 2800'              	goto	l4138
  4046  0058'                    u2750:
  4047  0058'                    l4148:
  4048                           
  4049                           ;mcc_generated_files/usb/usb_device.c: 340:     USBStatusStageEnabledFlag1 = 1;
  4050  0058' 3001               	movlw	1
  4051  0059' 0021               	movlb	1	; select bank1
  4052  005A' 0080'              	movwf	??_USBDeviceInit^(0+128)
  4053  005B' 0800'              	movf	??_USBDeviceInit^(0+128),w
  4054  005C' 0023               	movlb	3	; select bank3
  4055  005D' 0080'              	movwf	_USBStatusStageEnabledFlag1^(0+384)	;volatile
  4056                           
  4057                           ;mcc_generated_files/usb/usb_device.c: 341:     USBStatusStageEnabledFlag2 = 1;
  4058  005E' 3001               	movlw	1
  4059  005F' 0021               	movlb	1	; select bank1
  4060  0060' 0080'              	movwf	??_USBDeviceInit^(0+128)
  4061  0061' 0800'              	movf	??_USBDeviceInit^(0+128),w
  4062  0062' 0023               	movlb	3	; select bank3
  4063  0063' 0080'              	movwf	_USBStatusStageEnabledFlag2^(0+384)	;volatile
  4064  0064'                    l4150:
  4065                           
  4066                           ;mcc_generated_files/usb/usb_device.c: 343:     USBDeferINDataStagePackets = 0;
  4067  0064' 0180'              	clrf	_USBDeferINDataStagePackets^(0+384)	;volatile
  4068  0065'                    l4152:
  4069                           
  4070                           ;mcc_generated_files/usb/usb_device.c: 344:     USBDeferOUTDataStagePackets = 0;
  4071  0065' 0180'              	clrf	_USBDeferOUTDataStagePackets^(0+384)	;volatile
  4072  0066'                    l4154:
  4073                           
  4074                           ;mcc_generated_files/usb/usb_device.c: 345:     USBBusIsSuspended = 0;
  4075  0066' 0180'              	clrf	_USBBusIsSuspended^(0+384)	;volatile
  4076  0067'                    l4156:
  4077                           
  4078                           ;mcc_generated_files/usb/usb_device.c: 349:     for(i = 0; i < (uint8_t)(2 +1u); i++)
  4079  0067' 0021               	movlb	1	; select bank1
  4080  0068' 0180'              	clrf	USBDeviceInit@i^(0+128)
  4081  0069'                    l4160:
  4082                           
  4083                           ;mcc_generated_files/usb/usb_device.c: 350:     {;mcc_generated_files/usb/usb_device.c: 
      +                          351:         pBDTEntryIn[i] = 0u;
  4084  0069' 3500'              	lslf	USBDeviceInit@i^(0+128),w
  4085  006A' 3E00'              	addlw	(low (_pBDTEntryIn| 0))& (0+255)
  4086  006B' 0086               	movwf	6
  4087  006C' 0187               	clrf	7
  4088  006D' 3000               	movlw	0
  4089  006E' 3FC0               	movwi [0]fsr1
  4090  006F' 3FC1               	movwi [1]fsr1
  4091                           
  4092                           ;mcc_generated_files/usb/usb_device.c: 352:         pBDTEntryOut[i] = 0u;
  4093  0070' 3500'              	lslf	USBDeviceInit@i^(0+128),w
  4094  0071' 3E00'              	addlw	(low (_pBDTEntryOut| (0+256)))& (0+255)
  4095  0072' 0086               	movwf	6
  4096  0073' 3001               	movlw	1	; select bank3/4
  4097  0074' 0087               	movwf	7
  4098  0075' 3000               	movlw	0
  4099  0076' 3FC0               	movwi [0]fsr1
  4100  0077' 3FC1               	movwi [1]fsr1
  4101                           
  4102                           ;mcc_generated_files/usb/usb_device.c: 353:         ep_data_in[i].Val = 0u;
  4103  0078' 0800'              	movf	USBDeviceInit@i^(0+128),w
  4104  0079' 3E00'              	addlw	(low (_ep_data_in| (0+256)))& (0+255)
  4105  007A' 0086               	movwf	6
  4106  007B' 3001               	movlw	1	; select bank3/4
  4107  007C' 0087               	movwf	7
  4108  007D' 0181               	clrf	1
  4109                           
  4110                           ;mcc_generated_files/usb/usb_device.c: 354:         ep_data_out[i].Val = 0u;
  4111  007E' 0800'              	movf	USBDeviceInit@i^(0+128),w
  4112  007F' 3E00'              	addlw	(low (_ep_data_out| (0+256)))& (0+255)
  4113  0080' 0086               	movwf	6
  4114  0081' 3001               	movlw	1	; select bank3/4
  4115  0082' 0087               	movwf	7
  4116  0083' 0181               	clrf	1
  4117  0084'                    l4162:
  4118                           
  4119                           ;mcc_generated_files/usb/usb_device.c: 355:     }
  4120  0084' 3001               	movlw	1
  4121  0085' 0080'              	movwf	??_USBDeviceInit^(0+128)
  4122  0086' 0800'              	movf	??_USBDeviceInit^(0+128),w
  4123  0087' 0780'              	addwf	USBDeviceInit@i^(0+128),f
  4124  0088'                    l4164:
  4125  0088' 3003               	movlw	3
  4126  0089' 0200'              	subwf	USBDeviceInit@i^(0+128),w
  4127  008A' 1C03               	skipc
  4128  008B' 2800'              	goto	u2761
  4129  008C' 2800'              	goto	u2760
  4130  008D'                    u2761:
  4131  008D' 2800'              	goto	l4160
  4132  008E'                    u2760:
  4133  008E'                    l4166:
  4134                           
  4135                           ;mcc_generated_files/usb/usb_device.c: 358:     pBDTEntryIn[0] = (volatile BDT_ENTRY*)&B
      +                          DT[2];
  4136  008E' 3028               	movlw	40
  4137  008F' 0080'              	movwf	_pBDTEntryIn^(0+128)
  4138  0090' 3000               	movlw	0
  4139  0091' 0080'              	movwf	(_pBDTEntryIn+1)^(0+128)
  4140  0092'                    l4168:
  4141                           
  4142                           ;mcc_generated_files/usb/usb_device.c: 360:     UEP0 = 0x06|0x10;
  4143  0092' 3016               	movlw	22
  4144  0093' 003D               	movlb	29	; select bank29
  4145  0094' 0098               	movwf	24	;volatile
  4146  0095'                    l4170:
  4147                           
  4148                           ;mcc_generated_files/usb/usb_device.c: 362:     BDT[0].ADR = (((uint16_t)(&SetupPkt)) & 
      +                          0x7FFF);
  4149  0095' 3000               	movlw	0
  4150  0096' 0020               	movlb	0	; select bank0
  4151  0097' 00A3               	movwf	35	;volatile
  4152  0098' 3050               	movlw	80
  4153  0099' 00A2               	movwf	34	;volatile
  4154  009A'                    l4172:
  4155                           
  4156                           ;mcc_generated_files/usb/usb_device.c: 363:     BDT[0].CNT = 8;
  4157  009A' 3008               	movlw	8
  4158  009B' 00A1               	movwf	33	;volatile
  4159  009C'                    l4174:
  4160                           
  4161                           ;mcc_generated_files/usb/usb_device.c: 364:     BDT[0].STAT.Val = 0x00|0x04;
  4162  009C' 3004               	movlw	4
  4163  009D' 0021               	movlb	1	; select bank1
  4164  009E' 0080'              	movwf	??_USBDeviceInit^(0+128)
  4165  009F' 0800'              	movf	??_USBDeviceInit^(0+128),w
  4166  00A0' 0020               	movlb	0	; select bank0
  4167  00A1' 00A0               	movwf	32	;volatile
  4168  00A2'                    l4176:
  4169                           
  4170                           ;mcc_generated_files/usb/usb_device.c: 365:     BDT[0].STAT.Val |= 0x80;
  4171  00A2' 17A0               	bsf	32,7	;volatile
  4172  00A3'                    l4178:
  4173                           
  4174                           ;mcc_generated_files/usb/usb_device.c: 368:     USBActiveConfiguration = 0;
  4175  00A3' 0021               	movlb	1	; select bank1
  4176  00A4' 0180'              	clrf	_USBActiveConfiguration^(0+128)	;volatile
  4177  00A5'                    l4180:
  4178                           
  4179                           ;mcc_generated_files/usb/usb_device.c: 370:     USB1msTickCount = 0;
  4180  00A5' 3000               	movlw	0
  4181  00A6' 0023               	movlb	3	; select bank3
  4182  00A7' 0080'              	movwf	(_USB1msTickCount+3)^(0+384)	;volatile
  4183  00A8' 3000               	movlw	0
  4184  00A9' 0080'              	movwf	(_USB1msTickCount+2)^(0+384)	;volatile
  4185  00AA' 3000               	movlw	0
  4186  00AB' 0080'              	movwf	(_USB1msTickCount+1)^(0+384)	;volatile
  4187  00AC' 3000               	movlw	0
  4188  00AD' 0080'              	movwf	_USB1msTickCount^(0+384)	;volatile
  4189  00AE'                    l4182:
  4190                           
  4191                           ;mcc_generated_files/usb/usb_device.c: 371:     USBTicksSinceSuspendEnd = 0;
  4192  00AE' 0180'              	clrf	_USBTicksSinceSuspendEnd^(0+384)	;volatile
  4193  00AF'                    l4184:
  4194                           
  4195                           ;mcc_generated_files/usb/usb_device.c: 374:     USBDeviceState = DETACHED_STATE;
  4196  00AF' 0021               	movlb	1	; select bank1
  4197  00B0' 0180'              	clrf	_USBDeviceState^(0+128)	;volatile
  4198  00B1'                    l333:
  4199  00B1' 0008               	return
  4200  00B2'                    __end_of_USBDeviceInit:
  4201                           
  4202                           	psect	text10
  4203  0000'                    __ptext10:	
  4204 ;; *************** function _USBDeviceAttach *****************
  4205 ;; Defined at:
  4206 ;;		line 1356 in file "mcc_generated_files/usb/usb_device.c"
  4207 ;; Parameters:    Size  Location     Type
  4208 ;;		None
  4209 ;; Auto vars:     Size  Location     Type
  4210 ;;		None
  4211 ;; Return value:  Size  Location     Type
  4212 ;;                  1    wreg      void 
  4213 ;; Registers used:
  4214 ;;		wreg, status,2, status,0
  4215 ;; Tracked objects:
  4216 ;;		On entry : 0/0
  4217 ;;		On exit  : 0/0
  4218 ;;		Unchanged: 0/0
  4219 ;; Data sizes:     COMMON   BANK0   BANK1   BANK2   BANK3   BANK4   BANK5   BANK6   BANK7   BANK8   BANK9  BANK10  BANK1
      +1  BANK12
  4220 ;;      Params:         0       0       0       0       0       0       0       0       0       0       0       0       
      +0       0
  4221 ;;      Locals:         0       0       0       0       0       0       0       0       0       0       0       0       
      +0       0
  4222 ;;      Temps:          0       0       1       0       0       0       0       0       0       0       0       0       
      +0       0
  4223 ;;      Totals:         0       0       1       0       0       0       0       0       0       0       0       0       
      +0       0
  4224 ;;Total ram usage:        1 bytes
  4225 ;; Hardware stack levels used:    1
  4226 ;; Hardware stack levels required when called:   10
  4227 ;; This function calls:
  4228 ;;		Nothing
  4229 ;; This function is called by:
  4230 ;;		_SYSTEM_Initialize
  4231 ;; This function uses a non-reentrant model
  4232 ;;
  4233                           
  4234                           
  4235                           ;psect for function _USBDeviceAttach
  4236  0000'                    _USBDeviceAttach:
  4237  0000'                    l4208:	
  4238                           ;incstack = 0
  4239                           ; Regs used in _USBDeviceAttach: [wreg+status,2+status,0]
  4240                           
  4241                           
  4242                           ;mcc_generated_files/usb/usb_device.c: 1360:     {;mcc_generated_files/usb/usb_device.c:
      +                           1361:         if(1 == 1)
  4243  0000' 0021               	movlb	1	; select bank1
  4244  0001' 0800'              	movf	_USBDeviceState^(0+128),w	;volatile
  4245  0002' 1D03               	btfss	3,2
  4246  0003' 2800'              	goto	u2771
  4247  0004' 2800'              	goto	u2770
  4248  0005'                    u2771:
  4249  0005' 2800'              	goto	l391
  4250  0006'                    u2770:
  4251  0006'                    l4210:
  4252                           
  4253                           ;mcc_generated_files/usb/usb_device.c: 1362:         {;mcc_generated_files/usb/usb_devic
      +                          e.c: 1364:             UCON = 0;
  4254  0006' 003D               	movlb	29	; select bank29
  4255  0007' 018E               	clrf	14	;volatile
  4256                           
  4257                           ;mcc_generated_files/usb/usb_device.c: 1367:             UIE = 0;
  4258  0008' 0192               	clrf	18	;volatile
  4259  0009'                    l4212:
  4260                           
  4261                           ;mcc_generated_files/usb/usb_device.c: 1371:             { UCFG = 0x10 | 0x00 | 0x04 | 0
      +                          x02; UEIE = 0x9F; UIE = 0x39 | 0x40 | 0x02; };
  4262  0009' 3016               	movlw	22
  4263  000A' 0091               	movwf	17	;volatile
  4264  000B'                    l4214:
  4265  000B' 309F               	movlw	159
  4266  000C' 0097               	movwf	23	;volatile
  4267  000D'                    l4216:
  4268  000D' 307B               	movlw	123
  4269  000E' 0092               	movwf	18	;volatile
  4270  000F'                    l4218:
  4271                           
  4272                           ;mcc_generated_files/usb/usb_device.c: 1373:             {PIE2bits.USBIE = 1;};
  4273  000F' 0021               	movlb	1	; select bank1
  4274  0010' 1512               	bsf	18,2	;volatile
  4275                           
  4276                           ;mcc_generated_files/usb/usb_device.c: 1376:             while(!UCONbits.USBEN){UCONbits
      +                          .USBEN = 1;}
  4277  0011' 2800'              	goto	l388
  4278  0012'                    l389:
  4279  0012' 158E               	bsf	14,3	;volatile
  4280  0013'                    l388:
  4281  0013' 003D               	movlb	29	; select bank29
  4282  0014' 1D8E               	btfss	14,3	;volatile
  4283  0015' 2800'              	goto	u2781
  4284  0016' 2800'              	goto	u2780
  4285  0017'                    u2781:
  4286  0017' 2800'              	goto	l389
  4287  0018'                    u2780:
  4288  0018'                    l4220:
  4289                           
  4290                           ;mcc_generated_files/usb/usb_device.c: 1379:             USBDeviceState = ATTACHED_STATE
      +                          ;
  4291  0018' 3001               	movlw	1
  4292  0019' 0021               	movlb	1	; select bank1
  4293  001A' 0080'              	movwf	??_USBDeviceAttach^(0+128)
  4294  001B' 0800'              	movf	??_USBDeviceAttach^(0+128),w
  4295  001C' 0080'              	movwf	_USBDeviceState^(0+128)	;volatile
  4296  001D'                    l391:
  4297  001D' 0008               	return
  4298  001E'                    __end_of_USBDeviceAttach:
  4299                           
  4300                           	psect	text11
  4301  0000'                    __ptext11:	
  4302 ;; *************** function _TMR0_Initialize *****************
  4303 ;; Defined at:
  4304 ;;		line 69 in file "mcc_generated_files/tmr0.c"
  4305 ;; Parameters:    Size  Location     Type
  4306 ;;		None
  4307 ;; Auto vars:     Size  Location     Type
  4308 ;;		None
  4309 ;; Return value:  Size  Location     Type
  4310 ;;                  1    wreg      void 
  4311 ;; Registers used:
  4312 ;;		wreg, status,2, status,0, pclath, cstack
  4313 ;; Tracked objects:
  4314 ;;		On entry : 0/0
  4315 ;;		On exit  : 0/0
  4316 ;;		Unchanged: 0/0
  4317 ;; Data sizes:     COMMON   BANK0   BANK1   BANK2   BANK3   BANK4   BANK5   BANK6   BANK7   BANK8   BANK9  BANK10  BANK1
      +1  BANK12
  4318 ;;      Params:         0       0       0       0       0       0       0       0       0       0       0       0       
      +0       0
  4319 ;;      Locals:         0       0       0       0       0       0       0       0       0       0       0       0       
      +0       0
  4320 ;;      Temps:          0       0       1       0       0       0       0       0       0       0       0       0       
      +0       0
  4321 ;;      Totals:         0       0       1       0       0       0       0       0       0       0       0       0       
      +0       0
  4322 ;;Total ram usage:        1 bytes
  4323 ;; Hardware stack levels used:    1
  4324 ;; Hardware stack levels required when called:   11
  4325 ;; This function calls:
  4326 ;;		_TMR0_SetInterruptHandler
  4327 ;; This function is called by:
  4328 ;;		_SYSTEM_Initialize
  4329 ;; This function uses a non-reentrant model
  4330 ;;
  4331                           
  4332                           
  4333                           ;psect for function _TMR0_Initialize
  4334  0000'                    _TMR0_Initialize:
  4335  0000'                    l4196:	
  4336                           ;incstack = 0
  4337                           ; Regs used in _TMR0_Initialize: [wreg+status,2+status,0+pclath+cstack]
  4338                           
  4339                           
  4340                           ;mcc_generated_files/tmr0.c: 74:     OPTION_REG = (uint8_t)((OPTION_REG & 0xC0) | (0xD2 
      +                          & 0x3F));
  4341  0000' 0021               	movlb	1	; select bank1
  4342  0001' 0815               	movf	21,w	;volatile
  4343  0002' 39C0               	andlw	192
  4344  0003' 3812               	iorlw	18
  4345  0004' 0095               	movwf	21	;volatile
  4346  0005'                    l4198:
  4347                           
  4348                           ;mcc_generated_files/tmr0.c: 77:     TMR0 = 0x06;
  4349  0005' 3006               	movlw	6
  4350  0006' 0020               	movlb	0	; select bank0
  4351  0007' 0095               	movwf	21	;volatile
  4352  0008'                    l4200:
  4353                           
  4354                           ;mcc_generated_files/tmr0.c: 80:     timer0ReloadVal= 6;
  4355  0008' 3006               	movlw	6
  4356  0009' 0021               	movlb	1	; select bank1
  4357  000A' 0080'              	movwf	??_TMR0_Initialize^(0+128)
  4358  000B' 0800'              	movf	??_TMR0_Initialize^(0+128),w
  4359  000C' 0023               	movlb	3	; select bank3
  4360  000D' 0080'              	movwf	_timer0ReloadVal^(0+384)	;volatile
  4361  000E'                    l4202:
  4362                           
  4363                           ;mcc_generated_files/tmr0.c: 83:     INTCONbits.TMR0IF = 0;
  4364  000E' 110B               	bcf	11,2	;volatile
  4365  000F'                    l4204:
  4366                           
  4367                           ;mcc_generated_files/tmr0.c: 86:     INTCONbits.TMR0IE = 1;
  4368  000F' 168B               	bsf	11,5	;volatile
  4369  0010'                    l4206:
  4370                           
  4371                           ;mcc_generated_files/tmr0.c: 89:     TMR0_SetInterruptHandler(TMR0_DefaultInterruptHandl
      +                          er);
  4372  0010' 3000'              	movlw	low _TMR0_DefaultInterruptHandler
  4373  0011' 0021               	movlb	1	; select bank1
  4374  0012' 0080'              	movwf	TMR0_SetInterruptHandler@InterruptHandler^(0+128)
  4375  0013' 3000'              	movlw	high _TMR0_DefaultInterruptHandler
  4376  0014' 0081'              	movwf	(TMR0_SetInterruptHandler@InterruptHandler^(0+128)+1)
  4377  0015' 3180' 2000' 3180'  	fcall	_TMR0_SetInterruptHandler
  4378  0018'                    l676:
  4379  0018' 0008               	return
  4380  0019'                    __end_of_TMR0_Initialize:
  4381                           
  4382                           	psect	text12
  4383  0000'                    __ptext12:	
  4384 ;; *************** function _TMR0_SetInterruptHandler *****************
  4385 ;; Defined at:
  4386 ;;		line 145 in file "mcc_generated_files/tmr0.c"
  4387 ;; Parameters:    Size  Location     Type
  4388 ;;  InterruptHan    2    5[BANK1 ] PTR FTN()void 
  4389 ;;		 -> TMR0_DefaultInterruptHandler(1), 
  4390 ;; Auto vars:     Size  Location     Type
  4391 ;;		None
  4392 ;; Return value:  Size  Location     Type
  4393 ;;                  1    wreg      void 
  4394 ;; Registers used:
  4395 ;;		wreg
  4396 ;; Tracked objects:
  4397 ;;		On entry : 0/0
  4398 ;;		On exit  : 0/0
  4399 ;;		Unchanged: 0/0
  4400 ;; Data sizes:     COMMON   BANK0   BANK1   BANK2   BANK3   BANK4   BANK5   BANK6   BANK7   BANK8   BANK9  BANK10  BANK1
      +1  BANK12
  4401 ;;      Params:         0       0       2       0       0       0       0       0       0       0       0       0       
      +0       0
  4402 ;;      Locals:         0       0       0       0       0       0       0       0       0       0       0       0       
      +0       0
  4403 ;;      Temps:          0       0       0       0       0       0       0       0       0       0       0       0       
      +0       0
  4404 ;;      Totals:         0       0       2       0       0       0       0       0       0       0       0       0       
      +0       0
  4405 ;;Total ram usage:        2 bytes
  4406 ;; Hardware stack levels used:    1
  4407 ;; Hardware stack levels required when called:   10
  4408 ;; This function calls:
  4409 ;;		Nothing
  4410 ;; This function is called by:
  4411 ;;		_TMR0_Initialize
  4412 ;; This function uses a non-reentrant model
  4413 ;;
  4414                           
  4415                           
  4416                           ;psect for function _TMR0_SetInterruptHandler
  4417  0000'                    _TMR0_SetInterruptHandler:
  4418  0000'                    l4048:	
  4419                           ;incstack = 0
  4420                           ; Regs used in _TMR0_SetInterruptHandler: [wreg]
  4421                           
  4422                           
  4423                           ;mcc_generated_files/tmr0.c: 146:     TMR0_InterruptHandler = InterruptHandler;
  4424  0000' 0021               	movlb	1	; select bank1
  4425  0001' 0800'              	movf	(TMR0_SetInterruptHandler@InterruptHandler+1)^(0+128),w
  4426  0002' 0023               	movlb	3	; select bank3
  4427  0003' 0080'              	movwf	(_TMR0_InterruptHandler+1)^(0+384)
  4428  0004' 0021               	movlb	1	; select bank1
  4429  0005' 0800'              	movf	TMR0_SetInterruptHandler@InterruptHandler^(0+128),w
  4430  0006' 0023               	movlb	3	; select bank3
  4431  0007' 0080'              	movwf	_TMR0_InterruptHandler^(0+384)
  4432  0008'                    l696:
  4433  0008' 0008               	return
  4434  0009'                    __end_of_TMR0_SetInterruptHandler:
  4435                           
  4436                           	psect	text13
  4437  0000'                    __ptext13:	
  4438 ;; *************** function _PIN_MANAGER_Initialize *****************
  4439 ;; Defined at:
  4440 ;;		line 57 in file "mcc_generated_files/pin_manager.c"
  4441 ;; Parameters:    Size  Location     Type
  4442 ;;		None
  4443 ;; Auto vars:     Size  Location     Type
  4444 ;;		None
  4445 ;; Return value:  Size  Location     Type
  4446 ;;                  1    wreg      void 
  4447 ;; Registers used:
  4448 ;;		wreg, status,2, status,0, pclath, cstack
  4449 ;; Tracked objects:
  4450 ;;		On entry : 0/0
  4451 ;;		On exit  : 0/0
  4452 ;;		Unchanged: 0/0
  4453 ;; Data sizes:     COMMON   BANK0   BANK1   BANK2   BANK3   BANK4   BANK5   BANK6   BANK7   BANK8   BANK9  BANK10  BANK1
      +1  BANK12
  4454 ;;      Params:         0       0       0       0       0       0       0       0       0       0       0       0       
      +0       0
  4455 ;;      Locals:         0       0       0       0       0       0       0       0       0       0       0       0       
      +0       0
  4456 ;;      Temps:          0       0       0       0       0       0       0       0       0       0       0       0       
      +0       0
  4457 ;;      Totals:         0       0       0       0       0       0       0       0       0       0       0       0       
      +0       0
  4458 ;;Total ram usage:        0 bytes
  4459 ;; Hardware stack levels used:    1
  4460 ;; Hardware stack levels required when called:   11
  4461 ;; This function calls:
  4462 ;;		_IOCAF5_SetInterruptHandler
  4463 ;; This function is called by:
  4464 ;;		_SYSTEM_Initialize
  4465 ;; This function uses a non-reentrant model
  4466 ;;
  4467                           
  4468                           
  4469                           ;psect for function _PIN_MANAGER_Initialize
  4470  0000'                    _PIN_MANAGER_Initialize:
  4471  0000'                    l4058:	
  4472                           ;incstack = 0
  4473                           ; Regs used in _PIN_MANAGER_Initialize: [wreg+status,2+status,0+pclath+cstack]
  4474                           
  4475                           
  4476                           ;mcc_generated_files/pin_manager.c: 62:     LATA = 0x00;
  4477  0000' 0022               	movlb	2	; select bank2
  4478  0001' 018C               	clrf	12	;volatile
  4479                           
  4480                           ;mcc_generated_files/pin_manager.c: 63:     LATB = 0x00;
  4481  0002' 018D               	clrf	13	;volatile
  4482  0003'                    l4060:
  4483                           
  4484                           ;mcc_generated_files/pin_manager.c: 64:     LATC = 0x20;
  4485  0003' 3020               	movlw	32
  4486  0004' 008E               	movwf	14	;volatile
  4487  0005'                    l4062:
  4488                           
  4489                           ;mcc_generated_files/pin_manager.c: 69:     TRISA = 0x20;
  4490  0005' 3020               	movlw	32
  4491  0006' 0021               	movlb	1	; select bank1
  4492  0007' 008C               	movwf	12	;volatile
  4493  0008'                    l4064:
  4494                           
  4495                           ;mcc_generated_files/pin_manager.c: 70:     TRISB = 0xF0;
  4496  0008' 30F0               	movlw	240
  4497  0009' 008D               	movwf	13	;volatile
  4498  000A'                    l4066:
  4499                           
  4500                           ;mcc_generated_files/pin_manager.c: 71:     TRISC = 0xDF;
  4501  000A' 30DF               	movlw	223
  4502  000B' 008E               	movwf	14	;volatile
  4503  000C'                    l4068:
  4504                           
  4505                           ;mcc_generated_files/pin_manager.c: 76:     ANSELC = 0xCC;
  4506  000C' 30CC               	movlw	204
  4507  000D' 0023               	movlb	3	; select bank3
  4508  000E' 008E               	movwf	14	;volatile
  4509  000F'                    l4070:
  4510                           
  4511                           ;mcc_generated_files/pin_manager.c: 77:     ANSELB = 0x00;
  4512  000F' 018D               	clrf	13	;volatile
  4513                           
  4514                           ;mcc_generated_files/pin_manager.c: 78:     ANSELA = 0x10;
  4515  0010' 3010               	movlw	16
  4516  0011' 008C               	movwf	12	;volatile
  4517  0012'                    l4072:
  4518                           
  4519                           ;mcc_generated_files/pin_manager.c: 83:     WPUB = 0x00;
  4520  0012' 0024               	movlb	4	; select bank4
  4521  0013' 018D               	clrf	13	;volatile
  4522  0014'                    l4074:
  4523                           
  4524                           ;mcc_generated_files/pin_manager.c: 84:     WPUA = 0x00;
  4525  0014' 018C               	clrf	12	;volatile
  4526  0015'                    l4076:
  4527                           
  4528                           ;mcc_generated_files/pin_manager.c: 85:     OPTION_REGbits.nWPUEN = 1;
  4529  0015' 0021               	movlb	1	; select bank1
  4530  0016' 1795               	bsf	21,7	;volatile
  4531  0017'                    l4078:
  4532                           
  4533                           ;mcc_generated_files/pin_manager.c: 91:     APFCON = 0x00;
  4534  0017' 0022               	movlb	2	; select bank2
  4535  0018' 019D               	clrf	29	;volatile
  4536  0019'                    l4080:
  4537                           
  4538                           ;mcc_generated_files/pin_manager.c: 97:     IOCAFbits.IOCAF5 = 0;
  4539  0019' 0027               	movlb	7	; select bank7
  4540  001A' 1293               	bcf	19,5	;volatile
  4541  001B'                    l4082:
  4542                           
  4543                           ;mcc_generated_files/pin_manager.c: 99:     IOCANbits.IOCAN5 = 1;
  4544  001B' 1692               	bsf	18,5	;volatile
  4545  001C'                    l4084:
  4546                           
  4547                           ;mcc_generated_files/pin_manager.c: 101:     IOCAPbits.IOCAP5 = 1;
  4548  001C' 1691               	bsf	17,5	;volatile
  4549  001D'                    l4086:
  4550                           
  4551                           ;mcc_generated_files/pin_manager.c: 106:     IOCAF5_SetInterruptHandler(IOCAF5_DefaultIn
      +                          terruptHandler);
  4552  001D' 3000'              	movlw	low _IOCAF5_DefaultInterruptHandler
  4553  001E' 0021               	movlb	1	; select bank1
  4554  001F' 0080'              	movwf	IOCAF5_SetInterruptHandler@InterruptHandler^(0+128)
  4555  0020' 3000'              	movlw	high _IOCAF5_DefaultInterruptHandler
  4556  0021' 0081'              	movwf	(IOCAF5_SetInterruptHandler@InterruptHandler^(0+128)+1)
  4557  0022' 3180' 2000' 3180'  	fcall	_IOCAF5_SetInterruptHandler
  4558  0025'                    l4088:
  4559                           
  4560                           ;mcc_generated_files/pin_manager.c: 109:     INTCONbits.IOCIE = 1;
  4561  0025' 158B               	bsf	11,3	;volatile
  4562  0026'                    l633:
  4563  0026' 0008               	return
  4564  0027'                    __end_of_PIN_MANAGER_Initialize:
  4565                           
  4566                           	psect	text14
  4567  0000'                    __ptext14:	
  4568 ;; *************** function _IOCAF5_SetInterruptHandler *****************
  4569 ;; Defined at:
  4570 ;;		line 140 in file "mcc_generated_files/pin_manager.c"
  4571 ;; Parameters:    Size  Location     Type
  4572 ;;  InterruptHan    2    5[BANK1 ] PTR FTN()void 
  4573 ;;		 -> IOCAF5_DefaultInterruptHandler(1), 
  4574 ;; Auto vars:     Size  Location     Type
  4575 ;;		None
  4576 ;; Return value:  Size  Location     Type
  4577 ;;                  1    wreg      void 
  4578 ;; Registers used:
  4579 ;;		wreg
  4580 ;; Tracked objects:
  4581 ;;		On entry : 0/0
  4582 ;;		On exit  : 0/0
  4583 ;;		Unchanged: 0/0
  4584 ;; Data sizes:     COMMON   BANK0   BANK1   BANK2   BANK3   BANK4   BANK5   BANK6   BANK7   BANK8   BANK9  BANK10  BANK1
      +1  BANK12
  4585 ;;      Params:         0       0       2       0       0       0       0       0       0       0       0       0       
      +0       0
  4586 ;;      Locals:         0       0       0       0       0       0       0       0       0       0       0       0       
      +0       0
  4587 ;;      Temps:          0       0       0       0       0       0       0       0       0       0       0       0       
      +0       0
  4588 ;;      Totals:         0       0       2       0       0       0       0       0       0       0       0       0       
      +0       0
  4589 ;;Total ram usage:        2 bytes
  4590 ;; Hardware stack levels used:    1
  4591 ;; Hardware stack levels required when called:   10
  4592 ;; This function calls:
  4593 ;;		Nothing
  4594 ;; This function is called by:
  4595 ;;		_PIN_MANAGER_Initialize
  4596 ;; This function uses a non-reentrant model
  4597 ;;
  4598                           
  4599                           
  4600                           ;psect for function _IOCAF5_SetInterruptHandler
  4601  0000'                    _IOCAF5_SetInterruptHandler:
  4602  0000'                    l4046:	
  4603                           ;incstack = 0
  4604                           ; Regs used in _IOCAF5_SetInterruptHandler: [wreg]
  4605                           
  4606                           
  4607                           ;mcc_generated_files/pin_manager.c: 141:     IOCAF5_InterruptHandler = InterruptHandler;
  4608  0000' 0021               	movlb	1	; select bank1
  4609  0001' 0800'              	movf	(IOCAF5_SetInterruptHandler@InterruptHandler+1)^(0+128),w
  4610  0002' 0023               	movlb	3	; select bank3
  4611  0003' 0080'              	movwf	(_IOCAF5_InterruptHandler+1)^(0+384)
  4612  0004' 0021               	movlb	1	; select bank1
  4613  0005' 0800'              	movf	IOCAF5_SetInterruptHandler@InterruptHandler^(0+128),w
  4614  0006' 0023               	movlb	3	; select bank3
  4615  0007' 0080'              	movwf	_IOCAF5_InterruptHandler^(0+384)
  4616  0008'                    l644:
  4617  0008' 0008               	return
  4618  0009'                    __end_of_IOCAF5_SetInterruptHandler:
  4619                           
  4620                           	psect	text15
  4621  0000'                    __ptext15:	
  4622 ;; *************** function _OSCILLATOR_Initialize *****************
  4623 ;; Defined at:
  4624 ;;		line 62 in file "mcc_generated_files/mcc.c"
  4625 ;; Parameters:    Size  Location     Type
  4626 ;;		None
  4627 ;; Auto vars:     Size  Location     Type
  4628 ;;		None
  4629 ;; Return value:  Size  Location     Type
  4630 ;;                  1    wreg      void 
  4631 ;; Registers used:
  4632 ;;		wreg, status,2
  4633 ;; Tracked objects:
  4634 ;;		On entry : 0/0
  4635 ;;		On exit  : 0/0
  4636 ;;		Unchanged: 0/0
  4637 ;; Data sizes:     COMMON   BANK0   BANK1   BANK2   BANK3   BANK4   BANK5   BANK6   BANK7   BANK8   BANK9  BANK10  BANK1
      +1  BANK12
  4638 ;;      Params:         0       0       0       0       0       0       0       0       0       0       0       0       
      +0       0
  4639 ;;      Locals:         0       0       0       0       0       0       0       0       0       0       0       0       
      +0       0
  4640 ;;      Temps:          0       0       0       0       0       0       0       0       0       0       0       0       
      +0       0
  4641 ;;      Totals:         0       0       0       0       0       0       0       0       0       0       0       0       
      +0       0
  4642 ;;Total ram usage:        0 bytes
  4643 ;; Hardware stack levels used:    1
  4644 ;; Hardware stack levels required when called:   10
  4645 ;; This function calls:
  4646 ;;		Nothing
  4647 ;; This function is called by:
  4648 ;;		_SYSTEM_Initialize
  4649 ;; This function uses a non-reentrant model
  4650 ;;
  4651                           
  4652                           
  4653                           ;psect for function _OSCILLATOR_Initialize
  4654  0000'                    _OSCILLATOR_Initialize:
  4655  0000'                    l4090:	
  4656                           ;incstack = 0
  4657                           ; Regs used in _OSCILLATOR_Initialize: [wreg+status,2]
  4658                           
  4659                           
  4660                           ;mcc_generated_files/mcc.c: 65:     OSCCON = 0x7C;
  4661  0000' 307C               	movlw	124
  4662  0001' 0021               	movlb	1	; select bank1
  4663  0002' 0099               	movwf	25	;volatile
  4664  0003'                    l4092:
  4665                           
  4666                           ;mcc_generated_files/mcc.c: 67:     OSCTUNE = 0x00;
  4667  0003' 0198               	clrf	24	;volatile
  4668  0004'                    l4094:
  4669                           
  4670                           ;mcc_generated_files/mcc.c: 69:     ACTCON = 0x00;
  4671  0004' 0027               	movlb	7	; select bank7
  4672  0005' 019B               	clrf	27	;volatile
  4673  0006'                    l4096:
  4674                           
  4675                           ;mcc_generated_files/mcc.c: 71:     BORCON = 0x00;
  4676  0006' 0022               	movlb	2	; select bank2
  4677  0007' 0196               	clrf	22	;volatile
  4678  0008'                    l146:	
  4679                           ;mcc_generated_files/mcc.c: 74:     {;mcc_generated_files/mcc.c: 75:     }
  4680                           
  4681                           
  4682                           ;mcc_generated_files/mcc.c: 73:     while(PLLRDY == 0)
  4683  0008' 0021               	movlb	1	; select bank1
  4684  0009' 1F1A               	btfss	26,6	;volatile
  4685  000A' 2800'              	goto	u2711
  4686  000B' 2800'              	goto	u2710
  4687  000C'                    u2711:
  4688  000C' 2800'              	goto	l146
  4689  000D'                    u2710:
  4690  000D'                    l149:
  4691  000D' 0008               	return
  4692  000E'                    __end_of_OSCILLATOR_Initialize:
  4693                           
  4694                           	psect	text16
  4695  0000'                    __ptext16:	
  4696 ;; *************** function _ADC_Initialize *****************
  4697 ;; Defined at:
  4698 ;;		line 67 in file "mcc_generated_files/adc.c"
  4699 ;; Parameters:    Size  Location     Type
  4700 ;;		None
  4701 ;; Auto vars:     Size  Location     Type
  4702 ;;		None
  4703 ;; Return value:  Size  Location     Type
  4704 ;;                  1    wreg      void 
  4705 ;; Registers used:
  4706 ;;		wreg, status,2
  4707 ;; Tracked objects:
  4708 ;;		On entry : 0/0
  4709 ;;		On exit  : 0/0
  4710 ;;		Unchanged: 0/0
  4711 ;; Data sizes:     COMMON   BANK0   BANK1   BANK2   BANK3   BANK4   BANK5   BANK6   BANK7   BANK8   BANK9  BANK10  BANK1
      +1  BANK12
  4712 ;;      Params:         0       0       0       0       0       0       0       0       0       0       0       0       
      +0       0
  4713 ;;      Locals:         0       0       0       0       0       0       0       0       0       0       0       0       
      +0       0
  4714 ;;      Temps:          0       0       0       0       0       0       0       0       0       0       0       0       
      +0       0
  4715 ;;      Totals:         0       0       0       0       0       0       0       0       0       0       0       0       
      +0       0
  4716 ;;Total ram usage:        0 bytes
  4717 ;; Hardware stack levels used:    1
  4718 ;; Hardware stack levels required when called:   10
  4719 ;; This function calls:
  4720 ;;		Nothing
  4721 ;; This function is called by:
  4722 ;;		_SYSTEM_Initialize
  4723 ;; This function uses a non-reentrant model
  4724 ;;
  4725                           
  4726                           
  4727                           ;psect for function _ADC_Initialize
  4728  0000'                    _ADC_Initialize:
  4729  0000'                    l4186:	
  4730                           ;incstack = 0
  4731                           ; Regs used in _ADC_Initialize: [wreg+status,2]
  4732                           
  4733                           
  4734                           ;mcc_generated_files/adc.c: 72:     ADCON1 = 0xA0;
  4735  0000' 30A0               	movlw	160
  4736  0001' 0021               	movlb	1	; select bank1
  4737  0002' 009E               	movwf	30	;volatile
  4738  0003'                    l4188:
  4739                           
  4740                           ;mcc_generated_files/adc.c: 75:     ADCON2 = 0x00;
  4741  0003' 019F               	clrf	31	;volatile
  4742  0004'                    l4190:
  4743                           
  4744                           ;mcc_generated_files/adc.c: 78:     ADRESL = 0x00;
  4745  0004' 019B               	clrf	27	;volatile
  4746  0005'                    l4192:
  4747                           
  4748                           ;mcc_generated_files/adc.c: 81:     ADRESH = 0x00;
  4749  0005' 019C               	clrf	28	;volatile
  4750  0006'                    l4194:
  4751                           
  4752                           ;mcc_generated_files/adc.c: 84:     ADCON0 = 0x01;
  4753  0006' 3001               	movlw	1
  4754  0007' 009D               	movwf	29	;volatile
  4755  0008'                    l171:
  4756  0008' 0008               	return
  4757  0009'                    __end_of_ADC_Initialize:
  4758                           
  4759                           	psect	text17
  4760  0000'                    __ptext17:	
  4761 ;; *************** function _I2C_Initialize *****************
  4762 ;; Defined at:
  4763 ;;		line 6 in file "24aa32a.c"
  4764 ;; Parameters:    Size  Location     Type
  4765 ;;		None
  4766 ;; Auto vars:     Size  Location     Type
  4767 ;;		None
  4768 ;; Return value:  Size  Location     Type
  4769 ;;                  1    wreg      void 
  4770 ;; Registers used:
  4771 ;;		wreg, status,2
  4772 ;; Tracked objects:
  4773 ;;		On entry : 0/0
  4774 ;;		On exit  : 0/0
  4775 ;;		Unchanged: 0/0
  4776 ;; Data sizes:     COMMON   BANK0   BANK1   BANK2   BANK3   BANK4   BANK5   BANK6   BANK7   BANK8   BANK9  BANK10  BANK1
      +1  BANK12
  4777 ;;      Params:         0       0       0       0       0       0       0       0       0       0       0       0       
      +0       0
  4778 ;;      Locals:         0       0       0       0       0       0       0       0       0       0       0       0       
      +0       0
  4779 ;;      Temps:          0       0       0       0       0       0       0       0       0       0       0       0       
      +0       0
  4780 ;;      Totals:         0       0       0       0       0       0       0       0       0       0       0       0       
      +0       0
  4781 ;;Total ram usage:        0 bytes
  4782 ;; Hardware stack levels used:    1
  4783 ;; Hardware stack levels required when called:   10
  4784 ;; This function calls:
  4785 ;;		Nothing
  4786 ;; This function is called by:
  4787 ;;		_main
  4788 ;; This function uses a non-reentrant model
  4789 ;;
  4790                           
  4791                           
  4792                           ;psect for function _I2C_Initialize
  4793  0000'                    _I2C_Initialize:
  4794  0000'                    l4392:	
  4795                           ;incstack = 0
  4796                           ; Regs used in _I2C_Initialize: [wreg+status,2]
  4797                           
  4798  0000' 0024               	movlb	4	; select bank4
  4799  0001' 0194               	clrf	20	;volatile
  4800  0002'                    l4394:
  4801  0002' 3008               	movlw	8
  4802  0003' 0095               	movwf	21	;volatile
  4803  0004'                    l4396:
  4804  0004' 0196               	clrf	22	;volatile
  4805  0005' 3013               	movlw	19
  4806  0006' 0092               	movwf	18	;volatile
  4807  0007'                    l4398:
  4808  0007' 0020               	movlb	0	; select bank0
  4809  0008' 1191               	bcf	17,3	;volatile
  4810  0009'                    l4400:
  4811  0009' 0024               	movlb	4	; select bank4
  4812  000A' 1695               	bsf	21,5	;volatile
  4813  000B'                    l60:
  4814  000B' 0008               	return
  4815  000C'                    __end_of_I2C_Initialize:
  4816                           
  4817                           	psect	intentry
  4818  0000'                    __pintentry:	
  4819 ;; *************** function _INTERRUPT_InterruptManager *****************
  4820 ;; Defined at:
  4821 ;;		line 52 in file "mcc_generated_files/interrupt_manager.c"
  4822 ;; Parameters:    Size  Location     Type
  4823 ;;		None
  4824 ;; Auto vars:     Size  Location     Type
  4825 ;;		None
  4826 ;; Return value:  Size  Location     Type
  4827 ;;                  1    wreg      void 
  4828 ;; Registers used:
  4829 ;;		wreg, fsr0l, fsr0h, fsr1l, fsr1h, status,2, status,0, pclath, cstack
  4830 ;; Tracked objects:
  4831 ;;		On entry : 0/0
  4832 ;;		On exit  : 0/0
  4833 ;;		Unchanged: 0/0
  4834 ;; Data sizes:     COMMON   BANK0   BANK1   BANK2   BANK3   BANK4   BANK5   BANK6   BANK7   BANK8   BANK9  BANK10  BANK1
      +1  BANK12
  4835 ;;      Params:         0       0       0       0       0       0       0       0       0       0       0       0       
      +0       0
  4836 ;;      Locals:         0       0       0       0       0       0       0       0       0       0       0       0       
      +0       0
  4837 ;;      Temps:          0       0       0       0       0       0       0       0       0       0       0       0       
      +0       0
  4838 ;;      Totals:         0       0       0       0       0       0       0       0       0       0       0       0       
      +0       0
  4839 ;;Total ram usage:        0 bytes
  4840 ;; Hardware stack levels used:    1
  4841 ;; Hardware stack levels required when called:    9
  4842 ;; This function calls:
  4843 ;;		_PIN_MANAGER_IOC
  4844 ;;		_TMR0_ISR
  4845 ;;		_USBDeviceTasks
  4846 ;; This function is called by:
  4847 ;;		Interrupt level 1
  4848 ;; This function uses a non-reentrant model
  4849 ;;
  4850                           
  4851  0000'                    _INTERRUPT_InterruptManager:
  4852                           
  4853                           ;incstack = 0
  4854  0000' 147E               	bsf	int$flags,0	;set compiler interrupt flag (level 1)
  4855                           
  4856                           ; Regs used in _INTERRUPT_InterruptManager: [wreg-fsr1h+status,2+status,0+pclath+cstack]
  4857  0001' 3180'              	pagesel	$
  4858  0002'                    i1l5446:
  4859                           
  4860                           ;mcc_generated_files/interrupt_manager.c: 55:     if(INTCONbits.TMR0IE == 1 && INTCONbit
      +                          s.TMR0IF == 1)
  4861  0002' 1E8B               	btfss	11,5	;volatile
  4862  0003' 2800'              	goto	u420_21
  4863  0004' 2800'              	goto	u420_20
  4864  0005'                    u420_21:
  4865  0005' 2800'              	goto	i1l716
  4866  0006'                    u420_20:
  4867  0006'                    i1l5448:
  4868  0006' 1D0B               	btfss	11,2	;volatile
  4869  0007' 2800'              	goto	u421_21
  4870  0008' 2800'              	goto	u421_20
  4871  0009'                    u421_21:
  4872  0009' 2800'              	goto	i1l716
  4873  000A'                    u421_20:
  4874  000A'                    i1l5450:
  4875                           
  4876                           ;mcc_generated_files/interrupt_manager.c: 56:     {;mcc_generated_files/interrupt_manage
      +                          r.c: 57:         TMR0_ISR();
  4877  000A' 3180' 2000' 3180'  	fcall	_TMR0_ISR
  4878                           
  4879                           ;mcc_generated_files/interrupt_manager.c: 58:     }
  4880  000D' 2800'              	goto	i1l724
  4881  000E'                    i1l716:	
  4882                           ;mcc_generated_files/interrupt_manager.c: 59:     else if(INTCONbits.IOCIE == 1 && INTCO
      +                          Nbits.IOCIF == 1)
  4883                           
  4884  000E' 1D8B               	btfss	11,3	;volatile
  4885  000F' 2800'              	goto	u422_21
  4886  0010' 2800'              	goto	u422_20
  4887  0011'                    u422_21:
  4888  0011' 2800'              	goto	i1l718
  4889  0012'                    u422_20:
  4890  0012'                    i1l5452:
  4891  0012' 1C0B               	btfss	11,0	;volatile
  4892  0013' 2800'              	goto	u423_21
  4893  0014' 2800'              	goto	u423_20
  4894  0015'                    u423_21:
  4895  0015' 2800'              	goto	i1l718
  4896  0016'                    u423_20:
  4897  0016'                    i1l5454:
  4898                           
  4899                           ;mcc_generated_files/interrupt_manager.c: 60:     {;mcc_generated_files/interrupt_manage
      +                          r.c: 61:         PIN_MANAGER_IOC();
  4900  0016' 3180' 2000' 3180'  	fcall	_PIN_MANAGER_IOC
  4901                           
  4902                           ;mcc_generated_files/interrupt_manager.c: 62:     }
  4903  0019' 2800'              	goto	i1l724
  4904  001A'                    i1l718:	
  4905                           ;mcc_generated_files/interrupt_manager.c: 63:     else if(INTCONbits.PEIE == 1)
  4906                           
  4907  001A' 1F0B               	btfss	11,6	;volatile
  4908  001B' 2800'              	goto	u424_21
  4909  001C' 2800'              	goto	u424_20
  4910  001D'                    u424_21:
  4911  001D' 2800'              	goto	i1l719
  4912  001E'                    u424_20:
  4913  001E'                    i1l5456:
  4914                           
  4915                           ;mcc_generated_files/interrupt_manager.c: 64:     {;mcc_generated_files/interrupt_manage
      +                          r.c: 65:         if(PIE2bits.USBIE == 1 && PIR2bits.USBIF == 1)
  4916  001E' 0021               	movlb	1	; select bank1
  4917  001F' 1D12               	btfss	18,2	;volatile
  4918  0020' 2800'              	goto	u425_21
  4919  0021' 2800'              	goto	u425_20
  4920  0022'                    u425_21:
  4921  0022' 2800'              	goto	i1l719
  4922  0023'                    u425_20:
  4923  0023'                    i1l5458:
  4924  0023' 0020               	movlb	0	; select bank0
  4925  0024' 1D12               	btfss	18,2	;volatile
  4926  0025' 2800'              	goto	u426_21
  4927  0026' 2800'              	goto	u426_20
  4928  0027'                    u426_21:
  4929  0027' 2800'              	goto	i1l719
  4930  0028'                    u426_20:
  4931  0028'                    i1l5460:
  4932                           
  4933                           ;mcc_generated_files/interrupt_manager.c: 66:         {;mcc_generated_files/interrupt_ma
      +                          nager.c: 67:             USBDeviceTasks();
  4934  0028' 3180' 2000' 3180'  	fcall	_USBDeviceTasks
  4935                           
  4936                           ;mcc_generated_files/interrupt_manager.c: 68:         }
  4937  002B' 2800'              	goto	i1l724
  4938  002C'                    i1l719:
  4939  002C'                    i1l724:
  4940  002C' 107E               	bcf	int$flags,0	;clear compiler interrupt flag (level 1)
  4941  002D' 0009               	retfie
  4942  002E'                    __end_of_INTERRUPT_InterruptManager:
  4943                           
  4944                           	psect	text19
  4945  0000'                    __ptext19:	
  4946 ;; *************** function _USBDeviceTasks *****************
  4947 ;; Defined at:
  4948 ;;		line 481 in file "mcc_generated_files/usb/usb_device.c"
  4949 ;; Parameters:    Size  Location     Type
  4950 ;;		None
  4951 ;; Auto vars:     Size  Location     Type
  4952 ;;  i               1    4[BANK1 ] unsigned char 
  4953 ;; Return value:  Size  Location     Type
  4954 ;;                  1    wreg      void 
  4955 ;; Registers used:
  4956 ;;		wreg, fsr0l, fsr0h, fsr1l, fsr1h, status,2, status,0, pclath, cstack
  4957 ;; Tracked objects:
  4958 ;;		On entry : 0/0
  4959 ;;		On exit  : 0/0
  4960 ;;		Unchanged: 0/0
  4961 ;; Data sizes:     COMMON   BANK0   BANK1   BANK2   BANK3   BANK4   BANK5   BANK6   BANK7   BANK8   BANK9  BANK10  BANK1
      +1  BANK12
  4962 ;;      Params:         0       0       0       0       0       0       0       0       0       0       0       0       
      +0       0
  4963 ;;      Locals:         0       0       1       0       0       0       0       0       0       0       0       0       
      +0       0
  4964 ;;      Temps:          0       0       2       0       0       0       0       0       0       0       0       0       
      +0       0
  4965 ;;      Totals:         0       0       3       0       0       0       0       0       0       0       0       0       
      +0       0
  4966 ;;Total ram usage:        3 bytes
  4967 ;; Hardware stack levels used:    1
  4968 ;; Hardware stack levels required when called:    8
  4969 ;; This function calls:
  4970 ;;		_USBCtrlEPAllowStatusStage
  4971 ;;		_USBCtrlEPService
  4972 ;;		_USBIncrement1msInternalTimers
  4973 ;;		_USBStallHandler
  4974 ;;		_USBSuspend
  4975 ;;		_USBWakeFromSuspend
  4976 ;;		_USER_USB_CALLBACK_EVENT_HANDLER
  4977 ;;		i1_USBDeviceInit
  4978 ;; This function is called by:
  4979 ;;		_INTERRUPT_InterruptManager
  4980 ;; This function uses a non-reentrant model
  4981 ;;
  4982                           
  4983                           
  4984                           ;psect for function _USBDeviceTasks
  4985  0000'                    _USBDeviceTasks:
  4986  0000'                    i1l5322:	
  4987                           ;incstack = 0
  4988                           ; Regs used in _USBDeviceTasks: [wreg-fsr1h+status,2+status,0+pclath+cstack]
  4989                           
  4990                           
  4991                           ;mcc_generated_files/usb/usb_device.c: 483:     uint8_t i;;mcc_generated_files/usb/usb_d
      +                          evice.c: 594:     if(USBDeviceState == ATTACHED_STATE)
  4992  0000' 0021               	movlb	1	; select bank1
  4993  0001' 0300'              	decf	_USBDeviceState^(0+128),w	;volatile
  4994  0002' 1D03               	btfss	3,2
  4995  0003' 2800'              	goto	u394_21
  4996  0004' 2800'              	goto	u394_20
  4997  0005'                    u394_21:
  4998  0005' 2800'              	goto	i1l5334
  4999  0006'                    u394_20:
  5000  0006'                    i1l5324:
  5001                           
  5002                           ;mcc_generated_files/usb/usb_device.c: 595:     {;mcc_generated_files/usb/usb_device.c: 
      +                          605:         if(!UCONbits.SE0)
  5003  0006' 003D               	movlb	29	; select bank29
  5004  0007' 1A8E               	btfsc	14,5	;volatile
  5005  0008' 2800'              	goto	u395_21
  5006  0009' 2800'              	goto	u395_20
  5007  000A'                    u395_21:
  5008  000A' 2800'              	goto	i1l5334
  5009  000B'                    u395_20:
  5010  000B'                    i1l5326:
  5011                           
  5012                           ;mcc_generated_files/usb/usb_device.c: 606:         {;mcc_generated_files/usb/usb_device
      +                          .c: 612:                 {UIR = 0;};
  5013  000B' 0190               	clrf	16	;volatile
  5014  000C'                    i1l5328:
  5015                           
  5016                           ;mcc_generated_files/usb/usb_device.c: 618:             UIEbits.URSTIE = 1;
  5017  000C' 1412               	bsf	18,0	;volatile
  5018  000D'                    i1l5330:
  5019                           
  5020                           ;mcc_generated_files/usb/usb_device.c: 619:             UIEbits.IDLEIE = 1;
  5021  000D' 1612               	bsf	18,4	;volatile
  5022  000E'                    i1l5332:
  5023                           
  5024                           ;mcc_generated_files/usb/usb_device.c: 620:             USBDeviceState = POWERED_STATE;
  5025  000E' 3002               	movlw	2
  5026  000F' 0021               	movlb	1	; select bank1
  5027  0010' 0080'              	movwf	??_USBDeviceTasks^(0+128)
  5028  0011' 0800'              	movf	??_USBDeviceTasks^(0+128),w
  5029  0012' 0080'              	movwf	_USBDeviceState^(0+128)	;volatile
  5030  0013'                    i1l5334:
  5031                           
  5032                           ;mcc_generated_files/usb/usb_device.c: 638:     if(UIRbits.ACTVIF && UIEbits.ACTVIE)
  5033  0013' 003D               	movlb	29	; select bank29
  5034  0014' 1D10               	btfss	16,2	;volatile
  5035  0015' 2800'              	goto	u396_21
  5036  0016' 2800'              	goto	u396_20
  5037  0017'                    u396_21:
  5038  0017' 2800'              	goto	i1l5342
  5039  0018'                    u396_20:
  5040  0018'                    i1l5336:
  5041  0018' 1D12               	btfss	18,2	;volatile
  5042  0019' 2800'              	goto	u397_21
  5043  001A' 2800'              	goto	u397_20
  5044  001B'                    u397_21:
  5045  001B' 2800'              	goto	i1l5342
  5046  001C'                    u397_20:
  5047  001C'                    i1l5338:
  5048                           
  5049                           ;mcc_generated_files/usb/usb_device.c: 639:     {;mcc_generated_files/usb/usb_device.c: 
      +                          640:         (UIR &= 0xFB);
  5050  001C' 30FB               	movlw	251
  5051  001D' 0021               	movlb	1	; select bank1
  5052  001E' 0080'              	movwf	??_USBDeviceTasks^(0+128)
  5053  001F' 0800'              	movf	??_USBDeviceTasks^(0+128),w
  5054  0020' 003D               	movlb	29	; select bank29
  5055  0021' 0590               	andwf	16,f	;volatile
  5056  0022'                    i1l5340:
  5057                           
  5058                           ;mcc_generated_files/usb/usb_device.c: 644:             USBWakeFromSuspend();
  5059  0022' 3180' 2000' 3180'  	fcall	_USBWakeFromSuspend
  5060  0025'                    i1l5342:
  5061                           
  5062                           ;mcc_generated_files/usb/usb_device.c: 651:     if(UCONbits.SUSPND==1)
  5063  0025' 003D               	movlb	29	; select bank29
  5064  0026' 1C8E               	btfss	14,1	;volatile
  5065  0027' 2800'              	goto	u398_21
  5066  0028' 2800'              	goto	u398_20
  5067  0029'                    u398_21:
  5068  0029' 2800'              	goto	i1l339
  5069  002A'                    u398_20:
  5070  002A'                    i1l5344:
  5071                           
  5072                           ;mcc_generated_files/usb/usb_device.c: 652:     {;mcc_generated_files/usb/usb_device.c: 
      +                          653:         PIR2bits.USBIF = 0;;
  5073  002A' 0020               	movlb	0	; select bank0
  5074  002B' 1112               	bcf	18,2	;volatile
  5075                           
  5076                           ;mcc_generated_files/usb/usb_device.c: 654:         return;
  5077  002C' 2800'              	goto	i1l340
  5078  002D'                    i1l339:	
  5079                           ;mcc_generated_files/usb/usb_device.c: 655:     }
  5080                           
  5081                           
  5082                           ;mcc_generated_files/usb/usb_device.c: 667:     if(UIRbits.URSTIF && UIEbits.URSTIE)
  5083  002D' 1C10               	btfss	16,0	;volatile
  5084  002E' 2800'              	goto	u399_21
  5085  002F' 2800'              	goto	u399_20
  5086  0030'                    u399_21:
  5087  0030' 2800'              	goto	i1l5356
  5088  0031'                    u399_20:
  5089  0031'                    i1l5346:
  5090  0031' 1C12               	btfss	18,0	;volatile
  5091  0032' 2800'              	goto	u400_21
  5092  0033' 2800'              	goto	u400_20
  5093  0034'                    u400_21:
  5094  0034' 2800'              	goto	i1l5356
  5095  0035'                    u400_20:
  5096  0035'                    i1l5348:
  5097                           
  5098                           ;mcc_generated_files/usb/usb_device.c: 668:     {;mcc_generated_files/usb/usb_device.c: 
      +                          669:         USBDeviceInit();
  5099  0035' 3180' 2000' 3180'  	fcall	i1_USBDeviceInit
  5100  0038'                    i1l5350:
  5101                           
  5102                           ;mcc_generated_files/usb/usb_device.c: 673:         {PIE2bits.USBIE = 1;};
  5103  0038' 0021               	movlb	1	; select bank1
  5104  0039' 1512               	bsf	18,2	;volatile
  5105  003A'                    i1l5352:
  5106                           
  5107                           ;mcc_generated_files/usb/usb_device.c: 675:         USBDeviceState = DEFAULT_STATE;
  5108  003A' 3004               	movlw	4
  5109  003B' 0080'              	movwf	??_USBDeviceTasks^(0+128)
  5110  003C' 0800'              	movf	??_USBDeviceTasks^(0+128),w
  5111  003D' 0080'              	movwf	_USBDeviceState^(0+128)	;volatile
  5112  003E'                    i1l5354:
  5113                           
  5114                           ;mcc_generated_files/usb/usb_device.c: 685:         (UIR &= 0xFE);
  5115  003E' 30FE               	movlw	254
  5116  003F' 0080'              	movwf	??_USBDeviceTasks^(0+128)
  5117  0040' 0800'              	movf	??_USBDeviceTasks^(0+128),w
  5118  0041' 003D               	movlb	29	; select bank29
  5119  0042' 0590               	andwf	16,f	;volatile
  5120  0043'                    i1l5356:
  5121                           
  5122                           ;mcc_generated_files/usb/usb_device.c: 691:     if(UIRbits.IDLEIF && UIEbits.IDLEIE)
  5123  0043' 1E10               	btfss	16,4	;volatile
  5124  0044' 2800'              	goto	u401_21
  5125  0045' 2800'              	goto	u401_20
  5126  0046'                    u401_21:
  5127  0046' 2800'              	goto	i1l5362
  5128  0047'                    u401_20:
  5129  0047'                    i1l5358:
  5130  0047' 1E12               	btfss	18,4	;volatile
  5131  0048' 2800'              	goto	u402_21
  5132  0049' 2800'              	goto	u402_20
  5133  004A'                    u402_21:
  5134  004A' 2800'              	goto	i1l5362
  5135  004B'                    u402_20:
  5136  004B'                    i1l5360:
  5137                           
  5138                           ;mcc_generated_files/usb/usb_device.c: 692:     {;mcc_generated_files/usb/usb_device.c: 
      +                          698:             USBSuspend();
  5139  004B' 3180' 2000' 3180'  	fcall	_USBSuspend
  5140  004E'                    i1l5362:
  5141                           
  5142                           ;mcc_generated_files/usb/usb_device.c: 712:     if(UIRbits.SOFIF)
  5143  004E' 003D               	movlb	29	; select bank29
  5144  004F' 1F10               	btfss	16,6	;volatile
  5145  0050' 2800'              	goto	u403_21
  5146  0051' 2800'              	goto	u403_20
  5147  0052'                    u403_21:
  5148  0052' 2800'              	goto	i1l5378
  5149  0053'                    u403_20:
  5150  0053'                    i1l5364:
  5151                           
  5152                           ;mcc_generated_files/usb/usb_device.c: 713:     {;mcc_generated_files/usb/usb_device.c: 
      +                          715:         if(UIEbits.SOFIE)
  5153  0053' 1F12               	btfss	18,6	;volatile
  5154  0054' 2800'              	goto	u404_21
  5155  0055' 2800'              	goto	u404_20
  5156  0056'                    u404_21:
  5157  0056' 2800'              	goto	i1l5368
  5158  0057'                    u404_20:
  5159  0057'                    i1l5366:
  5160                           
  5161                           ;mcc_generated_files/usb/usb_device.c: 716:         {;mcc_generated_files/usb/usb_device
      +                          .c: 717:             USER_USB_CALLBACK_EVENT_HANDLER((USB_EVENT)EVENT_SOF,0,1);
  5162  0057' 3073               	movlw	115
  5163  0058' 0020               	movlb	0	; select bank0
  5164  0059' 0080'              	movwf	USER_USB_CALLBACK_EVENT_HANDLER@event
  5165  005A' 3000               	movlw	0
  5166  005B' 0081'              	movwf	USER_USB_CALLBACK_EVENT_HANDLER@event+1
  5167  005C' 3000               	movlw	0
  5168  005D' 0082'              	movwf	USER_USB_CALLBACK_EVENT_HANDLER@pdata
  5169  005E' 3000               	movlw	0
  5170  005F' 0083'              	movwf	USER_USB_CALLBACK_EVENT_HANDLER@pdata+1
  5171  0060' 3001               	movlw	1
  5172  0061' 0084'              	movwf	USER_USB_CALLBACK_EVENT_HANDLER@size
  5173  0062' 3000               	movlw	0
  5174  0063' 0085'              	movwf	USER_USB_CALLBACK_EVENT_HANDLER@size+1
  5175  0064' 3180' 2000' 3180'  	fcall	_USER_USB_CALLBACK_EVENT_HANDLER
  5176  0067'                    i1l5368:
  5177                           
  5178                           ;mcc_generated_files/usb/usb_device.c: 719:         (UIR &= 0xBF);
  5179  0067' 30BF               	movlw	191
  5180  0068' 0021               	movlb	1	; select bank1
  5181  0069' 0080'              	movwf	??_USBDeviceTasks^(0+128)
  5182  006A' 0800'              	movf	??_USBDeviceTasks^(0+128),w
  5183  006B' 003D               	movlb	29	; select bank29
  5184  006C' 0590               	andwf	16,f	;volatile
  5185  006D'                    i1l5370:
  5186                           
  5187                           ;mcc_generated_files/usb/usb_device.c: 722:             USBIncrement1msInternalTimers();
  5188  006D' 3180' 2000' 3180'  	fcall	_USBIncrement1msInternalTimers
  5189  0070'                    i1l5372:
  5190                           
  5191                           ;mcc_generated_files/usb/usb_device.c: 739:             if(USBStatusStageTimeoutCounter 
      +                          != 0u)
  5192  0070' 0023               	movlb	3	; select bank3
  5193  0071' 0800'              	movf	_USBStatusStageTimeoutCounter^(0+384),w	;volatile
  5194  0072' 1903               	btfsc	3,2
  5195  0073' 2800'              	goto	u405_21
  5196  0074' 2800'              	goto	u405_20
  5197  0075'                    u405_21:
  5198  0075' 2800'              	goto	i1l345
  5199  0076'                    u405_20:
  5200  0076'                    i1l5374:
  5201                           
  5202                           ;mcc_generated_files/usb/usb_device.c: 740:             {;mcc_generated_files/usb/usb_de
      +                          vice.c: 741:                 USBStatusStageTimeoutCounter--;
  5203  0076' 3001               	movlw	1
  5204  0077' 0280'              	subwf	_USBStatusStageTimeoutCounter^(0+384),f	;volatile
  5205  0078'                    i1l345:	
  5206                           ;mcc_generated_files/usb/usb_device.c: 742:             }
  5207                           
  5208                           
  5209                           ;mcc_generated_files/usb/usb_device.c: 748:             if(USBStatusStageTimeoutCounter 
      +                          == 0)
  5210  0078' 0800'              	movf	_USBStatusStageTimeoutCounter^(0+384),w	;volatile
  5211  0079' 1D03               	btfss	3,2
  5212  007A' 2800'              	goto	u406_21
  5213  007B' 2800'              	goto	u406_20
  5214  007C'                    u406_21:
  5215  007C' 2800'              	goto	i1l5378
  5216  007D'                    u406_20:
  5217  007D'                    i1l5376:
  5218                           
  5219                           ;mcc_generated_files/usb/usb_device.c: 749:             {;mcc_generated_files/usb/usb_de
      +                          vice.c: 750:                 USBCtrlEPAllowStatusStage();
  5220  007D' 3180' 2000' 3180'  	fcall	_USBCtrlEPAllowStatusStage
  5221  0080'                    i1l5378:
  5222                           
  5223                           ;mcc_generated_files/usb/usb_device.c: 755:     if(UIRbits.STALLIF && UIEbits.STALLIE)
  5224  0080' 003D               	movlb	29	; select bank29
  5225  0081' 1E90               	btfss	16,5	;volatile
  5226  0082' 2800'              	goto	u407_21
  5227  0083' 2800'              	goto	u407_20
  5228  0084'                    u407_21:
  5229  0084' 2800'              	goto	i1l5384
  5230  0085'                    u407_20:
  5231  0085'                    i1l5380:
  5232  0085' 1E92               	btfss	18,5	;volatile
  5233  0086' 2800'              	goto	u408_21
  5234  0087' 2800'              	goto	u408_20
  5235  0088'                    u408_21:
  5236  0088' 2800'              	goto	i1l5384
  5237  0089'                    u408_20:
  5238  0089'                    i1l5382:
  5239                           
  5240                           ;mcc_generated_files/usb/usb_device.c: 756:     {;mcc_generated_files/usb/usb_device.c: 
      +                          757:         USBStallHandler();
  5241  0089' 3180' 2000' 3180'  	fcall	_USBStallHandler
  5242  008C'                    i1l5384:
  5243                           
  5244                           ;mcc_generated_files/usb/usb_device.c: 760:     if(UIRbits.UERRIF && UIEbits.UERRIE)
  5245  008C' 003D               	movlb	29	; select bank29
  5246  008D' 1C90               	btfss	16,1	;volatile
  5247  008E' 2800'              	goto	u409_21
  5248  008F' 2800'              	goto	u409_20
  5249  0090'                    u409_21:
  5250  0090' 2800'              	goto	i1l5392
  5251  0091'                    u409_20:
  5252  0091'                    i1l5386:
  5253  0091' 1C92               	btfss	18,1	;volatile
  5254  0092' 2800'              	goto	u410_21
  5255  0093' 2800'              	goto	u410_20
  5256  0094'                    u410_21:
  5257  0094' 2800'              	goto	i1l5392
  5258  0095'                    u410_20:
  5259  0095'                    i1l5388:
  5260                           
  5261                           ;mcc_generated_files/usb/usb_device.c: 761:     {;mcc_generated_files/usb/usb_device.c: 
      +                          762:         USER_USB_CALLBACK_EVENT_HANDLER((USB_EVENT)EVENT_BUS_ERROR,0,1);
  5262  0095' 30FF               	movlw	255
  5263  0096' 0020               	movlb	0	; select bank0
  5264  0097' 0080'              	movwf	USER_USB_CALLBACK_EVENT_HANDLER@event
  5265  0098' 307F               	movlw	127
  5266  0099' 0081'              	movwf	USER_USB_CALLBACK_EVENT_HANDLER@event+1
  5267  009A' 3000               	movlw	0
  5268  009B' 0082'              	movwf	USER_USB_CALLBACK_EVENT_HANDLER@pdata
  5269  009C' 3000               	movlw	0
  5270  009D' 0083'              	movwf	USER_USB_CALLBACK_EVENT_HANDLER@pdata+1
  5271  009E' 3001               	movlw	1
  5272  009F' 0084'              	movwf	USER_USB_CALLBACK_EVENT_HANDLER@size
  5273  00A0' 3000               	movlw	0
  5274  00A1' 0085'              	movwf	USER_USB_CALLBACK_EVENT_HANDLER@size+1
  5275  00A2' 3180' 2000' 3180'  	fcall	_USER_USB_CALLBACK_EVENT_HANDLER
  5276  00A5'                    i1l5390:
  5277                           
  5278                           ;mcc_generated_files/usb/usb_device.c: 763:         {UEIR = 0;};
  5279  00A5' 003D               	movlb	29	; select bank29
  5280  00A6' 0193               	clrf	19	;volatile
  5281  00A7'                    i1l5392:
  5282                           
  5283                           ;mcc_generated_files/usb/usb_device.c: 778:     if(USBDeviceState < DEFAULT_STATE)
  5284  00A7' 3004               	movlw	4
  5285  00A8' 0021               	movlb	1	; select bank1
  5286  00A9' 0200'              	subwf	_USBDeviceState^(0+128),w	;volatile
  5287  00AA' 1803               	skipnc
  5288  00AB' 2800'              	goto	u411_21
  5289  00AC' 2800'              	goto	u411_20
  5290  00AD'                    u411_21:
  5291  00AD' 2800'              	goto	i1l349
  5292  00AE'                    u411_20:
  5293  00AE'                    i1l5394:
  5294                           
  5295                           ;mcc_generated_files/usb/usb_device.c: 779:     {;mcc_generated_files/usb/usb_device.c: 
      +                          780:         PIR2bits.USBIF = 0;;
  5296  00AE' 0020               	movlb	0	; select bank0
  5297  00AF' 1112               	bcf	18,2	;volatile
  5298                           
  5299                           ;mcc_generated_files/usb/usb_device.c: 781:         return;
  5300  00B0' 2800'              	goto	i1l340
  5301  00B1'                    i1l349:	
  5302                           ;mcc_generated_files/usb/usb_device.c: 782:     }
  5303                           
  5304                           
  5305                           ;mcc_generated_files/usb/usb_device.c: 787:     if(UIEbits.TRNIE)
  5306  00B1' 003D               	movlb	29	; select bank29
  5307  00B2' 1D92               	btfss	18,3	;volatile
  5308  00B3' 2800'              	goto	u412_21
  5309  00B4' 2800'              	goto	u412_20
  5310  00B5'                    u412_21:
  5311  00B5' 2800'              	goto	i1l350
  5312  00B6'                    u412_20:
  5313  00B6'                    i1l5396:
  5314                           
  5315                           ;mcc_generated_files/usb/usb_device.c: 788:     {;mcc_generated_files/usb/usb_device.c: 
      +                          789:         for(i = 0; i < 4u; i++)
  5316  00B6' 0021               	movlb	1	; select bank1
  5317  00B7' 0180'              	clrf	USBDeviceTasks@i^(0+128)
  5318  00B8'                    i1l351:
  5319                           
  5320                           ;mcc_generated_files/usb/usb_device.c: 790:         {;mcc_generated_files/usb/usb_device
      +                          .c: 791:             if(UIRbits.TRNIF)
  5321  00B8' 003D               	movlb	29	; select bank29
  5322  00B9' 1D90               	btfss	16,3	;volatile
  5323  00BA' 2800'              	goto	u413_21
  5324  00BB' 2800'              	goto	u413_20
  5325  00BC'                    u413_21:
  5326  00BC' 2800'              	goto	i1l350
  5327  00BD'                    u413_20:
  5328  00BD'                    i1l5402:
  5329                           
  5330                           ;mcc_generated_files/usb/usb_device.c: 792:             {;mcc_generated_files/usb/usb_de
      +                          vice.c: 794:                 USTATcopy.Val = USTAT;
  5331  00BD' 080F               	movf	15,w	;volatile
  5332  00BE' 0021               	movlb	1	; select bank1
  5333  00BF' 0080'              	movwf	??_USBDeviceTasks^(0+128)
  5334  00C0' 0800'              	movf	??_USBDeviceTasks^(0+128),w
  5335  00C1' 0080'              	movwf	_USTATcopy^(0+128)	;volatile
  5336  00C2'                    i1l5404:
  5337                           
  5338                           ;mcc_generated_files/usb/usb_device.c: 795:                 endpoint_number = USTATcopy.
      +                          endpoint_number;
  5339  00C2' 0C00'              	rrf	_USTATcopy^(0+128),w	;volatile
  5340  00C3' 0080'              	movwf	??_USBDeviceTasks^(0+128)
  5341  00C4' 0C80'              	rrf	??_USBDeviceTasks^(0+128),f
  5342  00C5' 0C00'              	rrf	??_USBDeviceTasks^(0+128),w
  5343  00C6' 390F               	andlw	15
  5344  00C7' 0080'              	movwf	(??_USBDeviceTasks+1)^(0+128)
  5345  00C8' 0800'              	movf	(??_USBDeviceTasks+1)^(0+128),w
  5346  00C9' 0080'              	movwf	_endpoint_number^(0+128)	;volatile
  5347  00CA'                    i1l5406:
  5348                           
  5349                           ;mcc_generated_files/usb/usb_device.c: 797:                 (UIR &= 0xF7);
  5350  00CA' 30F7               	movlw	247
  5351  00CB' 0080'              	movwf	??_USBDeviceTasks^(0+128)
  5352  00CC' 0800'              	movf	??_USBDeviceTasks^(0+128),w
  5353  00CD' 003D               	movlb	29	; select bank29
  5354  00CE' 0590               	andwf	16,f	;volatile
  5355  00CF'                    i1l5408:
  5356                           
  5357                           ;mcc_generated_files/usb/usb_device.c: 802:                 if(USTATcopy.direction == 0)
  5358  00CF' 0021               	movlb	1	; select bank1
  5359  00D0' 1900'              	btfsc	_USTATcopy^(0+128),2	;volatile
  5360  00D1' 2800'              	goto	u414_21
  5361  00D2' 2800'              	goto	u414_20
  5362  00D3'                    u414_21:
  5363  00D3' 2800'              	goto	i1l5412
  5364  00D4'                    u414_20:
  5365  00D4'                    i1l5410:
  5366                           
  5367                           ;mcc_generated_files/usb/usb_device.c: 803:                 {;mcc_generated_files/usb/us
      +                          b_device.c: 804:                     ep_data_out[endpoint_number].bits.ping_pong_state ^
      +                          = 1;
  5368  00D4' 0800'              	movf	_endpoint_number^(0+128),w	;volatile
  5369  00D5' 3E00'              	addlw	(low (_ep_data_out| (0+256)))& (0+255)
  5370  00D6' 0086               	movwf	6
  5371  00D7' 3001               	movlw	1	; select bank3/4
  5372  00D8' 0087               	movwf	7
  5373  00D9' 0801               	movf	1,w
  5374  00DA' 3901               	andlw	1
  5375  00DB' 0080'              	movwf	??_USBDeviceTasks^(0+128)
  5376  00DC' 3001               	movlw	1
  5377  00DD' 0680'              	xorwf	??_USBDeviceTasks^(0+128),f
  5378  00DE' 0801               	movf	1,w
  5379  00DF' 0600'              	xorwf	??_USBDeviceTasks^(0+128),w
  5380  00E0' 39FE               	andlw	-2
  5381  00E1' 0600'              	xorwf	??_USBDeviceTasks^(0+128),w
  5382  00E2' 0081               	movwf	1
  5383                           
  5384                           ;mcc_generated_files/usb/usb_device.c: 805:                 }
  5385  00E3' 2800'              	goto	i1l5414
  5386  00E4'                    i1l5412:
  5387                           
  5388                           ;mcc_generated_files/usb/usb_device.c: 807:                 {;mcc_generated_files/usb/us
      +                          b_device.c: 808:                     ep_data_in[endpoint_number].bits.ping_pong_state ^=
      +                           1;
  5389  00E4' 0800'              	movf	_endpoint_number^(0+128),w	;volatile
  5390  00E5' 3E00'              	addlw	(low (_ep_data_in| (0+256)))& (0+255)
  5391  00E6' 0086               	movwf	6
  5392  00E7' 3001               	movlw	1	; select bank3/4
  5393  00E8' 0087               	movwf	7
  5394  00E9' 0801               	movf	1,w
  5395  00EA' 3901               	andlw	1
  5396  00EB' 0080'              	movwf	??_USBDeviceTasks^(0+128)
  5397  00EC' 3001               	movlw	1
  5398  00ED' 0680'              	xorwf	??_USBDeviceTasks^(0+128),f
  5399  00EE' 0801               	movf	1,w
  5400  00EF' 0600'              	xorwf	??_USBDeviceTasks^(0+128),w
  5401  00F0' 39FE               	andlw	-2
  5402  00F1' 0600'              	xorwf	??_USBDeviceTasks^(0+128),w
  5403  00F2' 0081               	movwf	1
  5404  00F3'                    i1l5414:
  5405                           
  5406                           ;mcc_generated_files/usb/usb_device.c: 814:                 if(endpoint_number == 0)
  5407  00F3' 0800'              	movf	_endpoint_number^(0+128),w	;volatile
  5408  00F4' 1D03               	btfss	3,2
  5409  00F5' 2800'              	goto	u415_21
  5410  00F6' 2800'              	goto	u415_20
  5411  00F7'                    u415_21:
  5412  00F7' 2800'              	goto	i1l5418
  5413  00F8'                    u415_20:
  5414  00F8'                    i1l5416:
  5415                           
  5416                           ;mcc_generated_files/usb/usb_device.c: 815:                 {;mcc_generated_files/usb/us
      +                          b_device.c: 816:                     USBCtrlEPService();
  5417  00F8' 3180' 2000' 3180'  	fcall	_USBCtrlEPService
  5418                           
  5419                           ;mcc_generated_files/usb/usb_device.c: 817:                 }
  5420  00FB' 2800'              	goto	i1l5420
  5421  00FC'                    i1l5418:
  5422                           
  5423                           ;mcc_generated_files/usb/usb_device.c: 819:                 {;mcc_generated_files/usb/us
      +                          b_device.c: 820:                     USER_USB_CALLBACK_EVENT_HANDLER((USB_EVENT)EVENT_TR
      +                          ANSFER,(uint8_t*)&USTATcopy.Val,0);
  5424  00FC' 3072               	movlw	114
  5425  00FD' 0020               	movlb	0	; select bank0
  5426  00FE' 0080'              	movwf	USER_USB_CALLBACK_EVENT_HANDLER@event
  5427  00FF' 3000               	movlw	0
  5428  0100' 0081'              	movwf	USER_USB_CALLBACK_EVENT_HANDLER@event+1
  5429  0101' 3000'              	movlw	low _USTATcopy
  5430  0102' 0082'              	movwf	USER_USB_CALLBACK_EVENT_HANDLER@pdata
  5431  0103' 3000'              	movlw	high _USTATcopy
  5432  0104' 0083'              	movwf	USER_USB_CALLBACK_EVENT_HANDLER@pdata+1
  5433  0105' 3000               	movlw	0
  5434  0106' 0084'              	movwf	USER_USB_CALLBACK_EVENT_HANDLER@size
  5435  0107' 0085'              	movwf	USER_USB_CALLBACK_EVENT_HANDLER@size+1
  5436  0108' 3180' 2000' 3180'  	fcall	_USER_USB_CALLBACK_EVENT_HANDLER
  5437  010B'                    i1l5420:
  5438                           
  5439                           ;mcc_generated_files/usb/usb_device.c: 827:         }
  5440  010B' 3001               	movlw	1
  5441  010C' 0021               	movlb	1	; select bank1
  5442  010D' 0080'              	movwf	??_USBDeviceTasks^(0+128)
  5443  010E' 0800'              	movf	??_USBDeviceTasks^(0+128),w
  5444  010F' 0780'              	addwf	USBDeviceTasks@i^(0+128),f
  5445  0110'                    i1l5422:
  5446  0110' 3004               	movlw	4
  5447  0111' 0200'              	subwf	USBDeviceTasks@i^(0+128),w
  5448  0112' 1C03               	skipc
  5449  0113' 2800'              	goto	u416_21
  5450  0114' 2800'              	goto	u416_20
  5451  0115'                    u416_21:
  5452  0115' 2800'              	goto	i1l351
  5453  0116'                    u416_20:
  5454  0116'                    i1l350:	
  5455                           ;mcc_generated_files/usb/usb_device.c: 828:     }
  5456                           
  5457                           
  5458                           ;mcc_generated_files/usb/usb_device.c: 830:     PIR2bits.USBIF = 0;;
  5459  0116' 0020               	movlb	0	; select bank0
  5460  0117' 1112               	bcf	18,2	;volatile
  5461  0118'                    i1l340:
  5462  0118' 0008               	return
  5463  0119'                    __end_of_USBDeviceTasks:
  5464                           
  5465                           	psect	text20
  5466  0000'                    __ptext20:	
  5467 ;; *************** function i1_USBDeviceInit *****************
  5468 ;; Defined at:
  5469 ;;		line 281 in file "mcc_generated_files/usb/usb_device.c"
  5470 ;; Parameters:    Size  Location     Type
  5471 ;;		None
  5472 ;; Auto vars:     Size  Location     Type
  5473 ;;  p               2    1[COMMON] PTR unsigned char 
  5474 ;;		 -> UEP1(1), 
  5475 ;;  i               1    4[COMMON] unsigned char 
  5476 ;;  i               1    3[COMMON] unsigned char 
  5477 ;; Return value:  Size  Location     Type
  5478 ;;                  1    wreg      void 
  5479 ;; Registers used:
  5480 ;;		wreg, fsr1l, fsr1h, status,2, status,0
  5481 ;; Tracked objects:
  5482 ;;		On entry : 0/0
  5483 ;;		On exit  : 0/0
  5484 ;;		Unchanged: 0/0
  5485 ;; Data sizes:     COMMON   BANK0   BANK1   BANK2   BANK3   BANK4   BANK5   BANK6   BANK7   BANK8   BANK9  BANK10  BANK1
      +1  BANK12
  5486 ;;      Params:         0       0       0       0       0       0       0       0       0       0       0       0       
      +0       0
  5487 ;;      Locals:         4       0       0       0       0       0       0       0       0       0       0       0       
      +0       0
  5488 ;;      Temps:          1       0       0       0       0       0       0       0       0       0       0       0       
      +0       0
  5489 ;;      Totals:         5       0       0       0       0       0       0       0       0       0       0       0       
      +0       0
  5490 ;;Total ram usage:        5 bytes
  5491 ;; Hardware stack levels used:    1
  5492 ;; This function calls:
  5493 ;;		Nothing
  5494 ;; This function is called by:
  5495 ;;		_USBDeviceTasks
  5496 ;; This function uses a non-reentrant model
  5497 ;;
  5498                           
  5499                           
  5500                           ;psect for function i1_USBDeviceInit
  5501  0000'                    i1_USBDeviceInit:
  5502  0000'                    i1l4296:	
  5503                           ;incstack = 0
  5504                           ; Regs used in i1_USBDeviceInit: [wreg+fsr1l+fsr1h+status,2+status,0]
  5505                           
  5506                           
  5507                           ;mcc_generated_files/usb/usb_device.c: 283:     uint8_t i;;mcc_generated_files/usb/usb_d
      +                          evice.c: 285:     {PIE2bits.USBIE = 0;};
  5508  0000' 0021               	movlb	1	; select bank1
  5509  0001' 1112               	bcf	18,2	;volatile
  5510  0002'                    i1l4298:
  5511                           
  5512                           ;mcc_generated_files/usb/usb_device.c: 292:     {UEIR = 0;};
  5513  0002' 003D               	movlb	29	; select bank29
  5514  0003' 0193               	clrf	19	;volatile
  5515                           
  5516                           ;mcc_generated_files/usb/usb_device.c: 295:     {UIR = 0;};
  5517  0004' 0190               	clrf	16	;volatile
  5518                           
  5519                           ;mcc_generated_files/usb/usb_device.c: 298:     UEP0 = 0;
  5520  0005' 0198               	clrf	24	;volatile
  5521  0006'                    i1l4300:
  5522                           
  5523                           ;mcc_generated_files/usb/usb_device.c: 300:     { uint8_t i; uint8_t* p = (uint8_t*)&UEP
      +                          1; for(i=0;i<2;i++) *p++ = 0; };
  5524  0006' 300E               	movlw	14
  5525  0007' 0082'              	movwf	i1USBDeviceInit@p+1
  5526  0008' 3099               	movlw	153
  5527  0009' 0081'              	movwf	i1USBDeviceInit@p
  5528  000A' 0183'              	clrf	i1USBDeviceInit@i_1026
  5529  000B'                    i1l4306:
  5530  000B' 0801'              	movf	i1USBDeviceInit@p,w
  5531  000C' 0086               	movwf	6
  5532  000D' 0802'              	movf	i1USBDeviceInit@p+1,w
  5533  000E' 0087               	movwf	7
  5534  000F' 0181               	clrf	1
  5535  0010'                    i1l4308:
  5536  0010' 3001               	movlw	1
  5537  0011' 0781'              	addwf	i1USBDeviceInit@p,f
  5538  0012' 3000               	movlw	0
  5539  0013' 3D82'              	addwfc	i1USBDeviceInit@p+1,f
  5540  0014'                    i1l4310:
  5541  0014' 3001               	movlw	1
  5542  0015' 0080'              	movwf	??i1_USBDeviceInit
  5543  0016' 0800'              	movf	??i1_USBDeviceInit,w
  5544  0017' 0783'              	addwf	i1USBDeviceInit@i_1026,f
  5545  0018'                    i1l4312:
  5546  0018' 3002               	movlw	2
  5547  0019' 0203'              	subwf	i1USBDeviceInit@i_1026,w
  5548  001A' 1C03               	skipc
  5549  001B' 2800'              	goto	u290_21
  5550  001C' 2800'              	goto	u290_20
  5551  001D'                    u290_21:
  5552  001D' 2800'              	goto	i1l4306
  5553  001E'                    u290_20:
  5554  001E'                    i1l4314:
  5555                           
  5556                           ;mcc_generated_files/usb/usb_device.c: 302:     { UCFG = 0x10 | 0x00 | 0x04 | 0x02; UEIE
      +                           = 0x9F; UIE = 0x39 | 0x40 | 0x02; };
  5557  001E' 3016               	movlw	22
  5558  001F' 003D               	movlb	29	; select bank29
  5559  0020' 0091               	movwf	17	;volatile
  5560  0021' 309F               	movlw	159
  5561  0022' 0097               	movwf	23	;volatile
  5562  0023' 307B               	movlw	123
  5563  0024' 0092               	movwf	18	;volatile
  5564  0025'                    i1l4316:
  5565                           
  5566                           ;mcc_generated_files/usb/usb_device.c: 311:     for(i = 0; i < (sizeof(BDT)/sizeof(BDT_E
      +                          NTRY)); i++)
  5567  0025' 0184'              	clrf	i1USBDeviceInit@i
  5568  0026'                    i1l4322:
  5569                           
  5570                           ;mcc_generated_files/usb/usb_device.c: 312:     {;mcc_generated_files/usb/usb_device.c: 
      +                          313:         BDT[i].Val = 0x00;
  5571  0026' 0804'              	movf	i1USBDeviceInit@i,w
  5572  0027' 0080'              	movwf	??i1_USBDeviceInit
  5573  0028' 3001               	movlw	1
  5574  0029'                    u291_25:
  5575  0029' 3580'              	lslf	??i1_USBDeviceInit,f
  5576  002A' 3EFF               	addlw	-1
  5577  002B' 1D03               	skipz
  5578  002C' 2800'              	goto	u291_25
  5579  002D' 3500'              	lslf	??i1_USBDeviceInit,w
  5580  002E' 3E20               	addlw	32
  5581  002F' 0086               	movwf	6
  5582  0030' 0187               	clrf	7
  5583  0031' 3000               	movlw	0
  5584  0032' 3FC0               	movwi [0]fsr1
  5585  0033' 3000               	movlw	0
  5586  0034' 3FC1               	movwi [1]fsr1
  5587  0035' 3FC2               	movwi [2]fsr1
  5588  0036' 3FC3               	movwi [3]fsr1
  5589  0037'                    i1l4324:
  5590                           
  5591                           ;mcc_generated_files/usb/usb_device.c: 314:     }
  5592  0037' 3001               	movlw	1
  5593  0038' 0080'              	movwf	??i1_USBDeviceInit
  5594  0039' 0800'              	movf	??i1_USBDeviceInit,w
  5595  003A' 0784'              	addwf	i1USBDeviceInit@i,f
  5596  003B'                    i1l4326:
  5597  003B' 300C               	movlw	12
  5598  003C' 0204'              	subwf	i1USBDeviceInit@i,w
  5599  003D' 1C03               	skipc
  5600  003E' 2800'              	goto	u292_21
  5601  003F' 2800'              	goto	u292_20
  5602  0040'                    u292_21:
  5603  0040' 2800'              	goto	i1l4322
  5604  0041'                    u292_20:
  5605  0041'                    i1l328:
  5606                           
  5607                           ;mcc_generated_files/usb/usb_device.c: 317:     UCONbits.PPBRST = 1;
  5608  0041' 003D               	movlb	29	; select bank29
  5609  0042' 170E               	bsf	14,6	;volatile
  5610  0043'                    i1l4328:
  5611                           
  5612                           ;mcc_generated_files/usb/usb_device.c: 320:     UADDR = 0x00;
  5613  0043' 0196               	clrf	22	;volatile
  5614  0044'                    i1l4330:
  5615                           
  5616                           ;mcc_generated_files/usb/usb_device.c: 323:     UCONbits.PKTDIS = 0;
  5617  0044' 120E               	bcf	14,4	;volatile
  5618  0045'                    i1l4332:
  5619                           
  5620                           ;mcc_generated_files/usb/usb_device.c: 326:     UCONbits.PPBRST = 0;
  5621  0045' 130E               	bcf	14,6	;volatile
  5622  0046'                    i1l4334:
  5623                           
  5624                           ;mcc_generated_files/usb/usb_device.c: 330:     {;mcc_generated_files/usb/usb_device.c: 
      +                          331:         (UIR &= 0xF7);
  5625  0046' 30F7               	movlw	247
  5626  0047' 0080'              	movwf	??i1_USBDeviceInit
  5627  0048' 0800'              	movf	??i1_USBDeviceInit,w
  5628  0049' 0590               	andwf	16,f	;volatile
  5629  004A'                    i1l4336:
  5630                           
  5631                           ;mcc_generated_files/usb/usb_device.c: 333:         inPipes[0].info.Val = 0;
  5632  004A' 0021               	movlb	1	; select bank1
  5633  004B' 0182'              	clrf	(_inPipes^(0+128)+2)	;volatile
  5634  004C'                    i1l4338:
  5635                           
  5636                           ;mcc_generated_files/usb/usb_device.c: 334:         outPipes[0].info.Val = 0;
  5637  004C' 0182'              	clrf	(_outPipes^(0+128)+2)	;volatile
  5638  004D'                    i1l4340:
  5639                           
  5640                           ;mcc_generated_files/usb/usb_device.c: 335:         outPipes[0].wCount.Val = 0;
  5641  004D' 0183'              	clrf	(_outPipes^(0+128)+3)	;volatile
  5642  004E' 0183'              	clrf	((_outPipes+1)^(0+128)+3)	;volatile
  5643  004F'                    i1l4342:
  5644                           
  5645                           ;mcc_generated_files/usb/usb_device.c: 336:     }while(UIRbits.TRNIF == 1);
  5646  004F' 003D               	movlb	29	; select bank29
  5647  0050' 1990               	btfsc	16,3	;volatile
  5648  0051' 2800'              	goto	u293_21
  5649  0052' 2800'              	goto	u293_20
  5650  0053'                    u293_21:
  5651  0053' 2800'              	goto	i1l4334
  5652  0054'                    u293_20:
  5653  0054'                    i1l4344:
  5654                           
  5655                           ;mcc_generated_files/usb/usb_device.c: 340:     USBStatusStageEnabledFlag1 = 1;
  5656  0054' 3001               	movlw	1
  5657  0055' 0080'              	movwf	??i1_USBDeviceInit
  5658  0056' 0800'              	movf	??i1_USBDeviceInit,w
  5659  0057' 0023               	movlb	3	; select bank3
  5660  0058' 0080'              	movwf	_USBStatusStageEnabledFlag1^(0+384)	;volatile
  5661                           
  5662                           ;mcc_generated_files/usb/usb_device.c: 341:     USBStatusStageEnabledFlag2 = 1;
  5663  0059' 3001               	movlw	1
  5664  005A' 0080'              	movwf	??i1_USBDeviceInit
  5665  005B' 0800'              	movf	??i1_USBDeviceInit,w
  5666  005C' 0080'              	movwf	_USBStatusStageEnabledFlag2^(0+384)	;volatile
  5667  005D'                    i1l4346:
  5668                           
  5669                           ;mcc_generated_files/usb/usb_device.c: 343:     USBDeferINDataStagePackets = 0;
  5670  005D' 0180'              	clrf	_USBDeferINDataStagePackets^(0+384)	;volatile
  5671  005E'                    i1l4348:
  5672                           
  5673                           ;mcc_generated_files/usb/usb_device.c: 344:     USBDeferOUTDataStagePackets = 0;
  5674  005E' 0180'              	clrf	_USBDeferOUTDataStagePackets^(0+384)	;volatile
  5675  005F'                    i1l4350:
  5676                           
  5677                           ;mcc_generated_files/usb/usb_device.c: 345:     USBBusIsSuspended = 0;
  5678  005F' 0180'              	clrf	_USBBusIsSuspended^(0+384)	;volatile
  5679  0060'                    i1l4352:
  5680                           
  5681                           ;mcc_generated_files/usb/usb_device.c: 349:     for(i = 0; i < (uint8_t)(2 +1u); i++)
  5682  0060' 0184'              	clrf	i1USBDeviceInit@i
  5683  0061'                    i1l4356:
  5684                           
  5685                           ;mcc_generated_files/usb/usb_device.c: 350:     {;mcc_generated_files/usb/usb_device.c: 
      +                          351:         pBDTEntryIn[i] = 0u;
  5686  0061' 3504'              	lslf	i1USBDeviceInit@i,w
  5687  0062' 3E00'              	addlw	(low (_pBDTEntryIn| 0))& (0+255)
  5688  0063' 0086               	movwf	6
  5689  0064' 0187               	clrf	7
  5690  0065' 3000               	movlw	0
  5691  0066' 3FC0               	movwi [0]fsr1
  5692  0067' 3FC1               	movwi [1]fsr1
  5693                           
  5694                           ;mcc_generated_files/usb/usb_device.c: 352:         pBDTEntryOut[i] = 0u;
  5695  0068' 3504'              	lslf	i1USBDeviceInit@i,w
  5696  0069' 3E00'              	addlw	(low (_pBDTEntryOut| (0+256)))& (0+255)
  5697  006A' 0086               	movwf	6
  5698  006B' 3001               	movlw	1	; select bank3/4
  5699  006C' 0087               	movwf	7
  5700  006D' 3000               	movlw	0
  5701  006E' 3FC0               	movwi [0]fsr1
  5702  006F' 3FC1               	movwi [1]fsr1
  5703                           
  5704                           ;mcc_generated_files/usb/usb_device.c: 353:         ep_data_in[i].Val = 0u;
  5705  0070' 0804'              	movf	i1USBDeviceInit@i,w
  5706  0071' 3E00'              	addlw	(low (_ep_data_in| (0+256)))& (0+255)
  5707  0072' 0086               	movwf	6
  5708  0073' 3001               	movlw	1	; select bank3/4
  5709  0074' 0087               	movwf	7
  5710  0075' 0181               	clrf	1
  5711                           
  5712                           ;mcc_generated_files/usb/usb_device.c: 354:         ep_data_out[i].Val = 0u;
  5713  0076' 0804'              	movf	i1USBDeviceInit@i,w
  5714  0077' 3E00'              	addlw	(low (_ep_data_out| (0+256)))& (0+255)
  5715  0078' 0086               	movwf	6
  5716  0079' 3001               	movlw	1	; select bank3/4
  5717  007A' 0087               	movwf	7
  5718  007B' 0181               	clrf	1
  5719  007C'                    i1l4358:
  5720                           
  5721                           ;mcc_generated_files/usb/usb_device.c: 355:     }
  5722  007C' 3001               	movlw	1
  5723  007D' 0080'              	movwf	??i1_USBDeviceInit
  5724  007E' 0800'              	movf	??i1_USBDeviceInit,w
  5725  007F' 0784'              	addwf	i1USBDeviceInit@i,f
  5726  0080'                    i1l4360:
  5727  0080' 3003               	movlw	3
  5728  0081' 0204'              	subwf	i1USBDeviceInit@i,w
  5729  0082' 1C03               	skipc
  5730  0083' 2800'              	goto	u294_21
  5731  0084' 2800'              	goto	u294_20
  5732  0085'                    u294_21:
  5733  0085' 2800'              	goto	i1l4356
  5734  0086'                    u294_20:
  5735  0086'                    i1l4362:
  5736                           
  5737                           ;mcc_generated_files/usb/usb_device.c: 358:     pBDTEntryIn[0] = (volatile BDT_ENTRY*)&B
      +                          DT[2];
  5738  0086' 3028               	movlw	40
  5739  0087' 0021               	movlb	1	; select bank1
  5740  0088' 0080'              	movwf	_pBDTEntryIn^(0+128)
  5741  0089' 3000               	movlw	0
  5742  008A' 0080'              	movwf	(_pBDTEntryIn+1)^(0+128)
  5743  008B'                    i1l4364:
  5744                           
  5745                           ;mcc_generated_files/usb/usb_device.c: 360:     UEP0 = 0x06|0x10;
  5746  008B' 3016               	movlw	22
  5747  008C' 003D               	movlb	29	; select bank29
  5748  008D' 0098               	movwf	24	;volatile
  5749  008E'                    i1l4366:
  5750                           
  5751                           ;mcc_generated_files/usb/usb_device.c: 362:     BDT[0].ADR = (((uint16_t)(&SetupPkt)) & 
      +                          0x7FFF);
  5752  008E' 3000               	movlw	0
  5753  008F' 0020               	movlb	0	; select bank0
  5754  0090' 00A3               	movwf	35	;volatile
  5755  0091' 3050               	movlw	80
  5756  0092' 00A2               	movwf	34	;volatile
  5757  0093'                    i1l4368:
  5758                           
  5759                           ;mcc_generated_files/usb/usb_device.c: 363:     BDT[0].CNT = 8;
  5760  0093' 3008               	movlw	8
  5761  0094' 00A1               	movwf	33	;volatile
  5762  0095'                    i1l4370:
  5763                           
  5764                           ;mcc_generated_files/usb/usb_device.c: 364:     BDT[0].STAT.Val = 0x00|0x04;
  5765  0095' 3004               	movlw	4
  5766  0096' 0080'              	movwf	??i1_USBDeviceInit
  5767  0097' 0800'              	movf	??i1_USBDeviceInit,w
  5768  0098' 00A0               	movwf	32	;volatile
  5769  0099'                    i1l4372:
  5770                           
  5771                           ;mcc_generated_files/usb/usb_device.c: 365:     BDT[0].STAT.Val |= 0x80;
  5772  0099' 17A0               	bsf	32,7	;volatile
  5773  009A'                    i1l4374:
  5774                           
  5775                           ;mcc_generated_files/usb/usb_device.c: 368:     USBActiveConfiguration = 0;
  5776  009A' 0021               	movlb	1	; select bank1
  5777  009B' 0180'              	clrf	_USBActiveConfiguration^(0+128)	;volatile
  5778  009C'                    i1l4376:
  5779                           
  5780                           ;mcc_generated_files/usb/usb_device.c: 370:     USB1msTickCount = 0;
  5781  009C' 3000               	movlw	0
  5782  009D' 0023               	movlb	3	; select bank3
  5783  009E' 0080'              	movwf	(_USB1msTickCount+3)^(0+384)	;volatile
  5784  009F' 3000               	movlw	0
  5785  00A0' 0080'              	movwf	(_USB1msTickCount+2)^(0+384)	;volatile
  5786  00A1' 3000               	movlw	0
  5787  00A2' 0080'              	movwf	(_USB1msTickCount+1)^(0+384)	;volatile
  5788  00A3' 3000               	movlw	0
  5789  00A4' 0080'              	movwf	_USB1msTickCount^(0+384)	;volatile
  5790  00A5'                    i1l4378:
  5791                           
  5792                           ;mcc_generated_files/usb/usb_device.c: 371:     USBTicksSinceSuspendEnd = 0;
  5793  00A5' 0180'              	clrf	_USBTicksSinceSuspendEnd^(0+384)	;volatile
  5794  00A6'                    i1l4380:
  5795                           
  5796                           ;mcc_generated_files/usb/usb_device.c: 374:     USBDeviceState = DETACHED_STATE;
  5797  00A6' 0021               	movlb	1	; select bank1
  5798  00A7' 0180'              	clrf	_USBDeviceState^(0+128)	;volatile
  5799  00A8'                    i1l333:
  5800  00A8' 0008               	return
  5801  00A9'                    __end_ofi1_USBDeviceInit:
  5802                           
  5803                           	psect	text21
  5804  0000'                    __ptext21:	
  5805 ;; *************** function _USBWakeFromSuspend *****************
  5806 ;; Defined at:
  5807 ;;		line 2307 in file "mcc_generated_files/usb/usb_device.c"
  5808 ;; Parameters:    Size  Location     Type
  5809 ;;		None
  5810 ;; Auto vars:     Size  Location     Type
  5811 ;;		None
  5812 ;; Return value:  Size  Location     Type
  5813 ;;                  1    wreg      void 
  5814 ;; Registers used:
  5815 ;;		wreg, fsr0l, fsr0h, fsr1l, fsr1h, status,2, status,0, pclath, cstack
  5816 ;; Tracked objects:
  5817 ;;		On entry : 0/0
  5818 ;;		On exit  : 0/0
  5819 ;;		Unchanged: 0/0
  5820 ;; Data sizes:     COMMON   BANK0   BANK1   BANK2   BANK3   BANK4   BANK5   BANK6   BANK7   BANK8   BANK9  BANK10  BANK1
      +1  BANK12
  5821 ;;      Params:         0       0       0       0       0       0       0       0       0       0       0       0       
      +0       0
  5822 ;;      Locals:         0       0       0       0       0       0       0       0       0       0       0       0       
      +0       0
  5823 ;;      Temps:          0       1       0       0       0       0       0       0       0       0       0       0       
      +0       0
  5824 ;;      Totals:         0       1       0       0       0       0       0       0       0       0       0       0       
      +0       0
  5825 ;;Total ram usage:        1 bytes
  5826 ;; Hardware stack levels used:    1
  5827 ;; Hardware stack levels required when called:    4
  5828 ;; This function calls:
  5829 ;;		_USER_USB_CALLBACK_EVENT_HANDLER
  5830 ;; This function is called by:
  5831 ;;		_USBDeviceTasks
  5832 ;; This function uses a non-reentrant model
  5833 ;;
  5834                           
  5835                           
  5836                           ;psect for function _USBWakeFromSuspend
  5837  0000'                    _USBWakeFromSuspend:
  5838  0000'                    i1l4222:	
  5839                           ;incstack = 0
  5840                           ; Regs used in _USBWakeFromSuspend: [wreg-fsr1h+status,2+status,0+pclath+cstack]
  5841                           
  5842                           
  5843                           ;mcc_generated_files/usb/usb_device.c: 2309:     USBBusIsSuspended = 0;
  5844  0000' 0023               	movlb	3	; select bank3
  5845  0001' 0180'              	clrf	_USBBusIsSuspended^(0+384)	;volatile
  5846  0002'                    i1l4224:
  5847                           
  5848                           ;mcc_generated_files/usb/usb_device.c: 2315:     USER_USB_CALLBACK_EVENT_HANDLER((USB_EV
      +                          ENT)EVENT_RESUME,0,0);
  5849  0002' 3074               	movlw	116
  5850  0003' 0020               	movlb	0	; select bank0
  5851  0004' 0080'              	movwf	USER_USB_CALLBACK_EVENT_HANDLER@event
  5852  0005' 3000               	movlw	0
  5853  0006' 0081'              	movwf	USER_USB_CALLBACK_EVENT_HANDLER@event+1
  5854  0007' 3000               	movlw	0
  5855  0008' 0082'              	movwf	USER_USB_CALLBACK_EVENT_HANDLER@pdata
  5856  0009' 3000               	movlw	0
  5857  000A' 0083'              	movwf	USER_USB_CALLBACK_EVENT_HANDLER@pdata+1
  5858  000B' 3000               	movlw	0
  5859  000C' 0084'              	movwf	USER_USB_CALLBACK_EVENT_HANDLER@size
  5860  000D' 0085'              	movwf	USER_USB_CALLBACK_EVENT_HANDLER@size+1
  5861  000E' 3180' 2000' 3180'  	fcall	_USER_USB_CALLBACK_EVENT_HANDLER
  5862  0011'                    i1l4226:
  5863                           
  5864                           ;mcc_generated_files/usb/usb_device.c: 2322:         UCONbits.SUSPND = 0;
  5865  0011' 003D               	movlb	29	; select bank29
  5866  0012' 108E               	bcf	14,1	;volatile
  5867  0013'                    i1l4228:
  5868                           
  5869                           ;mcc_generated_files/usb/usb_device.c: 2327:     UIEbits.ACTVIE = 0;
  5870  0013' 1112               	bcf	18,2	;volatile
  5871                           
  5872                           ;mcc_generated_files/usb/usb_device.c: 2345:     while(UIRbits.ACTVIF)
  5873  0014' 2800'              	goto	i1l4232
  5874  0015'                    i1l4230:
  5875                           
  5876                           ;mcc_generated_files/usb/usb_device.c: 2347:     {;mcc_generated_files/usb/usb_device.c:
      +                           2348:         (UIR &= 0xFB);
  5877  0015' 30FB               	movlw	251
  5878  0016' 0020               	movlb	0	; select bank0
  5879  0017' 0086'              	movwf	??_USBWakeFromSuspend
  5880  0018' 0806'              	movf	??_USBWakeFromSuspend,w
  5881  0019' 003D               	movlb	29	; select bank29
  5882  001A' 0590               	andwf	16,f	;volatile
  5883  001B'                    i1l4232:
  5884                           
  5885                           ;mcc_generated_files/usb/usb_device.c: 2345:     while(UIRbits.ACTVIF)
  5886  001B' 1910               	btfsc	16,2	;volatile
  5887  001C' 2800'              	goto	u279_21
  5888  001D' 2800'              	goto	u279_20
  5889  001E'                    u279_21:
  5890  001E' 2800'              	goto	i1l4230
  5891  001F'                    u279_20:
  5892  001F'                    i1l4234:
  5893                           
  5894                           ;mcc_generated_files/usb/usb_device.c: 2351:     USBTicksSinceSuspendEnd = 0;
  5895  001F' 0023               	movlb	3	; select bank3
  5896  0020' 0180'              	clrf	_USBTicksSinceSuspendEnd^(0+384)	;volatile
  5897  0021'                    i1l502:
  5898  0021' 0008               	return
  5899  0022'                    __end_of_USBWakeFromSuspend:
  5900                           
  5901                           	psect	text22
  5902  0000'                    __ptext22:	
  5903 ;; *************** function _USBSuspend *****************
  5904 ;; Defined at:
  5905 ;;		line 2249 in file "mcc_generated_files/usb/usb_device.c"
  5906 ;; Parameters:    Size  Location     Type
  5907 ;;		None
  5908 ;; Auto vars:     Size  Location     Type
  5909 ;;		None
  5910 ;; Return value:  Size  Location     Type
  5911 ;;                  1    wreg      void 
  5912 ;; Registers used:
  5913 ;;		wreg, fsr0l, fsr0h, fsr1l, fsr1h, status,2, status,0, pclath, cstack
  5914 ;; Tracked objects:
  5915 ;;		On entry : 0/0
  5916 ;;		On exit  : 0/0
  5917 ;;		Unchanged: 0/0
  5918 ;; Data sizes:     COMMON   BANK0   BANK1   BANK2   BANK3   BANK4   BANK5   BANK6   BANK7   BANK8   BANK9  BANK10  BANK1
      +1  BANK12
  5919 ;;      Params:         0       0       0       0       0       0       0       0       0       0       0       0       
      +0       0
  5920 ;;      Locals:         0       0       0       0       0       0       0       0       0       0       0       0       
      +0       0
  5921 ;;      Temps:          0       1       0       0       0       0       0       0       0       0       0       0       
      +0       0
  5922 ;;      Totals:         0       1       0       0       0       0       0       0       0       0       0       0       
      +0       0
  5923 ;;Total ram usage:        1 bytes
  5924 ;; Hardware stack levels used:    1
  5925 ;; Hardware stack levels required when called:    4
  5926 ;; This function calls:
  5927 ;;		_USER_USB_CALLBACK_EVENT_HANDLER
  5928 ;; This function is called by:
  5929 ;;		_USBDeviceTasks
  5930 ;; This function uses a non-reentrant model
  5931 ;;
  5932                           
  5933                           
  5934                           ;psect for function _USBSuspend
  5935  0000'                    _USBSuspend:
  5936  0000'                    i1l4236:	
  5937                           ;incstack = 0
  5938                           ; Regs used in _USBSuspend: [wreg-fsr1h+status,2+status,0+pclath+cstack]
  5939                           
  5940                           
  5941                           ;mcc_generated_files/usb/usb_device.c: 2274:     UIEbits.ACTVIE = 1;
  5942  0000' 003D               	movlb	29	; select bank29
  5943  0001' 1512               	bsf	18,2	;volatile
  5944  0002'                    i1l4238:
  5945                           
  5946                           ;mcc_generated_files/usb/usb_device.c: 2275:     (UIR &= 0xEF);
  5947  0002' 30EF               	movlw	239
  5948  0003' 0020               	movlb	0	; select bank0
  5949  0004' 0086'              	movwf	??_USBSuspend
  5950  0005' 0806'              	movf	??_USBSuspend,w
  5951  0006' 003D               	movlb	29	; select bank29
  5952  0007' 0590               	andwf	16,f	;volatile
  5953  0008'                    i1l4240:
  5954                           
  5955                           ;mcc_generated_files/usb/usb_device.c: 2278:         UCONbits.SUSPND = 1;
  5956  0008' 148E               	bsf	14,1	;volatile
  5957  0009'                    i1l4242:
  5958                           
  5959                           ;mcc_generated_files/usb/usb_device.c: 2281:     USBBusIsSuspended = 1;
  5960  0009' 3001               	movlw	1
  5961  000A' 0020               	movlb	0	; select bank0
  5962  000B' 0086'              	movwf	??_USBSuspend
  5963  000C' 0806'              	movf	??_USBSuspend,w
  5964  000D' 0023               	movlb	3	; select bank3
  5965  000E' 0080'              	movwf	_USBBusIsSuspended^(0+384)	;volatile
  5966  000F'                    i1l4244:
  5967                           
  5968                           ;mcc_generated_files/usb/usb_device.c: 2282:     USBTicksSinceSuspendEnd = 0;
  5969  000F' 0180'              	clrf	_USBTicksSinceSuspendEnd^(0+384)	;volatile
  5970  0010'                    i1l4246:
  5971                           
  5972                           ;mcc_generated_files/usb/usb_device.c: 2289:     USER_USB_CALLBACK_EVENT_HANDLER((USB_EV
      +                          ENT)EVENT_SUSPEND,0,0);
  5973  0010' 3075               	movlw	117
  5974  0011' 0020               	movlb	0	; select bank0
  5975  0012' 0080'              	movwf	USER_USB_CALLBACK_EVENT_HANDLER@event
  5976  0013' 3000               	movlw	0
  5977  0014' 0081'              	movwf	USER_USB_CALLBACK_EVENT_HANDLER@event+1
  5978  0015' 3000               	movlw	0
  5979  0016' 0082'              	movwf	USER_USB_CALLBACK_EVENT_HANDLER@pdata
  5980  0017' 3000               	movlw	0
  5981  0018' 0083'              	movwf	USER_USB_CALLBACK_EVENT_HANDLER@pdata+1
  5982  0019' 3000               	movlw	0
  5983  001A' 0084'              	movwf	USER_USB_CALLBACK_EVENT_HANDLER@size
  5984  001B' 0085'              	movwf	USER_USB_CALLBACK_EVENT_HANDLER@size+1
  5985  001C' 3180' 2000' 3180'  	fcall	_USER_USB_CALLBACK_EVENT_HANDLER
  5986  001F'                    i1l496:
  5987  001F' 0008               	return
  5988  0020'                    __end_of_USBSuspend:
  5989                           
  5990                           	psect	text23
  5991  0000'                    __ptext23:	
  5992 ;; *************** function _USBStallHandler *****************
  5993 ;; Defined at:
  5994 ;;		line 2206 in file "mcc_generated_files/usb/usb_device.c"
  5995 ;; Parameters:    Size  Location     Type
  5996 ;;		None
  5997 ;; Auto vars:     Size  Location     Type
  5998 ;;		None
  5999 ;; Return value:  Size  Location     Type
  6000 ;;                  1    wreg      void 
  6001 ;; Registers used:
  6002 ;;		wreg, fsr1l, fsr1h, status,2, status,0
  6003 ;; Tracked objects:
  6004 ;;		On entry : 0/0
  6005 ;;		On exit  : 0/0
  6006 ;;		Unchanged: 0/0
  6007 ;; Data sizes:     COMMON   BANK0   BANK1   BANK2   BANK3   BANK4   BANK5   BANK6   BANK7   BANK8   BANK9  BANK10  BANK1
      +1  BANK12
  6008 ;;      Params:         0       0       0       0       0       0       0       0       0       0       0       0       
      +0       0
  6009 ;;      Locals:         0       0       0       0       0       0       0       0       0       0       0       0       
      +0       0
  6010 ;;      Temps:          1       0       0       0       0       0       0       0       0       0       0       0       
      +0       0
  6011 ;;      Totals:         1       0       0       0       0       0       0       0       0       0       0       0       
      +0       0
  6012 ;;Total ram usage:        1 bytes
  6013 ;; Hardware stack levels used:    1
  6014 ;; This function calls:
  6015 ;;		Nothing
  6016 ;; This function is called by:
  6017 ;;		_USBDeviceTasks
  6018 ;; This function uses a non-reentrant model
  6019 ;;
  6020                           
  6021                           
  6022                           ;psect for function _USBStallHandler
  6023  0000'                    _USBStallHandler:
  6024  0000'                    i1l4256:	
  6025                           ;incstack = 0
  6026                           ; Regs used in _USBStallHandler: [wreg+fsr1l+fsr1h+status,2+status,0]
  6027                           
  6028                           
  6029                           ;mcc_generated_files/usb/usb_device.c: 2218:     if(UEP0bits.EPSTALL == 1)
  6030  0000' 003D               	movlb	29	; select bank29
  6031  0001' 1C18               	btfss	24,0	;volatile
  6032  0002' 2800'              	goto	u282_21
  6033  0003' 2800'              	goto	u282_20
  6034  0004'                    u282_21:
  6035  0004' 2800'              	goto	i1l4266
  6036  0005'                    u282_20:
  6037  0005'                    i1l4258:
  6038                           
  6039                           ;mcc_generated_files/usb/usb_device.c: 2219:     {;mcc_generated_files/usb/usb_device.c:
      +                           2221:         if((pBDTEntryEP0OutCurrent->STAT.Val == 0x80) && (pBDTEntryIn[0]->STAT.Va
      +                          l == (0x80|0x04)))
  6040  0005' 0021               	movlb	1	; select bank1
  6041  0006' 0800'              	movf	_pBDTEntryEP0OutCurrent^(0+128),w
  6042  0007' 0086               	movwf	6
  6043  0008' 0187               	clrf	7
  6044  0009' 3080               	movlw	128
  6045  000A' 0601               	xorwf	1,w
  6046  000B' 1D03               	btfss	3,2
  6047  000C' 2800'              	goto	u283_21
  6048  000D' 2800'              	goto	u283_20
  6049  000E'                    u283_21:
  6050  000E' 2800'              	goto	i1l4264
  6051  000F'                    u283_20:
  6052  000F'                    i1l4260:
  6053  000F' 0800'              	movf	_pBDTEntryIn^(0+128),w
  6054  0010' 0086               	movwf	6
  6055  0011' 0800'              	movf	(_pBDTEntryIn+1)^(0+128),w
  6056  0012' 0087               	movwf	7
  6057  0013' 3084               	movlw	132
  6058  0014' 0601               	xorwf	1,w
  6059  0015' 1D03               	btfss	3,2
  6060  0016' 2800'              	goto	u284_21
  6061  0017' 2800'              	goto	u284_20
  6062  0018'                    u284_21:
  6063  0018' 2800'              	goto	i1l4264
  6064  0019'                    u284_20:
  6065  0019'                    i1l4262:
  6066                           
  6067                           ;mcc_generated_files/usb/usb_device.c: 2222:         {;mcc_generated_files/usb/usb_devic
      +                          e.c: 2224:             pBDTEntryEP0OutCurrent->STAT.Val = 0x00|(0x08 & 0x08)|0x04;
  6068  0019' 300C               	movlw	12
  6069  001A' 0080'              	movwf	??_USBStallHandler
  6070  001B' 0800'              	movf	_pBDTEntryEP0OutCurrent^(0+128),w
  6071  001C' 0086               	movwf	6
  6072  001D' 0187               	clrf	7
  6073  001E' 0800'              	movf	??_USBStallHandler,w
  6074  001F' 0081               	movwf	1
  6075                           
  6076                           ;mcc_generated_files/usb/usb_device.c: 2225:             pBDTEntryEP0OutCurrent->STAT.Va
      +                          l |= 0x80;
  6077  0020' 0800'              	movf	_pBDTEntryEP0OutCurrent^(0+128),w
  6078  0021' 0086               	movwf	6
  6079  0022' 0187               	clrf	7
  6080  0023' 1781               	bsf	1,7
  6081  0024'                    i1l4264:
  6082                           
  6083                           ;mcc_generated_files/usb/usb_device.c: 2227:         UEP0bits.EPSTALL = 0;
  6084  0024' 003D               	movlb	29	; select bank29
  6085  0025' 1018               	bcf	24,0	;volatile
  6086  0026'                    i1l4266:
  6087                           
  6088                           ;mcc_generated_files/usb/usb_device.c: 2230:     (UIR &= 0xDF);
  6089  0026' 30DF               	movlw	223
  6090  0027' 0080'              	movwf	??_USBStallHandler
  6091  0028' 0800'              	movf	??_USBStallHandler,w
  6092  0029' 0590               	andwf	16,f	;volatile
  6093  002A'                    i1l493:
  6094  002A' 0008               	return
  6095  002B'                    __end_of_USBStallHandler:
  6096                           
  6097                           	psect	text24
  6098  0000'                    __ptext24:	
  6099 ;; *************** function _USBIncrement1msInternalTimers *****************
  6100 ;; Defined at:
  6101 ;;		line 3029 in file "mcc_generated_files/usb/usb_device.c"
  6102 ;; Parameters:    Size  Location     Type
  6103 ;;		None
  6104 ;; Auto vars:     Size  Location     Type
  6105 ;;		None
  6106 ;; Return value:  Size  Location     Type
  6107 ;;                  1    wreg      void 
  6108 ;; Registers used:
  6109 ;;		wreg, status,2, status,0
  6110 ;; Tracked objects:
  6111 ;;		On entry : 0/0
  6112 ;;		On exit  : 0/0
  6113 ;;		Unchanged: 0/0
  6114 ;; Data sizes:     COMMON   BANK0   BANK1   BANK2   BANK3   BANK4   BANK5   BANK6   BANK7   BANK8   BANK9  BANK10  BANK1
      +1  BANK12
  6115 ;;      Params:         0       0       0       0       0       0       0       0       0       0       0       0       
      +0       0
  6116 ;;      Locals:         0       0       0       0       0       0       0       0       0       0       0       0       
      +0       0
  6117 ;;      Temps:          1       0       0       0       0       0       0       0       0       0       0       0       
      +0       0
  6118 ;;      Totals:         1       0       0       0       0       0       0       0       0       0       0       0       
      +0       0
  6119 ;;Total ram usage:        1 bytes
  6120 ;; Hardware stack levels used:    1
  6121 ;; This function calls:
  6122 ;;		Nothing
  6123 ;; This function is called by:
  6124 ;;		_USBDeviceTasks
  6125 ;; This function uses a non-reentrant model
  6126 ;;
  6127                           
  6128                           
  6129                           ;psect for function _USBIncrement1msInternalTimers
  6130  0000'                    _USBIncrement1msInternalTimers:
  6131  0000'                    i1l4248:	
  6132                           ;incstack = 0
  6133                           ; Regs used in _USBIncrement1msInternalTimers: [wreg+status,2+status,0]
  6134                           
  6135                           
  6136                           ;mcc_generated_files/usb/usb_device.c: 3037:     USB1msTickCount++;
  6137  0000' 3001               	movlw	1
  6138  0001' 0023               	movlb	3	; select bank3
  6139  0002' 0780'              	addwf	_USB1msTickCount^(0+384),f	;volatile
  6140  0003' 3000               	movlw	0
  6141  0004' 3D80'              	addwfc	(_USB1msTickCount+1)^(0+384),f	;volatile
  6142  0005' 3000               	movlw	0
  6143  0006' 3D80'              	addwfc	(_USB1msTickCount+2)^(0+384),f	;volatile
  6144  0007' 3000               	movlw	0
  6145  0008' 3D80'              	addwfc	(_USB1msTickCount+3)^(0+384),f	;volatile
  6146  0009'                    i1l4250:
  6147                           
  6148                           ;mcc_generated_files/usb/usb_device.c: 3038:     if(USBBusIsSuspended == 0)
  6149  0009' 0800'              	movf	_USBBusIsSuspended^(0+384),w	;volatile
  6150  000A' 1D03               	btfss	3,2
  6151  000B' 2800'              	goto	u280_21
  6152  000C' 2800'              	goto	u280_20
  6153  000D'                    u280_21:
  6154  000D' 2800'              	goto	i1l583
  6155  000E'                    u280_20:
  6156  000E'                    i1l4252:
  6157                           
  6158                           ;mcc_generated_files/usb/usb_device.c: 3039:     {;mcc_generated_files/usb/usb_device.c:
      +                           3040:         USBTicksSinceSuspendEnd++;
  6159  000E' 3001               	movlw	1
  6160  000F' 0080'              	movwf	??_USBIncrement1msInternalTimers
  6161  0010' 0800'              	movf	??_USBIncrement1msInternalTimers,w
  6162  0011' 0780'              	addwf	_USBTicksSinceSuspendEnd^(0+384),f	;volatile
  6163                           
  6164                           ;mcc_generated_files/usb/usb_device.c: 3042:         if(USBTicksSinceSuspendEnd == 0)
  6165  0012' 0800'              	movf	_USBTicksSinceSuspendEnd^(0+384),w	;volatile
  6166  0013' 1D03               	btfss	3,2
  6167  0014' 2800'              	goto	u281_21
  6168  0015' 2800'              	goto	u281_20
  6169  0016'                    u281_21:
  6170  0016' 2800'              	goto	i1l583
  6171  0017'                    u281_20:
  6172  0017'                    i1l4254:
  6173                           
  6174                           ;mcc_generated_files/usb/usb_device.c: 3043:         {;mcc_generated_files/usb/usb_devic
      +                          e.c: 3044:             USBTicksSinceSuspendEnd = 255;
  6175  0017' 30FF               	movlw	255
  6176  0018' 0080'              	movwf	??_USBIncrement1msInternalTimers
  6177  0019' 0800'              	movf	??_USBIncrement1msInternalTimers,w
  6178  001A' 0080'              	movwf	_USBTicksSinceSuspendEnd^(0+384)	;volatile
  6179  001B'                    i1l583:
  6180  001B' 0008               	return
  6181  001C'                    __end_of_USBIncrement1msInternalTimers:
  6182                           
  6183                           	psect	text25
  6184  0000'                    __ptext25:	
  6185 ;; *************** function _USBCtrlEPService *****************
  6186 ;; Defined at:
  6187 ;;		line 2376 in file "mcc_generated_files/usb/usb_device.c"
  6188 ;; Parameters:    Size  Location     Type
  6189 ;;		None
  6190 ;; Auto vars:     Size  Location     Type
  6191 ;;		None
  6192 ;; Return value:  Size  Location     Type
  6193 ;;                  1    wreg      void 
  6194 ;; Registers used:
  6195 ;;		wreg, fsr0l, fsr0h, fsr1l, fsr1h, status,2, status,0, pclath, cstack
  6196 ;; Tracked objects:
  6197 ;;		On entry : 0/0
  6198 ;;		On exit  : 0/0
  6199 ;;		Unchanged: 0/0
  6200 ;; Data sizes:     COMMON   BANK0   BANK1   BANK2   BANK3   BANK4   BANK5   BANK6   BANK7   BANK8   BANK9  BANK10  BANK1
      +1  BANK12
  6201 ;;      Params:         0       0       0       0       0       0       0       0       0       0       0       0       
      +0       0
  6202 ;;      Locals:         0       0       0       0       0       0       0       0       0       0       0       0       
      +0       0
  6203 ;;      Temps:          0       0       2       0       0       0       0       0       0       0       0       0       
      +0       0
  6204 ;;      Totals:         0       0       2       0       0       0       0       0       0       0       0       0       
      +0       0
  6205 ;;Total ram usage:        2 bytes
  6206 ;; Hardware stack levels used:    1
  6207 ;; Hardware stack levels required when called:    7
  6208 ;; This function calls:
  6209 ;;		_USBCtrlTrfInHandler
  6210 ;;		_USBCtrlTrfOutHandler
  6211 ;;		_USBCtrlTrfSetupHandler
  6212 ;;		_memcpy
  6213 ;; This function is called by:
  6214 ;;		_USBDeviceTasks
  6215 ;; This function uses a non-reentrant model
  6216 ;;
  6217                           
  6218                           
  6219                           ;psect for function _USBCtrlEPService
  6220  0000'                    _USBCtrlEPService:
  6221  0000'                    i1l5258:	
  6222                           ;incstack = 0
  6223                           ; Regs used in _USBCtrlEPService: [wreg-fsr1h+status,2+status,0+pclath+cstack]
  6224                           
  6225                           
  6226                           ;mcc_generated_files/usb/usb_device.c: 2382:         USBStatusStageTimeoutCounter = (uin
      +                          t8_t)45;
  6227  0000' 302D               	movlw	45
  6228  0001' 0021               	movlb	1	; select bank1
  6229  0002' 0080'              	movwf	??_USBCtrlEPService^(0+128)
  6230  0003' 0800'              	movf	??_USBCtrlEPService^(0+128),w
  6231  0004' 0023               	movlb	3	; select bank3
  6232  0005' 0080'              	movwf	_USBStatusStageTimeoutCounter^(0+384)	;volatile
  6233  0006'                    i1l5260:
  6234                           
  6235                           ;mcc_generated_files/usb/usb_device.c: 2386:     if((USTATcopy.Val & ~0x02) == 0x00)
  6236  0006' 0021               	movlb	1	; select bank1
  6237  0007' 0800'              	movf	_USTATcopy^(0+128),w	;volatile
  6238  0008' 39FD               	andlw	253
  6239  0009' 1D03               	btfss	3,2
  6240  000A' 2800'              	goto	u386_21
  6241  000B' 2800'              	goto	u386_20
  6242  000C'                    u386_21:
  6243  000C' 2800'              	goto	i1l5276
  6244  000D'                    u386_20:
  6245  000D'                    i1l5262:
  6246                           
  6247                           ;mcc_generated_files/usb/usb_device.c: 2387:     {;mcc_generated_files/usb/usb_device.c:
      +                           2390:             pBDTEntryEP0OutCurrent = (volatile BDT_ENTRY*)&BDT[(USTATcopy.Val & 0
      +                          x7E)>>1];
  6248  000D' 3600'              	lsrf	_USTATcopy^(0+128),w	;volatile
  6249  000E' 393F               	andlw	63
  6250  000F' 0080'              	movwf	??_USBCtrlEPService^(0+128)
  6251  0010' 3001               	movlw	1
  6252  0011'                    u387_25:
  6253  0011' 3580'              	lslf	??_USBCtrlEPService^(0+128),f
  6254  0012' 3EFF               	addlw	-1
  6255  0013' 1D03               	skipz
  6256  0014' 2800'              	goto	u387_25
  6257  0015' 3500'              	lslf	??_USBCtrlEPService^(0+128),w
  6258  0016' 3E20               	addlw	32
  6259  0017' 0080'              	movwf	(??_USBCtrlEPService+1)^(0+128)
  6260  0018' 0800'              	movf	(??_USBCtrlEPService+1)^(0+128),w
  6261  0019' 0080'              	movwf	_pBDTEntryEP0OutCurrent^(0+128)
  6262  001A'                    i1l5264:
  6263                           
  6264                           ;mcc_generated_files/usb/usb_device.c: 2398:         pBDTEntryEP0OutNext = pBDTEntryEP0O
      +                          utCurrent;
  6265  001A' 0800'              	movf	_pBDTEntryEP0OutCurrent^(0+128),w
  6266  001B' 0080'              	movwf	_pBDTEntryEP0OutNext^(0+128)
  6267  001C' 39FF               	andlw	255
  6268  001D' 1D03               	skipz
  6269  001E' 3000               	movlw	0
  6270  001F' 0080'              	movwf	(_pBDTEntryEP0OutNext+1)^(0+128)
  6271  0020'                    i1l5266:
  6272                           
  6273                           ;mcc_generated_files/usb/usb_device.c: 2400:         pBDTEntryEP0OutNext = (volatile BDT
      +                          _ENTRY*)(((uint16_t)pBDTEntryEP0OutNext) ^ 0x0004);
  6274  0020' 3004               	movlw	4
  6275  0021' 0600'              	xorwf	_pBDTEntryEP0OutNext^(0+128),w
  6276  0022' 0080'              	movwf	_pBDTEntryEP0OutNext^(0+128)
  6277  0023' 3000               	movlw	0
  6278  0024' 0600'              	xorwf	(_pBDTEntryEP0OutNext+1)^(0+128),w
  6279  0025' 0080'              	movwf	(_pBDTEntryEP0OutNext+1)^(0+128)
  6280  0026'                    i1l5268:
  6281                           
  6282                           ;mcc_generated_files/usb/usb_device.c: 2403:         if(pBDTEntryEP0OutCurrent->STAT.PID
      +                           == 0xD)
  6283  0026' 0800'              	movf	_pBDTEntryEP0OutCurrent^(0+128),w
  6284  0027' 0086               	movwf	6
  6285  0028' 0187               	clrf	7
  6286  0029' 0C01               	rrf	1,w
  6287  002A' 0C89               	rrf	9,f
  6288  002B' 390F               	andlw	15
  6289  002C' 3A0D               	xorlw	13
  6290  002D' 1D03               	skipz
  6291  002E' 2800'              	goto	u388_21
  6292  002F' 2800'              	goto	u388_20
  6293  0030'                    u388_21:
  6294  0030' 2800'              	goto	i1l5274
  6295  0031'                    u388_20:
  6296  0031'                    i1l5270:
  6297                           
  6298                           ;mcc_generated_files/usb/usb_device.c: 2404:         {;mcc_generated_files/usb/usb_devic
      +                          e.c: 2409:             memcpy((uint8_t*)&SetupPkt, (uint8_t*)((void *)(pBDTEntryEP0OutCu
      +                          rrent->ADR)), 8);
  6299  0031' 0800'              	movf	_pBDTEntryEP0OutCurrent^(0+128),w
  6300  0032' 3E02               	addlw	2
  6301  0033' 0086               	movwf	6
  6302  0034' 0187               	clrf	7
  6303  0035' 3F40               	moviw [0]fsr1
  6304  0036' 0080'              	movwf	memcpy@s1
  6305  0037' 3F41               	moviw [1]fsr1
  6306  0038' 0081'              	movwf	memcpy@s1+1
  6307  0039' 3008               	movlw	8
  6308  003A' 0082'              	movwf	memcpy@n
  6309  003B' 3000               	movlw	0
  6310  003C' 0083'              	movwf	memcpy@n+1
  6311  003D' 3050               	movlw	80
  6312  003E' 3180' 2000' 3180'  	fcall	_memcpy
  6313  0041'                    i1l5272:
  6314                           
  6315                           ;mcc_generated_files/usb/usb_device.c: 2412:             USBCtrlTrfSetupHandler();
  6316  0041' 3180' 2000' 3180'  	fcall	_USBCtrlTrfSetupHandler
  6317                           
  6318                           ;mcc_generated_files/usb/usb_device.c: 2413:         }
  6319  0044' 2800'              	goto	i1l510
  6320  0045'                    i1l5274:
  6321                           
  6322                           ;mcc_generated_files/usb/usb_device.c: 2415:         {;mcc_generated_files/usb/usb_devic
      +                          e.c: 2417:             USBCtrlTrfOutHandler();
  6323  0045' 3180' 2000' 3180'  	fcall	_USBCtrlTrfOutHandler
  6324  0048' 2800'              	goto	i1l510
  6325  0049'                    i1l5276:
  6326  0049' 30FD               	movlw	253
  6327  004A' 0500'              	andwf	_USTATcopy^(0+128),w	;volatile
  6328  004B' 0080'              	movwf	??_USBCtrlEPService^(0+128)
  6329  004C' 3004               	movlw	4
  6330  004D' 0600'              	xorwf	??_USBCtrlEPService^(0+128),w
  6331  004E' 1D03               	btfss	3,2
  6332  004F' 2800'              	goto	u389_21
  6333  0050' 2800'              	goto	u389_20
  6334  0051'                    u389_21:
  6335  0051' 2800'              	goto	i1l510
  6336  0052'                    u389_20:
  6337  0052'                    i1l5278:
  6338                           
  6339                           ;mcc_generated_files/usb/usb_device.c: 2421:     {;mcc_generated_files/usb/usb_device.c:
      +                           2424:         USBCtrlTrfInHandler();
  6340  0052' 3180' 2000' 3180'  	fcall	_USBCtrlTrfInHandler
  6341  0055'                    i1l510:
  6342  0055' 0008               	return
  6343  0056'                    __end_of_USBCtrlEPService:
  6344                           
  6345                           	psect	text26
  6346  0000'                    __ptext26:	
  6347 ;; *************** function _memcpy *****************
  6348 ;; Defined at:
  6349 ;;		line 4 in file "C:\Program Files\Microchip\xc8\v2.31\pic\sources\c99\common\memcpy.c"
  6350 ;; Parameters:    Size  Location     Type
  6351 ;;  d1              1    wreg     PTR void 
  6352 ;;		 -> SetupPkt(8), 
  6353 ;;  s1              2    0[COMMON] PTR const void 
  6354 ;;		 -> CtrlTrfData(8), RAM(4096), SetupPkt(8), 
  6355 ;;  n               2    2[COMMON] unsigned int 
  6356 ;; Auto vars:     Size  Location     Type
  6357 ;;  d1              1    8[COMMON] PTR void 
  6358 ;;		 -> SetupPkt(8), 
  6359 ;;  s               2    5[COMMON] PTR const unsigned char 
  6360 ;;		 -> CtrlTrfData(8), RAM(4096), SetupPkt(8), 
  6361 ;;  d               1    9[COMMON] PTR unsigned char 
  6362 ;;		 -> SetupPkt(8), 
  6363 ;;  tmp             1    7[COMMON] unsigned char 
  6364 ;; Return value:  Size  Location     Type
  6365 ;;                  1    wreg      PTR void 
  6366 ;; Registers used:
  6367 ;;		wreg, fsr1l, fsr1h, status,2, status,0
  6368 ;; Tracked objects:
  6369 ;;		On entry : 0/0
  6370 ;;		On exit  : 0/0
  6371 ;;		Unchanged: 0/0
  6372 ;; Data sizes:     COMMON   BANK0   BANK1   BANK2   BANK3   BANK4   BANK5   BANK6   BANK7   BANK8   BANK9  BANK10  BANK1
      +1  BANK12
  6373 ;;      Params:         4       0       0       0       0       0       0       0       0       0       0       0       
      +0       0
  6374 ;;      Locals:         5       0       0       0       0       0       0       0       0       0       0       0       
      +0       0
  6375 ;;      Temps:          1       0       0       0       0       0       0       0       0       0       0       0       
      +0       0
  6376 ;;      Totals:        10       0       0       0       0       0       0       0       0       0       0       0       
      +0       0
  6377 ;;Total ram usage:       10 bytes
  6378 ;; Hardware stack levels used:    1
  6379 ;; This function calls:
  6380 ;;		Nothing
  6381 ;; This function is called by:
  6382 ;;		_USBCtrlEPService
  6383 ;; This function uses a non-reentrant model
  6384 ;;
  6385                           
  6386                           
  6387                           ;psect for function _memcpy
  6388  0000'                    _memcpy:
  6389                           
  6390                           ;incstack = 0
  6391                           ; Regs used in _memcpy: [wreg+fsr1l+fsr1h+status,2+status,0]
  6392                           ;memcpy@d1 stored from wreg
  6393  0000' 0088'              	movwf	memcpy@d1
  6394  0001'                    i1l3956:
  6395  0001' 0801'              	movf	memcpy@s1+1,w
  6396  0002' 0086'              	movwf	memcpy@s+1
  6397  0003' 0800'              	movf	memcpy@s1,w
  6398  0004' 0085'              	movwf	memcpy@s
  6399  0005' 0808'              	movf	memcpy@d1,w
  6400  0006' 0084'              	movwf	??_memcpy
  6401  0007' 0804'              	movf	??_memcpy,w
  6402  0008' 0089'              	movwf	memcpy@d
  6403  0009' 2800'              	goto	i1l3966
  6404  000A'                    i1l3958:
  6405  000A' 0805'              	movf	memcpy@s,w
  6406  000B' 0086               	movwf	6
  6407  000C' 0806'              	movf	memcpy@s+1,w
  6408  000D' 0087               	movwf	7
  6409  000E' 0801               	movf	1,w
  6410  000F' 0084'              	movwf	??_memcpy
  6411  0010' 0804'              	movf	??_memcpy,w
  6412  0011' 0087'              	movwf	memcpy@tmp
  6413  0012'                    i1l3960:
  6414  0012' 3001               	movlw	1
  6415  0013' 0785'              	addwf	memcpy@s,f
  6416  0014' 3000               	movlw	0
  6417  0015' 3D86'              	addwfc	memcpy@s+1,f
  6418  0016'                    i1l3962:
  6419  0016' 0807'              	movf	memcpy@tmp,w
  6420  0017' 0084'              	movwf	??_memcpy
  6421  0018' 0809'              	movf	memcpy@d,w
  6422  0019' 0086               	movwf	6
  6423  001A' 0187               	clrf	7
  6424  001B' 0804'              	movf	??_memcpy,w
  6425  001C' 0081               	movwf	1
  6426  001D'                    i1l3964:
  6427  001D' 3001               	movlw	1
  6428  001E' 0084'              	movwf	??_memcpy
  6429  001F' 0804'              	movf	??_memcpy,w
  6430  0020' 0789'              	addwf	memcpy@d,f
  6431  0021'                    i1l3966:
  6432  0021' 3001               	movlw	1
  6433  0022' 0282'              	subwf	memcpy@n,f
  6434  0023' 3000               	movlw	0
  6435  0024' 3B83'              	subwfb	memcpy@n+1,f
  6436  0025' 0A02'              	incf	memcpy@n,w
  6437  0026' 1D03               	skipz
  6438  0027' 2800'              	goto	u261_21
  6439  0028' 0A03'              	incf	memcpy@n+1,w
  6440  0029' 1D03               	btfss	3,2
  6441  002A' 2800'              	goto	u261_21
  6442  002B' 2800'              	goto	u261_20
  6443  002C'                    u261_21:
  6444  002C' 2800'              	goto	i1l3958
  6445  002D'                    u261_20:
  6446  002D'                    i1l1438:
  6447  002D' 0008               	return
  6448  002E'                    __end_of_memcpy:
  6449                           
  6450                           	psect	text27
  6451  0000'                    __ptext27:	
  6452 ;; *************** function _USBCtrlTrfSetupHandler *****************
  6453 ;; Defined at:
  6454 ;;		line 2469 in file "mcc_generated_files/usb/usb_device.c"
  6455 ;; Parameters:    Size  Location     Type
  6456 ;;		None
  6457 ;; Auto vars:     Size  Location     Type
  6458 ;;		None
  6459 ;; Return value:  Size  Location     Type
  6460 ;;                  1    wreg      void 
  6461 ;; Registers used:
  6462 ;;		wreg, fsr0l, fsr0h, fsr1l, fsr1h, status,2, status,0, pclath, cstack
  6463 ;; Tracked objects:
  6464 ;;		On entry : 0/0
  6465 ;;		On exit  : 0/0
  6466 ;;		Unchanged: 0/0
  6467 ;; Data sizes:     COMMON   BANK0   BANK1   BANK2   BANK3   BANK4   BANK5   BANK6   BANK7   BANK8   BANK9  BANK10  BANK1
      +1  BANK12
  6468 ;;      Params:         0       0       0       0       0       0       0       0       0       0       0       0       
      +0       0
  6469 ;;      Locals:         0       0       0       0       0       0       0       0       0       0       0       0       
      +0       0
  6470 ;;      Temps:          0       1       0       0       0       0       0       0       0       0       0       0       
      +0       0
  6471 ;;      Totals:         0       1       0       0       0       0       0       0       0       0       0       0       
      +0       0
  6472 ;;Total ram usage:        1 bytes
  6473 ;; Hardware stack levels used:    1
  6474 ;; Hardware stack levels required when called:    6
  6475 ;; This function calls:
  6476 ;;		_USBCheckStdRequest
  6477 ;;		_USBCtrlEPServiceComplete
  6478 ;;		_USER_USB_CALLBACK_EVENT_HANDLER
  6479 ;; This function is called by:
  6480 ;;		_USBCtrlEPService
  6481 ;; This function uses a non-reentrant model
  6482 ;;
  6483                           
  6484                           
  6485                           ;psect for function _USBCtrlTrfSetupHandler
  6486  0000'                    _USBCtrlTrfSetupHandler:
  6487  0000'                    i1l5232:	
  6488                           ;incstack = 0
  6489                           ; Regs used in _USBCtrlTrfSetupHandler: [wreg-fsr1h+status,2+status,0+pclath+cstack]
  6490                           
  6491                           
  6492                           ;mcc_generated_files/usb/usb_device.c: 2474:     shortPacketStatus = 0;
  6493  0000' 0021               	movlb	1	; select bank1
  6494  0001' 0180'              	clrf	_shortPacketStatus^(0+128)	;volatile
  6495                           
  6496                           ;mcc_generated_files/usb/usb_device.c: 2475:     USBDeferStatusStagePacket = 0;
  6497  0002' 0023               	movlb	3	; select bank3
  6498  0003' 0180'              	clrf	_USBDeferStatusStagePacket^(0+384)	;volatile
  6499                           
  6500                           ;mcc_generated_files/usb/usb_device.c: 2476:     USBDeferINDataStagePackets = 0;
  6501  0004' 0180'              	clrf	_USBDeferINDataStagePackets^(0+384)	;volatile
  6502                           
  6503                           ;mcc_generated_files/usb/usb_device.c: 2477:     USBDeferOUTDataStagePackets = 0;
  6504  0005' 0180'              	clrf	_USBDeferOUTDataStagePackets^(0+384)	;volatile
  6505                           
  6506                           ;mcc_generated_files/usb/usb_device.c: 2478:     BothEP0OutUOWNsSet = 0;
  6507  0006' 0180'              	clrf	_BothEP0OutUOWNsSet^(0+384)	;volatile
  6508                           
  6509                           ;mcc_generated_files/usb/usb_device.c: 2479:     controlTransferState = 0;
  6510  0007' 0021               	movlb	1	; select bank1
  6511  0008' 0180'              	clrf	_controlTransferState^(0+128)	;volatile
  6512  0009'                    i1l5234:
  6513                           
  6514                           ;mcc_generated_files/usb/usb_device.c: 2488:     pBDTEntryIn[0]->STAT.Val &= ~(0x80);
  6515  0009' 307F               	movlw	127
  6516  000A' 0020               	movlb	0	; select bank0
  6517  000B' 008F'              	movwf	??_USBCtrlTrfSetupHandler
  6518  000C' 0021               	movlb	1	; select bank1
  6519  000D' 0800'              	movf	_pBDTEntryIn^(0+128),w
  6520  000E' 0086               	movwf	6
  6521  000F' 0800'              	movf	(_pBDTEntryIn+1)^(0+128),w
  6522  0010' 0087               	movwf	7
  6523  0011' 0020               	movlb	0	; select bank0
  6524  0012' 080F'              	movf	??_USBCtrlTrfSetupHandler,w
  6525  0013' 0581               	andwf	1,f
  6526  0014'                    i1l5236:
  6527                           
  6528                           ;mcc_generated_files/usb/usb_device.c: 2490:     pBDTEntryIn[0] = (volatile BDT_ENTRY*)(
      +                          ((uint16_t)pBDTEntryIn[0]) ^ 0x0004);
  6529  0014' 3004               	movlw	4
  6530  0015' 0021               	movlb	1	; select bank1
  6531  0016' 0600'              	xorwf	_pBDTEntryIn^(0+128),w
  6532  0017' 0080'              	movwf	_pBDTEntryIn^(0+128)
  6533  0018' 3000               	movlw	0
  6534  0019' 0600'              	xorwf	(_pBDTEntryIn+1)^(0+128),w
  6535  001A' 0080'              	movwf	(_pBDTEntryIn+1)^(0+128)
  6536  001B'                    i1l5238:
  6537                           
  6538                           ;mcc_generated_files/usb/usb_device.c: 2491:     pBDTEntryIn[0]->STAT.Val &= ~(0x80);
  6539  001B' 307F               	movlw	127
  6540  001C' 0020               	movlb	0	; select bank0
  6541  001D' 008F'              	movwf	??_USBCtrlTrfSetupHandler
  6542  001E' 0021               	movlb	1	; select bank1
  6543  001F' 0800'              	movf	_pBDTEntryIn^(0+128),w
  6544  0020' 0086               	movwf	6
  6545  0021' 0800'              	movf	(_pBDTEntryIn+1)^(0+128),w
  6546  0022' 0087               	movwf	7
  6547  0023' 0020               	movlb	0	; select bank0
  6548  0024' 080F'              	movf	??_USBCtrlTrfSetupHandler,w
  6549  0025' 0581               	andwf	1,f
  6550  0026'                    i1l5240:
  6551                           
  6552                           ;mcc_generated_files/usb/usb_device.c: 2492:     pBDTEntryIn[0] = (volatile BDT_ENTRY*)(
      +                          ((uint16_t)pBDTEntryIn[0]) ^ 0x0004);
  6553  0026' 3004               	movlw	4
  6554  0027' 0021               	movlb	1	; select bank1
  6555  0028' 0600'              	xorwf	_pBDTEntryIn^(0+128),w
  6556  0029' 0080'              	movwf	_pBDTEntryIn^(0+128)
  6557  002A' 3000               	movlw	0
  6558  002B' 0600'              	xorwf	(_pBDTEntryIn+1)^(0+128),w
  6559  002C' 0080'              	movwf	(_pBDTEntryIn+1)^(0+128)
  6560  002D'                    i1l5242:
  6561                           
  6562                           ;mcc_generated_files/usb/usb_device.c: 2493:     pBDTEntryEP0OutNext->STAT.Val &= ~(0x80
      +                          );
  6563  002D' 307F               	movlw	127
  6564  002E' 0020               	movlb	0	; select bank0
  6565  002F' 008F'              	movwf	??_USBCtrlTrfSetupHandler
  6566  0030' 0021               	movlb	1	; select bank1
  6567  0031' 0800'              	movf	_pBDTEntryEP0OutNext^(0+128),w
  6568  0032' 0086               	movwf	6
  6569  0033' 0800'              	movf	(_pBDTEntryEP0OutNext+1)^(0+128),w
  6570  0034' 0087               	movwf	7
  6571  0035' 0020               	movlb	0	; select bank0
  6572  0036' 080F'              	movf	??_USBCtrlTrfSetupHandler,w
  6573  0037' 0581               	andwf	1,f
  6574  0038'                    i1l5244:
  6575                           
  6576                           ;mcc_generated_files/usb/usb_device.c: 2495:     inPipes[0].info.Val = 0;
  6577  0038' 0021               	movlb	1	; select bank1
  6578  0039' 0182'              	clrf	(_inPipes^(0+128)+2)	;volatile
  6579  003A'                    i1l5246:
  6580                           
  6581                           ;mcc_generated_files/usb/usb_device.c: 2496:     inPipes[0].wCount.Val = 0;
  6582  003A' 0183'              	clrf	(_inPipes^(0+128)+3)	;volatile
  6583  003B' 0183'              	clrf	((_inPipes+1)^(0+128)+3)	;volatile
  6584  003C'                    i1l5248:
  6585                           
  6586                           ;mcc_generated_files/usb/usb_device.c: 2497:     outPipes[0].info.Val = 0;
  6587  003C' 0182'              	clrf	(_outPipes^(0+128)+2)	;volatile
  6588  003D'                    i1l5250:
  6589                           
  6590                           ;mcc_generated_files/usb/usb_device.c: 2498:     outPipes[0].wCount.Val = 0;
  6591  003D' 0183'              	clrf	(_outPipes^(0+128)+3)	;volatile
  6592  003E' 0183'              	clrf	((_outPipes+1)^(0+128)+3)	;volatile
  6593  003F'                    i1l5252:
  6594                           
  6595                           ;mcc_generated_files/usb/usb_device.c: 2504:     USBCheckStdRequest();
  6596  003F' 3180' 2000' 3180'  	fcall	_USBCheckStdRequest
  6597  0042'                    i1l5254:
  6598                           
  6599                           ;mcc_generated_files/usb/usb_device.c: 2505:     USER_USB_CALLBACK_EVENT_HANDLER((USB_EV
      +                          ENT)EVENT_EP0_REQUEST,0,0);
  6600  0042' 3003               	movlw	3
  6601  0043' 0020               	movlb	0	; select bank0
  6602  0044' 0080'              	movwf	USER_USB_CALLBACK_EVENT_HANDLER@event
  6603  0045' 3000               	movlw	0
  6604  0046' 0081'              	movwf	USER_USB_CALLBACK_EVENT_HANDLER@event+1
  6605  0047' 3000               	movlw	0
  6606  0048' 0082'              	movwf	USER_USB_CALLBACK_EVENT_HANDLER@pdata
  6607  0049' 3000               	movlw	0
  6608  004A' 0083'              	movwf	USER_USB_CALLBACK_EVENT_HANDLER@pdata+1
  6609  004B' 3000               	movlw	0
  6610  004C' 0084'              	movwf	USER_USB_CALLBACK_EVENT_HANDLER@size
  6611  004D' 0085'              	movwf	USER_USB_CALLBACK_EVENT_HANDLER@size+1
  6612  004E' 3180' 2000' 3180'  	fcall	_USER_USB_CALLBACK_EVENT_HANDLER
  6613  0051'                    i1l5256:
  6614                           
  6615                           ;mcc_generated_files/usb/usb_device.c: 2518:     USBCtrlEPServiceComplete();
  6616  0051' 3180' 2000' 3180'  	fcall	_USBCtrlEPServiceComplete
  6617  0054'                    i1l513:
  6618  0054' 0008               	return
  6619  0055'                    __end_of_USBCtrlTrfSetupHandler:
  6620                           
  6621                           	psect	text28
  6622  0000'                    __ptext28:	
  6623 ;; *************** function _USBCtrlEPServiceComplete *****************
  6624 ;; Defined at:
  6625 ;;		line 1620 in file "mcc_generated_files/usb/usb_device.c"
  6626 ;; Parameters:    Size  Location     Type
  6627 ;;		None
  6628 ;; Auto vars:     Size  Location     Type
  6629 ;;		None
  6630 ;; Return value:  Size  Location     Type
  6631 ;;                  1    wreg      void 
  6632 ;; Registers used:
  6633 ;;		wreg, fsr0l, fsr0h, fsr1l, fsr1h, status,2, status,0, pclath, cstack
  6634 ;; Tracked objects:
  6635 ;;		On entry : 0/0
  6636 ;;		On exit  : 0/0
  6637 ;;		Unchanged: 0/0
  6638 ;; Data sizes:     COMMON   BANK0   BANK1   BANK2   BANK3   BANK4   BANK5   BANK6   BANK7   BANK8   BANK9  BANK10  BANK1
      +1  BANK12
  6639 ;;      Params:         0       0       0       0       0       0       0       0       0       0       0       0       
      +0       0
  6640 ;;      Locals:         0       0       0       0       0       0       0       0       0       0       0       0       
      +0       0
  6641 ;;      Temps:          2       0       0       0       0       0       0       0       0       0       0       0       
      +0       0
  6642 ;;      Totals:         2       0       0       0       0       0       0       0       0       0       0       0       
      +0       0
  6643 ;;Total ram usage:        2 bytes
  6644 ;; Hardware stack levels used:    1
  6645 ;; Hardware stack levels required when called:    2
  6646 ;; This function calls:
  6647 ;;		_USBCtrlEPAllowDataStage
  6648 ;;		_USBCtrlEPAllowStatusStage
  6649 ;; This function is called by:
  6650 ;;		_USBCtrlTrfSetupHandler
  6651 ;; This function uses a non-reentrant model
  6652 ;;
  6653                           
  6654                           
  6655                           ;psect for function _USBCtrlEPServiceComplete
  6656  0000'                    _USBCtrlEPServiceComplete:
  6657  0000'                    i1l3804:	
  6658                           ;incstack = 0
  6659                           ; Regs used in _USBCtrlEPServiceComplete: [wreg-fsr1h+status,2+status,0+pclath+cstack]
  6660                           
  6661                           
  6662                           ;mcc_generated_files/usb/usb_device.c: 1626:     UCONbits.PKTDIS = 0;
  6663  0000' 003D               	movlb	29	; select bank29
  6664  0001' 120E               	bcf	14,4	;volatile
  6665                           
  6666                           ;mcc_generated_files/usb/usb_device.c: 1632:     if(inPipes[0].info.bits.busy == 0)
  6667  0002' 0021               	movlb	1	; select bank1
  6668  0003' 1B82'              	btfsc	(_inPipes^(0+128)+2),7	;volatile
  6669  0004' 2800'              	goto	u248_21
  6670  0005' 2800'              	goto	u248_20
  6671  0006'                    u248_21:
  6672  0006' 2800'              	goto	i1l413
  6673  0007'                    u248_20:
  6674  0007'                    i1l3806:
  6675                           
  6676                           ;mcc_generated_files/usb/usb_device.c: 1633:     {;mcc_generated_files/usb/usb_device.c:
      +                           1634:         if(outPipes[0].info.bits.busy == 1)
  6677  0007' 1F82'              	btfss	(_outPipes^(0+128)+2),7	;volatile
  6678  0008' 2800'              	goto	u249_21
  6679  0009' 2800'              	goto	u249_20
  6680  000A'                    u249_21:
  6681  000A' 2800'              	goto	i1l3818
  6682  000B'                    u249_20:
  6683  000B'                    i1l3808:
  6684                           
  6685                           ;mcc_generated_files/usb/usb_device.c: 1635:         {;mcc_generated_files/usb/usb_devic
      +                          e.c: 1636:             controlTransferState = 2;
  6686  000B' 3002               	movlw	2
  6687  000C' 0085'              	movwf	??_USBCtrlEPServiceComplete
  6688  000D' 0805'              	movf	??_USBCtrlEPServiceComplete,w
  6689  000E' 0080'              	movwf	_controlTransferState^(0+128)	;volatile
  6690  000F'                    i1l3810:
  6691                           
  6692                           ;mcc_generated_files/usb/usb_device.c: 1647:             if(USBDeferOUTDataStagePackets 
      +                          == 0)
  6693  000F' 0023               	movlb	3	; select bank3
  6694  0010' 0800'              	movf	_USBDeferOUTDataStagePackets^(0+384),w	;volatile
  6695  0011' 1D03               	btfss	3,2
  6696  0012' 2800'              	goto	u250_21
  6697  0013' 2800'              	goto	u250_20
  6698  0014'                    u250_21:
  6699  0014' 2800'              	goto	i1l3814
  6700  0015'                    u250_20:
  6701  0015'                    i1l3812:
  6702                           
  6703                           ;mcc_generated_files/usb/usb_device.c: 1648:             {;mcc_generated_files/usb/usb_d
      +                          evice.c: 1649:                 USBCtrlEPAllowDataStage();
  6704  0015' 3180' 2000' 3180'  	fcall	_USBCtrlEPAllowDataStage
  6705  0018'                    i1l3814:
  6706                           
  6707                           ;mcc_generated_files/usb/usb_device.c: 1654:             USBStatusStageEnabledFlag2 = 0;
  6708  0018' 0023               	movlb	3	; select bank3
  6709  0019' 0180'              	clrf	_USBStatusStageEnabledFlag2^(0+384)	;volatile
  6710  001A'                    i1l3816:
  6711                           
  6712                           ;mcc_generated_files/usb/usb_device.c: 1655:             USBStatusStageEnabledFlag1 = 0;
  6713  001A' 0180'              	clrf	_USBStatusStageEnabledFlag1^(0+384)	;volatile
  6714                           
  6715                           ;mcc_generated_files/usb/usb_device.c: 1656:         }
  6716  001B' 2800'              	goto	i1l423
  6717  001C'                    i1l3818:
  6718                           
  6719                           ;mcc_generated_files/usb/usb_device.c: 1658:         {;mcc_generated_files/usb/usb_devic
      +                          e.c: 1663:             pBDTEntryEP0OutNext->CNT = 8;
  6720  001C' 0800'              	movf	_pBDTEntryEP0OutNext^(0+128),w
  6721  001D' 3E01               	addlw	1
  6722  001E' 0085'              	movwf	??_USBCtrlEPServiceComplete
  6723  001F' 3000               	movlw	0
  6724  0020' 3D00'              	addwfc	(_pBDTEntryEP0OutNext+1)^(0+128),w
  6725  0021' 0086'              	movwf	??_USBCtrlEPServiceComplete+1
  6726  0022' 0805'              	movf	??_USBCtrlEPServiceComplete,w
  6727  0023' 0086               	movwf	6
  6728  0024' 0806'              	movf	??_USBCtrlEPServiceComplete+1,w
  6729  0025' 0087               	movwf	7
  6730  0026' 3008               	movlw	8
  6731  0027' 0081               	movwf	1
  6732  0028'                    i1l3820:
  6733                           
  6734                           ;mcc_generated_files/usb/usb_device.c: 1664:             pBDTEntryEP0OutNext->ADR = (((u
      +                          int16_t)(&SetupPkt)) & 0x7FFF);
  6735  0028' 3050               	movlw	80
  6736  0029' 0085'              	movwf	??_USBCtrlEPServiceComplete
  6737  002A' 3000               	movlw	0
  6738  002B' 0086'              	movwf	??_USBCtrlEPServiceComplete+1
  6739  002C' 0800'              	movf	_pBDTEntryEP0OutNext^(0+128),w
  6740  002D' 0086               	movwf	6
  6741  002E' 0800'              	movf	(_pBDTEntryEP0OutNext+1)^(0+128),w
  6742  002F' 0087               	movwf	7
  6743  0030' 3142               	addfsr 1,2
  6744  0031' 0805'              	movf	??_USBCtrlEPServiceComplete,w
  6745  0032' 3FC0               	movwi [0]fsr1
  6746  0033' 0806'              	movf	??_USBCtrlEPServiceComplete+1,w
  6747  0034' 3FC1               	movwi [1]fsr1
  6748  0035'                    i1l3822:
  6749                           
  6750                           ;mcc_generated_files/usb/usb_device.c: 1665:             pBDTEntryEP0OutNext->STAT.Val =
      +                           0x00|(0x08 & 0x08)|0x04;
  6751  0035' 0800'              	movf	_pBDTEntryEP0OutNext^(0+128),w
  6752  0036' 0086               	movwf	6
  6753  0037' 0800'              	movf	(_pBDTEntryEP0OutNext+1)^(0+128),w
  6754  0038' 0087               	movwf	7
  6755  0039' 300C               	movlw	12
  6756  003A' 0081               	movwf	1
  6757  003B'                    i1l3824:
  6758                           
  6759                           ;mcc_generated_files/usb/usb_device.c: 1666:             pBDTEntryEP0OutNext->STAT.Val |
      +                          = 0x80;
  6760  003B' 0800'              	movf	_pBDTEntryEP0OutNext^(0+128),w
  6761  003C' 0086               	movwf	6
  6762  003D' 0800'              	movf	(_pBDTEntryEP0OutNext+1)^(0+128),w
  6763  003E' 0087               	movwf	7
  6764  003F' 1781               	bsf	1,7
  6765  0040'                    i1l3826:
  6766                           
  6767                           ;mcc_generated_files/usb/usb_device.c: 1667:             pBDTEntryIn[0]->STAT.Val = 0x04
      +                          ;
  6768  0040' 0800'              	movf	_pBDTEntryIn^(0+128),w
  6769  0041' 0086               	movwf	6
  6770  0042' 0800'              	movf	(_pBDTEntryIn+1)^(0+128),w
  6771  0043' 0087               	movwf	7
  6772  0044' 3004               	movlw	4
  6773  0045' 0081               	movwf	1
  6774  0046'                    i1l3828:
  6775                           
  6776                           ;mcc_generated_files/usb/usb_device.c: 1668:             pBDTEntryIn[0]->STAT.Val |= 0x8
      +                          0;
  6777  0046' 0800'              	movf	_pBDTEntryIn^(0+128),w
  6778  0047' 0086               	movwf	6
  6779  0048' 0800'              	movf	(_pBDTEntryIn+1)^(0+128),w
  6780  0049' 0087               	movwf	7
  6781  004A' 1781               	bsf	1,7
  6782  004B' 2800'              	goto	i1l423
  6783  004C'                    i1l413:	
  6784                           ;mcc_generated_files/usb/usb_device.c: 1671:     else
  6785                           
  6786                           
  6787                           ;mcc_generated_files/usb/usb_device.c: 1672:     {;mcc_generated_files/usb/usb_device.c:
      +                           1673:   if(SetupPkt.DataDir == (0x80>>7))
  6788  004C' 0020               	movlb	0	; select bank0
  6789  004D' 1FD0               	btfss	80,7	;volatile
  6790  004E' 2800'              	goto	u251_21
  6791  004F' 2800'              	goto	u251_20
  6792  0050'                    u251_21:
  6793  0050' 2800'              	goto	i1l3844
  6794  0051'                    u251_20:
  6795  0051'                    i1l3830:
  6796                           
  6797                           ;mcc_generated_files/usb/usb_device.c: 1674:   {;mcc_generated_files/usb/usb_device.c: 1
      +                          675:    controlTransferState = 1;
  6798  0051' 3001               	movlw	1
  6799  0052' 0085'              	movwf	??_USBCtrlEPServiceComplete
  6800  0053' 0805'              	movf	??_USBCtrlEPServiceComplete,w
  6801  0054' 0021               	movlb	1	; select bank1
  6802  0055' 0080'              	movwf	_controlTransferState^(0+128)	;volatile
  6803  0056'                    i1l3832:
  6804                           
  6805                           ;mcc_generated_files/usb/usb_device.c: 1689:    if(USBDeferINDataStagePackets == 0)
  6806  0056' 0023               	movlb	3	; select bank3
  6807  0057' 0800'              	movf	_USBDeferINDataStagePackets^(0+384),w	;volatile
  6808  0058' 1D03               	btfss	3,2
  6809  0059' 2800'              	goto	u252_21
  6810  005A' 2800'              	goto	u252_20
  6811  005B'                    u252_21:
  6812  005B' 2800'              	goto	i1l3836
  6813  005C'                    u252_20:
  6814  005C'                    i1l3834:
  6815                           
  6816                           ;mcc_generated_files/usb/usb_device.c: 1690:             {;mcc_generated_files/usb/usb_d
      +                          evice.c: 1691:                 USBCtrlEPAllowDataStage();
  6817  005C' 3180' 2000' 3180'  	fcall	_USBCtrlEPAllowDataStage
  6818  005F'                    i1l3836:
  6819                           
  6820                           ;mcc_generated_files/usb/usb_device.c: 1714:             USBStatusStageEnabledFlag2 = 0;
  6821  005F' 0023               	movlb	3	; select bank3
  6822  0060' 0180'              	clrf	_USBStatusStageEnabledFlag2^(0+384)	;volatile
  6823  0061'                    i1l3838:
  6824                           
  6825                           ;mcc_generated_files/usb/usb_device.c: 1715:             USBStatusStageEnabledFlag1 = 0;
  6826  0061' 0180'              	clrf	_USBStatusStageEnabledFlag1^(0+384)	;volatile
  6827  0062'                    i1l3840:
  6828                           
  6829                           ;mcc_generated_files/usb/usb_device.c: 1716:             if(USBDeferStatusStagePacket ==
      +                           0)
  6830  0062' 0800'              	movf	_USBDeferStatusStagePacket^(0+384),w	;volatile
  6831  0063' 1D03               	btfss	3,2
  6832  0064' 2800'              	goto	u253_21
  6833  0065' 2800'              	goto	u253_20
  6834  0066'                    u253_21:
  6835  0066' 2800'              	goto	i1l423
  6836  0067'                    u253_20:
  6837  0067'                    i1l3842:
  6838                           
  6839                           ;mcc_generated_files/usb/usb_device.c: 1717:             {;mcc_generated_files/usb/usb_d
      +                          evice.c: 1718:                 USBCtrlEPAllowStatusStage();
  6840  0067' 3180' 2000' 3180'  	fcall	_USBCtrlEPAllowStatusStage
  6841  006A' 2800'              	goto	i1l423
  6842  006B'                    i1l3844:
  6843                           
  6844                           ;mcc_generated_files/usb/usb_device.c: 1722:   {;mcc_generated_files/usb/usb_device.c: 1
      +                          733:    controlTransferState = 2;
  6845  006B' 3002               	movlw	2
  6846  006C' 0085'              	movwf	??_USBCtrlEPServiceComplete
  6847  006D' 0805'              	movf	??_USBCtrlEPServiceComplete,w
  6848  006E' 0021               	movlb	1	; select bank1
  6849  006F' 0080'              	movwf	_controlTransferState^(0+128)	;volatile
  6850  0070'                    i1l3846:
  6851                           
  6852                           ;mcc_generated_files/usb/usb_device.c: 1736:    pBDTEntryEP0OutNext->CNT = 8;
  6853  0070' 0800'              	movf	_pBDTEntryEP0OutNext^(0+128),w
  6854  0071' 3E01               	addlw	1
  6855  0072' 0085'              	movwf	??_USBCtrlEPServiceComplete
  6856  0073' 3000               	movlw	0
  6857  0074' 3D00'              	addwfc	(_pBDTEntryEP0OutNext+1)^(0+128),w
  6858  0075' 0086'              	movwf	??_USBCtrlEPServiceComplete+1
  6859  0076' 0805'              	movf	??_USBCtrlEPServiceComplete,w
  6860  0077' 0086               	movwf	6
  6861  0078' 0806'              	movf	??_USBCtrlEPServiceComplete+1,w
  6862  0079' 0087               	movwf	7
  6863  007A' 3008               	movlw	8
  6864  007B' 0081               	movwf	1
  6865  007C'                    i1l3848:
  6866                           
  6867                           ;mcc_generated_files/usb/usb_device.c: 1737:    pBDTEntryEP0OutNext->ADR = (((uint16_t)(
      +                          &SetupPkt)) & 0x7FFF);
  6868  007C' 3050               	movlw	80
  6869  007D' 0085'              	movwf	??_USBCtrlEPServiceComplete
  6870  007E' 3000               	movlw	0
  6871  007F' 0086'              	movwf	??_USBCtrlEPServiceComplete+1
  6872  0080' 0800'              	movf	_pBDTEntryEP0OutNext^(0+128),w
  6873  0081' 0086               	movwf	6
  6874  0082' 0800'              	movf	(_pBDTEntryEP0OutNext+1)^(0+128),w
  6875  0083' 0087               	movwf	7
  6876  0084' 3142               	addfsr 1,2
  6877  0085' 0805'              	movf	??_USBCtrlEPServiceComplete,w
  6878  0086' 3FC0               	movwi [0]fsr1
  6879  0087' 0806'              	movf	??_USBCtrlEPServiceComplete+1,w
  6880  0088' 3FC1               	movwi [1]fsr1
  6881  0089'                    i1l3850:
  6882                           
  6883                           ;mcc_generated_files/usb/usb_device.c: 1738:    pBDTEntryEP0OutNext->STAT.Val = 0x04;
  6884  0089' 0800'              	movf	_pBDTEntryEP0OutNext^(0+128),w
  6885  008A' 0086               	movwf	6
  6886  008B' 0800'              	movf	(_pBDTEntryEP0OutNext+1)^(0+128),w
  6887  008C' 0087               	movwf	7
  6888  008D' 3004               	movlw	4
  6889  008E' 0081               	movwf	1
  6890  008F'                    i1l3852:
  6891                           
  6892                           ;mcc_generated_files/usb/usb_device.c: 1739:             pBDTEntryEP0OutNext->STAT.Val |
      +                          = 0x80;
  6893  008F' 0800'              	movf	_pBDTEntryEP0OutNext^(0+128),w
  6894  0090' 0086               	movwf	6
  6895  0091' 0800'              	movf	(_pBDTEntryEP0OutNext+1)^(0+128),w
  6896  0092' 0087               	movwf	7
  6897  0093' 1781               	bsf	1,7
  6898  0094'                    i1l3854:
  6899                           
  6900                           ;mcc_generated_files/usb/usb_device.c: 1742:             USBStatusStageEnabledFlag2 = 0;
  6901  0094' 0023               	movlb	3	; select bank3
  6902  0095' 0180'              	clrf	_USBStatusStageEnabledFlag2^(0+384)	;volatile
  6903  0096'                    i1l3856:
  6904                           
  6905                           ;mcc_generated_files/usb/usb_device.c: 1743:             USBStatusStageEnabledFlag1 = 0;
  6906  0096' 0180'              	clrf	_USBStatusStageEnabledFlag1^(0+384)	;volatile
  6907                           
  6908                           ;mcc_generated_files/usb/usb_device.c: 1744:    if(USBDeferStatusStagePacket == 0)
  6909  0097' 0800'              	movf	_USBDeferStatusStagePacket^(0+384),w	;volatile
  6910  0098' 1D03               	btfss	3,2
  6911  0099' 2800'              	goto	u254_21
  6912  009A' 2800'              	goto	u254_20
  6913  009B'                    u254_21:
  6914  009B' 2800'              	goto	i1l423
  6915  009C'                    u254_20:
  6916  009C' 2800'              	goto	i1l3842
  6917  009D'                    i1l423:
  6918  009D' 0008               	return
  6919  009E'                    __end_of_USBCtrlEPServiceComplete:
  6920                           
  6921                           	psect	text29
  6922  0000'                    __ptext29:	
  6923 ;; *************** function _USBCtrlEPAllowDataStage *****************
  6924 ;; Defined at:
  6925 ;;		line 1492 in file "mcc_generated_files/usb/usb_device.c"
  6926 ;; Parameters:    Size  Location     Type
  6927 ;;		None
  6928 ;; Auto vars:     Size  Location     Type
  6929 ;;		None
  6930 ;; Return value:  Size  Location     Type
  6931 ;;                  1    wreg      void 
  6932 ;; Registers used:
  6933 ;;		wreg, fsr0l, fsr0h, fsr1l, fsr1h, status,2, status,0, pclath, cstack
  6934 ;; Tracked objects:
  6935 ;;		On entry : 0/0
  6936 ;;		On exit  : 0/0
  6937 ;;		Unchanged: 0/0
  6938 ;; Data sizes:     COMMON   BANK0   BANK1   BANK2   BANK3   BANK4   BANK5   BANK6   BANK7   BANK8   BANK9  BANK10  BANK1
      +1  BANK12
  6939 ;;      Params:         0       0       0       0       0       0       0       0       0       0       0       0       
      +0       0
  6940 ;;      Locals:         0       0       0       0       0       0       0       0       0       0       0       0       
      +0       0
  6941 ;;      Temps:          2       0       0       0       0       0       0       0       0       0       0       0       
      +0       0
  6942 ;;      Totals:         2       0       0       0       0       0       0       0       0       0       0       0       
      +0       0
  6943 ;;Total ram usage:        2 bytes
  6944 ;; Hardware stack levels used:    1
  6945 ;; Hardware stack levels required when called:    1
  6946 ;; This function calls:
  6947 ;;		_USBCtrlTrfTxService
  6948 ;; This function is called by:
  6949 ;;		_USBCtrlEPServiceComplete
  6950 ;; This function uses a non-reentrant model
  6951 ;;
  6952                           
  6953                           
  6954                           ;psect for function _USBCtrlEPAllowDataStage
  6955  0000'                    _USBCtrlEPAllowDataStage:
  6956  0000'                    i1l3574:	
  6957                           ;incstack = 0
  6958                           ; Regs used in _USBCtrlEPAllowDataStage: [wreg-fsr1h+status,2+status,0+pclath+cstack]
  6959                           
  6960                           
  6961                           ;mcc_generated_files/usb/usb_device.c: 1494:     USBDeferINDataStagePackets = 0;
  6962  0000' 0023               	movlb	3	; select bank3
  6963  0001' 0180'              	clrf	_USBDeferINDataStagePackets^(0+384)	;volatile
  6964                           
  6965                           ;mcc_generated_files/usb/usb_device.c: 1495:     USBDeferOUTDataStagePackets = 0;
  6966  0002' 0180'              	clrf	_USBDeferOUTDataStagePackets^(0+384)	;volatile
  6967  0003'                    i1l3576:
  6968                           
  6969                           ;mcc_generated_files/usb/usb_device.c: 1497:     if(controlTransferState == 2)
  6970  0003' 3002               	movlw	2
  6971  0004' 0021               	movlb	1	; select bank1
  6972  0005' 0600'              	xorwf	_controlTransferState^(0+128),w	;volatile
  6973  0006' 1D03               	btfss	3,2
  6974  0007' 2800'              	goto	u216_21
  6975  0008' 2800'              	goto	u216_20
  6976  0009'                    u216_21:
  6977  0009' 2800'              	goto	i1l3586
  6978  000A'                    u216_20:
  6979  000A'                    i1l3578:
  6980                           
  6981                           ;mcc_generated_files/usb/usb_device.c: 1498:     {;mcc_generated_files/usb/usb_device.c:
      +                           1500:         pBDTEntryEP0OutNext->CNT = 8;
  6982  000A' 0800'              	movf	_pBDTEntryEP0OutNext^(0+128),w
  6983  000B' 3E01               	addlw	1
  6984  000C' 0083'              	movwf	??_USBCtrlEPAllowDataStage
  6985  000D' 3000               	movlw	0
  6986  000E' 3D00'              	addwfc	(_pBDTEntryEP0OutNext+1)^(0+128),w
  6987  000F' 0084'              	movwf	??_USBCtrlEPAllowDataStage+1
  6988  0010' 0803'              	movf	??_USBCtrlEPAllowDataStage,w
  6989  0011' 0086               	movwf	6
  6990  0012' 0804'              	movf	??_USBCtrlEPAllowDataStage+1,w
  6991  0013' 0087               	movwf	7
  6992  0014' 3008               	movlw	8
  6993  0015' 0081               	movwf	1
  6994  0016'                    i1l3580:
  6995                           
  6996                           ;mcc_generated_files/usb/usb_device.c: 1501:         pBDTEntryEP0OutNext->ADR = (((uint1
      +                          6_t)(&CtrlTrfData)) & 0x7FFF);
  6997  0016' 3058               	movlw	88
  6998  0017' 0083'              	movwf	??_USBCtrlEPAllowDataStage
  6999  0018' 3000               	movlw	0
  7000  0019' 0084'              	movwf	??_USBCtrlEPAllowDataStage+1
  7001  001A' 0800'              	movf	_pBDTEntryEP0OutNext^(0+128),w
  7002  001B' 0086               	movwf	6
  7003  001C' 0800'              	movf	(_pBDTEntryEP0OutNext+1)^(0+128),w
  7004  001D' 0087               	movwf	7
  7005  001E' 3142               	addfsr 1,2
  7006  001F' 0803'              	movf	??_USBCtrlEPAllowDataStage,w
  7007  0020' 3FC0               	movwi [0]fsr1
  7008  0021' 0804'              	movf	??_USBCtrlEPAllowDataStage+1,w
  7009  0022' 3FC1               	movwi [1]fsr1
  7010  0023'                    i1l3582:
  7011                           
  7012                           ;mcc_generated_files/usb/usb_device.c: 1502:         pBDTEntryEP0OutNext->STAT.Val = 0x4
      +                          0|(0x08 & 0x08);
  7013  0023' 0800'              	movf	_pBDTEntryEP0OutNext^(0+128),w
  7014  0024' 0086               	movwf	6
  7015  0025' 0800'              	movf	(_pBDTEntryEP0OutNext+1)^(0+128),w
  7016  0026' 0087               	movwf	7
  7017  0027' 3048               	movlw	72
  7018  0028' 0081               	movwf	1
  7019  0029'                    i1l3584:
  7020                           
  7021                           ;mcc_generated_files/usb/usb_device.c: 1503:         pBDTEntryEP0OutNext->STAT.Val |= 0x
      +                          80;
  7022  0029' 0800'              	movf	_pBDTEntryEP0OutNext^(0+128),w
  7023  002A' 0086               	movwf	6
  7024  002B' 0800'              	movf	(_pBDTEntryEP0OutNext+1)^(0+128),w
  7025  002C' 0087               	movwf	7
  7026  002D' 1781               	bsf	1,7
  7027                           
  7028                           ;mcc_generated_files/usb/usb_device.c: 1504:     }
  7029  002E' 2800'              	goto	i1l405
  7030  002F'                    i1l3586:
  7031                           
  7032                           ;mcc_generated_files/usb/usb_device.c: 1506:     {;mcc_generated_files/usb/usb_device.c:
      +                           1509:   if(SetupPkt.wLength < inPipes[0].wCount.Val)
  7033  002F' 0803'              	movf	((_inPipes+1)^(0+128)+3),w	;volatile
  7034  0030' 0020               	movlb	0	; select bank0
  7035  0031' 0257               	subwf	87,w	;volatile
  7036  0032' 1D03               	skipz
  7037  0033' 2800'              	goto	u217_25
  7038  0034' 0021               	movlb	1	; select bank1
  7039  0035' 0803'              	movf	(_inPipes^(0+128)+3),w	;volatile
  7040  0036' 0020               	movlb	0	; select bank0
  7041  0037' 0256               	subwf	86,w	;volatile
  7042  0038'                    u217_25:
  7043  0038' 1803               	skipnc
  7044  0039' 2800'              	goto	u217_21
  7045  003A' 2800'              	goto	u217_20
  7046  003B'                    u217_21:
  7047  003B' 2800'              	goto	i1l3590
  7048  003C'                    u217_20:
  7049  003C'                    i1l3588:
  7050                           
  7051                           ;mcc_generated_files/usb/usb_device.c: 1510:   {;mcc_generated_files/usb/usb_device.c: 1
      +                          511:    inPipes[0].wCount.Val = SetupPkt.wLength;
  7052  003C' 0857               	movf	87,w	;volatile
  7053  003D' 0021               	movlb	1	; select bank1
  7054  003E' 0083'              	movwf	((_inPipes+1)^(0+128)+3)	;volatile
  7055  003F' 0020               	movlb	0	; select bank0
  7056  0040' 0856               	movf	86,w	;volatile
  7057  0041' 0021               	movlb	1	; select bank1
  7058  0042' 0083'              	movwf	(_inPipes^(0+128)+3)	;volatile
  7059  0043'                    i1l3590:
  7060                           
  7061                           ;mcc_generated_files/usb/usb_device.c: 1513:   USBCtrlTrfTxService();
  7062  0043' 3180' 2000' 3180'  	fcall	_USBCtrlTrfTxService
  7063  0046'                    i1l3592:
  7064                           
  7065                           ;mcc_generated_files/usb/usb_device.c: 1518:   pBDTEntryIn[0]->ADR = (((uint16_t)(&CtrlT
      +                          rfData)) & 0x7FFF);
  7066  0046' 3058               	movlw	88
  7067  0047' 0083'              	movwf	??_USBCtrlEPAllowDataStage
  7068  0048' 3000               	movlw	0
  7069  0049' 0084'              	movwf	??_USBCtrlEPAllowDataStage+1
  7070  004A' 0021               	movlb	1	; select bank1
  7071  004B' 0800'              	movf	_pBDTEntryIn^(0+128),w
  7072  004C' 0086               	movwf	6
  7073  004D' 0800'              	movf	(_pBDTEntryIn+1)^(0+128),w
  7074  004E' 0087               	movwf	7
  7075  004F' 3142               	addfsr 1,2
  7076  0050' 0803'              	movf	??_USBCtrlEPAllowDataStage,w
  7077  0051' 3FC0               	movwi [0]fsr1
  7078  0052' 0804'              	movf	??_USBCtrlEPAllowDataStage+1,w
  7079  0053' 3FC1               	movwi [1]fsr1
  7080  0054'                    i1l3594:
  7081                           
  7082                           ;mcc_generated_files/usb/usb_device.c: 1519:   pBDTEntryIn[0]->STAT.Val = 0x40|(0x08 & 0
      +                          x08);
  7083  0054' 0800'              	movf	_pBDTEntryIn^(0+128),w
  7084  0055' 0086               	movwf	6
  7085  0056' 0800'              	movf	(_pBDTEntryIn+1)^(0+128),w
  7086  0057' 0087               	movwf	7
  7087  0058' 3048               	movlw	72
  7088  0059' 0081               	movwf	1
  7089  005A'                    i1l3596:
  7090                           
  7091                           ;mcc_generated_files/usb/usb_device.c: 1520:         pBDTEntryIn[0]->STAT.Val |= 0x80;
  7092  005A' 0800'              	movf	_pBDTEntryIn^(0+128),w
  7093  005B' 0086               	movwf	6
  7094  005C' 0800'              	movf	(_pBDTEntryIn+1)^(0+128),w
  7095  005D' 0087               	movwf	7
  7096  005E' 1781               	bsf	1,7
  7097  005F'                    i1l405:
  7098  005F' 0008               	return
  7099  0060'                    __end_of_USBCtrlEPAllowDataStage:
  7100                           
  7101                           	psect	text30
  7102  0000'                    __ptext30:	
  7103 ;; *************** function _USBCheckStdRequest *****************
  7104 ;; Defined at:
  7105 ;;		line 2690 in file "mcc_generated_files/usb/usb_device.c"
  7106 ;; Parameters:    Size  Location     Type
  7107 ;;		None
  7108 ;; Auto vars:     Size  Location     Type
  7109 ;;		None
  7110 ;; Return value:  Size  Location     Type
  7111 ;;                  1    wreg      void 
  7112 ;; Registers used:
  7113 ;;		wreg, fsr0l, fsr0h, fsr1l, fsr1h, status,2, status,0, pclath, cstack
  7114 ;; Tracked objects:
  7115 ;;		On entry : 0/0
  7116 ;;		On exit  : 0/0
  7117 ;;		Unchanged: 0/0
  7118 ;; Data sizes:     COMMON   BANK0   BANK1   BANK2   BANK3   BANK4   BANK5   BANK6   BANK7   BANK8   BANK9  BANK10  BANK1
      +1  BANK12
  7119 ;;      Params:         0       0       0       0       0       0       0       0       0       0       0       0       
      +0       0
  7120 ;;      Locals:         0       0       0       0       0       0       0       0       0       0       0       0       
      +0       0
  7121 ;;      Temps:          0       2       0       0       0       0       0       0       0       0       0       0       
      +0       0
  7122 ;;      Totals:         0       2       0       0       0       0       0       0       0       0       0       0       
      +0       0
  7123 ;;Total ram usage:        2 bytes
  7124 ;; Hardware stack levels used:    1
  7125 ;; Hardware stack levels required when called:    5
  7126 ;; This function calls:
  7127 ;;		_USBStdFeatureReqHandler
  7128 ;;		_USBStdGetDscHandler
  7129 ;;		_USBStdGetStatusHandler
  7130 ;;		_USBStdSetCfgHandler
  7131 ;;		_USER_USB_CALLBACK_EVENT_HANDLER
  7132 ;; This function is called by:
  7133 ;;		_USBCtrlTrfSetupHandler
  7134 ;; This function uses a non-reentrant model
  7135 ;;
  7136                           
  7137                           
  7138                           ;psect for function _USBCheckStdRequest
  7139  0000'                    _USBCheckStdRequest:
  7140  0000'                    i1l5190:	
  7141                           ;incstack = 0
  7142                           ; Regs used in _USBCheckStdRequest: [wreg-fsr1h+status,2+status,0+pclath+cstack]
  7143                           
  7144                           
  7145                           ;mcc_generated_files/usb/usb_device.c: 2692:     if(SetupPkt.RequestType != (0x00>>5)) r
      +                          eturn;
  7146  0000' 0020               	movlb	0	; select bank0
  7147  0001' 0E50               	swapf	80,w	;volatile
  7148  0002' 0C89               	rrf	9,f
  7149  0003' 3903               	andlw	3
  7150  0004' 3A00               	xorlw	0
  7151  0005' 1903               	skipnz
  7152  0006' 2800'              	goto	u385_21
  7153  0007' 2800'              	goto	u385_20
  7154  0008'                    u385_21:
  7155  0008' 2800'              	goto	i1l5226
  7156  0009'                    u385_20:
  7157  0009' 2800'              	goto	i1l538
  7158  000A'                    i1l540:	
  7159                           ;mcc_generated_files/usb/usb_device.c: 2695:     {;mcc_generated_files/usb/usb_device.c:
      +                           2696:         case 5:
  7160                           
  7161                           
  7162                           ;mcc_generated_files/usb/usb_device.c: 2697:             inPipes[0].info.bits.busy = 1;
  7163  000A' 0021               	movlb	1	; select bank1
  7164  000B' 1782'              	bsf	(_inPipes^(0+128)+2),7	;volatile
  7165  000C'                    i1l5194:
  7166                           
  7167                           ;mcc_generated_files/usb/usb_device.c: 2698:             USBDeviceState = ADR_PENDING_ST
      +                          ATE;
  7168  000C' 3008               	movlw	8
  7169  000D' 0020               	movlb	0	; select bank0
  7170  000E' 008D'              	movwf	??_USBCheckStdRequest
  7171  000F' 080D'              	movf	??_USBCheckStdRequest,w
  7172  0010' 0021               	movlb	1	; select bank1
  7173  0011' 0080'              	movwf	_USBDeviceState^(0+128)	;volatile
  7174                           
  7175                           ;mcc_generated_files/usb/usb_device.c: 2700:             break;
  7176  0012' 2800'              	goto	i1l538
  7177  0013'                    i1l5196:
  7178                           
  7179                           ;mcc_generated_files/usb/usb_device.c: 2702:             USBStdGetDscHandler();
  7180  0013' 3180' 2000' 3180'  	fcall	_USBStdGetDscHandler
  7181                           
  7182                           ;mcc_generated_files/usb/usb_device.c: 2703:             break;
  7183  0016' 2800'              	goto	i1l538
  7184  0017'                    i1l5198:
  7185                           
  7186                           ;mcc_generated_files/usb/usb_device.c: 2705:             USBStdSetCfgHandler();
  7187  0017' 3180' 2000' 3180'  	fcall	_USBStdSetCfgHandler
  7188                           
  7189                           ;mcc_generated_files/usb/usb_device.c: 2706:             break;
  7190  001A' 2800'              	goto	i1l538
  7191  001B'                    i1l5200:
  7192                           
  7193                           ;mcc_generated_files/usb/usb_device.c: 2708:             inPipes[0].pSrc.bRam = (uint8_t
      +                          *)&USBActiveConfiguration;
  7194  001B' 3000'              	movlw	low _USBActiveConfiguration
  7195  001C' 0021               	movlb	1	; select bank1
  7196  001D' 0080'              	movwf	_inPipes^(0+128)	;volatile
  7197  001E' 3000'              	movlw	high _USBActiveConfiguration
  7198  001F' 0080'              	movwf	(_inPipes+1)^(0+128)	;volatile
  7199  0020'                    i1l5202:
  7200                           
  7201                           ;mcc_generated_files/usb/usb_device.c: 2709:             inPipes[0].info.bits.ctrl_trf_m
      +                          em = 0x01;
  7202  0020' 1402'              	bsf	(_inPipes^(0+128)+2),0	;volatile
  7203  0021'                    i1l5204:
  7204                           
  7205                           ;mcc_generated_files/usb/usb_device.c: 2710:             inPipes[0].wCount.v[0] = 1;
  7206  0021' 3001               	movlw	1
  7207  0022' 0020               	movlb	0	; select bank0
  7208  0023' 008D'              	movwf	??_USBCheckStdRequest
  7209  0024' 080D'              	movf	??_USBCheckStdRequest,w
  7210  0025' 0021               	movlb	1	; select bank1
  7211  0026' 0083'              	movwf	(_inPipes^(0+128)+3)	;volatile
  7212  0027'                    i1l5206:
  7213                           
  7214                           ;mcc_generated_files/usb/usb_device.c: 2711:             inPipes[0].info.bits.busy = 1;
  7215  0027' 1782'              	bsf	(_inPipes^(0+128)+2),7	;volatile
  7216                           
  7217                           ;mcc_generated_files/usb/usb_device.c: 2712:             break;
  7218  0028' 2800'              	goto	i1l538
  7219  0029'                    i1l5208:
  7220                           
  7221                           ;mcc_generated_files/usb/usb_device.c: 2714:             USBStdGetStatusHandler();
  7222  0029' 3180' 2000' 3180'  	fcall	_USBStdGetStatusHandler
  7223                           
  7224                           ;mcc_generated_files/usb/usb_device.c: 2715:             break;
  7225  002C' 2800'              	goto	i1l538
  7226  002D'                    i1l5210:
  7227                           
  7228                           ;mcc_generated_files/usb/usb_device.c: 2718:             USBStdFeatureReqHandler();
  7229  002D' 3180' 2000' 3180'  	fcall	_USBStdFeatureReqHandler
  7230                           
  7231                           ;mcc_generated_files/usb/usb_device.c: 2719:             break;
  7232  0030' 2800'              	goto	i1l538
  7233  0031'                    i1l5212:
  7234                           
  7235                           ;mcc_generated_files/usb/usb_device.c: 2721:             inPipes[0].pSrc.bRam = (uint8_t
      +                          *)&USBAlternateInterface[SetupPkt.bIntfID];
  7236  0031' 0854               	movf	84,w	;volatile
  7237  0032' 3E00'              	addlw	(low (_USBAlternateInterface| (0+256)))& (0+255)
  7238  0033' 0021               	movlb	1	; select bank1
  7239  0034' 0080'              	movwf	_inPipes^(0+128)	;volatile
  7240  0035' 3001               	movlw	1
  7241  0036' 0080'              	movwf	(_inPipes+1)^(0+128)	;volatile
  7242  0037'                    i1l5214:
  7243                           
  7244                           ;mcc_generated_files/usb/usb_device.c: 2722:             inPipes[0].info.bits.ctrl_trf_m
      +                          em = 0x01;
  7245  0037' 1402'              	bsf	(_inPipes^(0+128)+2),0	;volatile
  7246  0038'                    i1l5216:
  7247                           
  7248                           ;mcc_generated_files/usb/usb_device.c: 2723:             inPipes[0].wCount.v[0] = 1;
  7249  0038' 3001               	movlw	1
  7250  0039' 0020               	movlb	0	; select bank0
  7251  003A' 008D'              	movwf	??_USBCheckStdRequest
  7252  003B' 080D'              	movf	??_USBCheckStdRequest,w
  7253  003C' 0021               	movlb	1	; select bank1
  7254  003D' 0083'              	movwf	(_inPipes^(0+128)+3)	;volatile
  7255  003E'                    i1l5218:
  7256                           
  7257                           ;mcc_generated_files/usb/usb_device.c: 2724:             inPipes[0].info.bits.busy = 1;
  7258  003E' 1782'              	bsf	(_inPipes^(0+128)+2),7	;volatile
  7259                           
  7260                           ;mcc_generated_files/usb/usb_device.c: 2725:             break;
  7261  003F' 2800'              	goto	i1l538
  7262  0040'                    i1l549:	
  7263                           ;mcc_generated_files/usb/usb_device.c: 2726:         case 11:
  7264                           
  7265                           
  7266                           ;mcc_generated_files/usb/usb_device.c: 2727:             inPipes[0].info.bits.busy = 1;
  7267  0040' 0021               	movlb	1	; select bank1
  7268  0041' 1782'              	bsf	(_inPipes^(0+128)+2),7	;volatile
  7269  0042'                    i1l5220:
  7270                           
  7271                           ;mcc_generated_files/usb/usb_device.c: 2728:             USBAlternateInterface[SetupPkt.
      +                          bIntfID] = SetupPkt.bAltID;
  7272  0042' 0020               	movlb	0	; select bank0
  7273  0043' 0852               	movf	82,w	;volatile
  7274  0044' 008D'              	movwf	??_USBCheckStdRequest
  7275  0045' 0854               	movf	84,w	;volatile
  7276  0046' 3E00'              	addlw	(low (_USBAlternateInterface| (0+256)))& (0+255)
  7277  0047' 0086               	movwf	6
  7278  0048' 3001               	movlw	1	; select bank3/4
  7279  0049' 0087               	movwf	7
  7280  004A' 080D'              	movf	??_USBCheckStdRequest,w
  7281  004B' 0081               	movwf	1
  7282                           
  7283                           ;mcc_generated_files/usb/usb_device.c: 2729:             break;
  7284  004C' 2800'              	goto	i1l538
  7285  004D'                    i1l5222:
  7286                           
  7287                           ;mcc_generated_files/usb/usb_device.c: 2731:             USER_USB_CALLBACK_EVENT_HANDLER
      +                          ((USB_EVENT)EVENT_SET_DESCRIPTOR,0,0);
  7288  004D' 3002               	movlw	2
  7289  004E' 0080'              	movwf	USER_USB_CALLBACK_EVENT_HANDLER@event
  7290  004F' 3000               	movlw	0
  7291  0050' 0081'              	movwf	USER_USB_CALLBACK_EVENT_HANDLER@event+1
  7292  0051' 3000               	movlw	0
  7293  0052' 0082'              	movwf	USER_USB_CALLBACK_EVENT_HANDLER@pdata
  7294  0053' 3000               	movlw	0
  7295  0054' 0083'              	movwf	USER_USB_CALLBACK_EVENT_HANDLER@pdata+1
  7296  0055' 3000               	movlw	0
  7297  0056' 0084'              	movwf	USER_USB_CALLBACK_EVENT_HANDLER@size
  7298  0057' 0085'              	movwf	USER_USB_CALLBACK_EVENT_HANDLER@size+1
  7299  0058' 3180' 2000' 3180'  	fcall	_USER_USB_CALLBACK_EVENT_HANDLER
  7300                           
  7301                           ;mcc_generated_files/usb/usb_device.c: 2732:             break;
  7302  005B' 2800'              	goto	i1l538
  7303  005C'                    i1l5226:
  7304  005C' 0851               	movf	81,w	;volatile
  7305  005D' 008D'              	movwf	??_USBCheckStdRequest
  7306  005E' 018E'              	clrf	??_USBCheckStdRequest+1
  7307                           
  7308                           ; Switch on 2 bytes has been partitioned into a top level switch of size 1, and 1 sub-sw
      +                          itches
  7309                           ; Switch size 1, requested type "simple"
  7310                           ; Number of cases is 1, Range of values is 0 to 0
  7311                           ; switch strategies available:
  7312                           ; Name         Instructions Cycles
  7313                           ; simple_byte            4     3 (average)
  7314                           ; direct_byte            8     6 (fixed)
  7315                           ; jumptable            260     6 (fixed)
  7316                           ;	Chosen strategy is simple_byte
  7317  005F' 080E'              	movf	??_USBCheckStdRequest+1,w
  7318  0060' 3A00               	xorlw	0	; case 0
  7319  0061' 1903               	skipnz
  7320  0062' 2800'              	goto	i1l5582
  7321  0063' 2800'              	goto	i1l538
  7322  0064'                    i1l5582:
  7323                           
  7324                           ; Switch size 1, requested type "simple"
  7325                           ; Number of cases is 11, Range of values is 0 to 12
  7326                           ; switch strategies available:
  7327                           ; Name         Instructions Cycles
  7328                           ; direct_byte           32     6 (fixed)
  7329                           ; simple_byte           34    18 (average)
  7330                           ; jumptable            260     6 (fixed)
  7331                           ;	Chosen strategy is simple_byte
  7332  0064' 080D'              	movf	??_USBCheckStdRequest,w
  7333  0065' 3A00               	xorlw	0	; case 0
  7334  0066' 1903               	skipnz
  7335  0067' 2800'              	goto	i1l5208
  7336  0068' 3A01               	xorlw	1	; case 1
  7337  0069' 1903               	skipnz
  7338  006A' 2800'              	goto	i1l5210
  7339  006B' 3A02               	xorlw	2	; case 3
  7340  006C' 1903               	skipnz
  7341  006D' 2800'              	goto	i1l5210
  7342  006E' 3A06               	xorlw	6	; case 5
  7343  006F' 1903               	skipnz
  7344  0070' 2800'              	goto	i1l540
  7345  0071' 3A03               	xorlw	3	; case 6
  7346  0072' 1903               	skipnz
  7347  0073' 2800'              	goto	i1l5196
  7348  0074' 3A01               	xorlw	1	; case 7
  7349  0075' 1903               	skipnz
  7350  0076' 2800'              	goto	i1l5222
  7351  0077' 3A0F               	xorlw	15	; case 8
  7352  0078' 1903               	skipnz
  7353  0079' 2800'              	goto	i1l5200
  7354  007A' 3A01               	xorlw	1	; case 9
  7355  007B' 1903               	skipnz
  7356  007C' 2800'              	goto	i1l5198
  7357  007D' 3A03               	xorlw	3	; case 10
  7358  007E' 1903               	skipnz
  7359  007F' 2800'              	goto	i1l5212
  7360  0080' 3A01               	xorlw	1	; case 11
  7361  0081' 1903               	skipnz
  7362  0082' 2800'              	goto	i1l549
  7363  0083' 3A07               	xorlw	7	; case 12
  7364  0084' 1903               	skipnz
  7365  0085' 2800'              	goto	i1l538
  7366  0086' 2800'              	goto	i1l538
  7367  0087'                    i1l538:
  7368  0087' 0008               	return
  7369  0088'                    __end_of_USBCheckStdRequest:
  7370                           
  7371                           	psect	text31
  7372  0000'                    __ptext31:	
  7373 ;; *************** function _USBStdSetCfgHandler *****************
  7374 ;; Defined at:
  7375 ;;		line 1972 in file "mcc_generated_files/usb/usb_device.c"
  7376 ;; Parameters:    Size  Location     Type
  7377 ;;		None
  7378 ;; Auto vars:     Size  Location     Type
  7379 ;;  p               2    7[BANK0 ] PTR unsigned char 
  7380 ;;		 -> UEP1(1), 
  7381 ;;  i               1    9[BANK0 ] unsigned char 
  7382 ;;  i               1   10[BANK0 ] unsigned char 
  7383 ;; Return value:  Size  Location     Type
  7384 ;;                  1    wreg      void 
  7385 ;; Registers used:
  7386 ;;		wreg, fsr0l, fsr0h, fsr1l, fsr1h, status,2, status,0, pclath, cstack
  7387 ;; Tracked objects:
  7388 ;;		On entry : 0/0
  7389 ;;		On exit  : 0/0
  7390 ;;		Unchanged: 0/0
  7391 ;; Data sizes:     COMMON   BANK0   BANK1   BANK2   BANK3   BANK4   BANK5   BANK6   BANK7   BANK8   BANK9  BANK10  BANK1
      +1  BANK12
  7392 ;;      Params:         0       0       0       0       0       0       0       0       0       0       0       0       
      +0       0
  7393 ;;      Locals:         0       4       0       0       0       0       0       0       0       0       0       0       
      +0       0
  7394 ;;      Temps:          0       1       0       0       0       0       0       0       0       0       0       0       
      +0       0
  7395 ;;      Totals:         0       5       0       0       0       0       0       0       0       0       0       0       
      +0       0
  7396 ;;Total ram usage:        5 bytes
  7397 ;; Hardware stack levels used:    1
  7398 ;; Hardware stack levels required when called:    4
  7399 ;; This function calls:
  7400 ;;		_USER_USB_CALLBACK_EVENT_HANDLER
  7401 ;;		_memset
  7402 ;; This function is called by:
  7403 ;;		_USBCheckStdRequest
  7404 ;; This function uses a non-reentrant model
  7405 ;;
  7406                           
  7407                           
  7408                           ;psect for function _USBStdSetCfgHandler
  7409  0000'                    _USBStdSetCfgHandler:
  7410  0000'                    i1l5138:	
  7411                           ;incstack = 0
  7412                           ; Regs used in _USBStdSetCfgHandler: [wreg-fsr1h+status,2+status,0+pclath+cstack]
  7413                           
  7414                           
  7415                           ;mcc_generated_files/usb/usb_device.c: 1974:     uint8_t i;;mcc_generated_files/usb/usb_
      +                          device.c: 1977:     inPipes[0].info.bits.busy = 1;
  7416  0000' 0021               	movlb	1	; select bank1
  7417  0001' 1782'              	bsf	(_inPipes^(0+128)+2),7	;volatile
  7418                           
  7419                           ;mcc_generated_files/usb/usb_device.c: 1980:     { uint8_t i; uint8_t* p = (uint8_t*)&UE
      +                          P1; for(i=0;i<2;i++) *p++ = 0; };
  7420  0002' 300E               	movlw	14
  7421  0003' 0020               	movlb	0	; select bank0
  7422  0004' 0088'              	movwf	USBStdSetCfgHandler@p+1
  7423  0005' 3099               	movlw	153
  7424  0006' 0087'              	movwf	USBStdSetCfgHandler@p
  7425  0007'                    i1l5140:
  7426  0007' 0189'              	clrf	USBStdSetCfgHandler@i_1762
  7427  0008'                    i1l5146:
  7428  0008' 0807'              	movf	USBStdSetCfgHandler@p,w
  7429  0009' 0086               	movwf	6
  7430  000A' 0808'              	movf	USBStdSetCfgHandler@p+1,w
  7431  000B' 0087               	movwf	7
  7432  000C' 0181               	clrf	1
  7433  000D'                    i1l5148:
  7434  000D' 3001               	movlw	1
  7435  000E' 0787'              	addwf	USBStdSetCfgHandler@p,f
  7436  000F' 3000               	movlw	0
  7437  0010' 3D88'              	addwfc	USBStdSetCfgHandler@p+1,f
  7438  0011'                    i1l5150:
  7439  0011' 3001               	movlw	1
  7440  0012' 0086'              	movwf	??_USBStdSetCfgHandler
  7441  0013' 0806'              	movf	??_USBStdSetCfgHandler,w
  7442  0014' 0789'              	addwf	USBStdSetCfgHandler@i_1762,f
  7443  0015'                    i1l5152:
  7444  0015' 3002               	movlw	2
  7445  0016' 0209'              	subwf	USBStdSetCfgHandler@i_1762,w
  7446  0017' 1C03               	skipc
  7447  0018' 2800'              	goto	u382_21
  7448  0019' 2800'              	goto	u382_20
  7449  001A'                    u382_21:
  7450  001A' 2800'              	goto	i1l5146
  7451  001B'                    u382_20:
  7452  001B'                    i1l5154:
  7453                           
  7454                           ;mcc_generated_files/usb/usb_device.c: 1983:     memset((void*)&BDT[0], 0x00, sizeof(BDT
      +                          ));
  7455  001B' 3020               	movlw	32
  7456  001C' 0080'              	movwf	memset@dest
  7457  001D' 3000               	movlw	0
  7458  001E' 0081'              	movwf	memset@dest+1
  7459  001F' 3000               	movlw	0
  7460  0020' 0082'              	movwf	memset@c
  7461  0021' 0083'              	movwf	memset@c+1
  7462  0022' 3030               	movlw	48
  7463  0023' 0084'              	movwf	memset@n
  7464  0024' 3000               	movlw	0
  7465  0025' 0085'              	movwf	memset@n+1
  7466  0026' 3180' 2000' 3180'  	fcall	_memset
  7467  0029'                    i1l5156:
  7468                           
  7469                           ;mcc_generated_files/usb/usb_device.c: 1986:     UCONbits.PPBRST = 1;
  7470  0029' 003D               	movlb	29	; select bank29
  7471  002A' 170E               	bsf	14,6	;volatile
  7472  002B'                    i1l5158:
  7473                           
  7474                           ;mcc_generated_files/usb/usb_device.c: 1991:  for(i = 0; i < (uint8_t)(2 +1u); i++)
  7475  002B' 0020               	movlb	0	; select bank0
  7476  002C' 018A'              	clrf	USBStdSetCfgHandler@i
  7477  002D'                    i1l5164:
  7478                           
  7479                           ;mcc_generated_files/usb/usb_device.c: 1992:  {;mcc_generated_files/usb/usb_device.c: 19
      +                          93:   ep_data_in[i].Val = 0u;
  7480  002D' 080A'              	movf	USBStdSetCfgHandler@i,w
  7481  002E' 3E00'              	addlw	(low (_ep_data_in| (0+256)))& (0+255)
  7482  002F' 0086               	movwf	6
  7483  0030' 3001               	movlw	1	; select bank3/4
  7484  0031' 0087               	movwf	7
  7485  0032' 0181               	clrf	1
  7486                           
  7487                           ;mcc_generated_files/usb/usb_device.c: 1994:         ep_data_out[i].Val = 0u;
  7488  0033' 080A'              	movf	USBStdSetCfgHandler@i,w
  7489  0034' 3E00'              	addlw	(low (_ep_data_out| (0+256)))& (0+255)
  7490  0035' 0086               	movwf	6
  7491  0036' 3001               	movlw	1	; select bank3/4
  7492  0037' 0087               	movwf	7
  7493  0038' 0181               	clrf	1
  7494  0039'                    i1l5166:
  7495                           
  7496                           ;mcc_generated_files/usb/usb_device.c: 1995:  }
  7497  0039' 3001               	movlw	1
  7498  003A' 0086'              	movwf	??_USBStdSetCfgHandler
  7499  003B' 0806'              	movf	??_USBStdSetCfgHandler,w
  7500  003C' 078A'              	addwf	USBStdSetCfgHandler@i,f
  7501  003D'                    i1l5168:
  7502  003D' 3003               	movlw	3
  7503  003E' 020A'              	subwf	USBStdSetCfgHandler@i,w
  7504  003F' 1C03               	skipc
  7505  0040' 2800'              	goto	u383_21
  7506  0041' 2800'              	goto	u383_20
  7507  0042'                    u383_21:
  7508  0042' 2800'              	goto	i1l5164
  7509  0043'                    u383_20:
  7510  0043'                    i1l5170:
  7511                           
  7512                           ;mcc_generated_files/usb/usb_device.c: 1998:     memset((void*)&USBAlternateInterface,0x
      +                          00,2);
  7513  0043' 3000'              	movlw	low _USBAlternateInterface
  7514  0044' 0080'              	movwf	memset@dest
  7515  0045' 3000'              	movlw	high _USBAlternateInterface
  7516  0046' 0081'              	movwf	memset@dest+1
  7517  0047' 3000               	movlw	0
  7518  0048' 0082'              	movwf	memset@c
  7519  0049' 0083'              	movwf	memset@c+1
  7520  004A' 3002               	movlw	2
  7521  004B' 0084'              	movwf	memset@n
  7522  004C' 3000               	movlw	0
  7523  004D' 0085'              	movwf	memset@n+1
  7524  004E' 3180' 2000' 3180'  	fcall	_memset
  7525  0051'                    i1l5172:
  7526                           
  7527                           ;mcc_generated_files/usb/usb_device.c: 2001:     UCONbits.PPBRST = 0;
  7528  0051' 003D               	movlb	29	; select bank29
  7529  0052' 130E               	bcf	14,6	;volatile
  7530  0053'                    i1l5174:
  7531                           
  7532                           ;mcc_generated_files/usb/usb_device.c: 2003:     pBDTEntryIn[0] = (volatile BDT_ENTRY*)&
      +                          BDT[2];
  7533  0053' 3028               	movlw	40
  7534  0054' 0021               	movlb	1	; select bank1
  7535  0055' 0080'              	movwf	_pBDTEntryIn^(0+128)
  7536  0056' 3000               	movlw	0
  7537  0057' 0080'              	movwf	(_pBDTEntryIn+1)^(0+128)
  7538  0058'                    i1l5176:
  7539                           
  7540                           ;mcc_generated_files/usb/usb_device.c: 2006:     pBDTEntryEP0OutCurrent = (volatile BDT_
      +                          ENTRY*)&BDT[0];
  7541  0058' 3020               	movlw	32
  7542  0059' 0020               	movlb	0	; select bank0
  7543  005A' 0086'              	movwf	??_USBStdSetCfgHandler
  7544  005B' 0806'              	movf	??_USBStdSetCfgHandler,w
  7545  005C' 0021               	movlb	1	; select bank1
  7546  005D' 0080'              	movwf	_pBDTEntryEP0OutCurrent^(0+128)
  7547  005E'                    i1l5178:
  7548                           
  7549                           ;mcc_generated_files/usb/usb_device.c: 2007:     pBDTEntryEP0OutNext = pBDTEntryEP0OutCu
      +                          rrent;
  7550  005E' 0800'              	movf	_pBDTEntryEP0OutCurrent^(0+128),w
  7551  005F' 0080'              	movwf	_pBDTEntryEP0OutNext^(0+128)
  7552  0060' 39FF               	andlw	255
  7553  0061' 1D03               	skipz
  7554  0062' 3000               	movlw	0
  7555  0063' 0080'              	movwf	(_pBDTEntryEP0OutNext+1)^(0+128)
  7556  0064'                    i1l5180:
  7557                           
  7558                           ;mcc_generated_files/usb/usb_device.c: 2010:     USBActiveConfiguration = SetupPkt.bConf
      +                          igurationValue;
  7559  0064' 0020               	movlb	0	; select bank0
  7560  0065' 0852               	movf	82,w	;volatile
  7561  0066' 0086'              	movwf	??_USBStdSetCfgHandler
  7562  0067' 0806'              	movf	??_USBStdSetCfgHandler,w
  7563  0068' 0021               	movlb	1	; select bank1
  7564  0069' 0080'              	movwf	_USBActiveConfiguration^(0+128)	;volatile
  7565  006A'                    i1l5182:
  7566                           
  7567                           ;mcc_generated_files/usb/usb_device.c: 2013:     if(USBActiveConfiguration == 0)
  7568  006A' 0800'              	movf	_USBActiveConfiguration^(0+128),w	;volatile
  7569  006B' 1D03               	btfss	3,2
  7570  006C' 2800'              	goto	u384_21
  7571  006D' 2800'              	goto	u384_20
  7572  006E'                    u384_21:
  7573  006E' 2800'              	goto	i1l5186
  7574  006F'                    u384_20:
  7575  006F'                    i1l5184:
  7576                           
  7577                           ;mcc_generated_files/usb/usb_device.c: 2014:     {;mcc_generated_files/usb/usb_device.c:
      +                           2016:         USBDeviceState = ADDRESS_STATE;
  7578  006F' 3010               	movlw	16
  7579  0070' 0020               	movlb	0	; select bank0
  7580  0071' 0086'              	movwf	??_USBStdSetCfgHandler
  7581  0072' 0806'              	movf	??_USBStdSetCfgHandler,w
  7582  0073' 0021               	movlb	1	; select bank1
  7583  0074' 0080'              	movwf	_USBDeviceState^(0+128)	;volatile
  7584                           
  7585                           ;mcc_generated_files/usb/usb_device.c: 2017:     }
  7586  0075' 2800'              	goto	i1l460
  7587  0076'                    i1l5186:
  7588                           
  7589                           ;mcc_generated_files/usb/usb_device.c: 2019:     {;mcc_generated_files/usb/usb_device.c:
      +                           2021:         USER_USB_CALLBACK_EVENT_HANDLER((USB_EVENT)EVENT_CONFIGURED,(void*)&USBAc
      +                          tiveConfiguration,1);
  7590  0076' 3001               	movlw	1
  7591  0077' 0020               	movlb	0	; select bank0
  7592  0078' 0080'              	movwf	USER_USB_CALLBACK_EVENT_HANDLER@event
  7593  0079' 3000               	movlw	0
  7594  007A' 0081'              	movwf	USER_USB_CALLBACK_EVENT_HANDLER@event+1
  7595  007B' 3000'              	movlw	low _USBActiveConfiguration
  7596  007C' 0082'              	movwf	USER_USB_CALLBACK_EVENT_HANDLER@pdata
  7597  007D' 3000'              	movlw	high _USBActiveConfiguration
  7598  007E' 0083'              	movwf	USER_USB_CALLBACK_EVENT_HANDLER@pdata+1
  7599  007F' 3001               	movlw	1
  7600  0080' 0084'              	movwf	USER_USB_CALLBACK_EVENT_HANDLER@size
  7601  0081' 3000               	movlw	0
  7602  0082' 0085'              	movwf	USER_USB_CALLBACK_EVENT_HANDLER@size+1
  7603  0083' 3180' 2000' 3180'  	fcall	_USER_USB_CALLBACK_EVENT_HANDLER
  7604  0086'                    i1l5188:
  7605                           
  7606                           ;mcc_generated_files/usb/usb_device.c: 2026:         USBDeviceState = CONFIGURED_STATE;
  7607  0086' 3020               	movlw	32
  7608  0087' 0020               	movlb	0	; select bank0
  7609  0088' 0086'              	movwf	??_USBStdSetCfgHandler
  7610  0089' 0806'              	movf	??_USBStdSetCfgHandler,w
  7611  008A' 0021               	movlb	1	; select bank1
  7612  008B' 0080'              	movwf	_USBDeviceState^(0+128)	;volatile
  7613  008C'                    i1l460:
  7614  008C' 0008               	return
  7615  008D'                    __end_of_USBStdSetCfgHandler:
  7616                           
  7617                           	psect	text32
  7618  0000'                    __ptext32:	
  7619 ;; *************** function _memset *****************
  7620 ;; Defined at:
  7621 ;;		line 4 in file "C:\Program Files\Microchip\xc8\v2.31\pic\sources\c99\common\memset.c"
  7622 ;; Parameters:    Size  Location     Type
  7623 ;;  dest            2    0[COMMON] PTR void 
  7624 ;;		 -> USBAlternateInterface(2), BDT(48), 
  7625 ;;  c               2    2[COMMON] int 
  7626 ;;  n               2    4[COMMON] unsigned int 
  7627 ;; Auto vars:     Size  Location     Type
  7628 ;;  s               2   12[COMMON] PTR unsigned char 
  7629 ;;		 -> USBAlternateInterface(2), BDT(48), 
  7630 ;;  k               2   10[COMMON] unsigned int 
  7631 ;; Return value:  Size  Location     Type
  7632 ;;                  2    0[COMMON] PTR void 
  7633 ;; Registers used:
  7634 ;;		wreg, fsr1l, fsr1h, status,2, status,0
  7635 ;; Tracked objects:
  7636 ;;		On entry : 0/0
  7637 ;;		On exit  : 0/0
  7638 ;;		Unchanged: 0/0
  7639 ;; Data sizes:     COMMON   BANK0   BANK1   BANK2   BANK3   BANK4   BANK5   BANK6   BANK7   BANK8   BANK9  BANK10  BANK1
      +1  BANK12
  7640 ;;      Params:         6       0       0       0       0       0       0       0       0       0       0       0       
      +0       0
  7641 ;;      Locals:         4       0       0       0       0       0       0       0       0       0       0       0       
      +0       0
  7642 ;;      Temps:          4       0       0       0       0       0       0       0       0       0       0       0       
      +0       0
  7643 ;;      Totals:        14       0       0       0       0       0       0       0       0       0       0       0       
      +0       0
  7644 ;;Total ram usage:       14 bytes
  7645 ;; Hardware stack levels used:    1
  7646 ;; This function calls:
  7647 ;;		Nothing
  7648 ;; This function is called by:
  7649 ;;		_USBStdSetCfgHandler
  7650 ;; This function uses a non-reentrant model
  7651 ;;
  7652                           
  7653                           
  7654                           ;psect for function _memset
  7655  0000'                    _memset:
  7656  0000'                    i1l5096:	
  7657                           ;incstack = 0
  7658                           ; Regs used in _memset: [wreg+fsr1l+fsr1h+status,2+status,0]
  7659                           
  7660  0000' 0801'              	movf	memset@dest+1,w
  7661  0001' 008D'              	movwf	memset@s+1
  7662  0002' 0800'              	movf	memset@dest,w
  7663  0003' 008C'              	movwf	memset@s
  7664  0004'                    i1l5098:
  7665  0004' 0804'              	movf	memset@n,w
  7666  0005' 0405'              	iorwf	memset@n+1,w
  7667  0006' 1D03               	btfss	3,2
  7668  0007' 2800'              	goto	u377_21
  7669  0008' 2800'              	goto	u377_20
  7670  0009'                    u377_21:
  7671  0009' 2800'              	goto	i1l5102
  7672  000A'                    u377_20:
  7673  000A' 2800'              	goto	i1l1442
  7674  000B'                    i1l5102:
  7675  000B' 080C'              	movf	memset@s,w
  7676  000C' 0086               	movwf	6
  7677  000D' 080D'              	movf	memset@s+1,w
  7678  000E' 0087               	movwf	7
  7679  000F' 0802'              	movf	memset@c,w
  7680  0010' 0081               	movwf	1
  7681  0011'                    i1l5104:
  7682  0011' 0804'              	movf	memset@n,w
  7683  0012' 070C'              	addwf	memset@s,w
  7684  0013' 0086'              	movwf	??_memset
  7685  0014' 0805'              	movf	memset@n+1,w
  7686  0015' 3D0D'              	addwfc	memset@s+1,w
  7687  0016' 0087'              	movwf	??_memset+1
  7688  0017' 0806'              	movf	??_memset,w
  7689  0018' 3EFF               	addlw	255
  7690  0019' 0088'              	movwf	??_memset+2
  7691  001A' 30FF               	movlw	255
  7692  001B' 3D07'              	addwfc	??_memset+1,w
  7693  001C' 0089'              	movwf	??_memset+3
  7694  001D' 0808'              	movf	??_memset+2,w
  7695  001E' 0086               	movwf	6
  7696  001F' 0809'              	movf	??_memset+3,w
  7697  0020' 0087               	movwf	7
  7698  0021' 0802'              	movf	memset@c,w
  7699  0022' 0081               	movwf	1
  7700  0023'                    i1l5106:
  7701  0023' 3000               	movlw	0
  7702  0024' 0205'              	subwf	memset@n+1,w
  7703  0025' 3003               	movlw	3
  7704  0026' 1903               	skipnz
  7705  0027' 0204'              	subwf	memset@n,w
  7706  0028' 1803               	skipnc
  7707  0029' 2800'              	goto	u378_21
  7708  002A' 2800'              	goto	u378_20
  7709  002B'                    u378_21:
  7710  002B' 2800'              	goto	i1l5110
  7711  002C'                    u378_20:
  7712  002C' 2800'              	goto	i1l1442
  7713  002D'                    i1l5110:
  7714  002D' 080C'              	movf	memset@s,w
  7715  002E' 3E01               	addlw	1
  7716  002F' 0086'              	movwf	??_memset
  7717  0030' 3000               	movlw	0
  7718  0031' 3D0D'              	addwfc	memset@s+1,w
  7719  0032' 0087'              	movwf	??_memset+1
  7720  0033' 0806'              	movf	??_memset,w
  7721  0034' 0086               	movwf	6
  7722  0035' 0807'              	movf	??_memset+1,w
  7723  0036' 0087               	movwf	7
  7724  0037' 0802'              	movf	memset@c,w
  7725  0038' 0081               	movwf	1
  7726  0039' 080C'              	movf	memset@s,w
  7727  003A' 3E02               	addlw	2
  7728  003B' 0086'              	movwf	??_memset
  7729  003C' 3000               	movlw	0
  7730  003D' 3D0D'              	addwfc	memset@s+1,w
  7731  003E' 0087'              	movwf	??_memset+1
  7732  003F' 0806'              	movf	??_memset,w
  7733  0040' 0086               	movwf	6
  7734  0041' 0807'              	movf	??_memset+1,w
  7735  0042' 0087               	movwf	7
  7736  0043' 0802'              	movf	memset@c,w
  7737  0044' 0081               	movwf	1
  7738  0045' 0804'              	movf	memset@n,w
  7739  0046' 070C'              	addwf	memset@s,w
  7740  0047' 0086'              	movwf	??_memset
  7741  0048' 0805'              	movf	memset@n+1,w
  7742  0049' 3D0D'              	addwfc	memset@s+1,w
  7743  004A' 0087'              	movwf	??_memset+1
  7744  004B' 0806'              	movf	??_memset,w
  7745  004C' 3EFE               	addlw	254
  7746  004D' 0088'              	movwf	??_memset+2
  7747  004E' 30FF               	movlw	255
  7748  004F' 3D07'              	addwfc	??_memset+1,w
  7749  0050' 0089'              	movwf	??_memset+3
  7750  0051' 0808'              	movf	??_memset+2,w
  7751  0052' 0086               	movwf	6
  7752  0053' 0809'              	movf	??_memset+3,w
  7753  0054' 0087               	movwf	7
  7754  0055' 0802'              	movf	memset@c,w
  7755  0056' 0081               	movwf	1
  7756  0057' 0804'              	movf	memset@n,w
  7757  0058' 070C'              	addwf	memset@s,w
  7758  0059' 0086'              	movwf	??_memset
  7759  005A' 0805'              	movf	memset@n+1,w
  7760  005B' 3D0D'              	addwfc	memset@s+1,w
  7761  005C' 0087'              	movwf	??_memset+1
  7762  005D' 0806'              	movf	??_memset,w
  7763  005E' 3EFD               	addlw	253
  7764  005F' 0088'              	movwf	??_memset+2
  7765  0060' 30FF               	movlw	255
  7766  0061' 3D07'              	addwfc	??_memset+1,w
  7767  0062' 0089'              	movwf	??_memset+3
  7768  0063' 0808'              	movf	??_memset+2,w
  7769  0064' 0086               	movwf	6
  7770  0065' 0809'              	movf	??_memset+3,w
  7771  0066' 0087               	movwf	7
  7772  0067' 0802'              	movf	memset@c,w
  7773  0068' 0081               	movwf	1
  7774  0069'                    i1l5112:
  7775  0069' 3000               	movlw	0
  7776  006A' 0205'              	subwf	memset@n+1,w
  7777  006B' 3007               	movlw	7
  7778  006C' 1903               	skipnz
  7779  006D' 0204'              	subwf	memset@n,w
  7780  006E' 1803               	skipnc
  7781  006F' 2800'              	goto	u379_21
  7782  0070' 2800'              	goto	u379_20
  7783  0071'                    u379_21:
  7784  0071' 2800'              	goto	i1l5116
  7785  0072'                    u379_20:
  7786  0072' 2800'              	goto	i1l1442
  7787  0073'                    i1l5116:
  7788  0073' 080C'              	movf	memset@s,w
  7789  0074' 3E03               	addlw	3
  7790  0075' 0086'              	movwf	??_memset
  7791  0076' 3000               	movlw	0
  7792  0077' 3D0D'              	addwfc	memset@s+1,w
  7793  0078' 0087'              	movwf	??_memset+1
  7794  0079' 0806'              	movf	??_memset,w
  7795  007A' 0086               	movwf	6
  7796  007B' 0807'              	movf	??_memset+1,w
  7797  007C' 0087               	movwf	7
  7798  007D' 0802'              	movf	memset@c,w
  7799  007E' 0081               	movwf	1
  7800  007F' 0804'              	movf	memset@n,w
  7801  0080' 070C'              	addwf	memset@s,w
  7802  0081' 0086'              	movwf	??_memset
  7803  0082' 0805'              	movf	memset@n+1,w
  7804  0083' 3D0D'              	addwfc	memset@s+1,w
  7805  0084' 0087'              	movwf	??_memset+1
  7806  0085' 0806'              	movf	??_memset,w
  7807  0086' 3EFC               	addlw	252
  7808  0087' 0088'              	movwf	??_memset+2
  7809  0088' 30FF               	movlw	255
  7810  0089' 3D07'              	addwfc	??_memset+1,w
  7811  008A' 0089'              	movwf	??_memset+3
  7812  008B' 0808'              	movf	??_memset+2,w
  7813  008C' 0086               	movwf	6
  7814  008D' 0809'              	movf	??_memset+3,w
  7815  008E' 0087               	movwf	7
  7816  008F' 0802'              	movf	memset@c,w
  7817  0090' 0081               	movwf	1
  7818  0091'                    i1l5118:
  7819  0091' 3000               	movlw	0
  7820  0092' 0205'              	subwf	memset@n+1,w
  7821  0093' 3009               	movlw	9
  7822  0094' 1903               	skipnz
  7823  0095' 0204'              	subwf	memset@n,w
  7824  0096' 1803               	skipnc
  7825  0097' 2800'              	goto	u380_21
  7826  0098' 2800'              	goto	u380_20
  7827  0099'                    u380_21:
  7828  0099' 2800'              	goto	i1l5122
  7829  009A'                    u380_20:
  7830  009A' 2800'              	goto	i1l1442
  7831  009B'                    i1l5122:
  7832  009B' 090C'              	comf	memset@s,w
  7833  009C' 0086'              	movwf	??_memset
  7834  009D' 090D'              	comf	memset@s+1,w
  7835  009E' 0087'              	movwf	??_memset+1
  7836  009F' 0A86'              	incf	??_memset,f
  7837  00A0' 1903               	skipnz
  7838  00A1' 0A87'              	incf	??_memset+1,f
  7839  00A2' 3003               	movlw	3
  7840  00A3' 0506'              	andwf	??_memset,w
  7841  00A4' 008A'              	movwf	memset@k
  7842  00A5' 3000               	movlw	0
  7843  00A6' 0507'              	andwf	??_memset+1,w
  7844  00A7' 008B'              	movwf	memset@k+1
  7845  00A8'                    i1l5124:
  7846  00A8' 080A'              	movf	memset@k,w
  7847  00A9' 078C'              	addwf	memset@s,f
  7848  00AA' 080B'              	movf	memset@k+1,w
  7849  00AB' 3D8D'              	addwfc	memset@s+1,f
  7850  00AC'                    i1l5126:
  7851  00AC' 080A'              	movf	memset@k,w
  7852  00AD' 0284'              	subwf	memset@n,f
  7853  00AE' 080B'              	movf	memset@k+1,w
  7854  00AF' 3B85'              	subwfb	memset@n+1,f
  7855  00B0'                    i1l5128:
  7856  00B0' 30FC               	movlw	252
  7857  00B1' 0584'              	andwf	memset@n,f
  7858  00B2' 30FF               	movlw	255
  7859  00B3' 0585'              	andwf	memset@n+1,f
  7860  00B4' 2800'              	goto	i1l5136
  7861  00B5'                    i1l5130:
  7862  00B5' 080C'              	movf	memset@s,w
  7863  00B6' 0086               	movwf	6
  7864  00B7' 080D'              	movf	memset@s+1,w
  7865  00B8' 0087               	movwf	7
  7866  00B9' 0802'              	movf	memset@c,w
  7867  00BA' 0081               	movwf	1
  7868  00BB'                    i1l5132:
  7869  00BB' 3001               	movlw	1
  7870  00BC' 0284'              	subwf	memset@n,f
  7871  00BD' 3000               	movlw	0
  7872  00BE' 3B85'              	subwfb	memset@n+1,f
  7873  00BF'                    i1l5134:
  7874  00BF' 3001               	movlw	1
  7875  00C0' 078C'              	addwf	memset@s,f
  7876  00C1' 3000               	movlw	0
  7877  00C2' 3D8D'              	addwfc	memset@s+1,f
  7878  00C3'                    i1l5136:
  7879  00C3' 0804'              	movf	memset@n,w
  7880  00C4' 0405'              	iorwf	memset@n+1,w
  7881  00C5' 1D03               	btfss	3,2
  7882  00C6' 2800'              	goto	u381_21
  7883  00C7' 2800'              	goto	u381_20
  7884  00C8'                    u381_21:
  7885  00C8' 2800'              	goto	i1l5130
  7886  00C9'                    u381_20:
  7887  00C9'                    i1l1442:
  7888  00C9' 0008               	return
  7889  00CA'                    __end_of_memset:
  7890                           
  7891                           	psect	text33
  7892  0000'                    __ptext33:	
  7893 ;; *************** function _USBStdGetStatusHandler *****************
  7894 ;; Defined at:
  7895 ;;		line 2133 in file "mcc_generated_files/usb/usb_device.c"
  7896 ;; Parameters:    Size  Location     Type
  7897 ;;		None
  7898 ;; Auto vars:     Size  Location     Type
  7899 ;;  p               2    2[COMMON] PTR struct __BDT
  7900 ;;		 -> RAM(4096), NULL(0), BDT(48), 
  7901 ;; Return value:  Size  Location     Type
  7902 ;;                  1    wreg      void 
  7903 ;; Registers used:
  7904 ;;		wreg, fsr0l, fsr0h, fsr1l, fsr1h, status,2, status,0
  7905 ;; Tracked objects:
  7906 ;;		On entry : 0/0
  7907 ;;		On exit  : 0/0
  7908 ;;		Unchanged: 0/0
  7909 ;; Data sizes:     COMMON   BANK0   BANK1   BANK2   BANK3   BANK4   BANK5   BANK6   BANK7   BANK8   BANK9  BANK10  BANK1
      +1  BANK12
  7910 ;;      Params:         0       0       0       0       0       0       0       0       0       0       0       0       
      +0       0
  7911 ;;      Locals:         2       0       0       0       0       0       0       0       0       0       0       0       
      +0       0
  7912 ;;      Temps:          2       0       0       0       0       0       0       0       0       0       0       0       
      +0       0
  7913 ;;      Totals:         4       0       0       0       0       0       0       0       0       0       0       0       
      +0       0
  7914 ;;Total ram usage:        4 bytes
  7915 ;; Hardware stack levels used:    1
  7916 ;; This function calls:
  7917 ;;		Nothing
  7918 ;; This function is called by:
  7919 ;;		_USBCheckStdRequest
  7920 ;; This function uses a non-reentrant model
  7921 ;;
  7922                           
  7923                           
  7924                           ;psect for function _USBStdGetStatusHandler
  7925  0000'                    _USBStdGetStatusHandler:
  7926  0000'                    i1l3686:	
  7927                           ;incstack = 0
  7928                           ; Regs used in _USBStdGetStatusHandler: [wreg-fsr1h+status,2+status,0]
  7929                           
  7930                           
  7931                           ;mcc_generated_files/usb/usb_device.c: 2135:     CtrlTrfData[0] = 0;
  7932  0000' 0020               	movlb	0	; select bank0
  7933  0001' 01D8               	clrf	88	;volatile
  7934                           
  7935                           ;mcc_generated_files/usb/usb_device.c: 2136:     CtrlTrfData[1] = 0;
  7936  0002' 01D9               	clrf	89	;volatile
  7937                           
  7938                           ;mcc_generated_files/usb/usb_device.c: 2138:     switch(SetupPkt.Recipient)
  7939  0003' 2800'              	goto	i1l3706
  7940  0004'                    i1l478:	
  7941                           ;mcc_generated_files/usb/usb_device.c: 2139:     {;mcc_generated_files/usb/usb_device.c:
      +                           2140:         case (0x00):
  7942                           
  7943                           
  7944                           ;mcc_generated_files/usb/usb_device.c: 2141:             inPipes[0].info.bits.busy = 1;
  7945  0004' 0021               	movlb	1	; select bank1
  7946  0005' 1782'              	bsf	(_inPipes^(0+128)+2),7	;volatile
  7947  0006'                    i1l3690:	
  7948                           ;mcc_generated_files/usb/usb_device.c: 2146:             if(0 == 1)
  7949                           
  7950                           
  7951                           ;mcc_generated_files/usb/usb_device.c: 2151:             if(RemoteWakeup == 1)
  7952  0006' 0023               	movlb	3	; select bank3
  7953  0007' 0300'              	decf	_RemoteWakeup^(0+384),w	;volatile
  7954  0008' 1D03               	btfss	3,2
  7955  0009' 2800'              	goto	u224_21
  7956  000A' 2800'              	goto	u224_20
  7957  000B'                    u224_21:
  7958  000B' 2800'              	goto	i1l481
  7959  000C'                    u224_20:
  7960  000C'                    i1l3692:
  7961                           
  7962                           ;mcc_generated_files/usb/usb_device.c: 2152:             {;mcc_generated_files/usb/usb_d
      +                          evice.c: 2153:                 CtrlTrfData[0]|=0x02;
  7963  000C' 0020               	movlb	0	; select bank0
  7964  000D' 14D8               	bsf	88,1	;volatile
  7965  000E' 2800'              	goto	i1l481
  7966  000F'                    i1l482:	
  7967                           ;mcc_generated_files/usb/usb_device.c: 2156:         case (0x01):
  7968                           
  7969                           
  7970                           ;mcc_generated_files/usb/usb_device.c: 2157:             inPipes[0].info.bits.busy = 1;
  7971  000F' 0021               	movlb	1	; select bank1
  7972  0010' 1782'              	bsf	(_inPipes^(0+128)+2),7	;volatile
  7973                           
  7974                           ;mcc_generated_files/usb/usb_device.c: 2158:             break;
  7975  0011' 2800'              	goto	i1l481
  7976  0012'                    i1l483:	
  7977                           ;mcc_generated_files/usb/usb_device.c: 2159:         case (0x02):
  7978                           
  7979                           
  7980                           ;mcc_generated_files/usb/usb_device.c: 2160:             inPipes[0].info.bits.busy = 1;
  7981  0012' 0021               	movlb	1	; select bank1
  7982  0013' 1782'              	bsf	(_inPipes^(0+128)+2),7	;volatile
  7983                           
  7984                           ;mcc_generated_files/usb/usb_device.c: 2164:             {;mcc_generated_files/usb/usb_d
      +                          evice.c: 2165:                 BDT_ENTRY *p;;mcc_generated_files/usb/usb_device.c: 2167:
      +                                           if(SetupPkt.EPDir == 0)
  7985  0014' 0020               	movlb	0	; select bank0
  7986  0015' 1BD4               	btfsc	84,7	;volatile
  7987  0016' 2800'              	goto	u225_21
  7988  0017' 2800'              	goto	u225_20
  7989  0018'                    u225_21:
  7990  0018' 2800'              	goto	i1l3696
  7991  0019'                    u225_20:
  7992  0019'                    i1l3694:
  7993                           
  7994                           ;mcc_generated_files/usb/usb_device.c: 2168:                 {;mcc_generated_files/usb/u
      +                          sb_device.c: 2169:                     p = (BDT_ENTRY*)pBDTEntryOut[SetupPkt.EPNum];
  7995  0019' 0854               	movf	84,w	;volatile
  7996  001A' 390F               	andlw	15
  7997  001B' 0709               	addwf	9,w
  7998  001C' 3E00'              	addlw	(low (_pBDTEntryOut| (0+256)))& (0+255)
  7999  001D' 0086               	movwf	6
  8000  001E' 3001               	movlw	1	; select bank3/4
  8001  001F' 0087               	movwf	7
  8002  0020' 3F40               	moviw [0]fsr1
  8003  0021' 0082'              	movwf	USBStdGetStatusHandler@p
  8004  0022' 3F41               	moviw [1]fsr1
  8005  0023' 0083'              	movwf	USBStdGetStatusHandler@p+1
  8006                           
  8007                           ;mcc_generated_files/usb/usb_device.c: 2170:                 }
  8008  0024' 2800'              	goto	i1l3698
  8009  0025'                    i1l3696:
  8010                           
  8011                           ;mcc_generated_files/usb/usb_device.c: 2172:                 {;mcc_generated_files/usb/u
      +                          sb_device.c: 2173:                     p = (BDT_ENTRY*)pBDTEntryIn[SetupPkt.EPNum];
  8012  0025' 0854               	movf	84,w	;volatile
  8013  0026' 390F               	andlw	15
  8014  0027' 0709               	addwf	9,w
  8015  0028' 3E00'              	addlw	(low (_pBDTEntryIn| 0))& (0+255)
  8016  0029' 0086               	movwf	6
  8017  002A' 0187               	clrf	7
  8018  002B' 3F40               	moviw [0]fsr1
  8019  002C' 0082'              	movwf	USBStdGetStatusHandler@p
  8020  002D' 3F41               	moviw [1]fsr1
  8021  002E' 0083'              	movwf	USBStdGetStatusHandler@p+1
  8022  002F'                    i1l3698:
  8023                           
  8024                           ;mcc_generated_files/usb/usb_device.c: 2176:                 if((p->STAT.UOWN == 1) && (
      +                          p->STAT.BSTALL == 1))
  8025  002F' 0802'              	movf	USBStdGetStatusHandler@p,w
  8026  0030' 0086               	movwf	6
  8027  0031' 0803'              	movf	USBStdGetStatusHandler@p+1,w
  8028  0032' 0087               	movwf	7
  8029  0033' 1F81               	btfss	1,7
  8030  0034' 2800'              	goto	u226_21
  8031  0035' 2800'              	goto	u226_20
  8032  0036'                    u226_21:
  8033  0036' 2800'              	goto	i1l481
  8034  0037'                    u226_20:
  8035  0037'                    i1l3700:
  8036  0037' 0802'              	movf	USBStdGetStatusHandler@p,w
  8037  0038' 0086               	movwf	6
  8038  0039' 0803'              	movf	USBStdGetStatusHandler@p+1,w
  8039  003A' 0087               	movwf	7
  8040  003B' 1D01               	btfss	1,2
  8041  003C' 2800'              	goto	u227_21
  8042  003D' 2800'              	goto	u227_20
  8043  003E'                    u227_21:
  8044  003E' 2800'              	goto	i1l481
  8045  003F'                    u227_20:
  8046  003F'                    i1l3702:
  8047                           
  8048                           ;mcc_generated_files/usb/usb_device.c: 2177:                     CtrlTrfData[0]=0x01;
  8049  003F' 3001               	movlw	1
  8050  0040' 0080'              	movwf	??_USBStdGetStatusHandler
  8051  0041' 0800'              	movf	??_USBStdGetStatusHandler,w
  8052  0042' 00D8               	movwf	88	;volatile
  8053  0043' 2800'              	goto	i1l481
  8054  0044'                    i1l3706:
  8055  0044' 0850               	movf	80,w	;volatile
  8056  0045' 391F               	andlw	31
  8057  0046' 0080'              	movwf	??_USBStdGetStatusHandler
  8058  0047' 0181'              	clrf	??_USBStdGetStatusHandler+1
  8059                           
  8060                           ; Switch on 2 bytes has been partitioned into a top level switch of size 1, and 1 sub-sw
      +                          itches
  8061                           ; Switch size 1, requested type "simple"
  8062                           ; Number of cases is 1, Range of values is 0 to 0
  8063                           ; switch strategies available:
  8064                           ; Name         Instructions Cycles
  8065                           ; simple_byte            4     3 (average)
  8066                           ; direct_byte            8     6 (fixed)
  8067                           ; jumptable            260     6 (fixed)
  8068                           ;	Chosen strategy is simple_byte
  8069  0048' 0801'              	movf	??_USBStdGetStatusHandler+1,w
  8070  0049' 3A00               	xorlw	0	; case 0
  8071  004A' 1903               	skipnz
  8072  004B' 2800'              	goto	i1l5584
  8073  004C' 2800'              	goto	i1l481
  8074  004D'                    i1l5584:
  8075                           
  8076                           ; Switch size 1, requested type "simple"
  8077                           ; Number of cases is 3, Range of values is 0 to 2
  8078                           ; switch strategies available:
  8079                           ; Name         Instructions Cycles
  8080                           ; simple_byte           10     6 (average)
  8081                           ; direct_byte           12     6 (fixed)
  8082                           ; jumptable            260     6 (fixed)
  8083                           ;	Chosen strategy is simple_byte
  8084  004D' 0800'              	movf	??_USBStdGetStatusHandler,w
  8085  004E' 3A00               	xorlw	0	; case 0
  8086  004F' 1903               	skipnz
  8087  0050' 2800'              	goto	i1l478
  8088  0051' 3A01               	xorlw	1	; case 1
  8089  0052' 1903               	skipnz
  8090  0053' 2800'              	goto	i1l482
  8091  0054' 3A03               	xorlw	3	; case 2
  8092  0055' 1903               	skipnz
  8093  0056' 2800'              	goto	i1l483
  8094  0057' 2800'              	goto	i1l481
  8095  0058'                    i1l481:
  8096                           
  8097                           ;mcc_generated_files/usb/usb_device.c: 2182:     if(inPipes[0].info.bits.busy == 1)
  8098  0058' 0021               	movlb	1	; select bank1
  8099  0059' 1F82'              	btfss	(_inPipes^(0+128)+2),7	;volatile
  8100  005A' 2800'              	goto	u228_21
  8101  005B' 2800'              	goto	u228_20
  8102  005C'                    u228_21:
  8103  005C' 2800'              	goto	i1l488
  8104  005D'                    u228_20:
  8105  005D'                    i1l3708:
  8106                           
  8107                           ;mcc_generated_files/usb/usb_device.c: 2183:     {;mcc_generated_files/usb/usb_device.c:
      +                           2184:         inPipes[0].pSrc.bRam = (uint8_t*)&CtrlTrfData;
  8108  005D' 3058               	movlw	88
  8109  005E' 0080'              	movwf	_inPipes^(0+128)	;volatile
  8110  005F' 3000               	movlw	0
  8111  0060' 0080'              	movwf	(_inPipes+1)^(0+128)	;volatile
  8112  0061'                    i1l3710:
  8113                           
  8114                           ;mcc_generated_files/usb/usb_device.c: 2185:         inPipes[0].info.bits.ctrl_trf_mem =
      +                           0x01;
  8115  0061' 1402'              	bsf	(_inPipes^(0+128)+2),0	;volatile
  8116  0062'                    i1l3712:
  8117                           
  8118                           ;mcc_generated_files/usb/usb_device.c: 2186:         inPipes[0].wCount.v[0] = 2;
  8119  0062' 3002               	movlw	2
  8120  0063' 0080'              	movwf	??_USBStdGetStatusHandler
  8121  0064' 0800'              	movf	??_USBStdGetStatusHandler,w
  8122  0065' 0083'              	movwf	(_inPipes^(0+128)+3)	;volatile
  8123  0066'                    i1l488:
  8124  0066' 0008               	return
  8125  0067'                    __end_of_USBStdGetStatusHandler:
  8126                           
  8127                           	psect	text34
  8128  0000'                    __ptext34:	
  8129 ;; *************** function _USBStdGetDscHandler *****************
  8130 ;; Defined at:
  8131 ;;		line 2047 in file "mcc_generated_files/usb/usb_device.c"
  8132 ;; Parameters:    Size  Location     Type
  8133 ;;		None
  8134 ;; Auto vars:     Size  Location     Type
  8135 ;;		None
  8136 ;; Return value:  Size  Location     Type
  8137 ;;                  1    wreg      void 
  8138 ;; Registers used:
  8139 ;;		wreg, fsr0l, fsr0h, status,2, status,0, pclath
  8140 ;; Tracked objects:
  8141 ;;		On entry : 0/0
  8142 ;;		On exit  : 0/0
  8143 ;;		Unchanged: 0/0
  8144 ;; Data sizes:     COMMON   BANK0   BANK1   BANK2   BANK3   BANK4   BANK5   BANK6   BANK7   BANK8   BANK9  BANK10  BANK1
      +1  BANK12
  8145 ;;      Params:         0       0       0       0       0       0       0       0       0       0       0       0       
      +0       0
  8146 ;;      Locals:         0       0       0       0       0       0       0       0       0       0       0       0       
      +0       0
  8147 ;;      Temps:          3       0       0       0       0       0       0       0       0       0       0       0       
      +0       0
  8148 ;;      Totals:         3       0       0       0       0       0       0       0       0       0       0       0       
      +0       0
  8149 ;;Total ram usage:        3 bytes
  8150 ;; Hardware stack levels used:    1
  8151 ;; This function calls:
  8152 ;;		Nothing
  8153 ;; This function is called by:
  8154 ;;		_USBCheckStdRequest
  8155 ;; This function uses a non-reentrant model
  8156 ;;
  8157                           
  8158                           
  8159                           ;psect for function _USBStdGetDscHandler
  8160  0000'                    _USBStdGetDscHandler:
  8161  0000'                    i1l3650:	
  8162                           ;incstack = 0
  8163                           ; Regs used in _USBStdGetDscHandler: [wreg-fsr0h+status,2+status,0+pclath]
  8164                           
  8165                           
  8166                           ;mcc_generated_files/usb/usb_device.c: 2049:     if(SetupPkt.bmRequestType == 0x80)
  8167  0000' 3080               	movlw	128
  8168  0001' 0020               	movlb	0	; select bank0
  8169  0002' 0650               	xorwf	80,w	;volatile
  8170  0003' 1D03               	btfss	3,2
  8171  0004' 2800'              	goto	u221_21
  8172  0005' 2800'              	goto	u221_20
  8173  0006'                    u221_21:
  8174  0006' 2800'              	goto	i1l474
  8175  0007'                    u221_20:
  8176  0007'                    i1l3652:
  8177                           
  8178                           ;mcc_generated_files/usb/usb_device.c: 2050:     {;mcc_generated_files/usb/usb_device.c:
      +                           2051:         inPipes[0].info.Val = 0x00 | 0x80 | 0x40;
  8179  0007' 30C0               	movlw	192
  8180  0008' 0080'              	movwf	??_USBStdGetDscHandler
  8181  0009' 0800'              	movf	??_USBStdGetDscHandler,w
  8182  000A' 0021               	movlb	1	; select bank1
  8183  000B' 0082'              	movwf	(_inPipes^(0+128)+2)	;volatile
  8184                           
  8185                           ;mcc_generated_files/usb/usb_device.c: 2053:         switch(SetupPkt.bDescriptorType)
  8186  000C' 2800'              	goto	i1l3680
  8187  000D'                    i1l3654:
  8188                           
  8189                           ;mcc_generated_files/usb/usb_device.c: 2059:                     inPipes[0].pSrc.bRom = 
      +                          (const uint8_t*)&device_dsc;
  8190  000D' 3000'              	movlw	low (_device_dsc| (0+32768))
  8191  000E' 0021               	movlb	1	; select bank1
  8192  000F' 0080'              	movwf	_inPipes^(0+128)	;volatile
  8193  0010' 3000'              	movlw	high (_device_dsc| (0+32768))
  8194  0011' 0081'              	movwf	(_inPipes^(0+128)+1)	;volatile
  8195  0012'                    i1l3656:
  8196                           
  8197                           ;mcc_generated_files/usb/usb_device.c: 2061:                 inPipes[0].wCount.Val = siz
      +                          eof(device_dsc);
  8198  0012' 3000               	movlw	0
  8199  0013' 0083'              	movwf	((_inPipes+1)^(0+128)+3)	;volatile
  8200  0014' 3012               	movlw	18
  8201  0015' 0083'              	movwf	(_inPipes^(0+128)+3)	;volatile
  8202                           
  8203                           ;mcc_generated_files/usb/usb_device.c: 2062:                 break;
  8204  0016' 2800'              	goto	i1l474
  8205  0017'                    i1l3658:
  8206                           
  8207                           ;mcc_generated_files/usb/usb_device.c: 2067:                 if(SetupPkt.bDscIndex < 1)
  8208  0017' 0852               	movf	82,w	;volatile
  8209  0018' 1D03               	btfss	3,2
  8210  0019' 2800'              	goto	u222_21
  8211  001A' 2800'              	goto	u222_20
  8212  001B'                    u222_21:
  8213  001B' 2800'              	goto	i1l3666
  8214  001C'                    u222_20:
  8215  001C'                    i1l3660:
  8216                           
  8217                           ;mcc_generated_files/usb/usb_device.c: 2068:                 {;mcc_generated_files/usb/u
      +                          sb_device.c: 2072:                         inPipes[0].pSrc.bRom = *(USB_CD_Ptr+SetupPkt.
      +                          bDscIndex);
  8218  001C' 0852               	movf	82,w	;volatile
  8219  001D' 0080'              	movwf	??_USBStdGetDscHandler
  8220  001E' 0181'              	clrf	??_USBStdGetDscHandler+1
  8221  001F' 3580'              	lslf	??_USBStdGetDscHandler,f
  8222  0020' 0D81'              	rlf	??_USBStdGetDscHandler+1,f
  8223  0021' 3000'              	movlw	low (_USB_CD_Ptr| (0+32768))
  8224  0022' 0700'              	addwf	??_USBStdGetDscHandler,w
  8225  0023' 0084               	movwf	4
  8226  0024' 3000'              	movlw	high (_USB_CD_Ptr| (0+32768))
  8227  0025' 3D01'              	addwfc	??_USBStdGetDscHandler+1,w
  8228  0026' 0085               	movwf	5
  8229  0027' 3F00               	moviw [0]fsr0
  8230  0028' 0021               	movlb	1	; select bank1
  8231  0029' 0080'              	movwf	_inPipes^(0+128)	;volatile
  8232  002A' 3F01               	moviw [1]fsr0
  8233  002B' 0080'              	movwf	(_inPipes+1)^(0+128)	;volatile
  8234  002C'                    i1l3662:
  8235                           
  8236                           ;mcc_generated_files/usb/usb_device.c: 2078:                     inPipes[0].wCount.byte.
      +                          LB = *(inPipes[0].pSrc.bRom+2);
  8237  002C' 0800'              	movf	(_inPipes+1)^(0+128),w	;volatile
  8238  002D' 0081'              	movwf	??_USBStdGetDscHandler+1
  8239  002E' 0800'              	movf	_inPipes^(0+128),w	;volatile
  8240  002F' 0080'              	movwf	??_USBStdGetDscHandler
  8241  0030' 3002               	movlw	2
  8242  0031' 0700'              	addwf	??_USBStdGetDscHandler,w
  8243  0032' 0084               	movwf	4
  8244  0033' 0801'              	movf	??_USBStdGetDscHandler+1,w
  8245  0034' 1803               	skipnc
  8246  0035' 0A01'              	incf	??_USBStdGetDscHandler+1,w
  8247  0036' 0085               	movwf	5
  8248  0037' 0800               	movf	0,w	;code access
  8249  0038' 0082'              	movwf	??_USBStdGetDscHandler+2
  8250  0039' 0802'              	movf	??_USBStdGetDscHandler+2,w
  8251  003A' 0083'              	movwf	(_inPipes^(0+128)+3)	;volatile
  8252  003B'                    i1l3664:
  8253                           
  8254                           ;mcc_generated_files/usb/usb_device.c: 2079:                     inPipes[0].wCount.byte.
      +                          HB = *(inPipes[0].pSrc.bRom+3);
  8255  003B' 0800'              	movf	(_inPipes+1)^(0+128),w	;volatile
  8256  003C' 0081'              	movwf	??_USBStdGetDscHandler+1
  8257  003D' 0800'              	movf	_inPipes^(0+128),w	;volatile
  8258  003E' 0080'              	movwf	??_USBStdGetDscHandler
  8259  003F' 3003               	movlw	3
  8260  0040' 0700'              	addwf	??_USBStdGetDscHandler,w
  8261  0041' 0084               	movwf	4
  8262  0042' 0801'              	movf	??_USBStdGetDscHandler+1,w
  8263  0043' 1803               	skipnc
  8264  0044' 0A01'              	incf	??_USBStdGetDscHandler+1,w
  8265  0045' 0085               	movwf	5
  8266  0046' 0800               	movf	0,w	;code access
  8267  0047' 0082'              	movwf	??_USBStdGetDscHandler+2
  8268  0048' 0802'              	movf	??_USBStdGetDscHandler+2,w
  8269  0049' 0084'              	movwf	(_inPipes^(0+128)+4)	;volatile
  8270                           
  8271                           ;mcc_generated_files/usb/usb_device.c: 2080:                 }
  8272  004A' 2800'              	goto	i1l474
  8273  004B'                    i1l3666:
  8274                           
  8275                           ;mcc_generated_files/usb/usb_device.c: 2082:     {;mcc_generated_files/usb/usb_device.c:
      +                           2083:      inPipes[0].info.Val = 0;
  8276  004B' 0021               	movlb	1	; select bank1
  8277  004C' 0182'              	clrf	(_inPipes^(0+128)+2)	;volatile
  8278  004D' 2800'              	goto	i1l474
  8279  004E'                    i1l3668:
  8280                           
  8281                           ;mcc_generated_files/usb/usb_device.c: 2090:                 if(SetupPkt.bDscIndex<4)
  8282  004E' 3004               	movlw	4
  8283  004F' 0252               	subwf	82,w	;volatile
  8284  0050' 1803               	skipnc
  8285  0051' 2800'              	goto	u223_21
  8286  0052' 2800'              	goto	u223_20
  8287  0053'                    u223_21:
  8288  0053' 2800'              	goto	i1l3674
  8289  0054'                    u223_20:
  8290  0054'                    i1l3670:
  8291                           
  8292                           ;mcc_generated_files/usb/usb_device.c: 2091:                 {;mcc_generated_files/usb/u
      +                          sb_device.c: 2093:                     inPipes[0].pSrc.bRom = *(USB_SD_Ptr+SetupPkt.bDsc
      +                          Index);
  8293  0054' 0852               	movf	82,w	;volatile
  8294  0055' 0080'              	movwf	??_USBStdGetDscHandler
  8295  0056' 0181'              	clrf	??_USBStdGetDscHandler+1
  8296  0057' 3580'              	lslf	??_USBStdGetDscHandler,f
  8297  0058' 0D81'              	rlf	??_USBStdGetDscHandler+1,f
  8298  0059' 3000'              	movlw	low (_USB_SD_Ptr| (0+32768))
  8299  005A' 0700'              	addwf	??_USBStdGetDscHandler,w
  8300  005B' 0084               	movwf	4
  8301  005C' 3000'              	movlw	high (_USB_SD_Ptr| (0+32768))
  8302  005D' 3D01'              	addwfc	??_USBStdGetDscHandler+1,w
  8303  005E' 0085               	movwf	5
  8304  005F' 3F00               	moviw [0]fsr0
  8305  0060' 0021               	movlb	1	; select bank1
  8306  0061' 0080'              	movwf	_inPipes^(0+128)	;volatile
  8307  0062' 3F01               	moviw [1]fsr0
  8308  0063' 0080'              	movwf	(_inPipes+1)^(0+128)	;volatile
  8309  0064'                    i1l3672:
  8310                           
  8311                           ;mcc_generated_files/usb/usb_device.c: 2095:                     inPipes[0].wCount.Val =
      +                           *inPipes[0].pSrc.bRom;
  8312  0064' 0800'              	movf	_inPipes^(0+128),w	;volatile
  8313  0065' 0084               	movwf	4
  8314  0066' 0800'              	movf	(_inPipes+1)^(0+128),w	;volatile
  8315  0067' 0085               	movwf	5
  8316  0068' 0800               	movf	0,w	;code access
  8317  0069' 0080'              	movwf	??_USBStdGetDscHandler
  8318  006A' 0181'              	clrf	??_USBStdGetDscHandler+1
  8319  006B' 0800'              	movf	??_USBStdGetDscHandler,w
  8320  006C' 0083'              	movwf	(_inPipes^(0+128)+3)	;volatile
  8321  006D' 0801'              	movf	??_USBStdGetDscHandler+1,w
  8322  006E' 0083'              	movwf	((_inPipes+1)^(0+128)+3)	;volatile
  8323                           
  8324                           ;mcc_generated_files/usb/usb_device.c: 2096:                 }
  8325  006F' 2800'              	goto	i1l474
  8326  0070'                    i1l3674:
  8327                           
  8328                           ;mcc_generated_files/usb/usb_device.c: 2107:                 {;mcc_generated_files/usb/u
      +                          sb_device.c: 2108:                     inPipes[0].info.Val = 0;
  8329  0070' 0021               	movlb	1	; select bank1
  8330  0071' 0182'              	clrf	(_inPipes^(0+128)+2)	;volatile
  8331  0072' 2800'              	goto	i1l474
  8332  0073'                    i1l3676:
  8333                           
  8334                           ;mcc_generated_files/usb/usb_device.c: 2112:                 inPipes[0].info.Val = 0;
  8335  0073' 0021               	movlb	1	; select bank1
  8336  0074' 0182'              	clrf	(_inPipes^(0+128)+2)	;volatile
  8337                           
  8338                           ;mcc_generated_files/usb/usb_device.c: 2113:                 break;
  8339  0075' 2800'              	goto	i1l474
  8340  0076'                    i1l3680:
  8341  0076' 0020               	movlb	0	; select bank0
  8342  0077' 0853               	movf	83,w	;volatile
  8343  0078' 0080'              	movwf	??_USBStdGetDscHandler
  8344  0079' 0181'              	clrf	??_USBStdGetDscHandler+1
  8345                           
  8346                           ; Switch on 2 bytes has been partitioned into a top level switch of size 1, and 1 sub-sw
      +                          itches
  8347                           ; Switch size 1, requested type "simple"
  8348                           ; Number of cases is 1, Range of values is 0 to 0
  8349                           ; switch strategies available:
  8350                           ; Name         Instructions Cycles
  8351                           ; simple_byte            4     3 (average)
  8352                           ; direct_byte            8     6 (fixed)
  8353                           ; jumptable            260     6 (fixed)
  8354                           ;	Chosen strategy is simple_byte
  8355  007A' 0801'              	movf	??_USBStdGetDscHandler+1,w
  8356  007B' 3A00               	xorlw	0	; case 0
  8357  007C' 1903               	skipnz
  8358  007D' 2800'              	goto	i1l5586
  8359  007E' 2800'              	goto	i1l3676
  8360  007F'                    i1l5586:
  8361                           
  8362                           ; Switch size 1, requested type "simple"
  8363                           ; Number of cases is 3, Range of values is 1 to 3
  8364                           ; switch strategies available:
  8365                           ; Name         Instructions Cycles
  8366                           ; simple_byte           10     6 (average)
  8367                           ; direct_byte           15     9 (fixed)
  8368                           ; jumptable            263     9 (fixed)
  8369                           ;	Chosen strategy is simple_byte
  8370  007F' 0800'              	movf	??_USBStdGetDscHandler,w
  8371  0080' 3A01               	xorlw	1	; case 1
  8372  0081' 1903               	skipnz
  8373  0082' 2800'              	goto	i1l3654
  8374  0083' 3A03               	xorlw	3	; case 2
  8375  0084' 1903               	skipnz
  8376  0085' 2800'              	goto	i1l3658
  8377  0086' 3A01               	xorlw	1	; case 3
  8378  0087' 1903               	skipnz
  8379  0088' 2800'              	goto	i1l3668
  8380  0089' 2800'              	goto	i1l3676
  8381  008A'                    i1l474:
  8382  008A' 0008               	return
  8383  008B'                    __end_of_USBStdGetDscHandler:
  8384                           
  8385                           	psect	text35
  8386  0000'                    __ptext35:	
  8387 ;; *************** function _USBStdFeatureReqHandler *****************
  8388 ;; Defined at:
  8389 ;;		line 2758 in file "mcc_generated_files/usb/usb_device.c"
  8390 ;; Parameters:    Size  Location     Type
  8391 ;;		None
  8392 ;; Auto vars:     Size  Location     Type
  8393 ;;  p               2   11[BANK0 ] PTR struct __BDT
  8394 ;;		 -> RAM(4096), NULL(0), BDT(48), 
  8395 ;;  pUEP            2    8[BANK0 ] PTR unsigned char 
  8396 ;;		 -> UEP0(1), 
  8397 ;;  current_ep_d    1   10[BANK0 ] struct .
  8398 ;; Return value:  Size  Location     Type
  8399 ;;                  1    wreg      void 
  8400 ;; Registers used:
  8401 ;;		wreg, fsr0l, fsr0h, fsr1l, fsr1h, status,2, status,0, pclath, cstack
  8402 ;; Tracked objects:
  8403 ;;		On entry : 0/0
  8404 ;;		On exit  : 0/0
  8405 ;;		Unchanged: 0/0
  8406 ;; Data sizes:     COMMON   BANK0   BANK1   BANK2   BANK3   BANK4   BANK5   BANK6   BANK7   BANK8   BANK9  BANK10  BANK1
      +1  BANK12
  8407 ;;      Params:         0       0       0       0       0       0       0       0       0       0       0       0       
      +0       0
  8408 ;;      Locals:         0       5       0       0       0       0       0       0       0       0       0       0       
      +0       0
  8409 ;;      Temps:          0       2       0       0       0       0       0       0       0       0       0       0       
      +0       0
  8410 ;;      Totals:         0       7       0       0       0       0       0       0       0       0       0       0       
      +0       0
  8411 ;;Total ram usage:        7 bytes
  8412 ;; Hardware stack levels used:    1
  8413 ;; Hardware stack levels required when called:    4
  8414 ;; This function calls:
  8415 ;;		_USER_USB_CALLBACK_EVENT_HANDLER
  8416 ;; This function is called by:
  8417 ;;		_USBCheckStdRequest
  8418 ;; This function uses a non-reentrant model
  8419 ;;
  8420                           
  8421                           
  8422                           ;psect for function _USBStdFeatureReqHandler
  8423  0000'                    _USBStdFeatureReqHandler:
  8424  0000'                    i1l3718:	
  8425                           ;incstack = 0
  8426                           ; Regs used in _USBStdFeatureReqHandler: [wreg-fsr1h+status,2+status,0+pclath+cstack]
  8427                           
  8428                           
  8429                           ;mcc_generated_files/usb/usb_device.c: 2760:     BDT_ENTRY *p;;mcc_generated_files/usb/u
      +                          sb_device.c: 2761:     EP_STATUS current_ep_data;;mcc_generated_files/usb/usb_device.c: 
      +                          2765:         unsigned char* pUEP;;mcc_generated_files/usb/usb_device.c: 2803:     if((S
      +                          etupPkt.bFeature == 1)&&
  8430  0000' 0020               	movlb	0	; select bank0
  8431  0001' 0352               	decf	82,w	;volatile
  8432  0002' 1D03               	btfss	3,2
  8433  0003' 2800'              	goto	u229_21
  8434  0004' 2800'              	goto	u229_20
  8435  0005'                    u229_21:
  8436  0005' 2800'              	goto	i1l3730
  8437  0006'                    u229_20:
  8438  0006'                    i1l3720:
  8439  0006' 0850               	movf	80,w	;volatile
  8440  0007' 391F               	andlw	31
  8441  0008' 3A00               	xorlw	0
  8442  0009' 1D03               	skipz
  8443  000A' 2800'              	goto	u230_21
  8444  000B' 2800'              	goto	u230_20
  8445  000C'                    u230_21:
  8446  000C' 2800'              	goto	i1l3730
  8447  000D'                    u230_20:
  8448  000D'                    i1l3722:
  8449                           
  8450                           ;mcc_generated_files/usb/usb_device.c: 2805:     {;mcc_generated_files/usb/usb_device.c:
      +                           2806:         inPipes[0].info.bits.busy = 1;
  8451  000D' 0021               	movlb	1	; select bank1
  8452  000E' 1782'              	bsf	(_inPipes^(0+128)+2),7	;volatile
  8453  000F'                    i1l3724:
  8454                           
  8455                           ;mcc_generated_files/usb/usb_device.c: 2807:         if(SetupPkt.bRequest == 3)
  8456  000F' 3003               	movlw	3
  8457  0010' 0020               	movlb	0	; select bank0
  8458  0011' 0651               	xorwf	81,w	;volatile
  8459  0012' 1D03               	btfss	3,2
  8460  0013' 2800'              	goto	u231_21
  8461  0014' 2800'              	goto	u231_20
  8462  0015'                    u231_21:
  8463  0015' 2800'              	goto	i1l3728
  8464  0016'                    u231_20:
  8465  0016'                    i1l3726:
  8466                           
  8467                           ;mcc_generated_files/usb/usb_device.c: 2808:             RemoteWakeup = 1;
  8468  0016' 3001               	movlw	1
  8469  0017' 0086'              	movwf	??_USBStdFeatureReqHandler
  8470  0018' 0806'              	movf	??_USBStdFeatureReqHandler,w
  8471  0019' 0023               	movlb	3	; select bank3
  8472  001A' 0080'              	movwf	_RemoteWakeup^(0+384)	;volatile
  8473  001B' 2800'              	goto	i1l3730
  8474  001C'                    i1l3728:
  8475                           
  8476                           ;mcc_generated_files/usb/usb_device.c: 2810:             RemoteWakeup = 0;
  8477  001C' 0023               	movlb	3	; select bank3
  8478  001D' 0180'              	clrf	_RemoteWakeup^(0+384)	;volatile
  8479  001E'                    i1l3730:
  8480                           
  8481                           ;mcc_generated_files/usb/usb_device.c: 2814:     if((SetupPkt.bFeature == 0)&&
  8482  001E' 0020               	movlb	0	; select bank0
  8483  001F' 0852               	movf	82,w	;volatile
  8484  0020' 1D03               	btfss	3,2
  8485  0021' 2800'              	goto	u232_21
  8486  0022' 2800'              	goto	u232_20
  8487  0023'                    u232_21:
  8488  0023' 2800'              	goto	i1l578
  8489  0024'                    u232_20:
  8490  0024'                    i1l3732:
  8491  0024' 0850               	movf	80,w	;volatile
  8492  0025' 391F               	andlw	31
  8493  0026' 3A02               	xorlw	2
  8494  0027' 1D03               	skipz
  8495  0028' 2800'              	goto	u233_21
  8496  0029' 2800'              	goto	u233_20
  8497  002A'                    u233_21:
  8498  002A' 2800'              	goto	i1l578
  8499  002B'                    u233_20:
  8500  002B'                    i1l3734:
  8501  002B' 0854               	movf	84,w	;volatile
  8502  002C' 390F               	andlw	15
  8503  002D' 3A00               	xorlw	0
  8504  002E' 1903               	skipnz
  8505  002F' 2800'              	goto	u234_21
  8506  0030' 2800'              	goto	u234_20
  8507  0031'                    u234_21:
  8508  0031' 2800'              	goto	i1l578
  8509  0032'                    u234_20:
  8510  0032'                    i1l3736:
  8511  0032' 0854               	movf	84,w	;volatile
  8512  0033' 390F               	andlw	15
  8513  0034' 0086'              	movwf	??_USBStdFeatureReqHandler
  8514  0035' 3003               	movlw	3
  8515  0036' 0206'              	subwf	??_USBStdFeatureReqHandler,w
  8516  0037' 1803               	skipnc
  8517  0038' 2800'              	goto	u235_21
  8518  0039' 2800'              	goto	u235_20
  8519  003A'                    u235_21:
  8520  003A' 2800'              	goto	i1l578
  8521  003B'                    u235_20:
  8522  003B'                    i1l3738:
  8523  003B' 3020               	movlw	32
  8524  003C' 0021               	movlb	1	; select bank1
  8525  003D' 0600'              	xorwf	_USBDeviceState^(0+128),w	;volatile
  8526  003E' 1D03               	btfss	3,2
  8527  003F' 2800'              	goto	u236_21
  8528  0040' 2800'              	goto	u236_20
  8529  0041'                    u236_21:
  8530  0041' 2800'              	goto	i1l578
  8531  0042'                    u236_20:
  8532  0042'                    i1l3740:
  8533                           
  8534                           ;mcc_generated_files/usb/usb_device.c: 2818:     {;mcc_generated_files/usb/usb_device.c:
      +                           2821:   inPipes[0].info.bits.busy = 1;
  8535  0042' 1782'              	bsf	(_inPipes^(0+128)+2),7	;volatile
  8536                           
  8537                           ;mcc_generated_files/usb/usb_device.c: 2824:         if(SetupPkt.EPDir == 0)
  8538  0043' 0020               	movlb	0	; select bank0
  8539  0044' 1BD4               	btfsc	84,7	;volatile
  8540  0045' 2800'              	goto	u237_21
  8541  0046' 2800'              	goto	u237_20
  8542  0047'                    u237_21:
  8543  0047' 2800'              	goto	i1l3744
  8544  0048'                    u237_20:
  8545  0048'                    i1l3742:
  8546                           
  8547                           ;mcc_generated_files/usb/usb_device.c: 2825:         {;mcc_generated_files/usb/usb_devic
      +                          e.c: 2826:             p = (BDT_ENTRY*)pBDTEntryOut[SetupPkt.EPNum];
  8548  0048' 0854               	movf	84,w	;volatile
  8549  0049' 390F               	andlw	15
  8550  004A' 0709               	addwf	9,w
  8551  004B' 3E00'              	addlw	(low (_pBDTEntryOut| (0+256)))& (0+255)
  8552  004C' 0086               	movwf	6
  8553  004D' 3001               	movlw	1	; select bank3/4
  8554  004E' 0087               	movwf	7
  8555  004F' 3F40               	moviw [0]fsr1
  8556  0050' 008B'              	movwf	USBStdFeatureReqHandler@p
  8557  0051' 3F41               	moviw [1]fsr1
  8558  0052' 008C'              	movwf	USBStdFeatureReqHandler@p+1
  8559                           
  8560                           ;mcc_generated_files/usb/usb_device.c: 2827:             current_ep_data.Val = ep_data_o
      +                          ut[SetupPkt.EPNum].Val;
  8561  0053' 0854               	movf	84,w	;volatile
  8562  0054' 390F               	andlw	15
  8563  0055' 3E00'              	addlw	(low (_ep_data_out| (0+256)))& (0+255)
  8564  0056' 0086               	movwf	6
  8565  0057' 3001               	movlw	1	; select bank3/4
  8566  0058' 0087               	movwf	7
  8567  0059' 0801               	movf	1,w
  8568  005A' 0086'              	movwf	??_USBStdFeatureReqHandler
  8569  005B' 0806'              	movf	??_USBStdFeatureReqHandler,w
  8570  005C' 008A'              	movwf	USBStdFeatureReqHandler@current_ep_data
  8571                           
  8572                           ;mcc_generated_files/usb/usb_device.c: 2828:         }
  8573  005D' 2800'              	goto	i1l3746
  8574  005E'                    i1l3744:
  8575                           
  8576                           ;mcc_generated_files/usb/usb_device.c: 2830:         {;mcc_generated_files/usb/usb_devic
      +                          e.c: 2831:             p = (BDT_ENTRY*)pBDTEntryIn[SetupPkt.EPNum];
  8577  005E' 0854               	movf	84,w	;volatile
  8578  005F' 390F               	andlw	15
  8579  0060' 0709               	addwf	9,w
  8580  0061' 3E00'              	addlw	(low (_pBDTEntryIn| 0))& (0+255)
  8581  0062' 0086               	movwf	6
  8582  0063' 0187               	clrf	7
  8583  0064' 3F40               	moviw [0]fsr1
  8584  0065' 008B'              	movwf	USBStdFeatureReqHandler@p
  8585  0066' 3F41               	moviw [1]fsr1
  8586  0067' 008C'              	movwf	USBStdFeatureReqHandler@p+1
  8587                           
  8588                           ;mcc_generated_files/usb/usb_device.c: 2832:             current_ep_data.Val = ep_data_i
      +                          n[SetupPkt.EPNum].Val;
  8589  0068' 0854               	movf	84,w	;volatile
  8590  0069' 390F               	andlw	15
  8591  006A' 3E00'              	addlw	(low (_ep_data_in| (0+256)))& (0+255)
  8592  006B' 0086               	movwf	6
  8593  006C' 3001               	movlw	1	; select bank3/4
  8594  006D' 0087               	movwf	7
  8595  006E' 0801               	movf	1,w
  8596  006F' 0086'              	movwf	??_USBStdFeatureReqHandler
  8597  0070' 0806'              	movf	??_USBStdFeatureReqHandler,w
  8598  0071' 008A'              	movwf	USBStdFeatureReqHandler@current_ep_data
  8599  0072'                    i1l3746:
  8600                           
  8601                           ;mcc_generated_files/usb/usb_device.c: 2839:             if(current_ep_data.bits.ping_po
      +                          ng_state == 0)
  8602  0072' 180A'              	btfsc	USBStdFeatureReqHandler@current_ep_data,0
  8603  0073' 2800'              	goto	u238_21
  8604  0074' 2800'              	goto	u238_20
  8605  0075'                    u238_21:
  8606  0075' 2800'              	goto	i1l3750
  8607  0076'                    u238_20:
  8608  0076'                    i1l3748:
  8609                           
  8610                           ;mcc_generated_files/usb/usb_device.c: 2840:             {;mcc_generated_files/usb/usb_d
      +                          evice.c: 2841:                 p = (BDT_ENTRY*)(((uint16_t)p) & (~0x0004));
  8611  0076' 30FB               	movlw	251
  8612  0077' 0086'              	movwf	??_USBStdFeatureReqHandler
  8613  0078' 30FF               	movlw	255
  8614  0079' 0087'              	movwf	??_USBStdFeatureReqHandler+1
  8615  007A' 080B'              	movf	USBStdFeatureReqHandler@p,w
  8616  007B' 0506'              	andwf	??_USBStdFeatureReqHandler,w
  8617  007C' 008B'              	movwf	USBStdFeatureReqHandler@p
  8618  007D' 080C'              	movf	USBStdFeatureReqHandler@p+1,w
  8619  007E' 0507'              	andwf	??_USBStdFeatureReqHandler+1,w
  8620  007F' 008C'              	movwf	USBStdFeatureReqHandler@p+1
  8621                           
  8622                           ;mcc_generated_files/usb/usb_device.c: 2842:             }
  8623  0080' 2800'              	goto	i1l3752
  8624  0081'                    i1l3750:
  8625                           
  8626                           ;mcc_generated_files/usb/usb_device.c: 2844:             {;mcc_generated_files/usb/usb_d
      +                          evice.c: 2845:                 p = (BDT_ENTRY*)(((uint16_t)p) | 0x0004);
  8627  0081' 3004               	movlw	4
  8628  0082' 040B'              	iorwf	USBStdFeatureReqHandler@p,w
  8629  0083' 008B'              	movwf	USBStdFeatureReqHandler@p
  8630  0084' 3000               	movlw	0
  8631  0085' 040C'              	iorwf	USBStdFeatureReqHandler@p+1,w
  8632  0086' 008C'              	movwf	USBStdFeatureReqHandler@p+1
  8633  0087'                    i1l3752:
  8634                           
  8635                           ;mcc_generated_files/usb/usb_device.c: 2851:         if(SetupPkt.EPDir == 0)
  8636  0087' 1BD4               	btfsc	84,7	;volatile
  8637  0088' 2800'              	goto	u239_21
  8638  0089' 2800'              	goto	u239_20
  8639  008A'                    u239_21:
  8640  008A' 2800'              	goto	i1l3756
  8641  008B'                    u239_20:
  8642  008B'                    i1l3754:
  8643                           
  8644                           ;mcc_generated_files/usb/usb_device.c: 2852:         {;mcc_generated_files/usb/usb_devic
      +                          e.c: 2853:             pBDTEntryOut[SetupPkt.EPNum] = (volatile BDT_ENTRY *)p;
  8645  008B' 0854               	movf	84,w	;volatile
  8646  008C' 390F               	andlw	15
  8647  008D' 0709               	addwf	9,w
  8648  008E' 3E00'              	addlw	(low (_pBDTEntryOut| (0+256)))& (0+255)
  8649  008F' 0086               	movwf	6
  8650  0090' 3001               	movlw	1	; select bank3/4
  8651  0091' 0087               	movwf	7
  8652  0092' 080B'              	movf	USBStdFeatureReqHandler@p,w
  8653  0093' 3FC0               	movwi [0]fsr1
  8654  0094' 080C'              	movf	USBStdFeatureReqHandler@p+1,w
  8655  0095' 3FC1               	movwi [1]fsr1
  8656                           
  8657                           ;mcc_generated_files/usb/usb_device.c: 2854:         }
  8658  0096' 2800'              	goto	i1l3758
  8659  0097'                    i1l3756:
  8660                           
  8661                           ;mcc_generated_files/usb/usb_device.c: 2856:         {;mcc_generated_files/usb/usb_devic
      +                          e.c: 2857:             pBDTEntryIn[SetupPkt.EPNum] = (volatile BDT_ENTRY *)p;
  8662  0097' 0854               	movf	84,w	;volatile
  8663  0098' 390F               	andlw	15
  8664  0099' 0709               	addwf	9,w
  8665  009A' 3E00'              	addlw	(low (_pBDTEntryIn| 0))& (0+255)
  8666  009B' 0086               	movwf	6
  8667  009C' 0187               	clrf	7
  8668  009D' 080B'              	movf	USBStdFeatureReqHandler@p,w
  8669  009E' 3FC0               	movwi [0]fsr1
  8670  009F' 080C'              	movf	USBStdFeatureReqHandler@p+1,w
  8671  00A0' 3FC1               	movwi [1]fsr1
  8672  00A1'                    i1l3758:
  8673                           
  8674                           ;mcc_generated_files/usb/usb_device.c: 2861:         if(SetupPkt.bRequest == 3)
  8675  00A1' 3003               	movlw	3
  8676  00A2' 0651               	xorwf	81,w	;volatile
  8677  00A3' 1D03               	btfss	3,2
  8678  00A4' 2800'              	goto	u240_21
  8679  00A5' 2800'              	goto	u240_20
  8680  00A6'                    u240_21:
  8681  00A6' 2800'              	goto	i1l3772
  8682  00A7'                    u240_20:
  8683  00A7'                    i1l3760:
  8684                           
  8685                           ;mcc_generated_files/usb/usb_device.c: 2862:         {;mcc_generated_files/usb/usb_devic
      +                          e.c: 2863:             if(p->STAT.UOWN == 1)
  8686  00A7' 080B'              	movf	USBStdFeatureReqHandler@p,w
  8687  00A8' 0086               	movwf	6
  8688  00A9' 080C'              	movf	USBStdFeatureReqHandler@p+1,w
  8689  00AA' 0087               	movwf	7
  8690  00AB' 1F81               	btfss	1,7
  8691  00AC' 2800'              	goto	u241_21
  8692  00AD' 2800'              	goto	u241_20
  8693  00AE'                    u241_21:
  8694  00AE' 2800'              	goto	i1l3768
  8695  00AF'                    u241_20:
  8696  00AF'                    i1l3762:
  8697                           
  8698                           ;mcc_generated_files/usb/usb_device.c: 2864:             {;mcc_generated_files/usb/usb_d
      +                          evice.c: 2867:                 if(SetupPkt.EPDir == 0)
  8699  00AF' 1BD4               	btfsc	84,7	;volatile
  8700  00B0' 2800'              	goto	u242_21
  8701  00B1' 2800'              	goto	u242_20
  8702  00B2'                    u242_21:
  8703  00B2' 2800'              	goto	i1l3766
  8704  00B3'                    u242_20:
  8705  00B3'                    i1l3764:
  8706                           
  8707                           ;mcc_generated_files/usb/usb_device.c: 2868:                 {;mcc_generated_files/usb/u
      +                          sb_device.c: 2869:                     ep_data_out[SetupPkt.EPNum].bits.transfer_termina
      +                          ted = 1;
  8708  00B3' 0854               	movf	84,w	;volatile
  8709  00B4' 390F               	andlw	15
  8710  00B5' 3E00'              	addlw	(low (_ep_data_out| (0+256)))& (0+255)
  8711  00B6' 0086               	movwf	6
  8712  00B7' 3001               	movlw	1	; select bank3/4
  8713  00B8' 0087               	movwf	7
  8714  00B9' 1481               	bsf	1,1
  8715                           
  8716                           ;mcc_generated_files/usb/usb_device.c: 2870:                 }
  8717  00BA' 2800'              	goto	i1l3768
  8718  00BB'                    i1l3766:
  8719                           
  8720                           ;mcc_generated_files/usb/usb_device.c: 2872:                 {;mcc_generated_files/usb/u
      +                          sb_device.c: 2873:                     ep_data_in[SetupPkt.EPNum].bits.transfer_terminat
      +                          ed = 1;
  8721  00BB' 0854               	movf	84,w	;volatile
  8722  00BC' 390F               	andlw	15
  8723  00BD' 3E00'              	addlw	(low (_ep_data_in| (0+256)))& (0+255)
  8724  00BE' 0086               	movwf	6
  8725  00BF' 3001               	movlw	1	; select bank3/4
  8726  00C0' 0087               	movwf	7
  8727  00C1' 1481               	bsf	1,1
  8728  00C2'                    i1l3768:
  8729                           
  8730                           ;mcc_generated_files/usb/usb_device.c: 2878:             p->STAT.Val |= 0x04;
  8731  00C2' 080B'              	movf	USBStdFeatureReqHandler@p,w
  8732  00C3' 0086               	movwf	6
  8733  00C4' 080C'              	movf	USBStdFeatureReqHandler@p+1,w
  8734  00C5' 0087               	movwf	7
  8735  00C6' 1501               	bsf	1,2
  8736  00C7'                    i1l3770:
  8737                           
  8738                           ;mcc_generated_files/usb/usb_device.c: 2879:             p->STAT.Val |= 0x80;
  8739  00C7' 080B'              	movf	USBStdFeatureReqHandler@p,w
  8740  00C8' 0086               	movwf	6
  8741  00C9' 080C'              	movf	USBStdFeatureReqHandler@p+1,w
  8742  00CA' 0087               	movwf	7
  8743  00CB' 1781               	bsf	1,7
  8744                           
  8745                           ;mcc_generated_files/usb/usb_device.c: 2880:         }
  8746  00CC' 2800'              	goto	i1l578
  8747  00CD'                    i1l3772:
  8748                           
  8749                           ;mcc_generated_files/usb/usb_device.c: 2882:         {;mcc_generated_files/usb/usb_devic
      +                          e.c: 2886:                 p = (BDT_ENTRY*)(((uint16_t)p) ^ 0x0004);
  8750  00CD' 3004               	movlw	4
  8751  00CE' 060B'              	xorwf	USBStdFeatureReqHandler@p,w
  8752  00CF' 008B'              	movwf	USBStdFeatureReqHandler@p
  8753  00D0' 3000               	movlw	0
  8754  00D1' 060C'              	xorwf	USBStdFeatureReqHandler@p+1,w
  8755  00D2' 008C'              	movwf	USBStdFeatureReqHandler@p+1
  8756  00D3'                    i1l3774:
  8757                           
  8758                           ;mcc_generated_files/usb/usb_device.c: 2888:                 if(p->STAT.UOWN == 1)
  8759  00D3' 080B'              	movf	USBStdFeatureReqHandler@p,w
  8760  00D4' 0086               	movwf	6
  8761  00D5' 080C'              	movf	USBStdFeatureReqHandler@p+1,w
  8762  00D6' 0087               	movwf	7
  8763  00D7' 1F81               	btfss	1,7
  8764  00D8' 2800'              	goto	u243_21
  8765  00D9' 2800'              	goto	u243_20
  8766  00DA'                    u243_21:
  8767  00DA' 2800'              	goto	i1l3782
  8768  00DB'                    u243_20:
  8769  00DB'                    i1l3776:
  8770                           
  8771                           ;mcc_generated_files/usb/usb_device.c: 2889:                 {;mcc_generated_files/usb/u
      +                          sb_device.c: 2892:                     p->STAT.Val &= (~0x80);
  8772  00DB' 307F               	movlw	127
  8773  00DC' 0086'              	movwf	??_USBStdFeatureReqHandler
  8774  00DD' 080B'              	movf	USBStdFeatureReqHandler@p,w
  8775  00DE' 0086               	movwf	6
  8776  00DF' 080C'              	movf	USBStdFeatureReqHandler@p+1,w
  8777  00E0' 0087               	movwf	7
  8778  00E1' 0806'              	movf	??_USBStdFeatureReqHandler,w
  8779  00E2' 0581               	andwf	1,f
  8780  00E3'                    i1l3778:
  8781                           
  8782                           ;mcc_generated_files/usb/usb_device.c: 2893:                     p->STAT.Val |= 0x40;
  8783  00E3' 080B'              	movf	USBStdFeatureReqHandler@p,w
  8784  00E4' 0086               	movwf	6
  8785  00E5' 080C'              	movf	USBStdFeatureReqHandler@p+1,w
  8786  00E6' 0087               	movwf	7
  8787  00E7' 1701               	bsf	1,6
  8788  00E8'                    i1l3780:
  8789                           
  8790                           ;mcc_generated_files/usb/usb_device.c: 2894:                     USER_USB_CALLBACK_EVENT
      +                          _HANDLER((USB_EVENT)EVENT_TRANSFER_TERMINATED,p,sizeof(p));
  8791  00E8' 3005               	movlw	5
  8792  00E9' 0080'              	movwf	USER_USB_CALLBACK_EVENT_HANDLER@event
  8793  00EA' 3000               	movlw	0
  8794  00EB' 0081'              	movwf	USER_USB_CALLBACK_EVENT_HANDLER@event+1
  8795  00EC' 080C'              	movf	USBStdFeatureReqHandler@p+1,w
  8796  00ED' 0083'              	movwf	USER_USB_CALLBACK_EVENT_HANDLER@pdata+1
  8797  00EE' 080B'              	movf	USBStdFeatureReqHandler@p,w
  8798  00EF' 0082'              	movwf	USER_USB_CALLBACK_EVENT_HANDLER@pdata
  8799  00F0' 3002               	movlw	2
  8800  00F1' 0084'              	movwf	USER_USB_CALLBACK_EVENT_HANDLER@size
  8801  00F2' 3000               	movlw	0
  8802  00F3' 0085'              	movwf	USER_USB_CALLBACK_EVENT_HANDLER@size+1
  8803  00F4' 3180' 2000' 3180'  	fcall	_USER_USB_CALLBACK_EVENT_HANDLER
  8804                           
  8805                           ;mcc_generated_files/usb/usb_device.c: 2895:                 }
  8806  00F7' 2800'              	goto	i1l3784
  8807  00F8'                    i1l3782:
  8808                           
  8809                           ;mcc_generated_files/usb/usb_device.c: 2897:                 {;mcc_generated_files/usb/u
      +                          sb_device.c: 2899:      p->STAT.Val |= 0x40;
  8810  00F8' 080B'              	movf	USBStdFeatureReqHandler@p,w
  8811  00F9' 0086               	movwf	6
  8812  00FA' 080C'              	movf	USBStdFeatureReqHandler@p+1,w
  8813  00FB' 0087               	movwf	7
  8814  00FC' 1701               	bsf	1,6
  8815  00FD'                    i1l3784:
  8816                           
  8817                           ;mcc_generated_files/usb/usb_device.c: 2904:                 p = (BDT_ENTRY*)(((uint16_t
      +                          )p) ^ 0x0004);
  8818  00FD' 3004               	movlw	4
  8819  00FE' 0020               	movlb	0	; select bank0
  8820  00FF' 060B'              	xorwf	USBStdFeatureReqHandler@p,w
  8821  0100' 008B'              	movwf	USBStdFeatureReqHandler@p
  8822  0101' 3000               	movlw	0
  8823  0102' 060C'              	xorwf	USBStdFeatureReqHandler@p+1,w
  8824  0103' 008C'              	movwf	USBStdFeatureReqHandler@p+1
  8825  0104'                    i1l3786:
  8826                           
  8827                           ;mcc_generated_files/usb/usb_device.c: 2910:                 if((current_ep_data.bits.tr
      +                          ansfer_terminated != 0) || (p->STAT.UOWN == 1))
  8828  0104' 188A'              	btfsc	USBStdFeatureReqHandler@current_ep_data,1
  8829  0105' 2800'              	goto	u244_21
  8830  0106' 2800'              	goto	u244_20
  8831  0107'                    u244_21:
  8832  0107' 2800'              	goto	i1l574
  8833  0108'                    u244_20:
  8834  0108'                    i1l3788:
  8835  0108' 080B'              	movf	USBStdFeatureReqHandler@p,w
  8836  0109' 0086               	movwf	6
  8837  010A' 080C'              	movf	USBStdFeatureReqHandler@p+1,w
  8838  010B' 0087               	movwf	7
  8839  010C' 1F81               	btfss	1,7
  8840  010D' 2800'              	goto	u245_21
  8841  010E' 2800'              	goto	u245_20
  8842  010F'                    u245_21:
  8843  010F' 2800'              	goto	i1l3796
  8844  0110'                    u245_20:
  8845  0110'                    i1l574:
  8846                           
  8847                           ;mcc_generated_files/usb/usb_device.c: 2911:                 {;mcc_generated_files/usb/u
      +                          sb_device.c: 2912:                     if(SetupPkt.EPDir == 0)
  8848  0110' 1BD4               	btfsc	84,7	;volatile
  8849  0111' 2800'              	goto	u246_21
  8850  0112' 2800'              	goto	u246_20
  8851  0113'                    u246_21:
  8852  0113' 2800'              	goto	i1l3792
  8853  0114'                    u246_20:
  8854  0114'                    i1l3790:
  8855                           
  8856                           ;mcc_generated_files/usb/usb_device.c: 2913:                     {;mcc_generated_files/u
      +                          sb/usb_device.c: 2914:                         ep_data_out[SetupPkt.EPNum].bits.transfer
      +                          _terminated = 0;
  8857  0114' 0854               	movf	84,w	;volatile
  8858  0115' 390F               	andlw	15
  8859  0116' 3E00'              	addlw	(low (_ep_data_out| (0+256)))& (0+255)
  8860  0117' 0086               	movwf	6
  8861  0118' 3001               	movlw	1	; select bank3/4
  8862  0119' 0087               	movwf	7
  8863  011A' 1081               	bcf	1,1
  8864                           
  8865                           ;mcc_generated_files/usb/usb_device.c: 2915:                     }
  8866  011B' 2800'              	goto	i1l576
  8867  011C'                    i1l3792:
  8868                           
  8869                           ;mcc_generated_files/usb/usb_device.c: 2917:                     {;mcc_generated_files/u
      +                          sb/usb_device.c: 2918:                         ep_data_in[SetupPkt.EPNum].bits.transfer_
      +                          terminated = 0;
  8870  011C' 0854               	movf	84,w	;volatile
  8871  011D' 390F               	andlw	15
  8872  011E' 3E00'              	addlw	(low (_ep_data_in| (0+256)))& (0+255)
  8873  011F' 0086               	movwf	6
  8874  0120' 3001               	movlw	1	; select bank3/4
  8875  0121' 0087               	movwf	7
  8876  0122' 1081               	bcf	1,1
  8877  0123'                    i1l576:	
  8878                           ;mcc_generated_files/usb/usb_device.c: 2919:                     }
  8879                           
  8880                           
  8881                           ;mcc_generated_files/usb/usb_device.c: 2921:                     p->STAT.Val &= ~(0x80 |
      +                           0x40 | 0x04);
  8882  0123' 303B               	movlw	59
  8883  0124' 0086'              	movwf	??_USBStdFeatureReqHandler
  8884  0125' 080B'              	movf	USBStdFeatureReqHandler@p,w
  8885  0126' 0086               	movwf	6
  8886  0127' 080C'              	movf	USBStdFeatureReqHandler@p+1,w
  8887  0128' 0087               	movwf	7
  8888  0129' 0806'              	movf	??_USBStdFeatureReqHandler,w
  8889  012A' 0581               	andwf	1,f
  8890  012B'                    i1l3794:
  8891                           
  8892                           ;mcc_generated_files/usb/usb_device.c: 2924:                     USER_USB_CALLBACK_EVENT
      +                          _HANDLER((USB_EVENT)EVENT_TRANSFER_TERMINATED,p,sizeof(p));
  8893  012B' 3005               	movlw	5
  8894  012C' 0080'              	movwf	USER_USB_CALLBACK_EVENT_HANDLER@event
  8895  012D' 3000               	movlw	0
  8896  012E' 0081'              	movwf	USER_USB_CALLBACK_EVENT_HANDLER@event+1
  8897  012F' 080C'              	movf	USBStdFeatureReqHandler@p+1,w
  8898  0130' 0083'              	movwf	USER_USB_CALLBACK_EVENT_HANDLER@pdata+1
  8899  0131' 080B'              	movf	USBStdFeatureReqHandler@p,w
  8900  0132' 0082'              	movwf	USER_USB_CALLBACK_EVENT_HANDLER@pdata
  8901  0133' 3002               	movlw	2
  8902  0134' 0084'              	movwf	USER_USB_CALLBACK_EVENT_HANDLER@size
  8903  0135' 3000               	movlw	0
  8904  0136' 0085'              	movwf	USER_USB_CALLBACK_EVENT_HANDLER@size+1
  8905  0137' 3180' 2000' 3180'  	fcall	_USER_USB_CALLBACK_EVENT_HANDLER
  8906                           
  8907                           ;mcc_generated_files/usb/usb_device.c: 2925:                 }
  8908  013A' 2800'              	goto	i1l3798
  8909  013B'                    i1l3796:
  8910                           
  8911                           ;mcc_generated_files/usb/usb_device.c: 2927:                 {;mcc_generated_files/usb/u
      +                          sb_device.c: 2929:                     p->STAT.Val &= ~(0x80 | 0x40 | 0x04);
  8912  013B' 303B               	movlw	59
  8913  013C' 0086'              	movwf	??_USBStdFeatureReqHandler
  8914  013D' 080B'              	movf	USBStdFeatureReqHandler@p,w
  8915  013E' 0086               	movwf	6
  8916  013F' 080C'              	movf	USBStdFeatureReqHandler@p+1,w
  8917  0140' 0087               	movwf	7
  8918  0141' 0806'              	movf	??_USBStdFeatureReqHandler,w
  8919  0142' 0581               	andwf	1,f
  8920  0143'                    i1l3798:
  8921                           
  8922                           ;mcc_generated_files/usb/usb_device.c: 2977:                 pUEP = (unsigned char*)(&UE
      +                          P0+SetupPkt.EPNum);
  8923  0143' 0020               	movlb	0	; select bank0
  8924  0144' 0854               	movf	84,w	;volatile
  8925  0145' 390F               	andlw	15
  8926  0146' 3E98               	addlw	152
  8927  0147' 0086'              	movwf	??_USBStdFeatureReqHandler
  8928  0148' 0187'              	clrf	??_USBStdFeatureReqHandler+1
  8929  0149' 300E               	movlw	14
  8930  014A' 3D87'              	addwfc	??_USBStdFeatureReqHandler+1,f
  8931  014B' 0806'              	movf	??_USBStdFeatureReqHandler,w
  8932  014C' 0088'              	movwf	USBStdFeatureReqHandler@pUEP
  8933  014D' 0807'              	movf	??_USBStdFeatureReqHandler+1,w
  8934  014E' 0089'              	movwf	USBStdFeatureReqHandler@pUEP+1
  8935  014F'                    i1l3800:
  8936                           
  8937                           ;mcc_generated_files/usb/usb_device.c: 2981:             *pUEP &= ~0x0001;
  8938  014F' 30FE               	movlw	254
  8939  0150' 0086'              	movwf	??_USBStdFeatureReqHandler
  8940  0151' 0808'              	movf	USBStdFeatureReqHandler@pUEP,w
  8941  0152' 0086               	movwf	6
  8942  0153' 0809'              	movf	USBStdFeatureReqHandler@pUEP+1,w
  8943  0154' 0087               	movwf	7
  8944  0155' 0806'              	movf	??_USBStdFeatureReqHandler,w
  8945  0156' 0581               	andwf	1,f
  8946  0157'                    i1l578:
  8947  0157' 0008               	return
  8948  0158'                    __end_of_USBStdFeatureReqHandler:
  8949                           
  8950                           	psect	text36
  8951  0000'                    __ptext36:	
  8952 ;; *************** function _USER_USB_CALLBACK_EVENT_HANDLER *****************
  8953 ;; Defined at:
  8954 ;;		line 49 in file "mcc_generated_files/usb/usb_device_events.c"
  8955 ;; Parameters:    Size  Location     Type
  8956 ;;  event           2    0[BANK0 ] enum E46
  8957 ;;  pdata           2    2[BANK0 ] PTR void 
  8958 ;;		 -> RAM(4096), USTATcopy(1), USBActiveConfiguration(1), NULL(0), 
  8959 ;;		 -> BDT(48), 
  8960 ;;  size            2    4[BANK0 ] unsigned short 
  8961 ;; Auto vars:     Size  Location     Type
  8962 ;;		None
  8963 ;; Return value:  Size  Location     Type
  8964 ;;                  1    wreg      _Bool 
  8965 ;; Registers used:
  8966 ;;		wreg, fsr0l, fsr0h, fsr1l, fsr1h, status,2, status,0, pclath, cstack
  8967 ;; Tracked objects:
  8968 ;;		On entry : 0/0
  8969 ;;		On exit  : 0/0
  8970 ;;		Unchanged: 0/0
  8971 ;; Data sizes:     COMMON   BANK0   BANK1   BANK2   BANK3   BANK4   BANK5   BANK6   BANK7   BANK8   BANK9  BANK10  BANK1
      +1  BANK12
  8972 ;;      Params:         0       6       0       0       0       0       0       0       0       0       0       0       
      +0       0
  8973 ;;      Locals:         0       0       0       0       0       0       0       0       0       0       0       0       
      +0       0
  8974 ;;      Temps:          0       0       0       0       0       0       0       0       0       0       0       0       
      +0       0
  8975 ;;      Totals:         0       6       0       0       0       0       0       0       0       0       0       0       
      +0       0
  8976 ;;Total ram usage:        6 bytes
  8977 ;; Hardware stack levels used:    1
  8978 ;; Hardware stack levels required when called:    3
  8979 ;; This function calls:
  8980 ;;		_CDCInitEP
  8981 ;;		_USBCheckCDCRequest
  8982 ;; This function is called by:
  8983 ;;		_USBDeviceTasks
  8984 ;;		_USBStdSetCfgHandler
  8985 ;;		_USBSuspend
  8986 ;;		_USBWakeFromSuspend
  8987 ;;		_USBCtrlTrfSetupHandler
  8988 ;;		_USBCheckStdRequest
  8989 ;;		_USBStdFeatureReqHandler
  8990 ;; This function uses a non-reentrant model
  8991 ;;
  8992                           
  8993                           
  8994                           ;psect for function _USER_USB_CALLBACK_EVENT_HANDLER
  8995  0000'                    _USER_USB_CALLBACK_EVENT_HANDLER:
  8996  0000'                    i1l3438:	
  8997                           ;incstack = 0
  8998                           ; Regs used in _USER_USB_CALLBACK_EVENT_HANDLER: [wreg-fsr1h+status,2+status,0+pclath+cs
      +                          tack]
  8999                           
  9000                           
  9001                           ;mcc_generated_files/usb/usb_device_events.c: 49: _Bool USER_USB_CALLBACK_EVENT_HANDLER(
      +                          USB_EVENT event, void *pdata, uint16_t size);mcc_generated_files/usb/usb_device_events.c
      +                          : 50: {;mcc_generated_files/usb/usb_device_events.c: 51:     switch( (int) event )
  9002  0000' 2800'              	goto	i1l3446
  9003  0001'                    i1l3440:
  9004                           
  9005                           ;mcc_generated_files/usb/usb_device_events.c: 76:             CDCInitEP();
  9006  0001' 3180' 2000' 3180'  	fcall	_CDCInitEP
  9007                           
  9008                           ;mcc_generated_files/usb/usb_device_events.c: 77:             break;
  9009  0004' 2800'              	goto	i1l877
  9010  0005'                    i1l3442:
  9011                           
  9012                           ;mcc_generated_files/usb/usb_device_events.c: 85:             USBCheckCDCRequest();
  9013  0005' 3180' 2000' 3180'  	fcall	_USBCheckCDCRequest
  9014                           
  9015                           ;mcc_generated_files/usb/usb_device_events.c: 86:             break;
  9016  0008' 2800'              	goto	i1l877
  9017  0009'                    i1l3446:
  9018                           
  9019                           ; Switch on 2 bytes has been partitioned into a top level switch of size 1, and 2 sub-sw
      +                          itches
  9020                           ; Switch size 1, requested type "simple"
  9021                           ; Number of cases is 2, Range of values is 0 to 127
  9022                           ; switch strategies available:
  9023                           ; Name         Instructions Cycles
  9024                           ; simple_byte            7     4 (average)
  9025                           ; direct_byte          262     6 (fixed)
  9026                           ; jumptable            260     6 (fixed)
  9027                           ;	Chosen strategy is simple_byte
  9028  0009' 0020               	movlb	0	; select bank0
  9029  000A' 0801'              	movf	USER_USB_CALLBACK_EVENT_HANDLER@event+1,w
  9030  000B' 3A00               	xorlw	0	; case 0
  9031  000C' 1903               	skipnz
  9032  000D' 2800'              	goto	i1l5588
  9033  000E' 3A7F               	xorlw	127	; case 127
  9034  000F' 1903               	skipnz
  9035  0010' 2800'              	goto	i1l5590
  9036  0011' 2800'              	goto	i1l877
  9037  0012'                    i1l5588:
  9038                           
  9039                           ; Switch size 1, requested type "simple"
  9040                           ; Number of cases is 8, Range of values is 1 to 117
  9041                           ; switch strategies available:
  9042                           ; Name         Instructions Cycles
  9043                           ; simple_byte           25    13 (average)
  9044                           ; direct_byte          243     9 (fixed)
  9045                           ; jumptable            263     9 (fixed)
  9046                           ;	Chosen strategy is simple_byte
  9047  0012' 0800'              	movf	USER_USB_CALLBACK_EVENT_HANDLER@event,w
  9048  0013' 3A01               	xorlw	1	; case 1
  9049  0014' 1903               	skipnz
  9050  0015' 2800'              	goto	i1l3440
  9051  0016' 3A03               	xorlw	3	; case 2
  9052  0017' 1903               	skipnz
  9053  0018' 2800'              	goto	i1l877
  9054  0019' 3A01               	xorlw	1	; case 3
  9055  001A' 1903               	skipnz
  9056  001B' 2800'              	goto	i1l3442
  9057  001C' 3A06               	xorlw	6	; case 5
  9058  001D' 1903               	skipnz
  9059  001E' 2800'              	goto	i1l877
  9060  001F' 3A77               	xorlw	119	; case 114
  9061  0020' 1903               	skipnz
  9062  0021' 2800'              	goto	i1l877
  9063  0022' 3A01               	xorlw	1	; case 115
  9064  0023' 1903               	skipnz
  9065  0024' 2800'              	goto	i1l877
  9066  0025' 3A07               	xorlw	7	; case 116
  9067  0026' 1903               	skipnz
  9068  0027' 2800'              	goto	i1l877
  9069  0028' 3A01               	xorlw	1	; case 117
  9070  0029' 1903               	skipnz
  9071  002A' 2800'              	goto	i1l877
  9072  002B' 2800'              	goto	i1l877
  9073  002C'                    i1l5590:
  9074                           
  9075                           ; Switch size 1, requested type "simple"
  9076                           ; Number of cases is 1, Range of values is 255 to 255
  9077                           ; switch strategies available:
  9078                           ; Name         Instructions Cycles
  9079                           ; simple_byte            4     3 (average)
  9080                           ; direct_byte            7     5 (fixed)
  9081                           ; jumptable            263     9 (fixed)
  9082                           ;	Chosen strategy is simple_byte
  9083  002C' 0800'              	movf	USER_USB_CALLBACK_EVENT_HANDLER@event,w
  9084  002D' 3AFF               	xorlw	255	; case 255
  9085  002E' 1903               	skipnz
  9086  002F' 2800'              	goto	i1l877
  9087  0030' 2800'              	goto	i1l877
  9088  0031'                    i1l877:
  9089  0031' 0008               	return
  9090  0032'                    __end_of_USER_USB_CALLBACK_EVENT_HANDLER:
  9091                           
  9092                           	psect	text37
  9093  0000'                    __ptext37:	
  9094 ;; *************** function _USBCheckCDCRequest *****************
  9095 ;; Defined at:
  9096 ;;		line 147 in file "mcc_generated_files/usb/usb_device_cdc.c"
  9097 ;; Parameters:    Size  Location     Type
  9098 ;;		None
  9099 ;; Auto vars:     Size  Location     Type
  9100 ;;		None
  9101 ;; Return value:  Size  Location     Type
  9102 ;;                  1    wreg      void 
  9103 ;; Registers used:
  9104 ;;		wreg, fsr0l, fsr0h, status,2, status,0
  9105 ;; Tracked objects:
  9106 ;;		On entry : 0/0
  9107 ;;		On exit  : 0/0
  9108 ;;		Unchanged: 0/0
  9109 ;; Data sizes:     COMMON   BANK0   BANK1   BANK2   BANK3   BANK4   BANK5   BANK6   BANK7   BANK8   BANK9  BANK10  BANK1
      +1  BANK12
  9110 ;;      Params:         0       0       0       0       0       0       0       0       0       0       0       0       
      +0       0
  9111 ;;      Locals:         0       0       0       0       0       0       0       0       0       0       0       0       
      +0       0
  9112 ;;      Temps:          2       0       0       0       0       0       0       0       0       0       0       0       
      +0       0
  9113 ;;      Totals:         2       0       0       0       0       0       0       0       0       0       0       0       
      +0       0
  9114 ;;Total ram usage:        2 bytes
  9115 ;; Hardware stack levels used:    1
  9116 ;; This function calls:
  9117 ;;		Nothing
  9118 ;; This function is called by:
  9119 ;;		_USER_USB_CALLBACK_EVENT_HANDLER
  9120 ;; This function uses a non-reentrant model
  9121 ;;
  9122                           
  9123                           
  9124                           ;psect for function _USBCheckCDCRequest
  9125  0000'                    _USBCheckCDCRequest:
  9126  0000'                    i1l3370:	
  9127                           ;incstack = 0
  9128                           ; Regs used in _USBCheckCDCRequest: [wreg-fsr0h+status,2+status,0]
  9129                           
  9130                           
  9131                           ;mcc_generated_files/usb/usb_device_cdc.c: 152:     if(SetupPkt.Recipient != (0x01)) ret
      +                          urn;
  9132  0000' 0020               	movlb	0	; select bank0
  9133  0001' 0850               	movf	80,w	;volatile
  9134  0002' 391F               	andlw	31
  9135  0003' 3A01               	xorlw	1
  9136  0004' 1903               	skipnz
  9137  0005' 2800'              	goto	u197_21
  9138  0006' 2800'              	goto	u197_20
  9139  0007'                    u197_21:
  9140  0007' 2800'              	goto	i1l3374
  9141  0008'                    u197_20:
  9142  0008' 2800'              	goto	i1l770
  9143  0009'                    i1l3374:
  9144                           
  9145                           ;mcc_generated_files/usb/usb_device_cdc.c: 157:     if(SetupPkt.RequestType != (0x20>>5)
      +                          ) return;
  9146  0009' 0E50               	swapf	80,w	;volatile
  9147  000A' 0C89               	rrf	9,f
  9148  000B' 3903               	andlw	3
  9149  000C' 3A01               	xorlw	1
  9150  000D' 1903               	skipnz
  9151  000E' 2800'              	goto	u198_21
  9152  000F' 2800'              	goto	u198_20
  9153  0010'                    u198_21:
  9154  0010' 2800'              	goto	i1l3378
  9155  0011'                    u198_20:
  9156  0011' 2800'              	goto	i1l770
  9157  0012'                    i1l3378:
  9158                           
  9159                           ;mcc_generated_files/usb/usb_device_cdc.c: 163:     if((SetupPkt.bIntfID != 0x0)&&
  9160  0012' 0854               	movf	84,w	;volatile
  9161  0013' 1903               	btfsc	3,2
  9162  0014' 2800'              	goto	u199_21
  9163  0015' 2800'              	goto	u199_20
  9164  0016'                    u199_21:
  9165  0016' 2800'              	goto	i1l3414
  9166  0017'                    u199_20:
  9167  0017'                    i1l3380:
  9168  0017' 0354               	decf	84,w	;volatile
  9169  0018' 1903               	btfsc	3,2
  9170  0019' 2800'              	goto	u200_21
  9171  001A' 2800'              	goto	u200_20
  9172  001B'                    u200_21:
  9173  001B' 2800'              	goto	i1l3414
  9174  001C'                    u200_20:
  9175  001C' 2800'              	goto	i1l770
  9176  001D'                    i1l3384:
  9177                           
  9178                           ;mcc_generated_files/usb/usb_device_cdc.c: 171:             inPipes[0].pSrc.bRam = (uint
      +                          8_t*)&dummy_encapsulated_cmd_response;
  9179  001D' 3000'              	movlw	low _dummy_encapsulated_cmd_response
  9180  001E' 0021               	movlb	1	; select bank1
  9181  001F' 0080'              	movwf	_inPipes^(0+128)	;volatile
  9182  0020' 3000'              	movlw	high _dummy_encapsulated_cmd_response
  9183  0021' 0080'              	movwf	(_inPipes+1)^(0+128)	;volatile
  9184  0022'                    i1l3386:
  9185                           
  9186                           ;mcc_generated_files/usb/usb_device_cdc.c: 172:             inPipes[0].wCount.Val = 0x08
      +                          ;
  9187  0022' 3000               	movlw	0
  9188  0023' 0083'              	movwf	((_inPipes+1)^(0+128)+3)	;volatile
  9189  0024' 3008               	movlw	8
  9190  0025' 0083'              	movwf	(_inPipes^(0+128)+3)	;volatile
  9191  0026'                    i1l3388:
  9192                           
  9193                           ;mcc_generated_files/usb/usb_device_cdc.c: 173:             inPipes[0].info.bits.ctrl_tr
      +                          f_mem = 0x01;
  9194  0026' 1402'              	bsf	(_inPipes^(0+128)+2),0	;volatile
  9195  0027'                    i1l3390:
  9196                           
  9197                           ;mcc_generated_files/usb/usb_device_cdc.c: 174:             inPipes[0].info.bits.busy = 
      +                          1;
  9198  0027' 1782'              	bsf	(_inPipes^(0+128)+2),7	;volatile
  9199                           
  9200                           ;mcc_generated_files/usb/usb_device_cdc.c: 175:             break;
  9201  0028' 2800'              	goto	i1l770
  9202  0029'                    i1l3392:
  9203                           
  9204                           ;mcc_generated_files/usb/usb_device_cdc.c: 178:             inPipes[0].pSrc.bRam = (uint
      +                          8_t*)&dummy_encapsulated_cmd_response;
  9205  0029' 3000'              	movlw	low _dummy_encapsulated_cmd_response
  9206  002A' 0021               	movlb	1	; select bank1
  9207  002B' 0080'              	movwf	_inPipes^(0+128)	;volatile
  9208  002C' 3000'              	movlw	high _dummy_encapsulated_cmd_response
  9209  002D' 0080'              	movwf	(_inPipes+1)^(0+128)	;volatile
  9210  002E'                    i1l3394:
  9211                           
  9212                           ;mcc_generated_files/usb/usb_device_cdc.c: 179:             inPipes[0].info.bits.busy = 
      +                          1;
  9213  002E' 1782'              	bsf	(_inPipes^(0+128)+2),7	;volatile
  9214                           
  9215                           ;mcc_generated_files/usb/usb_device_cdc.c: 180:             break;
  9216  002F' 2800'              	goto	i1l770
  9217  0030'                    i1l3396:
  9218                           
  9219                           ;mcc_generated_files/usb/usb_device_cdc.c: 185:             outPipes[0].wCount.Val = Set
      +                          upPkt.wLength;
  9220  0030' 0857               	movf	87,w	;volatile
  9221  0031' 0021               	movlb	1	; select bank1
  9222  0032' 0083'              	movwf	((_outPipes+1)^(0+128)+3)	;volatile
  9223  0033' 0020               	movlb	0	; select bank0
  9224  0034' 0856               	movf	86,w	;volatile
  9225  0035' 0021               	movlb	1	; select bank1
  9226  0036' 0083'              	movwf	(_outPipes^(0+128)+3)	;volatile
  9227                           
  9228                           ;mcc_generated_files/usb/usb_device_cdc.c: 186:             outPipes[0].pDst.bRam = (uin
      +                          t8_t*)&line_coding._byte[0];
  9229  0037' 3000'              	movlw	(low (_line_coding| (0+256)))& (0+255)
  9230  0038' 0080'              	movwf	??_USBCheckCDCRequest
  9231  0039' 0800'              	movf	??_USBCheckCDCRequest,w
  9232  003A' 0080'              	movwf	_outPipes^(0+128)	;volatile
  9233  003B'                    i1l3398:
  9234                           
  9235                           ;mcc_generated_files/usb/usb_device_cdc.c: 187:             outPipes[0].pFunc = ((void*)
      +                          0);
  9236  003B' 0180'              	clrf	(low ((_outPipes| 0+5)))^(0+128)	;volatile
  9237  003C' 0180'              	clrf	((low ((_outPipes| 0+5))+1))^(0+128)	;volatile
  9238  003D'                    i1l3400:
  9239                           
  9240                           ;mcc_generated_files/usb/usb_device_cdc.c: 188:             outPipes[0].info.bits.busy =
      +                           1;
  9241  003D' 1782'              	bsf	(_outPipes^(0+128)+2),7	;volatile
  9242                           
  9243                           ;mcc_generated_files/usb/usb_device_cdc.c: 189:             break;
  9244  003E' 2800'              	goto	i1l770
  9245  003F'                    i1l3402:
  9246                           
  9247                           ;mcc_generated_files/usb/usb_device_cdc.c: 192:             { inPipes[0].pSrc.bRam = (ui
      +                          nt8_t*)&line_coding; inPipes[0].wCount.Val = 0x07; inPipes[0].info.Val = 0x40 | 0x80 | 0
      +                          x01; };
  9248  003F' 3000'              	movlw	low _line_coding
  9249  0040' 0021               	movlb	1	; select bank1
  9250  0041' 0080'              	movwf	_inPipes^(0+128)	;volatile
  9251  0042' 3000'              	movlw	high _line_coding
  9252  0043' 0080'              	movwf	(_inPipes+1)^(0+128)	;volatile
  9253  0044'                    i1l3404:
  9254  0044' 3000               	movlw	0
  9255  0045' 0083'              	movwf	((_inPipes+1)^(0+128)+3)	;volatile
  9256  0046' 3007               	movlw	7
  9257  0047' 0083'              	movwf	(_inPipes^(0+128)+3)	;volatile
  9258  0048'                    i1l3406:
  9259  0048' 30C1               	movlw	193
  9260  0049' 0080'              	movwf	??_USBCheckCDCRequest
  9261  004A' 0800'              	movf	??_USBCheckCDCRequest,w
  9262  004B' 0082'              	movwf	(_inPipes^(0+128)+2)	;volatile
  9263                           
  9264                           ;mcc_generated_files/usb/usb_device_cdc.c: 196:             break;
  9265  004C' 2800'              	goto	i1l770
  9266  004D'                    i1l3408:
  9267                           
  9268                           ;mcc_generated_files/usb/usb_device_cdc.c: 199:             control_signal_bitmap._byte 
      +                          = (uint8_t)SetupPkt.wValue;
  9269  004D' 0852               	movf	82,w	;volatile
  9270  004E' 0080'              	movwf	??_USBCheckCDCRequest
  9271  004F' 0800'              	movf	??_USBCheckCDCRequest,w
  9272  0050' 0023               	movlb	3	; select bank3
  9273  0051' 0080'              	movwf	_control_signal_bitmap^(0+384)
  9274  0052'                    i1l3410:
  9275                           
  9276                           ;mcc_generated_files/usb/usb_device_cdc.c: 231:             inPipes[0].info.bits.busy = 
      +                          1;
  9277  0052' 0021               	movlb	1	; select bank1
  9278  0053' 1782'              	bsf	(_inPipes^(0+128)+2),7	;volatile
  9279                           
  9280                           ;mcc_generated_files/usb/usb_device_cdc.c: 232:             break;
  9281  0054' 2800'              	goto	i1l770
  9282  0055'                    i1l3414:
  9283  0055' 0851               	movf	81,w	;volatile
  9284  0056' 0080'              	movwf	??_USBCheckCDCRequest
  9285  0057' 0181'              	clrf	??_USBCheckCDCRequest+1
  9286                           
  9287                           ; Switch on 2 bytes has been partitioned into a top level switch of size 1, and 1 sub-sw
      +                          itches
  9288                           ; Switch size 1, requested type "simple"
  9289                           ; Number of cases is 1, Range of values is 0 to 0
  9290                           ; switch strategies available:
  9291                           ; Name         Instructions Cycles
  9292                           ; simple_byte            4     3 (average)
  9293                           ; direct_byte            8     6 (fixed)
  9294                           ; jumptable            260     6 (fixed)
  9295                           ;	Chosen strategy is simple_byte
  9296  0058' 0801'              	movf	??_USBCheckCDCRequest+1,w
  9297  0059' 3A00               	xorlw	0	; case 0
  9298  005A' 1903               	skipnz
  9299  005B' 2800'              	goto	i1l5592
  9300  005C' 2800'              	goto	i1l770
  9301  005D'                    i1l5592:
  9302                           
  9303                           ; Switch size 1, requested type "simple"
  9304                           ; Number of cases is 5, Range of values is 0 to 34
  9305                           ; switch strategies available:
  9306                           ; Name         Instructions Cycles
  9307                           ; simple_byte           16     9 (average)
  9308                           ; direct_byte           76     6 (fixed)
  9309                           ; jumptable            260     6 (fixed)
  9310                           ;	Chosen strategy is simple_byte
  9311  005D' 0800'              	movf	??_USBCheckCDCRequest,w
  9312  005E' 3A00               	xorlw	0	; case 0
  9313  005F' 1903               	skipnz
  9314  0060' 2800'              	goto	i1l3384
  9315  0061' 3A01               	xorlw	1	; case 1
  9316  0062' 1903               	skipnz
  9317  0063' 2800'              	goto	i1l3392
  9318  0064' 3A21               	xorlw	33	; case 32
  9319  0065' 1903               	skipnz
  9320  0066' 2800'              	goto	i1l3396
  9321  0067' 3A01               	xorlw	1	; case 33
  9322  0068' 1903               	skipnz
  9323  0069' 2800'              	goto	i1l3402
  9324  006A' 3A03               	xorlw	3	; case 34
  9325  006B' 1903               	skipnz
  9326  006C' 2800'              	goto	i1l3408
  9327  006D' 2800'              	goto	i1l770
  9328  006E'                    i1l770:
  9329  006E' 0008               	return
  9330  006F'                    __end_of_USBCheckCDCRequest:
  9331                           
  9332                           	psect	text38
  9333  0000'                    __ptext38:	
  9334 ;; *************** function _CDCInitEP *****************
  9335 ;; Defined at:
  9336 ;;		line 294 in file "mcc_generated_files/usb/usb_device_cdc.c"
  9337 ;; Parameters:    Size  Location     Type
  9338 ;;		None
  9339 ;; Auto vars:     Size  Location     Type
  9340 ;;		None
  9341 ;; Return value:  Size  Location     Type
  9342 ;;                  1    wreg      void 
  9343 ;; Registers used:
  9344 ;;		wreg, fsr1l, fsr1h, status,2, status,0, pclath, cstack
  9345 ;; Tracked objects:
  9346 ;;		On entry : 0/0
  9347 ;;		On exit  : 0/0
  9348 ;;		Unchanged: 0/0
  9349 ;; Data sizes:     COMMON   BANK0   BANK1   BANK2   BANK3   BANK4   BANK5   BANK6   BANK7   BANK8   BANK9  BANK10  BANK1
      +1  BANK12
  9350 ;;      Params:         0       0       0       0       0       0       0       0       0       0       0       0       
      +0       0
  9351 ;;      Locals:         0       0       0       0       0       0       0       0       0       0       0       0       
      +0       0
  9352 ;;      Temps:          1       0       0       0       0       0       0       0       0       0       0       0       
      +0       0
  9353 ;;      Totals:         1       0       0       0       0       0       0       0       0       0       0       0       
      +0       0
  9354 ;;Total ram usage:        1 bytes
  9355 ;; Hardware stack levels used:    1
  9356 ;; Hardware stack levels required when called:    2
  9357 ;; This function calls:
  9358 ;;		_USBEnableEndpoint
  9359 ;;		_USBTransferOnePacket
  9360 ;; This function is called by:
  9361 ;;		_USER_USB_CALLBACK_EVENT_HANDLER
  9362 ;; This function uses a non-reentrant model
  9363 ;;
  9364                           
  9365                           
  9366                           ;psect for function _CDCInitEP
  9367  0000'                    _CDCInitEP:
  9368  0000'                    i1l3420:	
  9369                           ;incstack = 0
  9370                           ; Regs used in _CDCInitEP: [wreg+fsr1l+fsr1h+status,2+status,0+pclath+cstack]
  9371                           
  9372                           
  9373                           ;mcc_generated_files/usb/usb_device_cdc.c: 297:     line_coding.dwDTERate = 19200;
  9374  0000' 3000               	movlw	0
  9375  0001' 0023               	movlb	3	; select bank3
  9376  0002' 0080'              	movwf	(_line_coding+3)^(0+384)
  9377  0003' 3000               	movlw	0
  9378  0004' 0080'              	movwf	(_line_coding+2)^(0+384)
  9379  0005' 304B               	movlw	75
  9380  0006' 0080'              	movwf	(_line_coding+1)^(0+384)
  9381  0007' 3000               	movlw	0
  9382  0008' 0080'              	movwf	_line_coding^(0+384)
  9383  0009'                    i1l3422:
  9384                           
  9385                           ;mcc_generated_files/usb/usb_device_cdc.c: 298:     line_coding.bCharFormat = 0x00;
  9386  0009' 0184'              	clrf	(_line_coding^(0+384)+4)
  9387  000A'                    i1l3424:
  9388                           
  9389                           ;mcc_generated_files/usb/usb_device_cdc.c: 299:     line_coding.bParityType = 0x00;
  9390  000A' 0185'              	clrf	(_line_coding^(0+384)+5)
  9391                           
  9392                           ;mcc_generated_files/usb/usb_device_cdc.c: 300:     line_coding.bDataBits = 0x08;
  9393  000B' 3008               	movlw	8
  9394  000C' 008D'              	movwf	??_CDCInitEP
  9395  000D' 080D'              	movf	??_CDCInitEP,w
  9396  000E' 0086'              	movwf	(_line_coding^(0+384)+6)
  9397  000F'                    i1l3426:
  9398                           
  9399                           ;mcc_generated_files/usb/usb_device_cdc.c: 302:     cdc_rx_len = 0;
  9400  000F' 0180'              	clrf	_cdc_rx_len^(0+384)
  9401  0010'                    i1l3428:
  9402                           
  9403                           ;mcc_generated_files/usb/usb_device_cdc.c: 315:     USBEnableEndpoint(1,0x02|0x10|0x08);
  9404  0010' 301A               	movlw	26
  9405  0011' 008D'              	movwf	??_CDCInitEP
  9406  0012' 080D'              	movf	??_CDCInitEP,w
  9407  0013' 0087'              	movwf	USBEnableEndpoint@options
  9408  0014' 3001               	movlw	1
  9409  0015' 3180' 2000' 3180'  	fcall	_USBEnableEndpoint
  9410  0018'                    i1l3430:
  9411                           
  9412                           ;mcc_generated_files/usb/usb_device_cdc.c: 316:     USBEnableEndpoint(2,0x02|0x04|0x10|0
      +                          x08);
  9413  0018' 301E               	movlw	30
  9414  0019' 008D'              	movwf	??_CDCInitEP
  9415  001A' 080D'              	movf	??_CDCInitEP,w
  9416  001B' 0087'              	movwf	USBEnableEndpoint@options
  9417  001C' 3002               	movlw	2
  9418  001D' 3180' 2000' 3180'  	fcall	_USBEnableEndpoint
  9419  0020'                    i1l3432:
  9420                           
  9421                           ;mcc_generated_files/usb/usb_device_cdc.c: 318:     CDCDataOutHandle = USBTransferOnePac
      +                          ket(2,0,(uint8_t*)&cdc_data_rx,sizeof(cdc_data_rx));
  9422  0020' 0180'              	clrf	USBTransferOnePacket@dir
  9423  0021' 30C0               	movlw	192
  9424  0022' 0081'              	movwf	USBTransferOnePacket@data
  9425  0023' 3020               	movlw	32
  9426  0024' 0082'              	movwf	USBTransferOnePacket@data+1
  9427  0025' 3040               	movlw	64
  9428  0026' 008D'              	movwf	??_CDCInitEP
  9429  0027' 080D'              	movf	??_CDCInitEP,w
  9430  0028' 0083'              	movwf	USBTransferOnePacket@len
  9431  0029' 3002               	movlw	2
  9432  002A' 3180' 2000' 3180'  	fcall	_USBTransferOnePacket
  9433  002D' 0801'              	movf	?_USBTransferOnePacket+1,w
  9434  002E' 0023               	movlb	3	; select bank3
  9435  002F' 0080'              	movwf	(_CDCDataOutHandle+1)^(0+384)
  9436  0030' 0800'              	movf	?_USBTransferOnePacket,w
  9437  0031' 0080'              	movwf	_CDCDataOutHandle^(0+384)
  9438  0032'                    i1l3434:
  9439                           
  9440                           ;mcc_generated_files/usb/usb_device_cdc.c: 319:     CDCDataInHandle = ((void*)0);
  9441  0032' 0180'              	clrf	_CDCDataInHandle^(0+384)
  9442  0033' 0180'              	clrf	(_CDCDataInHandle+1)^(0+384)
  9443  0034'                    i1l3436:
  9444                           
  9445                           ;mcc_generated_files/usb/usb_device_cdc.c: 346:     cdc_trf_state = 0;
  9446  0034' 0021               	movlb	1	; select bank1
  9447  0035' 0180'              	clrf	_cdc_trf_state^(0+128)
  9448  0036'                    i1l783:
  9449  0036' 0008               	return
  9450  0037'                    __end_of_CDCInitEP:
  9451                           
  9452                           	psect	text39
  9453  0000'                    __ptext39:	
  9454 ;; *************** function _USBTransferOnePacket *****************
  9455 ;; Defined at:
  9456 ;;		line 999 in file "mcc_generated_files/usb/usb_device.c"
  9457 ;; Parameters:    Size  Location     Type
  9458 ;;  ep              1    wreg     unsigned char 
  9459 ;;  dir             1    0[COMMON] unsigned char 
  9460 ;;  data            2    1[COMMON] PTR unsigned char 
  9461 ;;		 -> cdc_data_tx(64), cdc_data_rx(64), NULL(0), 
  9462 ;;  len             1    3[COMMON] unsigned char 
  9463 ;; Auto vars:     Size  Location     Type
  9464 ;;  ep              1    8[COMMON] unsigned char 
  9465 ;;  handle          2    9[COMMON] PTR volatile struct __BD
  9466 ;;		 -> RAM(4096), NULL(0), BDT(48), 
  9467 ;; Return value:  Size  Location     Type
  9468 ;;                  2    0[COMMON] PTR void 
  9469 ;; Registers used:
  9470 ;;		wreg, fsr1l, fsr1h, status,2, status,0
  9471 ;; Tracked objects:
  9472 ;;		On entry : 0/0
  9473 ;;		On exit  : 0/0
  9474 ;;		Unchanged: 0/0
  9475 ;; Data sizes:     COMMON   BANK0   BANK1   BANK2   BANK3   BANK4   BANK5   BANK6   BANK7   BANK8   BANK9  BANK10  BANK1
      +1  BANK12
  9476 ;;      Params:         4       0       0       0       0       0       0       0       0       0       0       0       
      +0       0
  9477 ;;      Locals:         3       0       0       0       0       0       0       0       0       0       0       0       
      +0       0
  9478 ;;      Temps:          4       0       0       0       0       0       0       0       0       0       0       0       
      +0       0
  9479 ;;      Totals:        11       0       0       0       0       0       0       0       0       0       0       0       
      +0       0
  9480 ;;Total ram usage:       11 bytes
  9481 ;; Hardware stack levels used:    1
  9482 ;; This function calls:
  9483 ;;		Nothing
  9484 ;; This function is called by:
  9485 ;;		_CDCInitEP
  9486 ;;		_USBCDCEventHandler
  9487 ;;		_getsUSBUSART
  9488 ;;		_CDCTxService
  9489 ;; This function uses a non-reentrant model
  9490 ;;
  9491                           
  9492                           
  9493                           ;psect for function _USBTransferOnePacket
  9494  0000'                    _USBTransferOnePacket:
  9495                           
  9496                           ;incstack = 0
  9497                           ; Regs used in _USBTransferOnePacket: [wreg+fsr1l+fsr1h+status,2+status,0]
  9498                           ;USBTransferOnePacket@ep stored from wreg
  9499  0000' 0088'              	movwf	USBTransferOnePacket@ep
  9500  0001'                    i1l3342:
  9501                           
  9502                           ;mcc_generated_files/usb/usb_device.c: 999: void* USBTransferOnePacket(uint8_t ep,uint8_
      +                          t dir,uint8_t* data,uint8_t len);mcc_generated_files/usb/usb_device.c: 1000: {;mcc_gener
      +                          ated_files/usb/usb_device.c: 1001:     volatile BDT_ENTRY* handle;;mcc_generated_files/u
      +                          sb/usb_device.c: 1004:     if(dir != 0)
  9503  0001' 0800'              	movf	USBTransferOnePacket@dir,w
  9504  0002' 1903               	btfsc	3,2
  9505  0003' 2800'              	goto	u194_21
  9506  0004' 2800'              	goto	u194_20
  9507  0005'                    u194_21:
  9508  0005' 2800'              	goto	i1l3346
  9509  0006'                    u194_20:
  9510  0006'                    i1l3344:
  9511                           
  9512                           ;mcc_generated_files/usb/usb_device.c: 1005:     {;mcc_generated_files/usb/usb_device.c:
      +                           1007:         handle = pBDTEntryIn[ep];
  9513  0006' 3508'              	lslf	USBTransferOnePacket@ep,w
  9514  0007' 3E00'              	addlw	(low (_pBDTEntryIn| 0))& (0+255)
  9515  0008' 0086               	movwf	6
  9516  0009' 0187               	clrf	7
  9517  000A' 3F40               	moviw [0]fsr1
  9518  000B' 0089'              	movwf	USBTransferOnePacket@handle
  9519  000C' 3F41               	moviw [1]fsr1
  9520  000D' 008A'              	movwf	USBTransferOnePacket@handle+1
  9521                           
  9522                           ;mcc_generated_files/usb/usb_device.c: 1008:     }
  9523  000E' 2800'              	goto	i1l3348
  9524  000F'                    i1l3346:
  9525                           
  9526                           ;mcc_generated_files/usb/usb_device.c: 1010:     {;mcc_generated_files/usb/usb_device.c:
      +                           1012:         handle = pBDTEntryOut[ep];
  9527  000F' 3508'              	lslf	USBTransferOnePacket@ep,w
  9528  0010' 3E00'              	addlw	(low (_pBDTEntryOut| (0+256)))& (0+255)
  9529  0011' 0086               	movwf	6
  9530  0012' 3001               	movlw	1	; select bank3/4
  9531  0013' 0087               	movwf	7
  9532  0014' 3F40               	moviw [0]fsr1
  9533  0015' 0089'              	movwf	USBTransferOnePacket@handle
  9534  0016' 3F41               	moviw [1]fsr1
  9535  0017' 008A'              	movwf	USBTransferOnePacket@handle+1
  9536  0018'                    i1l3348:
  9537                           
  9538                           ;mcc_generated_files/usb/usb_device.c: 1017:     if(handle == 0)
  9539  0018' 0809'              	movf	USBTransferOnePacket@handle,w
  9540  0019' 040A'              	iorwf	USBTransferOnePacket@handle+1,w
  9541  001A' 1D03               	btfss	3,2
  9542  001B' 2800'              	goto	u195_21
  9543  001C' 2800'              	goto	u195_20
  9544  001D'                    u195_21:
  9545  001D' 2800'              	goto	i1l3354
  9546  001E'                    u195_20:
  9547  001E'                    i1l3350:
  9548                           
  9549                           ;mcc_generated_files/usb/usb_device.c: 1018:     {;mcc_generated_files/usb/usb_device.c:
      +                           1019:         return 0;
  9550  001E' 0180'              	clrf	?_USBTransferOnePacket
  9551  001F' 0181'              	clrf	?_USBTransferOnePacket+1
  9552  0020' 2800'              	goto	i1l369
  9553  0021'                    i1l3354:
  9554                           
  9555                           ;mcc_generated_files/usb/usb_device.c: 1033:     handle->ADR = (((uint16_t)(data)) & 0x7
      +                          FFF);
  9556  0021' 30FF               	movlw	255
  9557  0022' 0501'              	andwf	USBTransferOnePacket@data,w
  9558  0023' 0084'              	movwf	??_USBTransferOnePacket
  9559  0024' 307F               	movlw	127
  9560  0025' 0502'              	andwf	USBTransferOnePacket@data+1,w
  9561  0026' 0085'              	movwf	??_USBTransferOnePacket+1
  9562  0027' 0809'              	movf	USBTransferOnePacket@handle,w
  9563  0028' 0086               	movwf	6
  9564  0029' 080A'              	movf	USBTransferOnePacket@handle+1,w
  9565  002A' 0087               	movwf	7
  9566  002B' 3142               	addfsr 1,2
  9567  002C' 0804'              	movf	??_USBTransferOnePacket,w
  9568  002D' 3FC0               	movwi [0]fsr1
  9569  002E' 0805'              	movf	??_USBTransferOnePacket+1,w
  9570  002F' 3FC1               	movwi [1]fsr1
  9571  0030'                    i1l3356:
  9572                           
  9573                           ;mcc_generated_files/usb/usb_device.c: 1034:     handle->CNT = len;
  9574  0030' 0809'              	movf	USBTransferOnePacket@handle,w
  9575  0031' 3E01               	addlw	1
  9576  0032' 0084'              	movwf	??_USBTransferOnePacket
  9577  0033' 3000               	movlw	0
  9578  0034' 3D0A'              	addwfc	USBTransferOnePacket@handle+1,w
  9579  0035' 0085'              	movwf	??_USBTransferOnePacket+1
  9580  0036' 0804'              	movf	??_USBTransferOnePacket,w
  9581  0037' 0086               	movwf	6
  9582  0038' 0805'              	movf	??_USBTransferOnePacket+1,w
  9583  0039' 0087               	movwf	7
  9584  003A' 0803'              	movf	USBTransferOnePacket@len,w
  9585  003B' 0081               	movwf	1
  9586  003C'                    i1l3358:
  9587                           
  9588                           ;mcc_generated_files/usb/usb_device.c: 1035:     handle->STAT.Val &= 0x40;
  9589  003C' 3040               	movlw	64
  9590  003D' 0084'              	movwf	??_USBTransferOnePacket
  9591  003E' 0809'              	movf	USBTransferOnePacket@handle,w
  9592  003F' 0086               	movwf	6
  9593  0040' 080A'              	movf	USBTransferOnePacket@handle+1,w
  9594  0041' 0087               	movwf	7
  9595  0042' 0804'              	movf	??_USBTransferOnePacket,w
  9596  0043' 0581               	andwf	1,f
  9597                           
  9598                           ;mcc_generated_files/usb/usb_device.c: 1036:     handle->STAT.Val |= (0x08 & 0x08);
  9599  0044' 0809'              	movf	USBTransferOnePacket@handle,w
  9600  0045' 0086               	movwf	6
  9601  0046' 080A'              	movf	USBTransferOnePacket@handle+1,w
  9602  0047' 0087               	movwf	7
  9603  0048' 1581               	bsf	1,3
  9604                           
  9605                           ;mcc_generated_files/usb/usb_device.c: 1037:     handle->STAT.Val |= 0x80;
  9606  0049' 0809'              	movf	USBTransferOnePacket@handle,w
  9607  004A' 0086               	movwf	6
  9608  004B' 080A'              	movf	USBTransferOnePacket@handle+1,w
  9609  004C' 0087               	movwf	7
  9610  004D' 1781               	bsf	1,7
  9611  004E'                    i1l3360:
  9612                           
  9613                           ;mcc_generated_files/usb/usb_device.c: 1040:     if(dir != 0)
  9614  004E' 0800'              	movf	USBTransferOnePacket@dir,w
  9615  004F' 1903               	btfsc	3,2
  9616  0050' 2800'              	goto	u196_21
  9617  0051' 2800'              	goto	u196_20
  9618  0052'                    u196_21:
  9619  0052' 2800'              	goto	i1l3364
  9620  0053'                    u196_20:
  9621  0053'                    i1l3362:
  9622                           
  9623                           ;mcc_generated_files/usb/usb_device.c: 1041:     {;mcc_generated_files/usb/usb_device.c:
      +                           1043:         pBDTEntryIn[ep] = (BDT_ENTRY*)(((uint16_t)pBDTEntryIn[ep]) ^ 0x0004);
  9624  0053' 3508'              	lslf	USBTransferOnePacket@ep,w
  9625  0054' 3E00'              	addlw	(low (_pBDTEntryIn| 0))& (0+255)
  9626  0055' 0086               	movwf	6
  9627  0056' 0187               	clrf	7
  9628  0057' 3F40               	moviw [0]fsr1
  9629  0058' 0084'              	movwf	??_USBTransferOnePacket
  9630  0059' 3F41               	moviw [1]fsr1
  9631  005A' 0085'              	movwf	??_USBTransferOnePacket+1
  9632  005B' 3004               	movlw	4
  9633  005C' 0604'              	xorwf	??_USBTransferOnePacket,w
  9634  005D' 0086'              	movwf	??_USBTransferOnePacket+2
  9635  005E' 3000               	movlw	0
  9636  005F' 0605'              	xorwf	??_USBTransferOnePacket+1,w
  9637  0060' 0087'              	movwf	??_USBTransferOnePacket+3
  9638  0061' 3508'              	lslf	USBTransferOnePacket@ep,w
  9639  0062' 3E00'              	addlw	(low (_pBDTEntryIn| 0))& (0+255)
  9640  0063' 0086               	movwf	6
  9641  0064' 0187               	clrf	7
  9642  0065' 0806'              	movf	??_USBTransferOnePacket+2,w
  9643  0066' 3FC0               	movwi [0]fsr1
  9644  0067' 0807'              	movf	??_USBTransferOnePacket+3,w
  9645  0068' 3FC1               	movwi [1]fsr1
  9646                           
  9647                           ;mcc_generated_files/usb/usb_device.c: 1044:     }
  9648  0069' 2800'              	goto	i1l3366
  9649  006A'                    i1l3364:
  9650                           
  9651                           ;mcc_generated_files/usb/usb_device.c: 1046:     {;mcc_generated_files/usb/usb_device.c:
      +                           1048:         pBDTEntryOut[ep] = (BDT_ENTRY*)(((uint16_t)pBDTEntryOut[ep]) ^ 0x0004);
  9652  006A' 3508'              	lslf	USBTransferOnePacket@ep,w
  9653  006B' 3E00'              	addlw	(low (_pBDTEntryOut| (0+256)))& (0+255)
  9654  006C' 0086               	movwf	6
  9655  006D' 3001               	movlw	1	; select bank3/4
  9656  006E' 0087               	movwf	7
  9657  006F' 3F40               	moviw [0]fsr1
  9658  0070' 0084'              	movwf	??_USBTransferOnePacket
  9659  0071' 3F41               	moviw [1]fsr1
  9660  0072' 0085'              	movwf	??_USBTransferOnePacket+1
  9661  0073' 3004               	movlw	4
  9662  0074' 0604'              	xorwf	??_USBTransferOnePacket,w
  9663  0075' 0086'              	movwf	??_USBTransferOnePacket+2
  9664  0076' 3000               	movlw	0
  9665  0077' 0605'              	xorwf	??_USBTransferOnePacket+1,w
  9666  0078' 0087'              	movwf	??_USBTransferOnePacket+3
  9667  0079' 3508'              	lslf	USBTransferOnePacket@ep,w
  9668  007A' 3E00'              	addlw	(low (_pBDTEntryOut| (0+256)))& (0+255)
  9669  007B' 0086               	movwf	6
  9670  007C' 3001               	movlw	1	; select bank3/4
  9671  007D' 0087               	movwf	7
  9672  007E' 0806'              	movf	??_USBTransferOnePacket+2,w
  9673  007F' 3FC0               	movwi [0]fsr1
  9674  0080' 0807'              	movf	??_USBTransferOnePacket+3,w
  9675  0081' 3FC1               	movwi [1]fsr1
  9676  0082'                    i1l3366:
  9677                           
  9678                           ;mcc_generated_files/usb/usb_device.c: 1050:     return (void*)handle;
  9679  0082' 080A'              	movf	USBTransferOnePacket@handle+1,w
  9680  0083' 0081'              	movwf	?_USBTransferOnePacket+1
  9681  0084' 0809'              	movf	USBTransferOnePacket@handle,w
  9682  0085' 0080'              	movwf	?_USBTransferOnePacket
  9683  0086'                    i1l369:
  9684  0086' 0008               	return
  9685  0087'                    __end_of_USBTransferOnePacket:
  9686                           
  9687                           	psect	text40
  9688  0000'                    __ptext40:	
  9689 ;; *************** function _USBEnableEndpoint *****************
  9690 ;; Defined at:
  9691 ;;		line 882 in file "mcc_generated_files/usb/usb_device.c"
  9692 ;; Parameters:    Size  Location     Type
  9693 ;;  ep              1    wreg     unsigned char 
  9694 ;;  options         1    7[COMMON] unsigned char 
  9695 ;; Auto vars:     Size  Location     Type
  9696 ;;  ep              1   12[COMMON] unsigned char 
  9697 ;;  p               2   10[COMMON] PTR unsigned char 
  9698 ;;		 -> UEP0(1), 
  9699 ;; Return value:  Size  Location     Type
  9700 ;;                  1    wreg      void 
  9701 ;; Registers used:
  9702 ;;		wreg, fsr1l, fsr1h, status,2, status,0, pclath, cstack
  9703 ;; Tracked objects:
  9704 ;;		On entry : 0/0
  9705 ;;		On exit  : 0/0
  9706 ;;		Unchanged: 0/0
  9707 ;; Data sizes:     COMMON   BANK0   BANK1   BANK2   BANK3   BANK4   BANK5   BANK6   BANK7   BANK8   BANK9  BANK10  BANK1
      +1  BANK12
  9708 ;;      Params:         1       0       0       0       0       0       0       0       0       0       0       0       
      +0       0
  9709 ;;      Locals:         3       0       0       0       0       0       0       0       0       0       0       0       
      +0       0
  9710 ;;      Temps:          2       0       0       0       0       0       0       0       0       0       0       0       
      +0       0
  9711 ;;      Totals:         6       0       0       0       0       0       0       0       0       0       0       0       
      +0       0
  9712 ;;Total ram usage:        6 bytes
  9713 ;; Hardware stack levels used:    1
  9714 ;; Hardware stack levels required when called:    1
  9715 ;; This function calls:
  9716 ;;		_USBConfigureEndpoint
  9717 ;; This function is called by:
  9718 ;;		_CDCInitEP
  9719 ;; This function uses a non-reentrant model
  9720 ;;
  9721                           
  9722                           
  9723                           ;psect for function _USBEnableEndpoint
  9724  0000'                    _USBEnableEndpoint:
  9725                           
  9726                           ;incstack = 0
  9727                           ; Regs used in _USBEnableEndpoint: [wreg+fsr1l+fsr1h+status,2+status,0+pclath+cstack]
  9728                           ;USBEnableEndpoint@ep stored from wreg
  9729  0000' 008C'              	movwf	USBEnableEndpoint@ep
  9730  0001'                    i1l3330:
  9731                           
  9732                           ;mcc_generated_files/usb/usb_device.c: 882: void USBEnableEndpoint(uint8_t ep, uint8_t o
      +                          ptions);mcc_generated_files/usb/usb_device.c: 883: {;mcc_generated_files/usb/usb_device.
      +                          c: 884:     unsigned char* p;;mcc_generated_files/usb/usb_device.c: 888:     if(options 
      +                          & 0x04)
  9733  0001' 1D07'              	btfss	USBEnableEndpoint@options,2
  9734  0002' 2800'              	goto	u192_21
  9735  0003' 2800'              	goto	u192_20
  9736  0004'                    u192_21:
  9737  0004' 2800'              	goto	i1l3334
  9738  0005'                    u192_20:
  9739  0005'                    i1l3332:
  9740                           
  9741                           ;mcc_generated_files/usb/usb_device.c: 889:     {;mcc_generated_files/usb/usb_device.c: 
      +                          890:         USBConfigureEndpoint(ep, 0);
  9742  0005' 0180'              	clrf	USBConfigureEndpoint@direction
  9743  0006' 080C'              	movf	USBEnableEndpoint@ep,w
  9744  0007' 3180' 2000' 3180'  	fcall	_USBConfigureEndpoint
  9745  000A'                    i1l3334:
  9746                           
  9747                           ;mcc_generated_files/usb/usb_device.c: 892:     if(options & 0x02)
  9748  000A' 1C87'              	btfss	USBEnableEndpoint@options,1
  9749  000B' 2800'              	goto	u193_21
  9750  000C' 2800'              	goto	u193_20
  9751  000D'                    u193_21:
  9752  000D' 2800'              	goto	i1l3338
  9753  000E'                    u193_20:
  9754  000E'                    i1l3336:
  9755                           
  9756                           ;mcc_generated_files/usb/usb_device.c: 893:     {;mcc_generated_files/usb/usb_device.c: 
      +                          894:         USBConfigureEndpoint(ep, 1);
  9757  000E' 0180'              	clrf	USBConfigureEndpoint@direction
  9758  000F' 0A80'              	incf	USBConfigureEndpoint@direction,f
  9759  0010' 080C'              	movf	USBEnableEndpoint@ep,w
  9760  0011' 3180' 2000' 3180'  	fcall	_USBConfigureEndpoint
  9761  0014'                    i1l3338:
  9762                           
  9763                           ;mcc_generated_files/usb/usb_device.c: 903:         p = (unsigned char*)(&UEP0+ep);
  9764  0014' 080C'              	movf	USBEnableEndpoint@ep,w
  9765  0015' 3E98               	addlw	152
  9766  0016' 0088'              	movwf	??_USBEnableEndpoint
  9767  0017' 0189'              	clrf	??_USBEnableEndpoint+1
  9768  0018' 300E               	movlw	14
  9769  0019' 3D89'              	addwfc	??_USBEnableEndpoint+1,f
  9770  001A' 0808'              	movf	??_USBEnableEndpoint,w
  9771  001B' 008A'              	movwf	USBEnableEndpoint@p
  9772  001C' 0809'              	movf	??_USBEnableEndpoint+1,w
  9773  001D' 008B'              	movwf	USBEnableEndpoint@p+1
  9774  001E'                    i1l3340:
  9775                           
  9776                           ;mcc_generated_files/usb/usb_device.c: 905:     *p = options;
  9777  001E' 080A'              	movf	USBEnableEndpoint@p,w
  9778  001F' 0086               	movwf	6
  9779  0020' 080B'              	movf	USBEnableEndpoint@p+1,w
  9780  0021' 0087               	movwf	7
  9781  0022' 0807'              	movf	USBEnableEndpoint@options,w
  9782  0023' 0081               	movwf	1
  9783  0024'                    i1l363:
  9784  0024' 0008               	return
  9785  0025'                    __end_of_USBEnableEndpoint:
  9786                           
  9787                           	psect	text41
  9788  0000'                    __ptext41:	
  9789 ;; *************** function _USBConfigureEndpoint *****************
  9790 ;; Defined at:
  9791 ;;		line 1547 in file "mcc_generated_files/usb/usb_device.c"
  9792 ;; Parameters:    Size  Location     Type
  9793 ;;  EPNum           1    wreg     unsigned char 
  9794 ;;  direction       1    0[COMMON] unsigned char 
  9795 ;; Auto vars:     Size  Location     Type
  9796 ;;  EPNum           1    5[COMMON] unsigned char 
  9797 ;;  handle          1    6[COMMON] PTR volatile struct __BD
  9798 ;;		 -> BDT(48), 
  9799 ;; Return value:  Size  Location     Type
  9800 ;;                  1    wreg      void 
  9801 ;; Registers used:
  9802 ;;		wreg, fsr1l, fsr1h, status,2, status,0
  9803 ;; Tracked objects:
  9804 ;;		On entry : 0/0
  9805 ;;		On exit  : 0/0
  9806 ;;		Unchanged: 0/0
  9807 ;; Data sizes:     COMMON   BANK0   BANK1   BANK2   BANK3   BANK4   BANK5   BANK6   BANK7   BANK8   BANK9  BANK10  BANK1
      +1  BANK12
  9808 ;;      Params:         1       0       0       0       0       0       0       0       0       0       0       0       
      +0       0
  9809 ;;      Locals:         2       0       0       0       0       0       0       0       0       0       0       0       
      +0       0
  9810 ;;      Temps:          4       0       0       0       0       0       0       0       0       0       0       0       
      +0       0
  9811 ;;      Totals:         7       0       0       0       0       0       0       0       0       0       0       0       
      +0       0
  9812 ;;Total ram usage:        7 bytes
  9813 ;; Hardware stack levels used:    1
  9814 ;; This function calls:
  9815 ;;		Nothing
  9816 ;; This function is called by:
  9817 ;;		_USBEnableEndpoint
  9818 ;; This function uses a non-reentrant model
  9819 ;;
  9820                           
  9821                           
  9822                           ;psect for function _USBConfigureEndpoint
  9823  0000'                    _USBConfigureEndpoint:
  9824                           
  9825                           ;incstack = 0
  9826                           ; Regs used in _USBConfigureEndpoint: [wreg+fsr1l+fsr1h+status,2+status,0]
  9827                           ;USBConfigureEndpoint@EPNum stored from wreg
  9828  0000' 0085'              	movwf	USBConfigureEndpoint@EPNum
  9829  0001'                    i1l3314:
  9830                           
  9831                           ;mcc_generated_files/usb/usb_device.c: 1547: static void USBConfigureEndpoint(uint8_t EP
      +                          Num, uint8_t direction);mcc_generated_files/usb/usb_device.c: 1548: {;mcc_generated_file
      +                          s/usb/usb_device.c: 1549:     volatile BDT_ENTRY* handle;;mcc_generated_files/usb/usb_de
      +                          vice.c: 1553:     handle = (volatile BDT_ENTRY*)&BDT[0];
  9832  0001' 3020               	movlw	32
  9833  0002' 0081'              	movwf	??_USBConfigureEndpoint
  9834  0003' 0801'              	movf	??_USBConfigureEndpoint,w
  9835  0004' 0086'              	movwf	USBConfigureEndpoint@handle
  9836  0005'                    i1l3316:
  9837                           
  9838                           ;mcc_generated_files/usb/usb_device.c: 1554:     handle += (4*EPNum+2*direction+0u);
  9839  0005' 0800'              	movf	USBConfigureEndpoint@direction,w
  9840  0006' 0081'              	movwf	??_USBConfigureEndpoint
  9841  0007' 3001               	movlw	1
  9842  0008'                    u188_25:
  9843  0008' 3581'              	lslf	??_USBConfigureEndpoint,f
  9844  0009' 0B89               	decfsz	9,f
  9845  000A' 2800'              	goto	u188_25
  9846  000B' 0805'              	movf	USBConfigureEndpoint@EPNum,w
  9847  000C' 0082'              	movwf	??_USBConfigureEndpoint+1
  9848  000D' 3001               	movlw	1
  9849  000E'                    u189_25:
  9850  000E' 3582'              	lslf	??_USBConfigureEndpoint+1,f
  9851  000F' 3EFF               	addlw	-1
  9852  0010' 1D03               	skipz
  9853  0011' 2800'              	goto	u189_25
  9854  0012' 3502'              	lslf	??_USBConfigureEndpoint+1,w
  9855  0013' 0701'              	addwf	??_USBConfigureEndpoint,w
  9856  0014' 0083'              	movwf	??_USBConfigureEndpoint+2
  9857  0015' 3001               	movlw	1
  9858  0016'                    u190_25:
  9859  0016' 3583'              	lslf	??_USBConfigureEndpoint+2,f
  9860  0017' 3EFF               	addlw	-1
  9861  0018' 1D03               	skipz
  9862  0019' 2800'              	goto	u190_25
  9863  001A' 3503'              	lslf	??_USBConfigureEndpoint+2,w
  9864  001B' 0084'              	movwf	??_USBConfigureEndpoint+3
  9865  001C' 0804'              	movf	??_USBConfigureEndpoint+3,w
  9866  001D' 0786'              	addwf	USBConfigureEndpoint@handle,f
  9867  001E'                    i1l3318:
  9868                           
  9869                           ;mcc_generated_files/usb/usb_device.c: 1556:     handle->STAT.UOWN = 0;
  9870  001E' 0806'              	movf	USBConfigureEndpoint@handle,w
  9871  001F' 0086               	movwf	6
  9872  0020' 0187               	clrf	7
  9873  0021' 1381               	bcf	1,7
  9874  0022'                    i1l3320:
  9875                           
  9876                           ;mcc_generated_files/usb/usb_device.c: 1561:     if(direction == 0)
  9877  0022' 0800'              	movf	USBConfigureEndpoint@direction,w
  9878  0023' 1D03               	btfss	3,2
  9879  0024' 2800'              	goto	u191_21
  9880  0025' 2800'              	goto	u191_20
  9881  0026'                    u191_21:
  9882  0026' 2800'              	goto	i1l3324
  9883  0027'                    u191_20:
  9884  0027'                    i1l3322:
  9885                           
  9886                           ;mcc_generated_files/usb/usb_device.c: 1562:     {;mcc_generated_files/usb/usb_device.c:
      +                           1563:         pBDTEntryOut[EPNum] = handle;
  9887  0027' 3505'              	lslf	USBConfigureEndpoint@EPNum,w
  9888  0028' 3E00'              	addlw	(low (_pBDTEntryOut| (0+256)))& (0+255)
  9889  0029' 0086               	movwf	6
  9890  002A' 3001               	movlw	1	; select bank3/4
  9891  002B' 0087               	movwf	7
  9892  002C' 0806'              	movf	USBConfigureEndpoint@handle,w
  9893  002D' 3FC0               	movwi [0]fsr1
  9894  002E' 3000               	movlw	0
  9895  002F' 3FC1               	movwi [1]fsr1
  9896                           
  9897                           ;mcc_generated_files/usb/usb_device.c: 1564:     }
  9898  0030' 2800'              	goto	i1l3326
  9899  0031'                    i1l3324:
  9900                           
  9901                           ;mcc_generated_files/usb/usb_device.c: 1566:     {;mcc_generated_files/usb/usb_device.c:
      +                           1567:         pBDTEntryIn[EPNum] = handle;
  9902  0031' 3505'              	lslf	USBConfigureEndpoint@EPNum,w
  9903  0032' 3E00'              	addlw	(low (_pBDTEntryIn| 0))& (0+255)
  9904  0033' 0086               	movwf	6
  9905  0034' 0187               	clrf	7
  9906  0035' 0806'              	movf	USBConfigureEndpoint@handle,w
  9907  0036' 3FC0               	movwi [0]fsr1
  9908  0037' 3000               	movlw	0
  9909  0038' 3FC1               	movwi [1]fsr1
  9910  0039'                    i1l3326:
  9911                           
  9912                           ;mcc_generated_files/usb/usb_device.c: 1571:         handle->STAT.DTS = 0;
  9913  0039' 0806'              	movf	USBConfigureEndpoint@handle,w
  9914  003A' 0086               	movwf	6
  9915  003B' 0187               	clrf	7
  9916  003C' 1301               	bcf	1,6
  9917  003D'                    i1l3328:
  9918                           
  9919                           ;mcc_generated_files/usb/usb_device.c: 1572:         (handle+1)->STAT.DTS = 1;
  9920  003D' 0806'              	movf	USBConfigureEndpoint@handle,w
  9921  003E' 3E04               	addlw	4
  9922  003F' 0086               	movwf	6
  9923  0040' 0187               	clrf	7
  9924  0041' 1701               	bsf	1,6
  9925  0042'                    i1l410:
  9926  0042' 0008               	return
  9927  0043'                    __end_of_USBConfigureEndpoint:
  9928                           
  9929                           	psect	text42
  9930  0000'                    __ptext42:	
  9931 ;; *************** function _USBCtrlTrfOutHandler *****************
  9932 ;; Defined at:
  9933 ;;		line 2542 in file "mcc_generated_files/usb/usb_device.c"
  9934 ;; Parameters:    Size  Location     Type
  9935 ;;		None
  9936 ;; Auto vars:     Size  Location     Type
  9937 ;;		None
  9938 ;; Return value:  Size  Location     Type
  9939 ;;                  1    wreg      void 
  9940 ;; Registers used:
  9941 ;;		wreg, fsr1l, fsr1h, status,2, status,0, pclath, cstack
  9942 ;; Tracked objects:
  9943 ;;		On entry : 0/0
  9944 ;;		On exit  : 0/0
  9945 ;;		Unchanged: 0/0
  9946 ;; Data sizes:     COMMON   BANK0   BANK1   BANK2   BANK3   BANK4   BANK5   BANK6   BANK7   BANK8   BANK9  BANK10  BANK1
      +1  BANK12
  9947 ;;      Params:         0       0       0       0       0       0       0       0       0       0       0       0       
      +0       0
  9948 ;;      Locals:         0       0       0       0       0       0       0       0       0       0       0       0       
      +0       0
  9949 ;;      Temps:          2       0       0       0       0       0       0       0       0       0       0       0       
      +0       0
  9950 ;;      Totals:         2       0       0       0       0       0       0       0       0       0       0       0       
      +0       0
  9951 ;;Total ram usage:        2 bytes
  9952 ;; Hardware stack levels used:    1
  9953 ;; Hardware stack levels required when called:    2
  9954 ;; This function calls:
  9955 ;;		_USBCtrlTrfRxService
  9956 ;; This function is called by:
  9957 ;;		_USBCtrlEPService
  9958 ;; This function uses a non-reentrant model
  9959 ;;
  9960                           
  9961                           
  9962                           ;psect for function _USBCtrlTrfOutHandler
  9963  0000'                    _USBCtrlTrfOutHandler:
  9964  0000'                    i1l3994:	
  9965                           ;incstack = 0
  9966                           ; Regs used in _USBCtrlTrfOutHandler: [wreg+fsr1l+fsr1h+status,2+status,0+pclath+cstack]
  9967                           
  9968                           
  9969                           ;mcc_generated_files/usb/usb_device.c: 2544:     if(controlTransferState == 2)
  9970  0000' 3002               	movlw	2
  9971  0001' 0021               	movlb	1	; select bank1
  9972  0002' 0600'              	xorwf	_controlTransferState^(0+128),w	;volatile
  9973  0003' 1D03               	btfss	3,2
  9974  0004' 2800'              	goto	u262_21
  9975  0005' 2800'              	goto	u262_20
  9976  0006'                    u262_21:
  9977  0006' 2800'              	goto	i1l3998
  9978  0007'                    u262_20:
  9979  0007'                    i1l3996:
  9980                           
  9981                           ;mcc_generated_files/usb/usb_device.c: 2545:     {;mcc_generated_files/usb/usb_device.c:
      +                           2546:         USBCtrlTrfRxService();
  9982  0007' 3180' 2000' 3180'  	fcall	_USBCtrlTrfRxService
  9983                           
  9984                           ;mcc_generated_files/usb/usb_device.c: 2547:     }
  9985  000A' 2800'              	goto	i1l520
  9986  000B'                    i1l3998:
  9987                           
  9988                           ;mcc_generated_files/usb/usb_device.c: 2549:     {;mcc_generated_files/usb/usb_device.c:
      +                           2552:         controlTransferState = 0;
  9989  000B' 0180'              	clrf	_controlTransferState^(0+128)	;volatile
  9990  000C'                    i1l4000:
  9991                           
  9992                           ;mcc_generated_files/usb/usb_device.c: 2559:         if(BothEP0OutUOWNsSet == 0)
  9993  000C' 0023               	movlb	3	; select bank3
  9994  000D' 0800'              	movf	_BothEP0OutUOWNsSet^(0+384),w	;volatile
  9995  000E' 1D03               	btfss	3,2
  9996  000F' 2800'              	goto	u263_21
  9997  0010' 2800'              	goto	u263_20
  9998  0011'                    u263_21:
  9999  0011' 2800'              	goto	i1l4010
 10000  0012'                    u263_20:
 10001  0012'                    i1l4002:
 10002                           
 10003                           ;mcc_generated_files/usb/usb_device.c: 2560:         {;mcc_generated_files/usb/usb_devic
      +                          e.c: 2561:             pBDTEntryEP0OutNext->CNT = 8;
 10004  0012' 0021               	movlb	1	; select bank1
 10005  0013' 0800'              	movf	_pBDTEntryEP0OutNext^(0+128),w
 10006  0014' 3E01               	addlw	1
 10007  0015' 0086'              	movwf	??_USBCtrlTrfOutHandler
 10008  0016' 3000               	movlw	0
 10009  0017' 3D00'              	addwfc	(_pBDTEntryEP0OutNext+1)^(0+128),w
 10010  0018' 0087'              	movwf	??_USBCtrlTrfOutHandler+1
 10011  0019' 0806'              	movf	??_USBCtrlTrfOutHandler,w
 10012  001A' 0086               	movwf	6
 10013  001B' 0807'              	movf	??_USBCtrlTrfOutHandler+1,w
 10014  001C' 0087               	movwf	7
 10015  001D' 3008               	movlw	8
 10016  001E' 0081               	movwf	1
 10017  001F'                    i1l4004:
 10018                           
 10019                           ;mcc_generated_files/usb/usb_device.c: 2562:             pBDTEntryEP0OutNext->ADR = (((u
      +                          int16_t)(&SetupPkt)) & 0x7FFF);
 10020  001F' 3050               	movlw	80
 10021  0020' 0086'              	movwf	??_USBCtrlTrfOutHandler
 10022  0021' 3000               	movlw	0
 10023  0022' 0087'              	movwf	??_USBCtrlTrfOutHandler+1
 10024  0023' 0800'              	movf	_pBDTEntryEP0OutNext^(0+128),w
 10025  0024' 0086               	movwf	6
 10026  0025' 0800'              	movf	(_pBDTEntryEP0OutNext+1)^(0+128),w
 10027  0026' 0087               	movwf	7
 10028  0027' 3142               	addfsr 1,2
 10029  0028' 0806'              	movf	??_USBCtrlTrfOutHandler,w
 10030  0029' 3FC0               	movwi [0]fsr1
 10031  002A' 0807'              	movf	??_USBCtrlTrfOutHandler+1,w
 10032  002B' 3FC1               	movwi [1]fsr1
 10033  002C'                    i1l4006:
 10034                           
 10035                           ;mcc_generated_files/usb/usb_device.c: 2563:             pBDTEntryEP0OutNext->STAT.Val =
      +                           0x00|(0x08 & 0x08)|0x04;
 10036  002C' 0800'              	movf	_pBDTEntryEP0OutNext^(0+128),w
 10037  002D' 0086               	movwf	6
 10038  002E' 0800'              	movf	(_pBDTEntryEP0OutNext+1)^(0+128),w
 10039  002F' 0087               	movwf	7
 10040  0030' 300C               	movlw	12
 10041  0031' 0081               	movwf	1
 10042  0032'                    i1l4008:
 10043                           
 10044                           ;mcc_generated_files/usb/usb_device.c: 2564:             pBDTEntryEP0OutNext->STAT.Val |
      +                          = 0x80;
 10045  0032' 0800'              	movf	_pBDTEntryEP0OutNext^(0+128),w
 10046  0033' 0086               	movwf	6
 10047  0034' 0800'              	movf	(_pBDTEntryEP0OutNext+1)^(0+128),w
 10048  0035' 0087               	movwf	7
 10049  0036' 1781               	bsf	1,7
 10050                           
 10051                           ;mcc_generated_files/usb/usb_device.c: 2565:         }
 10052  0037' 2800'              	goto	i1l520
 10053  0038'                    i1l4010:
 10054                           
 10055                           ;mcc_generated_files/usb/usb_device.c: 2567:         {;mcc_generated_files/usb/usb_devic
      +                          e.c: 2568:                 BothEP0OutUOWNsSet = 0;
 10056  0038' 0180'              	clrf	_BothEP0OutUOWNsSet^(0+384)	;volatile
 10057  0039'                    i1l520:
 10058  0039' 0008               	return
 10059  003A'                    __end_of_USBCtrlTrfOutHandler:
 10060                           
 10061                           	psect	text43
 10062  0000'                    __ptext43:	
 10063 ;; *************** function _USBCtrlTrfRxService *****************
 10064 ;; Defined at:
 10065 ;;		line 1856 in file "mcc_generated_files/usb/usb_device.c"
 10066 ;; Parameters:    Size  Location     Type
 10067 ;;		None
 10068 ;; Auto vars:     Size  Location     Type
 10069 ;;  byteToRead      1    5[COMMON] unsigned char 
 10070 ;;  i               1    4[COMMON] unsigned char 
 10071 ;; Return value:  Size  Location     Type
 10072 ;;                  1    wreg      void 
 10073 ;; Registers used:
 10074 ;;		wreg, fsr1l, fsr1h, status,2, status,0, pclath, cstack
 10075 ;; Tracked objects:
 10076 ;;		On entry : 0/0
 10077 ;;		On exit  : 0/0
 10078 ;;		Unchanged: 0/0
 10079 ;; Data sizes:     COMMON   BANK0   BANK1   BANK2   BANK3   BANK4   BANK5   BANK6   BANK7   BANK8   BANK9  BANK10  BANK1
      +1  BANK12
 10080 ;;      Params:         0       0       0       0       0       0       0       0       0       0       0       0       
      +0       0
 10081 ;;      Locals:         2       0       0       0       0       0       0       0       0       0       0       0       
      +0       0
 10082 ;;      Temps:          2       0       0       0       0       0       0       0       0       0       0       0       
      +0       0
 10083 ;;      Totals:         4       0       0       0       0       0       0       0       0       0       0       0       
      +0       0
 10084 ;;Total ram usage:        4 bytes
 10085 ;; Hardware stack levels used:    1
 10086 ;; Hardware stack levels required when called:    1
 10087 ;; This function calls:
 10088 ;;		_USBCtrlEPAllowStatusStage
 10089 ;; This function is called by:
 10090 ;;		_USBCtrlTrfOutHandler
 10091 ;; This function uses a non-reentrant model
 10092 ;;
 10093                           
 10094                           
 10095                           ;psect for function _USBCtrlTrfRxService
 10096  0000'                    _USBCtrlTrfRxService:
 10097  0000'                    i1l3860:	
 10098                           ;incstack = 0
 10099                           ; Regs used in _USBCtrlTrfRxService: [wreg+fsr1l+fsr1h+status,2+status,0+pclath+cstack]
 10100                           
 10101                           
 10102                           ;mcc_generated_files/usb/usb_device.c: 1858:     uint8_t byteToRead;;mcc_generated_files
      +                          /usb/usb_device.c: 1859:     uint8_t i;;mcc_generated_files/usb/usb_device.c: 1863:     
      +                          byteToRead = pBDTEntryEP0OutCurrent->CNT;
 10103  0000' 0021               	movlb	1	; select bank1
 10104  0001' 0800'              	movf	_pBDTEntryEP0OutCurrent^(0+128),w
 10105  0002' 0086               	movwf	6
 10106  0003' 0187               	clrf	7
 10107  0004' 3F41               	moviw [1]fsr1
 10108  0005' 0085'              	movwf	USBCtrlTrfRxService@byteToRead
 10109  0006'                    i1l3862:
 10110                           
 10111                           ;mcc_generated_files/usb/usb_device.c: 1869:     if(byteToRead > outPipes[0].wCount.Val)
 10112  0006' 0805'              	movf	USBCtrlTrfRxService@byteToRead,w
 10113  0007' 0082'              	movwf	??_USBCtrlTrfRxService
 10114  0008' 0183'              	clrf	??_USBCtrlTrfRxService+1
 10115  0009' 0803'              	movf	??_USBCtrlTrfRxService+1,w
 10116  000A' 0203'              	subwf	((_outPipes+1)^(0+128)+3),w	;volatile
 10117  000B' 1D03               	skipz
 10118  000C' 2800'              	goto	u255_25
 10119  000D' 0802'              	movf	??_USBCtrlTrfRxService,w
 10120  000E' 0203'              	subwf	(_outPipes^(0+128)+3),w	;volatile
 10121  000F'                    u255_25:
 10122  000F' 1803               	skipnc
 10123  0010' 2800'              	goto	u255_21
 10124  0011' 2800'              	goto	u255_20
 10125  0012'                    u255_21:
 10126  0012' 2800'              	goto	i1l441
 10127  0013'                    u255_20:
 10128  0013'                    i1l3864:
 10129                           
 10130                           ;mcc_generated_files/usb/usb_device.c: 1870:     {;mcc_generated_files/usb/usb_device.c:
      +                           1871:         byteToRead = outPipes[0].wCount.Val;
 10131  0013' 0803'              	movf	(_outPipes^(0+128)+3),w	;volatile
 10132  0014' 0082'              	movwf	??_USBCtrlTrfRxService
 10133  0015' 0802'              	movf	??_USBCtrlTrfRxService,w
 10134  0016' 0085'              	movwf	USBCtrlTrfRxService@byteToRead
 10135  0017'                    i1l441:	
 10136                           ;mcc_generated_files/usb/usb_device.c: 1872:     }
 10137                           
 10138                           
 10139                           ;mcc_generated_files/usb/usb_device.c: 1874:     outPipes[0].wCount.Val -= byteToRead;
 10140  0017' 0805'              	movf	USBCtrlTrfRxService@byteToRead,w
 10141  0018' 0082'              	movwf	??_USBCtrlTrfRxService
 10142  0019' 0183'              	clrf	??_USBCtrlTrfRxService+1
 10143  001A' 0802'              	movf	??_USBCtrlTrfRxService,w
 10144  001B' 0283'              	subwf	(_outPipes^(0+128)+3),f	;volatile
 10145  001C' 0803'              	movf	??_USBCtrlTrfRxService+1,w
 10146  001D' 3B83'              	subwfb	((_outPipes+1)^(0+128)+3),f	;volatile
 10147  001E'                    i1l3866:
 10148                           
 10149                           ;mcc_generated_files/usb/usb_device.c: 1878:     for(i=0;i<byteToRead;i++)
 10150  001E' 0184'              	clrf	USBCtrlTrfRxService@i
 10151  001F' 2800'              	goto	i1l3874
 10152  0020'                    i1l3868:
 10153                           
 10154                           ;mcc_generated_files/usb/usb_device.c: 1879:     {;mcc_generated_files/usb/usb_device.c:
      +                           1880:         *outPipes[0].pDst.bRam++ = CtrlTrfData[i];
 10155  0020' 0804'              	movf	USBCtrlTrfRxService@i,w
 10156  0021' 3E58               	addlw	88
 10157  0022' 0086               	movwf	6
 10158  0023' 0187               	clrf	7
 10159  0024' 0801               	movf	1,w
 10160  0025' 0082'              	movwf	??_USBCtrlTrfRxService
 10161  0026' 0800'              	movf	_outPipes^(0+128),w	;volatile
 10162  0027' 0086               	movwf	6
 10163  0028' 3001               	movlw	1	; select bank2/3
 10164  0029' 0087               	movwf	7
 10165  002A' 0802'              	movf	??_USBCtrlTrfRxService,w
 10166  002B' 0081               	movwf	1
 10167  002C'                    i1l3870:
 10168  002C' 3001               	movlw	1
 10169  002D' 0082'              	movwf	??_USBCtrlTrfRxService
 10170  002E' 0802'              	movf	??_USBCtrlTrfRxService,w
 10171  002F' 0780'              	addwf	_outPipes^(0+128),f	;volatile
 10172  0030'                    i1l3872:
 10173                           
 10174                           ;mcc_generated_files/usb/usb_device.c: 1881:     }
 10175  0030' 3001               	movlw	1
 10176  0031' 0082'              	movwf	??_USBCtrlTrfRxService
 10177  0032' 0802'              	movf	??_USBCtrlTrfRxService,w
 10178  0033' 0784'              	addwf	USBCtrlTrfRxService@i,f
 10179  0034'                    i1l3874:
 10180  0034' 0805'              	movf	USBCtrlTrfRxService@byteToRead,w
 10181  0035' 0204'              	subwf	USBCtrlTrfRxService@i,w
 10182  0036' 1C03               	skipc
 10183  0037' 2800'              	goto	u256_21
 10184  0038' 2800'              	goto	u256_20
 10185  0039'                    u256_21:
 10186  0039' 2800'              	goto	i1l3868
 10187  003A'                    u256_20:
 10188  003A'                    i1l3876:
 10189                           
 10190                           ;mcc_generated_files/usb/usb_device.c: 1885:     if(outPipes[0].wCount.Val > 0)
 10191  003A' 0803'              	movf	(_outPipes^(0+128)+3),w	;volatile
 10192  003B' 0403'              	iorwf	((_outPipes+1)^(0+128)+3),w	;volatile
 10193  003C' 1903               	btfsc	3,2
 10194  003D' 2800'              	goto	u257_21
 10195  003E' 2800'              	goto	u257_20
 10196  003F'                    u257_21:
 10197  003F' 2800'              	goto	i1l3888
 10198  0040'                    u257_20:
 10199  0040'                    i1l3878:
 10200                           
 10201                           ;mcc_generated_files/usb/usb_device.c: 1886:     {;mcc_generated_files/usb/usb_device.c:
      +                           1887:         pBDTEntryEP0OutNext->CNT = 8;
 10202  0040' 0800'              	movf	_pBDTEntryEP0OutNext^(0+128),w
 10203  0041' 3E01               	addlw	1
 10204  0042' 0082'              	movwf	??_USBCtrlTrfRxService
 10205  0043' 3000               	movlw	0
 10206  0044' 3D00'              	addwfc	(_pBDTEntryEP0OutNext+1)^(0+128),w
 10207  0045' 0083'              	movwf	??_USBCtrlTrfRxService+1
 10208  0046' 0802'              	movf	??_USBCtrlTrfRxService,w
 10209  0047' 0086               	movwf	6
 10210  0048' 0803'              	movf	??_USBCtrlTrfRxService+1,w
 10211  0049' 0087               	movwf	7
 10212  004A' 3008               	movlw	8
 10213  004B' 0081               	movwf	1
 10214  004C'                    i1l3880:
 10215                           
 10216                           ;mcc_generated_files/usb/usb_device.c: 1888:         pBDTEntryEP0OutNext->ADR = (((uint1
      +                          6_t)(&CtrlTrfData)) & 0x7FFF);
 10217  004C' 3058               	movlw	88
 10218  004D' 0082'              	movwf	??_USBCtrlTrfRxService
 10219  004E' 3000               	movlw	0
 10220  004F' 0083'              	movwf	??_USBCtrlTrfRxService+1
 10221  0050' 0800'              	movf	_pBDTEntryEP0OutNext^(0+128),w
 10222  0051' 0086               	movwf	6
 10223  0052' 0800'              	movf	(_pBDTEntryEP0OutNext+1)^(0+128),w
 10224  0053' 0087               	movwf	7
 10225  0054' 3142               	addfsr 1,2
 10226  0055' 0802'              	movf	??_USBCtrlTrfRxService,w
 10227  0056' 3FC0               	movwi [0]fsr1
 10228  0057' 0803'              	movf	??_USBCtrlTrfRxService+1,w
 10229  0058' 3FC1               	movwi [1]fsr1
 10230  0059'                    i1l3882:
 10231                           
 10232                           ;mcc_generated_files/usb/usb_device.c: 1889:         if(pBDTEntryEP0OutCurrent->STAT.DTS
      +                           == 0)
 10233  0059' 0800'              	movf	_pBDTEntryEP0OutCurrent^(0+128),w
 10234  005A' 0086               	movwf	6
 10235  005B' 0187               	clrf	7
 10236  005C' 1B01               	btfsc	1,6
 10237  005D' 2800'              	goto	u258_21
 10238  005E' 2800'              	goto	u258_20
 10239  005F'                    u258_21:
 10240  005F' 2800'              	goto	i1l3886
 10241  0060'                    u258_20:
 10242  0060'                    i1l3884:
 10243                           
 10244                           ;mcc_generated_files/usb/usb_device.c: 1890:         {;mcc_generated_files/usb/usb_devic
      +                          e.c: 1891:             pBDTEntryEP0OutNext->STAT.Val = 0x40|(0x08 & 0x08);
 10245  0060' 0800'              	movf	_pBDTEntryEP0OutNext^(0+128),w
 10246  0061' 0086               	movwf	6
 10247  0062' 0800'              	movf	(_pBDTEntryEP0OutNext+1)^(0+128),w
 10248  0063' 0087               	movwf	7
 10249  0064' 3048               	movlw	72
 10250  0065' 0081               	movwf	1
 10251                           
 10252                           ;mcc_generated_files/usb/usb_device.c: 1892:             pBDTEntryEP0OutNext->STAT.Val |
      +                          = 0x80;
 10253  0066' 0800'              	movf	_pBDTEntryEP0OutNext^(0+128),w
 10254  0067' 0086               	movwf	6
 10255  0068' 0800'              	movf	(_pBDTEntryEP0OutNext+1)^(0+128),w
 10256  0069' 0087               	movwf	7
 10257  006A' 1781               	bsf	1,7
 10258                           
 10259                           ;mcc_generated_files/usb/usb_device.c: 1893:         }
 10260  006B' 2800'              	goto	i1l451
 10261  006C'                    i1l3886:
 10262                           
 10263                           ;mcc_generated_files/usb/usb_device.c: 1895:         {;mcc_generated_files/usb/usb_devic
      +                          e.c: 1896:             pBDTEntryEP0OutNext->STAT.Val = 0x00|(0x08 & 0x08);
 10264  006C' 0800'              	movf	_pBDTEntryEP0OutNext^(0+128),w
 10265  006D' 0086               	movwf	6
 10266  006E' 0800'              	movf	(_pBDTEntryEP0OutNext+1)^(0+128),w
 10267  006F' 0087               	movwf	7
 10268  0070' 3008               	movlw	8
 10269  0071' 0081               	movwf	1
 10270                           
 10271                           ;mcc_generated_files/usb/usb_device.c: 1897:             pBDTEntryEP0OutNext->STAT.Val |
      +                          = 0x80;
 10272  0072' 0800'              	movf	_pBDTEntryEP0OutNext^(0+128),w
 10273  0073' 0086               	movwf	6
 10274  0074' 0800'              	movf	(_pBDTEntryEP0OutNext+1)^(0+128),w
 10275  0075' 0087               	movwf	7
 10276  0076' 1781               	bsf	1,7
 10277  0077' 2800'              	goto	i1l451
 10278  0078'                    i1l3888:
 10279                           
 10280                           ;mcc_generated_files/usb/usb_device.c: 1901:     {;mcc_generated_files/usb/usb_device.c:
      +                           1905:         pBDTEntryEP0OutNext->CNT = 8;
 10281  0078' 0800'              	movf	_pBDTEntryEP0OutNext^(0+128),w
 10282  0079' 3E01               	addlw	1
 10283  007A' 0082'              	movwf	??_USBCtrlTrfRxService
 10284  007B' 3000               	movlw	0
 10285  007C' 3D00'              	addwfc	(_pBDTEntryEP0OutNext+1)^(0+128),w
 10286  007D' 0083'              	movwf	??_USBCtrlTrfRxService+1
 10287  007E' 0802'              	movf	??_USBCtrlTrfRxService,w
 10288  007F' 0086               	movwf	6
 10289  0080' 0803'              	movf	??_USBCtrlTrfRxService+1,w
 10290  0081' 0087               	movwf	7
 10291  0082' 3008               	movlw	8
 10292  0083' 0081               	movwf	1
 10293  0084'                    i1l3890:
 10294                           
 10295                           ;mcc_generated_files/usb/usb_device.c: 1906:         pBDTEntryEP0OutNext->ADR = (((uint1
      +                          6_t)(&SetupPkt)) & 0x7FFF);
 10296  0084' 3050               	movlw	80
 10297  0085' 0082'              	movwf	??_USBCtrlTrfRxService
 10298  0086' 3000               	movlw	0
 10299  0087' 0083'              	movwf	??_USBCtrlTrfRxService+1
 10300  0088' 0800'              	movf	_pBDTEntryEP0OutNext^(0+128),w
 10301  0089' 0086               	movwf	6
 10302  008A' 0800'              	movf	(_pBDTEntryEP0OutNext+1)^(0+128),w
 10303  008B' 0087               	movwf	7
 10304  008C' 3142               	addfsr 1,2
 10305  008D' 0802'              	movf	??_USBCtrlTrfRxService,w
 10306  008E' 3FC0               	movwi [0]fsr1
 10307  008F' 0803'              	movf	??_USBCtrlTrfRxService+1,w
 10308  0090' 3FC1               	movwi [1]fsr1
 10309  0091'                    i1l3892:
 10310                           
 10311                           ;mcc_generated_files/usb/usb_device.c: 1910:         pBDTEntryEP0OutNext->STAT.Val = 0x0
      +                          4;
 10312  0091' 0800'              	movf	_pBDTEntryEP0OutNext^(0+128),w
 10313  0092' 0086               	movwf	6
 10314  0093' 0800'              	movf	(_pBDTEntryEP0OutNext+1)^(0+128),w
 10315  0094' 0087               	movwf	7
 10316  0095' 3004               	movlw	4
 10317  0096' 0081               	movwf	1
 10318  0097'                    i1l3894:
 10319                           
 10320                           ;mcc_generated_files/usb/usb_device.c: 1911:         pBDTEntryEP0OutNext->STAT.Val |= 0x
      +                          80;
 10321  0097' 0800'              	movf	_pBDTEntryEP0OutNext^(0+128),w
 10322  0098' 0086               	movwf	6
 10323  0099' 0800'              	movf	(_pBDTEntryEP0OutNext+1)^(0+128),w
 10324  009A' 0087               	movwf	7
 10325  009B' 1781               	bsf	1,7
 10326  009C'                    i1l3896:
 10327                           
 10328                           ;mcc_generated_files/usb/usb_device.c: 1919:         {
 10329  009C' 0800'              	movf	(low ((_outPipes| 0+5)))^(0+128),w	;volatile
 10330  009D' 0800'              	movf	((low ((_outPipes| 0+5))+1))^(0+128),w	;volatile
 10331  009E'                    i1l449:
 10332  009E' 1382'              	bcf	(_outPipes^(0+128)+2),7	;volatile
 10333  009F'                    i1l3898:
 10334                           
 10335                           ;mcc_generated_files/usb/usb_device.c: 1945:         if(USBDeferStatusStagePacket == 0)
 10336  009F' 0023               	movlb	3	; select bank3
 10337  00A0' 0800'              	movf	_USBDeferStatusStagePacket^(0+384),w	;volatile
 10338  00A1' 1D03               	btfss	3,2
 10339  00A2' 2800'              	goto	u259_21
 10340  00A3' 2800'              	goto	u259_20
 10341  00A4'                    u259_21:
 10342  00A4' 2800'              	goto	i1l451
 10343  00A5'                    u259_20:
 10344  00A5'                    i1l3900:
 10345                           
 10346                           ;mcc_generated_files/usb/usb_device.c: 1946:         {;mcc_generated_files/usb/usb_devic
      +                          e.c: 1947:             USBCtrlEPAllowStatusStage();
 10347  00A5' 3180' 2000' 3180'  	fcall	_USBCtrlEPAllowStatusStage
 10348  00A8'                    i1l451:
 10349  00A8' 0008               	return
 10350  00A9'                    __end_of_USBCtrlTrfRxService:
 10351                           
 10352                           	psect	text44
 10353  0000'                    __ptext44:	
 10354 ;; *************** function _USBCtrlEPAllowStatusStage *****************
 10355 ;; Defined at:
 10356 ;;		line 1420 in file "mcc_generated_files/usb/usb_device.c"
 10357 ;; Parameters:    Size  Location     Type
 10358 ;;		None
 10359 ;; Auto vars:     Size  Location     Type
 10360 ;;		None
 10361 ;; Return value:  Size  Location     Type
 10362 ;;                  1    wreg      void 
 10363 ;; Registers used:
 10364 ;;		wreg, fsr1l, fsr1h, status,2, status,0
 10365 ;; Tracked objects:
 10366 ;;		On entry : 0/0
 10367 ;;		On exit  : 0/0
 10368 ;;		Unchanged: 0/0
 10369 ;; Data sizes:     COMMON   BANK0   BANK1   BANK2   BANK3   BANK4   BANK5   BANK6   BANK7   BANK8   BANK9  BANK10  BANK1
      +1  BANK12
 10370 ;;      Params:         0       0       0       0       0       0       0       0       0       0       0       0       
      +0       0
 10371 ;;      Locals:         0       0       0       0       0       0       0       0       0       0       0       0       
      +0       0
 10372 ;;      Temps:          2       0       0       0       0       0       0       0       0       0       0       0       
      +0       0
 10373 ;;      Totals:         2       0       0       0       0       0       0       0       0       0       0       0       
      +0       0
 10374 ;;Total ram usage:        2 bytes
 10375 ;; Hardware stack levels used:    1
 10376 ;; This function calls:
 10377 ;;		Nothing
 10378 ;; This function is called by:
 10379 ;;		_USBDeviceTasks
 10380 ;;		_USBCtrlEPServiceComplete
 10381 ;;		_USBCtrlTrfRxService
 10382 ;; This function uses a non-reentrant model
 10383 ;;
 10384                           
 10385                           
 10386                           ;psect for function _USBCtrlEPAllowStatusStage
 10387  0000'                    _USBCtrlEPAllowStatusStage:
 10388  0000'                    i1l3538:	
 10389                           ;incstack = 0
 10390                           ; Regs used in _USBCtrlEPAllowStatusStage: [wreg+fsr1l+fsr1h+status,2+status,0]
 10391                           
 10392                           
 10393                           ;mcc_generated_files/usb/usb_device.c: 1427:     if(USBStatusStageEnabledFlag1 == 0)
 10394  0000' 0023               	movlb	3	; select bank3
 10395  0001' 0800'              	movf	_USBStatusStageEnabledFlag1^(0+384),w	;volatile
 10396  0002' 1D03               	btfss	3,2
 10397  0003' 2800'              	goto	u212_21
 10398  0004' 2800'              	goto	u212_20
 10399  0005'                    u212_21:
 10400  0005' 2800'              	goto	i1l399
 10401  0006'                    u212_20:
 10402  0006'                    i1l3540:
 10403                           
 10404                           ;mcc_generated_files/usb/usb_device.c: 1428:     {;mcc_generated_files/usb/usb_device.c:
      +                           1429:         USBStatusStageEnabledFlag1 = 1;
 10405  0006' 3001               	movlw	1
 10406  0007' 0080'              	movwf	??_USBCtrlEPAllowStatusStage
 10407  0008' 0800'              	movf	??_USBCtrlEPAllowStatusStage,w
 10408  0009' 0080'              	movwf	_USBStatusStageEnabledFlag1^(0+384)	;volatile
 10409  000A'                    i1l3542:
 10410                           
 10411                           ;mcc_generated_files/usb/usb_device.c: 1430:         if(USBStatusStageEnabledFlag2 == 0)
 10412  000A' 0800'              	movf	_USBStatusStageEnabledFlag2^(0+384),w	;volatile
 10413  000B' 1D03               	btfss	3,2
 10414  000C' 2800'              	goto	u213_21
 10415  000D' 2800'              	goto	u213_20
 10416  000E'                    u213_21:
 10417  000E' 2800'              	goto	i1l399
 10418  000F'                    u213_20:
 10419  000F'                    i1l3544:
 10420                           
 10421                           ;mcc_generated_files/usb/usb_device.c: 1431:         {;mcc_generated_files/usb/usb_devic
      +                          e.c: 1432:             USBStatusStageEnabledFlag2 = 1;
 10422  000F' 3001               	movlw	1
 10423  0010' 0080'              	movwf	??_USBCtrlEPAllowStatusStage
 10424  0011' 0800'              	movf	??_USBCtrlEPAllowStatusStage,w
 10425  0012' 0080'              	movwf	_USBStatusStageEnabledFlag2^(0+384)	;volatile
 10426  0013'                    i1l3546:
 10427                           
 10428                           ;mcc_generated_files/usb/usb_device.c: 1436:             if(controlTransferState == 2)
 10429  0013' 3002               	movlw	2
 10430  0014' 0021               	movlb	1	; select bank1
 10431  0015' 0600'              	xorwf	_controlTransferState^(0+128),w	;volatile
 10432  0016' 1D03               	btfss	3,2
 10433  0017' 2800'              	goto	u214_21
 10434  0018' 2800'              	goto	u214_20
 10435  0019'                    u214_21:
 10436  0019' 2800'              	goto	i1l3554
 10437  001A'                    u214_20:
 10438  001A'                    i1l3548:
 10439                           
 10440                           ;mcc_generated_files/usb/usb_device.c: 1437:             {;mcc_generated_files/usb/usb_d
      +                          evice.c: 1438:                 pBDTEntryIn[0]->CNT = 0;
 10441  001A' 0800'              	movf	_pBDTEntryIn^(0+128),w
 10442  001B' 0086               	movwf	6
 10443  001C' 0800'              	movf	(_pBDTEntryIn+1)^(0+128),w
 10444  001D' 0087               	movwf	7
 10445  001E' 3141               	addfsr 1,1
 10446  001F' 0181               	clrf	1
 10447  0020'                    i1l3550:
 10448                           
 10449                           ;mcc_generated_files/usb/usb_device.c: 1439:                 pBDTEntryIn[0]->STAT.Val = 
      +                          0x40|(0x08 & 0x08);
 10450  0020' 0800'              	movf	_pBDTEntryIn^(0+128),w
 10451  0021' 0086               	movwf	6
 10452  0022' 0800'              	movf	(_pBDTEntryIn+1)^(0+128),w
 10453  0023' 0087               	movwf	7
 10454  0024' 3048               	movlw	72
 10455  0025' 0081               	movwf	1
 10456  0026'                    i1l3552:
 10457                           
 10458                           ;mcc_generated_files/usb/usb_device.c: 1440:                 pBDTEntryIn[0]->STAT.Val |=
      +                           0x80;
 10459  0026' 0800'              	movf	_pBDTEntryIn^(0+128),w
 10460  0027' 0086               	movwf	6
 10461  0028' 0800'              	movf	(_pBDTEntryIn+1)^(0+128),w
 10462  0029' 0087               	movwf	7
 10463  002A' 1781               	bsf	1,7
 10464                           
 10465                           ;mcc_generated_files/usb/usb_device.c: 1441:             }
 10466  002B' 2800'              	goto	i1l399
 10467  002C'                    i1l3554:
 10468  002C' 0300'              	decf	_controlTransferState^(0+128),w	;volatile
 10469  002D' 1D03               	btfss	3,2
 10470  002E' 2800'              	goto	u215_21
 10471  002F' 2800'              	goto	u215_20
 10472  0030'                    u215_21:
 10473  0030' 2800'              	goto	i1l395
 10474  0031'                    u215_20:
 10475  0031'                    i1l3556:
 10476                           
 10477                           ;mcc_generated_files/usb/usb_device.c: 1443:             {;mcc_generated_files/usb/usb_d
      +                          evice.c: 1444:                 BothEP0OutUOWNsSet = 0;
 10478  0031' 0023               	movlb	3	; select bank3
 10479  0032' 0180'              	clrf	_BothEP0OutUOWNsSet^(0+384)	;volatile
 10480  0033'                    i1l3558:
 10481                           
 10482                           ;mcc_generated_files/usb/usb_device.c: 1449:                     pBDTEntryEP0OutCurrent-
      +                          >CNT = 8;
 10483  0033' 3008               	movlw	8
 10484  0034' 0080'              	movwf	??_USBCtrlEPAllowStatusStage
 10485  0035' 0021               	movlb	1	; select bank1
 10486  0036' 0A00'              	incf	_pBDTEntryEP0OutCurrent^(0+128),w
 10487  0037' 0086               	movwf	6
 10488  0038' 0187               	clrf	7
 10489  0039' 0800'              	movf	??_USBCtrlEPAllowStatusStage,w
 10490  003A' 0081               	movwf	1
 10491  003B'                    i1l3560:
 10492                           
 10493                           ;mcc_generated_files/usb/usb_device.c: 1450:                     pBDTEntryEP0OutCurrent-
      +                          >ADR = (((uint16_t)(&SetupPkt)) & 0x7FFF);
 10494  003B' 3050               	movlw	80
 10495  003C' 0080'              	movwf	??_USBCtrlEPAllowStatusStage
 10496  003D' 3000               	movlw	0
 10497  003E' 0081'              	movwf	??_USBCtrlEPAllowStatusStage+1
 10498  003F' 0800'              	movf	_pBDTEntryEP0OutCurrent^(0+128),w
 10499  0040' 3E02               	addlw	2
 10500  0041' 0086               	movwf	6
 10501  0042' 0187               	clrf	7
 10502  0043' 0800'              	movf	??_USBCtrlEPAllowStatusStage,w
 10503  0044' 3FC0               	movwi [0]fsr1
 10504  0045' 0801'              	movf	??_USBCtrlEPAllowStatusStage+1,w
 10505  0046' 3FC1               	movwi [1]fsr1
 10506  0047'                    i1l3562:
 10507                           
 10508                           ;mcc_generated_files/usb/usb_device.c: 1451:                     pBDTEntryEP0OutCurrent-
      +                          >STAT.Val = 0x04;
 10509  0047' 3004               	movlw	4
 10510  0048' 0080'              	movwf	??_USBCtrlEPAllowStatusStage
 10511  0049' 0800'              	movf	_pBDTEntryEP0OutCurrent^(0+128),w
 10512  004A' 0086               	movwf	6
 10513  004B' 0187               	clrf	7
 10514  004C' 0800'              	movf	??_USBCtrlEPAllowStatusStage,w
 10515  004D' 0081               	movwf	1
 10516  004E'                    i1l3564:
 10517                           
 10518                           ;mcc_generated_files/usb/usb_device.c: 1452:                     pBDTEntryEP0OutCurrent-
      +                          >STAT.Val |= 0x80;
 10519  004E' 0800'              	movf	_pBDTEntryEP0OutCurrent^(0+128),w
 10520  004F' 0086               	movwf	6
 10521  0050' 0187               	clrf	7
 10522  0051' 1781               	bsf	1,7
 10523  0052'                    i1l3566:
 10524                           
 10525                           ;mcc_generated_files/usb/usb_device.c: 1453:                     BothEP0OutUOWNsSet = 1;
 10526  0052' 3001               	movlw	1
 10527  0053' 0080'              	movwf	??_USBCtrlEPAllowStatusStage
 10528  0054' 0800'              	movf	??_USBCtrlEPAllowStatusStage,w
 10529  0055' 0023               	movlb	3	; select bank3
 10530  0056' 0080'              	movwf	_BothEP0OutUOWNsSet^(0+384)	;volatile
 10531  0057'                    i1l3568:
 10532                           
 10533                           ;mcc_generated_files/usb/usb_device.c: 1457:                 pBDTEntryEP0OutNext->CNT = 
      +                          8;
 10534  0057' 0021               	movlb	1	; select bank1
 10535  0058' 0800'              	movf	_pBDTEntryEP0OutNext^(0+128),w
 10536  0059' 3E01               	addlw	1
 10537  005A' 0080'              	movwf	??_USBCtrlEPAllowStatusStage
 10538  005B' 3000               	movlw	0
 10539  005C' 3D00'              	addwfc	(_pBDTEntryEP0OutNext+1)^(0+128),w
 10540  005D' 0081'              	movwf	??_USBCtrlEPAllowStatusStage+1
 10541  005E' 0800'              	movf	??_USBCtrlEPAllowStatusStage,w
 10542  005F' 0086               	movwf	6
 10543  0060' 0801'              	movf	??_USBCtrlEPAllowStatusStage+1,w
 10544  0061' 0087               	movwf	7
 10545  0062' 3008               	movlw	8
 10546  0063' 0081               	movwf	1
 10547  0064'                    i1l3570:
 10548                           
 10549                           ;mcc_generated_files/usb/usb_device.c: 1458:                 pBDTEntryEP0OutNext->ADR = 
      +                          (((uint16_t)(&SetupPkt)) & 0x7FFF);
 10550  0064' 3050               	movlw	80
 10551  0065' 0080'              	movwf	??_USBCtrlEPAllowStatusStage
 10552  0066' 3000               	movlw	0
 10553  0067' 0081'              	movwf	??_USBCtrlEPAllowStatusStage+1
 10554  0068' 0800'              	movf	_pBDTEntryEP0OutNext^(0+128),w
 10555  0069' 0086               	movwf	6
 10556  006A' 0800'              	movf	(_pBDTEntryEP0OutNext+1)^(0+128),w
 10557  006B' 0087               	movwf	7
 10558  006C' 3142               	addfsr 1,2
 10559  006D' 0800'              	movf	??_USBCtrlEPAllowStatusStage,w
 10560  006E' 3FC0               	movwi [0]fsr1
 10561  006F' 0801'              	movf	??_USBCtrlEPAllowStatusStage+1,w
 10562  0070' 3FC1               	movwi [1]fsr1
 10563  0071'                    i1l3572:
 10564                           
 10565                           ;mcc_generated_files/usb/usb_device.c: 1459:                 pBDTEntryEP0OutNext->STAT.V
      +                          al = 0x80;
 10566  0071' 0800'              	movf	_pBDTEntryEP0OutNext^(0+128),w
 10567  0072' 0086               	movwf	6
 10568  0073' 0800'              	movf	(_pBDTEntryEP0OutNext+1)^(0+128),w
 10569  0074' 0087               	movwf	7
 10570  0075' 3080               	movlw	128
 10571  0076' 0081               	movwf	1
 10572  0077' 2800'              	goto	i1l399
 10573  0078'                    i1l395:	
 10574                           ;mcc_generated_files/usb/usb_device.c: 1461:         }
 10575                           
 10576  0078'                    i1l399:
 10577  0078' 0008               	return
 10578  0079'                    __end_of_USBCtrlEPAllowStatusStage:
 10579                           
 10580                           	psect	text45
 10581  0000'                    __ptext45:	
 10582 ;; *************** function _USBCtrlTrfInHandler *****************
 10583 ;; Defined at:
 10584 ;;		line 2596 in file "mcc_generated_files/usb/usb_device.c"
 10585 ;; Parameters:    Size  Location     Type
 10586 ;;		None
 10587 ;; Auto vars:     Size  Location     Type
 10588 ;;  lastDTS         1    5[COMMON] unsigned char 
 10589 ;; Return value:  Size  Location     Type
 10590 ;;                  1    wreg      void 
 10591 ;; Registers used:
 10592 ;;		wreg, fsr0l, fsr0h, fsr1l, fsr1h, status,2, status,0, pclath, cstack
 10593 ;; Tracked objects:
 10594 ;;		On entry : 0/0
 10595 ;;		On exit  : 0/0
 10596 ;;		Unchanged: 0/0
 10597 ;; Data sizes:     COMMON   BANK0   BANK1   BANK2   BANK3   BANK4   BANK5   BANK6   BANK7   BANK8   BANK9  BANK10  BANK1
      +1  BANK12
 10598 ;;      Params:         0       0       0       0       0       0       0       0       0       0       0       0       
      +0       0
 10599 ;;      Locals:         1       0       0       0       0       0       0       0       0       0       0       0       
      +0       0
 10600 ;;      Temps:          2       0       0       0       0       0       0       0       0       0       0       0       
      +0       0
 10601 ;;      Totals:         3       0       0       0       0       0       0       0       0       0       0       0       
      +0       0
 10602 ;;Total ram usage:        3 bytes
 10603 ;; Hardware stack levels used:    1
 10604 ;; Hardware stack levels required when called:    1
 10605 ;; This function calls:
 10606 ;;		_USBCtrlTrfTxService
 10607 ;; This function is called by:
 10608 ;;		_USBCtrlEPService
 10609 ;; This function uses a non-reentrant model
 10610 ;;
 10611                           
 10612                           
 10613                           ;psect for function _USBCtrlTrfInHandler
 10614  0000'                    _USBCtrlTrfInHandler:
 10615  0000'                    i1l4012:	
 10616                           ;incstack = 0
 10617                           ; Regs used in _USBCtrlTrfInHandler: [wreg-fsr1h+status,2+status,0+pclath+cstack]
 10618                           
 10619                           
 10620                           ;mcc_generated_files/usb/usb_device.c: 2598:     uint8_t lastDTS;;mcc_generated_files/us
      +                          b/usb_device.c: 2600:     lastDTS = pBDTEntryIn[0]->STAT.DTS;
 10621  0000' 0021               	movlb	1	; select bank1
 10622  0001' 0800'              	movf	_pBDTEntryIn^(0+128),w
 10623  0002' 0086               	movwf	6
 10624  0003' 0800'              	movf	(_pBDTEntryIn+1)^(0+128),w
 10625  0004' 0087               	movwf	7
 10626  0005' 3000               	movlw	0
 10627  0006' 1B01               	btfsc	1,6
 10628  0007' 3001               	movlw	1
 10629  0008' 0085'              	movwf	USBCtrlTrfInHandler@lastDTS
 10630  0009'                    i1l4014:
 10631                           
 10632                           ;mcc_generated_files/usb/usb_device.c: 2603:     pBDTEntryIn[0] = (volatile BDT_ENTRY*)(
      +                          ((uint16_t)pBDTEntryIn[0]) ^ 0x0004);
 10633  0009' 3004               	movlw	4
 10634  000A' 0600'              	xorwf	_pBDTEntryIn^(0+128),w
 10635  000B' 0080'              	movwf	_pBDTEntryIn^(0+128)
 10636  000C' 3000               	movlw	0
 10637  000D' 0600'              	xorwf	(_pBDTEntryIn+1)^(0+128),w
 10638  000E' 0080'              	movwf	(_pBDTEntryIn+1)^(0+128)
 10639  000F'                    i1l4016:
 10640                           
 10641                           ;mcc_generated_files/usb/usb_device.c: 2608:     if(USBDeviceState == ADR_PENDING_STATE)
 10642  000F' 3008               	movlw	8
 10643  0010' 0600'              	xorwf	_USBDeviceState^(0+128),w	;volatile
 10644  0011' 1D03               	btfss	3,2
 10645  0012' 2800'              	goto	u264_21
 10646  0013' 2800'              	goto	u264_20
 10647  0014'                    u264_21:
 10648  0014' 2800'              	goto	i1l4026
 10649  0015'                    u264_20:
 10650  0015'                    i1l4018:
 10651                           
 10652                           ;mcc_generated_files/usb/usb_device.c: 2609:     {;mcc_generated_files/usb/usb_device.c:
      +                           2610:         UADDR = (SetupPkt.bDevADR & 0x7F);
 10653  0015' 0020               	movlb	0	; select bank0
 10654  0016' 0852               	movf	82,w	;volatile
 10655  0017' 397F               	andlw	127
 10656  0018' 003D               	movlb	29	; select bank29
 10657  0019' 0096               	movwf	22	;volatile
 10658  001A'                    i1l4020:
 10659                           
 10660                           ;mcc_generated_files/usb/usb_device.c: 2611:         if(UADDR != 0u)
 10661  001A' 0816               	movf	22,w	;volatile
 10662  001B' 1903               	btfsc	3,2
 10663  001C' 2800'              	goto	u265_21
 10664  001D' 2800'              	goto	u265_20
 10665  001E'                    u265_21:
 10666  001E' 2800'              	goto	i1l4024
 10667  001F'                    u265_20:
 10668  001F'                    i1l4022:
 10669                           
 10670                           ;mcc_generated_files/usb/usb_device.c: 2612:         {;mcc_generated_files/usb/usb_devic
      +                          e.c: 2613:             USBDeviceState=ADDRESS_STATE;
 10671  001F' 3010               	movlw	16
 10672  0020' 0083'              	movwf	??_USBCtrlTrfInHandler
 10673  0021' 0803'              	movf	??_USBCtrlTrfInHandler,w
 10674  0022' 0021               	movlb	1	; select bank1
 10675  0023' 0080'              	movwf	_USBDeviceState^(0+128)	;volatile
 10676                           
 10677                           ;mcc_generated_files/usb/usb_device.c: 2614:         }
 10678  0024' 2800'              	goto	i1l4026
 10679  0025'                    i1l4024:
 10680                           
 10681                           ;mcc_generated_files/usb/usb_device.c: 2616:         {;mcc_generated_files/usb/usb_devic
      +                          e.c: 2617:             USBDeviceState=DEFAULT_STATE;
 10682  0025' 3004               	movlw	4
 10683  0026' 0083'              	movwf	??_USBCtrlTrfInHandler
 10684  0027' 0803'              	movf	??_USBCtrlTrfInHandler,w
 10685  0028' 0021               	movlb	1	; select bank1
 10686  0029' 0080'              	movwf	_USBDeviceState^(0+128)	;volatile
 10687  002A'                    i1l4026:
 10688                           
 10689                           ;mcc_generated_files/usb/usb_device.c: 2622:     if(controlTransferState == 1)
 10690  002A' 0300'              	decf	_controlTransferState^(0+128),w	;volatile
 10691  002B' 1D03               	btfss	3,2
 10692  002C' 2800'              	goto	u266_21
 10693  002D' 2800'              	goto	u266_20
 10694  002E'                    u266_21:
 10695  002E' 2800'              	goto	i1l526
 10696  002F'                    u266_20:
 10697  002F'                    i1l4028:
 10698                           
 10699                           ;mcc_generated_files/usb/usb_device.c: 2623:     {;mcc_generated_files/usb/usb_device.c:
      +                           2624:         pBDTEntryIn[0]->ADR = (((uint16_t)(CtrlTrfData)) & 0x7FFF);
 10700  002F' 3058               	movlw	88
 10701  0030' 0083'              	movwf	??_USBCtrlTrfInHandler
 10702  0031' 3000               	movlw	0
 10703  0032' 0084'              	movwf	??_USBCtrlTrfInHandler+1
 10704  0033' 0800'              	movf	_pBDTEntryIn^(0+128),w
 10705  0034' 0086               	movwf	6
 10706  0035' 0800'              	movf	(_pBDTEntryIn+1)^(0+128),w
 10707  0036' 0087               	movwf	7
 10708  0037' 3142               	addfsr 1,2
 10709  0038' 0803'              	movf	??_USBCtrlTrfInHandler,w
 10710  0039' 3FC0               	movwi [0]fsr1
 10711  003A' 0804'              	movf	??_USBCtrlTrfInHandler+1,w
 10712  003B' 3FC1               	movwi [1]fsr1
 10713  003C'                    i1l4030:
 10714                           
 10715                           ;mcc_generated_files/usb/usb_device.c: 2625:         USBCtrlTrfTxService();
 10716  003C' 3180' 2000' 3180'  	fcall	_USBCtrlTrfTxService
 10717  003F'                    i1l4032:
 10718                           
 10719                           ;mcc_generated_files/usb/usb_device.c: 2631:         if(shortPacketStatus == 2)
 10720  003F' 3002               	movlw	2
 10721  0040' 0021               	movlb	1	; select bank1
 10722  0041' 0600'              	xorwf	_shortPacketStatus^(0+128),w	;volatile
 10723  0042' 1D03               	btfss	3,2
 10724  0043' 2800'              	goto	u267_21
 10725  0044' 2800'              	goto	u267_20
 10726  0045'                    u267_21:
 10727  0045' 2800'              	goto	i1l4036
 10728  0046'                    u267_20:
 10729  0046'                    i1l4034:
 10730                           
 10731                           ;mcc_generated_files/usb/usb_device.c: 2632:         {;mcc_generated_files/usb/usb_devic
      +                          e.c: 2635:             pBDTEntryIn[0]->STAT.Val = 0x04;
 10732  0046' 0800'              	movf	_pBDTEntryIn^(0+128),w
 10733  0047' 0086               	movwf	6
 10734  0048' 0800'              	movf	(_pBDTEntryIn+1)^(0+128),w
 10735  0049' 0087               	movwf	7
 10736  004A' 3004               	movlw	4
 10737  004B' 0081               	movwf	1
 10738                           
 10739                           ;mcc_generated_files/usb/usb_device.c: 2636:             pBDTEntryIn[0]->STAT.Val |= 0x8
      +                          0;
 10740  004C' 0800'              	movf	_pBDTEntryIn^(0+128),w
 10741  004D' 0086               	movwf	6
 10742  004E' 0800'              	movf	(_pBDTEntryIn+1)^(0+128),w
 10743  004F' 0087               	movwf	7
 10744  0050' 1781               	bsf	1,7
 10745                           
 10746                           ;mcc_generated_files/usb/usb_device.c: 2637:         }
 10747  0051' 2800'              	goto	i1l534
 10748  0052'                    i1l4036:
 10749                           
 10750                           ;mcc_generated_files/usb/usb_device.c: 2639:         {;mcc_generated_files/usb/usb_devic
      +                          e.c: 2640:             if(lastDTS == 0)
 10751  0052' 0805'              	movf	USBCtrlTrfInHandler@lastDTS,w
 10752  0053' 1D03               	btfss	3,2
 10753  0054' 2800'              	goto	u268_21
 10754  0055' 2800'              	goto	u268_20
 10755  0056'                    u268_21:
 10756  0056' 2800'              	goto	i1l4040
 10757  0057'                    u268_20:
 10758  0057'                    i1l4038:
 10759                           
 10760                           ;mcc_generated_files/usb/usb_device.c: 2641:             {;mcc_generated_files/usb/usb_d
      +                          evice.c: 2642:                 pBDTEntryIn[0]->STAT.Val = 0x40|(0x08 & 0x08);
 10761  0057' 0800'              	movf	_pBDTEntryIn^(0+128),w
 10762  0058' 0086               	movwf	6
 10763  0059' 0800'              	movf	(_pBDTEntryIn+1)^(0+128),w
 10764  005A' 0087               	movwf	7
 10765  005B' 3048               	movlw	72
 10766  005C' 0081               	movwf	1
 10767                           
 10768                           ;mcc_generated_files/usb/usb_device.c: 2643:                 pBDTEntryIn[0]->STAT.Val |=
      +                           0x80;
 10769  005D' 0800'              	movf	_pBDTEntryIn^(0+128),w
 10770  005E' 0086               	movwf	6
 10771  005F' 0800'              	movf	(_pBDTEntryIn+1)^(0+128),w
 10772  0060' 0087               	movwf	7
 10773  0061' 1781               	bsf	1,7
 10774                           
 10775                           ;mcc_generated_files/usb/usb_device.c: 2644:             }
 10776  0062' 2800'              	goto	i1l534
 10777  0063'                    i1l4040:
 10778                           
 10779                           ;mcc_generated_files/usb/usb_device.c: 2646:             {;mcc_generated_files/usb/usb_d
      +                          evice.c: 2647:                 pBDTEntryIn[0]->STAT.Val = 0x00|(0x08 & 0x08);
 10780  0063' 0800'              	movf	_pBDTEntryIn^(0+128),w
 10781  0064' 0086               	movwf	6
 10782  0065' 0800'              	movf	(_pBDTEntryIn+1)^(0+128),w
 10783  0066' 0087               	movwf	7
 10784  0067' 3008               	movlw	8
 10785  0068' 0081               	movwf	1
 10786                           
 10787                           ;mcc_generated_files/usb/usb_device.c: 2648:                 pBDTEntryIn[0]->STAT.Val |=
      +                           0x80;
 10788  0069' 0800'              	movf	_pBDTEntryIn^(0+128),w
 10789  006A' 0086               	movwf	6
 10790  006B' 0800'              	movf	(_pBDTEntryIn+1)^(0+128),w
 10791  006C' 0087               	movwf	7
 10792  006D' 1781               	bsf	1,7
 10793  006E' 2800'              	goto	i1l534
 10794  006F'                    i1l526:	
 10795                           ;mcc_generated_files/usb/usb_device.c: 2652:  else
 10796                           
 10797                           
 10798                           ;mcc_generated_files/usb/usb_device.c: 2653:  {;mcc_generated_files/usb/usb_device.c: 26
      +                          57:         if(outPipes[0].info.bits.busy == 1)
 10799  006F' 1F82'              	btfss	(_outPipes^(0+128)+2),7	;volatile
 10800  0070' 2800'              	goto	u269_21
 10801  0071' 2800'              	goto	u269_20
 10802  0072'                    u269_21:
 10803  0072' 2800'              	goto	i1l4044
 10804  0073'                    u269_20:
 10805  0073'                    i1l4042:
 10806                           
 10807                           ;mcc_generated_files/usb/usb_device.c: 2660:             {;mcc_generated_files/usb/usb_d
      +                          evice.c: 2661:                 outPipes[0].pFunc();
 10808  0073' 0800'              	movf	(low ((_outPipes| 0+5)))^(0+128),w	;volatile
 10809  0074' 0800'              	movf	((low ((_outPipes| 0+5))+1))^(0+128),w	;volatile
 10810  0075'                    i1l533:	
 10811                           ;mcc_generated_files/usb/usb_device.c: 2662:             }
 10812                           
 10813                           
 10814                           ;mcc_generated_files/usb/usb_device.c: 2663:             outPipes[0].info.bits.busy = 0;
 10815  0075' 1382'              	bcf	(_outPipes^(0+128)+2),7	;volatile
 10816  0076'                    i1l4044:
 10817                           
 10818                           ;mcc_generated_files/usb/usb_device.c: 2666:         controlTransferState = 0;
 10819  0076' 0180'              	clrf	_controlTransferState^(0+128)	;volatile
 10820  0077'                    i1l534:
 10821  0077' 0008               	return
 10822  0078'                    __end_of_USBCtrlTrfInHandler:
 10823                           
 10824                           	psect	text46
 10825  0000'                    __ptext46:	
 10826 ;; *************** function _USBCtrlTrfTxService *****************
 10827 ;; Defined at:
 10828 ;;		line 1775 in file "mcc_generated_files/usb/usb_device.c"
 10829 ;; Parameters:    Size  Location     Type
 10830 ;;		None
 10831 ;; Auto vars:     Size  Location     Type
 10832 ;;  byteToSend      1    2[COMMON] unsigned char 
 10833 ;; Return value:  Size  Location     Type
 10834 ;;                  1    wreg      void 
 10835 ;; Registers used:
 10836 ;;		wreg, fsr0l, fsr0h, fsr1l, fsr1h, status,2, status,0, pclath
 10837 ;; Tracked objects:
 10838 ;;		On entry : 0/0
 10839 ;;		On exit  : 0/0
 10840 ;;		Unchanged: 0/0
 10841 ;; Data sizes:     COMMON   BANK0   BANK1   BANK2   BANK3   BANK4   BANK5   BANK6   BANK7   BANK8   BANK9  BANK10  BANK1
      +1  BANK12
 10842 ;;      Params:         0       0       0       0       0       0       0       0       0       0       0       0       
      +0       0
 10843 ;;      Locals:         1       0       0       0       0       0       0       0       0       0       0       0       
      +0       0
 10844 ;;      Temps:          2       0       0       0       0       0       0       0       0       0       0       0       
      +0       0
 10845 ;;      Totals:         3       0       0       0       0       0       0       0       0       0       0       0       
      +0       0
 10846 ;;Total ram usage:        3 bytes
 10847 ;; Hardware stack levels used:    1
 10848 ;; This function calls:
 10849 ;;		Nothing
 10850 ;; This function is called by:
 10851 ;;		_USBCtrlEPAllowDataStage
 10852 ;;		_USBCtrlTrfInHandler
 10853 ;; This function uses a non-reentrant model
 10854 ;;
 10855                           
 10856                           
 10857                           ;psect for function _USBCtrlTrfTxService
 10858  0000'                    _USBCtrlTrfTxService:
 10859  0000'                    i1l3456:	
 10860                           ;incstack = 0
 10861                           ; Regs used in _USBCtrlTrfTxService: [wreg-fsr1h+status,2+status,0+pclath]
 10862                           
 10863                           
 10864                           ;mcc_generated_files/usb/usb_device.c: 1777:     uint8_t byteToSend;;mcc_generated_files
      +                          /usb/usb_device.c: 1781:     byteToSend = 8;
 10865  0000' 3008               	movlw	8
 10866  0001' 0080'              	movwf	??_USBCtrlTrfTxService
 10867  0002' 0800'              	movf	??_USBCtrlTrfTxService,w
 10868  0003' 0082'              	movwf	USBCtrlTrfTxService@byteToSend
 10869                           
 10870                           ;mcc_generated_files/usb/usb_device.c: 1782:     if(inPipes[0].wCount.Val < (uint8_t)8)
 10871  0004' 3000               	movlw	0
 10872  0005' 0021               	movlb	1	; select bank1
 10873  0006' 0203'              	subwf	((_inPipes+1)^(0+128)+3),w	;volatile
 10874  0007' 3008               	movlw	8
 10875  0008' 1903               	skipnz
 10876  0009' 0203'              	subwf	(_inPipes^(0+128)+3),w	;volatile
 10877  000A' 1803               	skipnc
 10878  000B' 2800'              	goto	u201_21
 10879  000C' 2800'              	goto	u201_20
 10880  000D'                    u201_21:
 10881  000D' 2800'              	goto	i1l426
 10882  000E'                    u201_20:
 10883  000E'                    i1l3458:
 10884                           
 10885                           ;mcc_generated_files/usb/usb_device.c: 1783:     {;mcc_generated_files/usb/usb_device.c:
      +                           1784:         byteToSend = inPipes[0].wCount.Val;
 10886  000E' 0803'              	movf	(_inPipes^(0+128)+3),w	;volatile
 10887  000F' 0080'              	movwf	??_USBCtrlTrfTxService
 10888  0010' 0800'              	movf	??_USBCtrlTrfTxService,w
 10889  0011' 0082'              	movwf	USBCtrlTrfTxService@byteToSend
 10890  0012'                    i1l3460:
 10891                           
 10892                           ;mcc_generated_files/usb/usb_device.c: 1791:         if(shortPacketStatus == 0)
 10893  0012' 0800'              	movf	_shortPacketStatus^(0+128),w	;volatile
 10894  0013' 1D03               	btfss	3,2
 10895  0014' 2800'              	goto	u202_21
 10896  0015' 2800'              	goto	u202_20
 10897  0016'                    u202_21:
 10898  0016' 2800'              	goto	i1l3464
 10899  0017'                    u202_20:
 10900  0017'                    i1l3462:
 10901                           
 10902                           ;mcc_generated_files/usb/usb_device.c: 1792:         {;mcc_generated_files/usb/usb_devic
      +                          e.c: 1793:             shortPacketStatus = 1;
 10903  0017' 3001               	movlw	1
 10904  0018' 0080'              	movwf	??_USBCtrlTrfTxService
 10905  0019' 0800'              	movf	??_USBCtrlTrfTxService,w
 10906  001A' 0080'              	movwf	_shortPacketStatus^(0+128)	;volatile
 10907                           
 10908                           ;mcc_generated_files/usb/usb_device.c: 1794:         }
 10909  001B' 2800'              	goto	i1l426
 10910  001C'                    i1l3464:
 10911  001C' 0300'              	decf	_shortPacketStatus^(0+128),w	;volatile
 10912  001D' 1D03               	btfss	3,2
 10913  001E' 2800'              	goto	u203_21
 10914  001F' 2800'              	goto	u203_20
 10915  0020'                    u203_21:
 10916  0020' 2800'              	goto	i1l426
 10917  0021'                    u203_20:
 10918  0021'                    i1l3466:
 10919                           
 10920                           ;mcc_generated_files/usb/usb_device.c: 1796:         {;mcc_generated_files/usb/usb_devic
      +                          e.c: 1797:             shortPacketStatus = 2;
 10921  0021' 3002               	movlw	2
 10922  0022' 0080'              	movwf	??_USBCtrlTrfTxService
 10923  0023' 0800'              	movf	??_USBCtrlTrfTxService,w
 10924  0024' 0080'              	movwf	_shortPacketStatus^(0+128)	;volatile
 10925  0025'                    i1l426:	
 10926                           ;mcc_generated_files/usb/usb_device.c: 1799:     }
 10927                           
 10928                           
 10929                           ;mcc_generated_files/usb/usb_device.c: 1803:     inPipes[0].wCount.Val -= byteToSend;
 10930  0025' 0802'              	movf	USBCtrlTrfTxService@byteToSend,w
 10931  0026' 0080'              	movwf	??_USBCtrlTrfTxService
 10932  0027' 0181'              	clrf	??_USBCtrlTrfTxService+1
 10933  0028' 0800'              	movf	??_USBCtrlTrfTxService,w
 10934  0029' 0283'              	subwf	(_inPipes^(0+128)+3),f	;volatile
 10935  002A' 0801'              	movf	??_USBCtrlTrfTxService+1,w
 10936  002B' 3B83'              	subwfb	((_inPipes+1)^(0+128)+3),f	;volatile
 10937  002C'                    i1l3468:
 10938                           
 10939                           ;mcc_generated_files/usb/usb_device.c: 1808:     pBDTEntryIn[0]->CNT = byteToSend;
 10940  002C' 0800'              	movf	_pBDTEntryIn^(0+128),w
 10941  002D' 3E01               	addlw	1
 10942  002E' 0080'              	movwf	??_USBCtrlTrfTxService
 10943  002F' 3000               	movlw	0
 10944  0030' 3D00'              	addwfc	(_pBDTEntryIn+1)^(0+128),w
 10945  0031' 0081'              	movwf	??_USBCtrlTrfTxService+1
 10946  0032' 0800'              	movf	??_USBCtrlTrfTxService,w
 10947  0033' 0086               	movwf	6
 10948  0034' 0801'              	movf	??_USBCtrlTrfTxService+1,w
 10949  0035' 0087               	movwf	7
 10950  0036' 0802'              	movf	USBCtrlTrfTxService@byteToSend,w
 10951  0037' 0081               	movwf	1
 10952  0038'                    i1l3470:
 10953                           
 10954                           ;mcc_generated_files/usb/usb_device.c: 1812:     pDst = (volatile uint8_t*)CtrlTrfData;
 10955  0038' 3058               	movlw	88
 10956  0039' 0080'              	movwf	??_USBCtrlTrfTxService
 10957  003A' 0800'              	movf	??_USBCtrlTrfTxService,w
 10958  003B' 0023               	movlb	3	; select bank3
 10959  003C' 0080'              	movwf	_pDst^(0+384)
 10960  003D'                    i1l3472:
 10961                           
 10962                           ;mcc_generated_files/usb/usb_device.c: 1813:     if(inPipes[0].info.bits.ctrl_trf_mem ==
      +                           0x00)
 10963  003D' 0021               	movlb	1	; select bank1
 10964  003E' 1802'              	btfsc	(_inPipes^(0+128)+2),0	;volatile
 10965  003F' 2800'              	goto	u204_21
 10966  0040' 2800'              	goto	u204_20
 10967  0041'                    u204_21:
 10968  0041' 2800'              	goto	i1l3494
 10969  0042'                    u204_20:
 10970  0042' 2800'              	goto	i1l3484
 10971  0043'                    i1l3476:
 10972                           
 10973                           ;mcc_generated_files/usb/usb_device.c: 1816:         {;mcc_generated_files/usb/usb_devic
      +                          e.c: 1817:             *pDst++ = *inPipes[0].pSrc.bRom++;
 10974  0043' 0021               	movlb	1	; select bank1
 10975  0044' 0800'              	movf	_inPipes^(0+128),w	;volatile
 10976  0045' 0084               	movwf	4
 10977  0046' 0800'              	movf	(_inPipes+1)^(0+128),w	;volatile
 10978  0047' 0085               	movwf	5
 10979  0048' 0800               	movf	0,w	;code access
 10980  0049' 0080'              	movwf	??_USBCtrlTrfTxService
 10981  004A' 0023               	movlb	3	; select bank3
 10982  004B' 0800'              	movf	_pDst^(0+384),w
 10983  004C' 0086               	movwf	6
 10984  004D' 0187               	clrf	7
 10985  004E' 0800'              	movf	??_USBCtrlTrfTxService,w
 10986  004F' 0081               	movwf	1
 10987  0050'                    i1l3478:
 10988  0050' 3001               	movlw	1
 10989  0051' 0021               	movlb	1	; select bank1
 10990  0052' 0780'              	addwf	_inPipes^(0+128),f	;volatile
 10991  0053' 3000               	movlw	0
 10992  0054' 3D80'              	addwfc	(_inPipes+1)^(0+128),f	;volatile
 10993  0055'                    i1l3480:
 10994  0055' 3001               	movlw	1
 10995  0056' 0080'              	movwf	??_USBCtrlTrfTxService
 10996  0057' 0800'              	movf	??_USBCtrlTrfTxService,w
 10997  0058' 0023               	movlb	3	; select bank3
 10998  0059' 0780'              	addwf	_pDst^(0+384),f
 10999  005A'                    i1l3482:
 11000                           
 11001                           ;mcc_generated_files/usb/usb_device.c: 1818:             byteToSend--;
 11002  005A' 3001               	movlw	1
 11003  005B' 0282'              	subwf	USBCtrlTrfTxService@byteToSend,f
 11004  005C'                    i1l3484:
 11005                           
 11006                           ;mcc_generated_files/usb/usb_device.c: 1815:         while(byteToSend)
 11007  005C' 0802'              	movf	USBCtrlTrfTxService@byteToSend,w
 11008  005D' 1D03               	btfss	3,2
 11009  005E' 2800'              	goto	u205_21
 11010  005F' 2800'              	goto	u205_20
 11011  0060'                    u205_21:
 11012  0060' 2800'              	goto	i1l3476
 11013  0061'                    u205_20:
 11014  0061' 2800'              	goto	i1l438
 11015  0062'                    i1l3486:
 11016                           
 11017                           ;mcc_generated_files/usb/usb_device.c: 1824:         {;mcc_generated_files/usb/usb_devic
      +                          e.c: 1825:             *pDst++ = *inPipes[0].pSrc.bRam++;
 11018  0062' 0021               	movlb	1	; select bank1
 11019  0063' 0800'              	movf	_inPipes^(0+128),w	;volatile
 11020  0064' 0084               	movwf	4
 11021  0065' 0800'              	movf	(_inPipes+1)^(0+128),w	;volatile
 11022  0066' 0085               	movwf	5
 11023  0067' 0800               	movf	0,w	;code access
 11024  0068' 0080'              	movwf	??_USBCtrlTrfTxService
 11025  0069' 0023               	movlb	3	; select bank3
 11026  006A' 0800'              	movf	_pDst^(0+384),w
 11027  006B' 0086               	movwf	6
 11028  006C' 0187               	clrf	7
 11029  006D' 0800'              	movf	??_USBCtrlTrfTxService,w
 11030  006E' 0081               	movwf	1
 11031  006F'                    i1l3488:
 11032  006F' 3001               	movlw	1
 11033  0070' 0021               	movlb	1	; select bank1
 11034  0071' 0780'              	addwf	_inPipes^(0+128),f	;volatile
 11035  0072' 3000               	movlw	0
 11036  0073' 3D80'              	addwfc	(_inPipes+1)^(0+128),f	;volatile
 11037  0074'                    i1l3490:
 11038  0074' 3001               	movlw	1
 11039  0075' 0080'              	movwf	??_USBCtrlTrfTxService
 11040  0076' 0800'              	movf	??_USBCtrlTrfTxService,w
 11041  0077' 0023               	movlb	3	; select bank3
 11042  0078' 0780'              	addwf	_pDst^(0+384),f
 11043  0079'                    i1l3492:
 11044                           
 11045                           ;mcc_generated_files/usb/usb_device.c: 1826:             byteToSend--;
 11046  0079' 3001               	movlw	1
 11047  007A' 0282'              	subwf	USBCtrlTrfTxService@byteToSend,f
 11048  007B'                    i1l3494:
 11049                           
 11050                           ;mcc_generated_files/usb/usb_device.c: 1823:         while(byteToSend)
 11051  007B' 0802'              	movf	USBCtrlTrfTxService@byteToSend,w
 11052  007C' 1D03               	btfss	3,2
 11053  007D' 2800'              	goto	u206_21
 11054  007E' 2800'              	goto	u206_20
 11055  007F'                    u206_21:
 11056  007F' 2800'              	goto	i1l3486
 11057  0080'                    u206_20:
 11058  0080'                    i1l438:
 11059  0080' 0008               	return
 11060  0081'                    __end_of_USBCtrlTrfTxService:
 11061                           
 11062                           	psect	text47
 11063  0000'                    __ptext47:	
 11064 ;; *************** function _TMR0_ISR *****************
 11065 ;; Defined at:
 11066 ;;		line 113 in file "mcc_generated_files/tmr0.c"
 11067 ;; Parameters:    Size  Location     Type
 11068 ;;		None
 11069 ;; Auto vars:     Size  Location     Type
 11070 ;;		None
 11071 ;; Return value:  Size  Location     Type
 11072 ;;                  1    wreg      void 
 11073 ;; Registers used:
 11074 ;;		wreg, status,2, status,0, pclath, cstack
 11075 ;; Tracked objects:
 11076 ;;		On entry : 0/0
 11077 ;;		On exit  : 0/0
 11078 ;;		Unchanged: 0/0
 11079 ;; Data sizes:     COMMON   BANK0   BANK1   BANK2   BANK3   BANK4   BANK5   BANK6   BANK7   BANK8   BANK9  BANK10  BANK1
      +1  BANK12
 11080 ;;      Params:         0       0       0       0       0       0       0       0       0       0       0       0       
      +0       0
 11081 ;;      Locals:         0       0       0       0       0       0       0       0       0       0       0       0       
      +0       0
 11082 ;;      Temps:          1       0       0       0       0       0       0       0       0       0       0       0       
      +0       0
 11083 ;;      Totals:         1       0       0       0       0       0       0       0       0       0       0       0       
      +0       0
 11084 ;;Total ram usage:        1 bytes
 11085 ;; Hardware stack levels used:    1
 11086 ;; Hardware stack levels required when called:    1
 11087 ;; This function calls:
 11088 ;;		Absolute function
 11089 ;;		_TMR0_DefaultInterruptHandler
 11090 ;; This function is called by:
 11091 ;;		_INTERRUPT_InterruptManager
 11092 ;; This function uses a non-reentrant model
 11093 ;;
 11094                           
 11095                           
 11096                           ;psect for function _TMR0_ISR
 11097  0000'                    _TMR0_ISR:
 11098  0000'                    i1l4562:	
 11099                           ;incstack = 0
 11100                           ; Regs used in _TMR0_ISR: [wreg+status,2+status,0+pclath+cstack]
 11101                           
 11102                           
 11103                           ;mcc_generated_files/tmr0.c: 117:     INTCONbits.TMR0IF = 0;
 11104  0000' 110B               	bcf	11,2	;volatile
 11105  0001'                    i1l4564:
 11106                           
 11107                           ;mcc_generated_files/tmr0.c: 119:     TMR0 = timer0ReloadVal;
 11108  0001' 0023               	movlb	3	; select bank3
 11109  0002' 0800'              	movf	_timer0ReloadVal^(0+384),w	;volatile
 11110  0003' 0020               	movlb	0	; select bank0
 11111  0004' 0095               	movwf	21	;volatile
 11112  0005'                    i1l4566:
 11113                           
 11114                           ;mcc_generated_files/tmr0.c: 121:     if(TMR0_InterruptHandler)
 11115  0005' 0023               	movlb	3	; select bank3
 11116  0006' 0800'              	movf	_TMR0_InterruptHandler^(0+384),w
 11117  0007' 0400'              	iorwf	(_TMR0_InterruptHandler+1)^(0+384),w
 11118  0008' 1903               	btfsc	3,2
 11119  0009' 2800'              	goto	u323_21
 11120  000A' 2800'              	goto	u323_20
 11121  000B'                    u323_21:
 11122  000B' 2800'              	goto	i1l4570
 11123  000C'                    u323_20:
 11124  000C'                    i1l4568:
 11125                           
 11126                           ;mcc_generated_files/tmr0.c: 122:     {;mcc_generated_files/tmr0.c: 123:         TMR0_In
      +                          terruptHandler();
 11127  000C' 0800'              	movf	(_TMR0_InterruptHandler+1)^(0+384),w
 11128  000D' 008A               	movwf	10
 11129  000E' 0800'              	movf	_TMR0_InterruptHandler^(0+384),w
 11130  000F' 000A               	callw
 11131  0010' 3180'              	pagesel	$
 11132  0011'                    i1l4570:
 11133                           
 11134                           ;mcc_generated_files/tmr0.c: 125:     if(++waitforsleep_count >= 30000)
 11135  0011' 3001               	movlw	1
 11136  0012' 0023               	movlb	3	; select bank3
 11137  0013' 0780'              	addwf	_waitforsleep_count^(0+384),f
 11138  0014' 3000               	movlw	0
 11139  0015' 3D80'              	addwfc	(_waitforsleep_count+1)^(0+384),f
 11140  0016' 0800'              	movf	(_waitforsleep_count+1)^(0+384),w
 11141  0017' 3A80               	xorlw	128
 11142  0018' 0080'              	movwf	??_TMR0_ISR
 11143  0019' 30F5               	movlw	245
 11144  001A' 0200'              	subwf	??_TMR0_ISR,w
 11145  001B' 1D03               	skipz
 11146  001C' 2800'              	goto	u324_25
 11147  001D' 3030               	movlw	48
 11148  001E' 0200'              	subwf	_waitforsleep_count^(0+384),w
 11149  001F'                    u324_25:
 11150  001F' 1C03               	skipc
 11151  0020' 2800'              	goto	u324_21
 11152  0021' 2800'              	goto	u324_20
 11153  0022'                    u324_21:
 11154  0022' 2800'              	goto	i1l4574
 11155  0023'                    u324_20:
 11156  0023'                    i1l4572:
 11157                           
 11158                           ;mcc_generated_files/tmr0.c: 126:     {;mcc_generated_files/tmr0.c: 127:         sleep_f
      +                          lag = 1;
 11159  0023' 0023               	movlb	3	; select bank3
 11160  0024' 0180'              	clrf	_sleep_flag^(0+384)
 11161  0025' 0A80'              	incf	_sleep_flag^(0+384),f
 11162  0026'                    i1l4574:
 11163                           
 11164                           ;mcc_generated_files/tmr0.c: 129:     if(++counter >= 20)
 11165  0026' 3001               	movlw	1
 11166  0027' 0023               	movlb	3	; select bank3
 11167  0028' 0780'              	addwf	_counter^(0+384),f
 11168  0029' 3000               	movlw	0
 11169  002A' 3D80'              	addwfc	(_counter+1)^(0+384),f
 11170  002B' 0800'              	movf	(_counter+1)^(0+384),w
 11171  002C' 3A80               	xorlw	128
 11172  002D' 0080'              	movwf	??_TMR0_ISR
 11173  002E' 3080               	movlw	128
 11174  002F' 0200'              	subwf	??_TMR0_ISR,w
 11175  0030' 1D03               	skipz
 11176  0031' 2800'              	goto	u325_25
 11177  0032' 3014               	movlw	20
 11178  0033' 0200'              	subwf	_counter^(0+384),w
 11179  0034'                    u325_25:
 11180  0034' 1C03               	skipc
 11181  0035' 2800'              	goto	u325_21
 11182  0036' 2800'              	goto	u325_20
 11183  0037'                    u325_21:
 11184  0037' 2800'              	goto	i1l693
 11185  0038'                    u325_20:
 11186  0038'                    i1l4576:
 11187                           
 11188                           ;mcc_generated_files/tmr0.c: 130:     {;mcc_generated_files/tmr0.c: 131:         if(++me
      +                          asurement_count <= 50)
 11189  0038' 3001               	movlw	1
 11190  0039' 0080'              	movwf	??_TMR0_ISR
 11191  003A' 0800'              	movf	??_TMR0_ISR,w
 11192  003B' 0023               	movlb	3	; select bank3
 11193  003C' 0780'              	addwf	_measurement_count^(0+384),f
 11194  003D' 3033               	movlw	51
 11195  003E' 0200'              	subwf	_measurement_count^(0+384),w
 11196  003F' 1803               	skipnc
 11197  0040' 2800'              	goto	u326_21
 11198  0041' 2800'              	goto	u326_20
 11199  0042'                    u326_21:
 11200  0042' 2800'              	goto	i1l691
 11201  0043'                    u326_20:
 11202  0043'                    i1l4578:
 11203                           
 11204                           ;mcc_generated_files/tmr0.c: 132:         {;mcc_generated_files/tmr0.c: 133:         mea
      +                          surement_flag = 1;
 11205  0043' 0180'              	clrf	_measurement_flag^(0+384)
 11206  0044' 0A80'              	incf	_measurement_flag^(0+384),f
 11207                           
 11208                           ;mcc_generated_files/tmr0.c: 134:         }
 11209  0045' 2800'              	goto	i1l693
 11210  0046'                    i1l691:	
 11211                           ;mcc_generated_files/tmr0.c: 135:         else
 11212                           
 11213                           
 11214                           ;mcc_generated_files/tmr0.c: 136:         {;mcc_generated_files/tmr0.c: 137:            
      +                           writeout_flag = 1;
 11215  0046' 0180'              	clrf	_writeout_flag^(0+384)
 11216  0047' 0A80'              	incf	_writeout_flag^(0+384),f
 11217  0048'                    i1l693:
 11218  0048' 0008               	return
 11219  0049'                    __end_of_TMR0_ISR:
 11220                           
 11221                           	psect	text48
 11222  0000'                    __ptext48:	
 11223 ;; *************** function _TMR0_DefaultInterruptHandler *****************
 11224 ;; Defined at:
 11225 ;;		line 149 in file "mcc_generated_files/tmr0.c"
 11226 ;; Parameters:    Size  Location     Type
 11227 ;;		None
 11228 ;; Auto vars:     Size  Location     Type
 11229 ;;		None
 11230 ;; Return value:  Size  Location     Type
 11231 ;;                  1    wreg      void 
 11232 ;; Registers used:
 11233 ;;		None
 11234 ;; Tracked objects:
 11235 ;;		On entry : 0/0
 11236 ;;		On exit  : 0/0
 11237 ;;		Unchanged: 0/0
 11238 ;; Data sizes:     COMMON   BANK0   BANK1   BANK2   BANK3   BANK4   BANK5   BANK6   BANK7   BANK8   BANK9  BANK10  BANK1
      +1  BANK12
 11239 ;;      Params:         0       0       0       0       0       0       0       0       0       0       0       0       
      +0       0
 11240 ;;      Locals:         0       0       0       0       0       0       0       0       0       0       0       0       
      +0       0
 11241 ;;      Temps:          0       0       0       0       0       0       0       0       0       0       0       0       
      +0       0
 11242 ;;      Totals:         0       0       0       0       0       0       0       0       0       0       0       0       
      +0       0
 11243 ;;Total ram usage:        0 bytes
 11244 ;; Hardware stack levels used:    1
 11245 ;; This function calls:
 11246 ;;		Nothing
 11247 ;; This function is called by:
 11248 ;;		_TMR0_Initialize
 11249 ;;		_TMR0_ISR
 11250 ;; This function uses a non-reentrant model
 11251 ;;
 11252                           
 11253                           
 11254                           ;psect for function _TMR0_DefaultInterruptHandler
 11255  0000'                    _TMR0_DefaultInterruptHandler:
 11256  0000'                    i1l699:	
 11257                           ;incstack = 0
 11258                           ; Regs used in _TMR0_DefaultInterruptHandler: []
 11259                           
 11260  0000' 0008               	return
 11261  0001'                    __end_of_TMR0_DefaultInterruptHandler:
 11262                           
 11263                           	psect	text49
 11264  0000'                    __ptext49:	
 11265 ;; *************** function _PIN_MANAGER_IOC *****************
 11266 ;; Defined at:
 11267 ;;		line 113 in file "mcc_generated_files/pin_manager.c"
 11268 ;; Parameters:    Size  Location     Type
 11269 ;;		None
 11270 ;; Auto vars:     Size  Location     Type
 11271 ;;		None
 11272 ;; Return value:  Size  Location     Type
 11273 ;;                  1    wreg      void 
 11274 ;; Registers used:
 11275 ;;		wreg, status,2, status,0, pclath, cstack
 11276 ;; Tracked objects:
 11277 ;;		On entry : 0/0
 11278 ;;		On exit  : 0/0
 11279 ;;		Unchanged: 0/0
 11280 ;; Data sizes:     COMMON   BANK0   BANK1   BANK2   BANK3   BANK4   BANK5   BANK6   BANK7   BANK8   BANK9  BANK10  BANK1
      +1  BANK12
 11281 ;;      Params:         0       0       0       0       0       0       0       0       0       0       0       0       
      +0       0
 11282 ;;      Locals:         0       0       0       0       0       0       0       0       0       0       0       0       
      +0       0
 11283 ;;      Temps:          0       0       0       0       0       0       0       0       0       0       0       0       
      +0       0
 11284 ;;      Totals:         0       0       0       0       0       0       0       0       0       0       0       0       
      +0       0
 11285 ;;Total ram usage:        0 bytes
 11286 ;; Hardware stack levels used:    1
 11287 ;; Hardware stack levels required when called:    2
 11288 ;; This function calls:
 11289 ;;		_IOCAF5_ISR
 11290 ;; This function is called by:
 11291 ;;		_INTERRUPT_InterruptManager
 11292 ;; This function uses a non-reentrant model
 11293 ;;
 11294                           
 11295                           
 11296                           ;psect for function _PIN_MANAGER_IOC
 11297  0000'                    _PIN_MANAGER_IOC:
 11298  0000'                    i1l4558:	
 11299                           ;incstack = 0
 11300                           ; Regs used in _PIN_MANAGER_IOC: [wreg+status,2+status,0+pclath+cstack]
 11301                           
 11302                           
 11303                           ;mcc_generated_files/pin_manager.c: 116:     if(IOCAFbits.IOCAF5 == 1)
 11304  0000' 0027               	movlb	7	; select bank7
 11305  0001' 1E93               	btfss	19,5	;volatile
 11306  0002' 2800'              	goto	u322_21
 11307  0003' 2800'              	goto	u322_20
 11308  0004'                    u322_21:
 11309  0004' 2800'              	goto	i1l637
 11310  0005'                    u322_20:
 11311  0005'                    i1l4560:
 11312                           
 11313                           ;mcc_generated_files/pin_manager.c: 117:     {;mcc_generated_files/pin_manager.c: 118:  
      +                                 IOCAF5_ISR();
 11314  0005' 3180' 2000' 3180'  	fcall	_IOCAF5_ISR
 11315  0008'                    i1l637:
 11316  0008' 0008               	return
 11317  0009'                    __end_of_PIN_MANAGER_IOC:
 11318                           
 11319                           	psect	text50
 11320  0000'                    __ptext50:	
 11321 ;; *************** function _IOCAF5_ISR *****************
 11322 ;; Defined at:
 11323 ;;		line 125 in file "mcc_generated_files/pin_manager.c"
 11324 ;; Parameters:    Size  Location     Type
 11325 ;;		None
 11326 ;; Auto vars:     Size  Location     Type
 11327 ;;		None
 11328 ;; Return value:  Size  Location     Type
 11329 ;;                  1    wreg      void 
 11330 ;; Registers used:
 11331 ;;		wreg, status,2, status,0, pclath, cstack
 11332 ;; Tracked objects:
 11333 ;;		On entry : 0/0
 11334 ;;		On exit  : 0/0
 11335 ;;		Unchanged: 0/0
 11336 ;; Data sizes:     COMMON   BANK0   BANK1   BANK2   BANK3   BANK4   BANK5   BANK6   BANK7   BANK8   BANK9  BANK10  BANK1
      +1  BANK12
 11337 ;;      Params:         0       0       0       0       0       0       0       0       0       0       0       0       
      +0       0
 11338 ;;      Locals:         0       0       0       0       0       0       0       0       0       0       0       0       
      +0       0
 11339 ;;      Temps:          0       0       0       0       0       0       0       0       0       0       0       0       
      +0       0
 11340 ;;      Totals:         0       0       0       0       0       0       0       0       0       0       0       0       
      +0       0
 11341 ;;Total ram usage:        0 bytes
 11342 ;; Hardware stack levels used:    1
 11343 ;; Hardware stack levels required when called:    1
 11344 ;; This function calls:
 11345 ;;		Absolute function
 11346 ;;		_IOCAF5_DefaultInterruptHandler
 11347 ;; This function is called by:
 11348 ;;		_PIN_MANAGER_IOC
 11349 ;; This function uses a non-reentrant model
 11350 ;;
 11351                           
 11352                           
 11353                           ;psect for function _IOCAF5_ISR
 11354  0000'                    _IOCAF5_ISR:
 11355  0000'                    i1l4290:	
 11356                           ;incstack = 0
 11357                           ; Regs used in _IOCAF5_ISR: [wreg+status,2+status,0+pclath+cstack]
 11358                           
 11359                           
 11360                           ;mcc_generated_files/pin_manager.c: 130:     if(IOCAF5_InterruptHandler)
 11361  0000' 0023               	movlb	3	; select bank3
 11362  0001' 0800'              	movf	_IOCAF5_InterruptHandler^(0+384),w
 11363  0002' 0400'              	iorwf	(_IOCAF5_InterruptHandler+1)^(0+384),w
 11364  0003' 1903               	btfsc	3,2
 11365  0004' 2800'              	goto	u289_21
 11366  0005' 2800'              	goto	u289_20
 11367  0006'                    u289_21:
 11368  0006' 2800'              	goto	i1l4294
 11369  0007'                    u289_20:
 11370  0007'                    i1l4292:
 11371                           
 11372                           ;mcc_generated_files/pin_manager.c: 131:     {;mcc_generated_files/pin_manager.c: 132:  
      +                                 IOCAF5_InterruptHandler();
 11373  0007' 0800'              	movf	(_IOCAF5_InterruptHandler+1)^(0+384),w
 11374  0008' 008A               	movwf	10
 11375  0009' 0800'              	movf	_IOCAF5_InterruptHandler^(0+384),w
 11376  000A' 000A               	callw
 11377  000B' 3180'              	pagesel	$
 11378  000C'                    i1l4294:
 11379                           
 11380                           ;mcc_generated_files/pin_manager.c: 134:     IOCAFbits.IOCAF5 = 0;
 11381  000C' 0027               	movlb	7	; select bank7
 11382  000D' 1293               	bcf	19,5	;volatile
 11383  000E'                    i1l641:
 11384  000E' 0008               	return
 11385  000F'                    __end_of_IOCAF5_ISR:
 11386                           
 11387                           	psect	text51
 11388  0000'                    __ptext51:	
 11389 ;; *************** function _IOCAF5_DefaultInterruptHandler *****************
 11390 ;; Defined at:
 11391 ;;		line 147 in file "mcc_generated_files/pin_manager.c"
 11392 ;; Parameters:    Size  Location     Type
 11393 ;;		None
 11394 ;; Auto vars:     Size  Location     Type
 11395 ;;		None
 11396 ;; Return value:  Size  Location     Type
 11397 ;;                  1    wreg      void 
 11398 ;; Registers used:
 11399 ;;		None
 11400 ;; Tracked objects:
 11401 ;;		On entry : 0/0
 11402 ;;		On exit  : 0/0
 11403 ;;		Unchanged: 0/0
 11404 ;; Data sizes:     COMMON   BANK0   BANK1   BANK2   BANK3   BANK4   BANK5   BANK6   BANK7   BANK8   BANK9  BANK10  BANK1
      +1  BANK12
 11405 ;;      Params:         0       0       0       0       0       0       0       0       0       0       0       0       
      +0       0
 11406 ;;      Locals:         0       0       0       0       0       0       0       0       0       0       0       0       
      +0       0
 11407 ;;      Temps:          0       0       0       0       0       0       0       0       0       0       0       0       
      +0       0
 11408 ;;      Totals:         0       0       0       0       0       0       0       0       0       0       0       0       
      +0       0
 11409 ;;Total ram usage:        0 bytes
 11410 ;; Hardware stack levels used:    1
 11411 ;; This function calls:
 11412 ;;		Nothing
 11413 ;; This function is called by:
 11414 ;;		_PIN_MANAGER_Initialize
 11415 ;;		_IOCAF5_ISR
 11416 ;; This function uses a non-reentrant model
 11417 ;;
 11418                           
 11419                           
 11420                           ;psect for function _IOCAF5_DefaultInterruptHandler
 11421  0000'                    _IOCAF5_DefaultInterruptHandler:
 11422  0000'                    i1l647:	
 11423                           ;incstack = 0
 11424                           ; Regs used in _IOCAF5_DefaultInterruptHandler: []
 11425                           
 11426  0000' 0008               	return
 11427  0001'                    __end_of_IOCAF5_DefaultInterruptHandler:
 11428  007E                     btemp	set	126	;btemp
 11429  007E                     int$flags	set	126
 11430  007E                     wtemp0	set	126
 11431  2328                     
 11432                           	psect	config
 11433                           
 11434                           ;Config register CONFIG1 @ 0x8007
 11435                           ;	Oscillator Selection Bits
 11436                           ;	FOSC = INTOSC, INTOSC oscillator: I/O function on CLKIN pin
 11437                           ;	Watchdog Timer Enable
 11438                           ;	WDTE = OFF, WDT disabled
 11439                           ;	Power-up Timer Enable
 11440                           ;	PWRTE = OFF, PWRT disabled
 11441                           ;	MCLR Pin Function Select
 11442                           ;	MCLRE = ON, MCLR/VPP pin function is MCLR
 11443                           ;	Flash Program Memory Code Protection
 11444                           ;	CP = OFF, Program memory code protection is disabled
 11445                           ;	Brown-out Reset Enable
 11446                           ;	BOREN = ON, Brown-out Reset enabled
 11447                           ;	Clock Out Enable
 11448                           ;	CLKOUTEN = OFF, CLKOUT function is disabled. I/O or oscillator function on the CLKOUT 
      +                          pin
 11449                           ;	Internal/External Switchover Mode
 11450                           ;	IESO = ON, Internal/External Switchover Mode is enabled
 11451                           ;	Fail-Safe Clock Monitor Enable
 11452                           ;	FCMEN = ON, Fail-Safe Clock Monitor is enabled
 11453  8007                     	org	32775
 11454  8007  3FE4               	dw	16356
 11455                           
 11456                           ;Config register CONFIG2 @ 0x8008
 11457                           ;	Flash Memory Self-Write Protection
 11458                           ;	WRT = OFF, Write protection off
 11459                           ;	CPU System Clock Selection Bit
 11460                           ;	CPUDIV = CLKDIV6, CPU system clock divided by 6
 11461                           ;	USB Low SPeed Clock Selection bit
 11462                           ;	USBLSCLK = 48MHz, System clock expects 48 MHz, FS/LS USB CLKENs divide-by is set to 8.
 11463                           ;	PLL Multipler Selection Bit
 11464                           ;	PLLMULT = 3x, 3x Output Frequency Selected
 11465                           ;	PLL Enable Bit
 11466                           ;	PLLEN = ENABLED, 3x or 4x PLL Enabled
 11467                           ;	Stack Overflow/Underflow Reset Enable
 11468                           ;	STVREN = ON, Stack Overflow or Underflow will cause a Reset
 11469                           ;	Brown-out Reset Voltage Selection
 11470                           ;	BORV = LO, Brown-out Reset Voltage (Vbor), low trip point selected.
 11471                           ;	Low-Power Brown Out Reset
 11472                           ;	LPBOR = OFF, Low-Power BOR is disabled
 11473                           ;	Low-Voltage Programming Enable
 11474                           ;	LVP = ON, Low-voltage programming enabled
 11475  8008                     	org	32776
 11476  8008  3FFF               	dw	16383

Data Sizes:
    Strings     0
    Constant    181
    Data        232
    BSS         240
    Persistent  34
    Stack       0

Auto Spaces:
    Space          Size  Autos    Used
    COMMON           14     14      14
    BANK0            16     16      16
    BANK1            48     14      42
    BANK2             0      0       0
    BANK3            64      0      64
    BANK4            80      6      60
    BANK5            80      0      64
    BANK6            80      0      64
    BANK7            80      0       0
    BANK8            80      0       0
    BANK9            80      0       0
    BANK10            8      0       0
    BANK11            0      0       0
    BANK12            0      0       0

Pointer List with Targets:

    USER_USB_CALLBACK_EVENT_HANDLER@pdata	PTR void  size(2) Largest target is 4096
		 -> RAM(DATA[4096]), USTATcopy(BANK1[1]), USBActiveConfiguration(BANK1[1]), NULL(NULL[0]), 
		 -> BDT(BANK0[48]), 

    ADC_InterruptHandler	PTR FTN()void  size(2) Largest target is 1
		 -> Absolute function(), 

    memset@dest	PTR void  size(2) Largest target is 48
		 -> USBAlternateInterface(BANK3[2]), BDT(BANK0[48]), 

    memset@s	PTR unsigned char  size(2) Largest target is 48
		 -> USBAlternateInterface(BANK3[2]), BDT(BANK0[48]), 

    memcpy@d1	PTR void  size(1) Largest target is 8
		 -> SetupPkt(BANK0[8]), 

    memcpy@d	PTR unsigned char  size(1) Largest target is 8
		 -> SetupPkt(BANK0[8]), 

    memcpy@s1	PTR const void  size(2) Largest target is 4096
		 -> CtrlTrfData(BANK0[8]), RAM(DATA[4096]), SetupPkt(BANK0[8]), 

    memcpy@s	PTR const unsigned char  size(2) Largest target is 4096
		 -> CtrlTrfData(BANK0[8]), RAM(DATA[4096]), SetupPkt(BANK0[8]), 

    CDCDataInHandle	PTR void  size(2) Largest target is 4096
		 -> RAM(DATA[4096]), NULL(NULL[0]), BDT(BANK0[48]), 

    CDCDataOutHandle	PTR void  size(2) Largest target is 4096
		 -> RAM(DATA[4096]), NULL(NULL[0]), BDT(BANK0[48]), 

    pCDCDst.wRom	PTR const unsigned short  size(2) Largest target is 0

    pCDCDst.bRom	PTR const unsigned char  size(2) Largest target is 0

    pCDCDst.wRam	PTR unsigned short  size(2) Largest target is 0

    pCDCDst.bRam	PTR unsigned char  size(2) Largest target is 0

    S2255_POINTER$wRom	PTR const unsigned short  size(2) Largest target is 0

    pCDCSrc.wRom	PTR const unsigned short  size(2) Largest target is 0

    S2255_POINTER$bRom	PTR const unsigned char  size(2) Largest target is 0

    pCDCSrc.bRom	PTR const unsigned char  size(2) Largest target is 0

    S2255_POINTER$wRam	PTR unsigned short  size(2) Largest target is 0

    pCDCSrc.wRam	PTR unsigned short  size(2) Largest target is 0

    S2255_POINTER$bRam	PTR unsigned char  size(2) Largest target is 0

    pCDCSrc.bRam	PTR unsigned char  size(2) Largest target is 0

    TMR0_SetInterruptHandler@InterruptHandler	PTR FTN()void  size(2) Largest target is 1
		 -> TMR0_DefaultInterruptHandler(), 

    TMR0_InterruptHandler	PTR FTN()void  size(2) Largest target is 1
		 -> TMR0_DefaultInterruptHandler(), Absolute function(), 

    IOCAF5_SetInterruptHandler@InterruptHandler	PTR FTN()void  size(2) Largest target is 1
		 -> IOCAF5_DefaultInterruptHandler(), 

    IOCAF5_InterruptHandler	PTR FTN()void  size(2) Largest target is 1
		 -> Absolute function(), IOCAF5_DefaultInterruptHandler(), 

    USBStdFeatureReqHandler@pUEP	PTR unsigned char  size(2) Largest target is 1
		 -> UEP0(SFR29[1]), 

    USBStdFeatureReqHandler@p	PTR struct __BDT size(2) Largest target is 4096
		 -> RAM(DATA[4096]), NULL(NULL[0]), BDT(BANK0[48]), 

    sp__memcpy	PTR void  size(1) Largest target is 8
		 -> SetupPkt(BANK0[8]), 

    USBStdGetStatusHandler@p	PTR struct __BDT size(2) Largest target is 4096
		 -> RAM(DATA[4096]), NULL(NULL[0]), BDT(BANK0[48]), 

    USB_SD_Ptr	const PTR const unsigned char [4] size(2) Largest target is 52
		 -> sd003(CODE[8]), sd002(CODE[22]), sd001(CODE[52]), sd000(CODE[4]), 

    USB_CD_Ptr	const PTR const unsigned char [1] size(2) Largest target is 67
		 -> configDescriptor1(CODE[67]), 

    sp__memset	PTR void  size(2) Largest target is 48
		 -> USBAlternateInterface(BANK3[2]), BDT(BANK0[48]), 

    USBStdSetCfgHandler@p	PTR unsigned char  size(2) Largest target is 1
		 -> UEP1(SFR29[1]), 

    pDst	PTR volatile unsigned char  size(1) Largest target is 8
		 -> CtrlTrfData(BANK0[8]), NULL(NULL[0]), 

    USBConfigureEndpoint@handle	PTR volatile struct __BDT size(1) Largest target is 48
		 -> BDT(BANK0[48]), 

    pBDTEntryEP0OutCurrent	PTR volatile struct __BDT size(1) Largest target is 48
		 -> NULL(NULL[0]), BDT(BANK0[48]), 

    pBDTEntryEP0OutNext	PTR volatile struct __BDT size(2) Largest target is 4096
		 -> RAM(DATA[4096]), NULL(NULL[0]), BDT(BANK0[48]), 

    USBTransferOnePacket@data	PTR unsigned char  size(2) Largest target is 64
		 -> cdc_data_tx(BIGRAM[64]), cdc_data_rx(BIGRAM[64]), NULL(NULL[0]), 

    sp__USBTransferOnePacket	PTR void  size(2) Largest target is 4096
		 -> RAM(DATA[4096]), NULL(NULL[0]), BDT(BANK0[48]), 

    USBTransferOnePacket@handle	PTR volatile struct __BDT size(2) Largest target is 4096
		 -> RAM(DATA[4096]), NULL(NULL[0]), BDT(BANK0[48]), 

    USBEnableEndpoint@p	PTR unsigned char  size(2) Largest target is 1
		 -> UEP0(SFR29[1]), 

    pBDTEntryOut	PTR volatile struct __BDT[3] size(2) Largest target is 4096
		 -> RAM(DATA[4096]), NULL(NULL[0]), BDT(BANK0[48]), 

    pBDTEntryIn	PTR volatile struct __BDT[3] size(2) Largest target is 4096
		 -> RAM(DATA[4096]), NULL(NULL[0]), BDT(BANK0[48]), 

    S464$pFunc	PTR FTN()void  size(2) Largest target is 0
		 -> NULL(NULL[0]), 

    outPipes.pFunc	PTR FTN()void  size(2) Largest target is 0
		 -> NULL(NULL[0]), 

    S454$wRam	PTR unsigned short  size(1) Largest target is 0

    outPipes.pDst.wRam	PTR unsigned short  size(1) Largest target is 0

    S454$bRam	PTR unsigned char  size(1) Largest target is 0

    outPipes.pDst.bRam	PTR unsigned char  size(1) Largest target is 0

    S430$wRom	PTR const unsigned short  size(1) Largest target is 0

    inPipes.pSrc.wRom	PTR const unsigned short  size(1) Largest target is 0

    S430$wRam	PTR unsigned short  size(1) Largest target is 0

    inPipes.pSrc.wRam	PTR unsigned short  size(1) Largest target is 0

    S430$bRom	PTR const unsigned char  size(1) Largest target is 0

    inPipes.pSrc.bRom	PTR const unsigned char  size(1) Largest target is 0

    S430$bRam	PTR unsigned char  size(1) Largest target is 0

    inPipes.pSrc.bRam	PTR unsigned char  size(1) Largest target is 0

    USBDeviceInit@p	PTR unsigned char  size(2) Largest target is 1
		 -> UEP1(SFR29[1]), 

    eeprom_storeBurstGroup@data	PTR unsigned char [4] size(2) Largest target is 200
		 -> measarray(BIGRAM[200]), 


Critical Paths under _main in COMMON

    None.

Critical Paths under _INTERRUPT_InterruptManager in COMMON

    _USBCtrlEPServiceComplete->_USBCtrlEPAllowDataStage
    _USBCtrlEPAllowDataStage->_USBCtrlTrfTxService
    _USBStdSetCfgHandler->_memset
    _USER_USB_CALLBACK_EVENT_HANDLER->_CDCInitEP
    _CDCInitEP->_USBEnableEndpoint
    _USBEnableEndpoint->_USBConfigureEndpoint
    _USBCtrlTrfOutHandler->_USBCtrlTrfRxService
    _USBCtrlTrfRxService->_USBCtrlEPAllowStatusStage
    _USBCtrlTrfInHandler->_USBCtrlTrfTxService

Critical Paths under _main in BANK0

    None.

Critical Paths under _INTERRUPT_InterruptManager in BANK0

    _USBWakeFromSuspend->_USER_USB_CALLBACK_EVENT_HANDLER
    _USBSuspend->_USER_USB_CALLBACK_EVENT_HANDLER
    _USBCtrlEPService->_USBCtrlTrfSetupHandler
    _USBCtrlTrfSetupHandler->_USBCheckStdRequest
    _USBCheckStdRequest->_USBStdFeatureReqHandler
    _USBStdSetCfgHandler->_USER_USB_CALLBACK_EVENT_HANDLER
    _USBStdFeatureReqHandler->_USER_USB_CALLBACK_EVENT_HANDLER

Critical Paths under _main in BANK1

    _main->_eeprom_storeBurstGroup
    _eeprom_storeBurstGroup->_I2C_MasterWrite
    _ACK_Poll->_I2C_MasterWrite
    _SYSTEM_Initialize->_USBDeviceInit
    _TMR0_Initialize->_TMR0_SetInterruptHandler
    _PIN_MANAGER_Initialize->_IOCAF5_SetInterruptHandler

Critical Paths under _INTERRUPT_InterruptManager in BANK1

    _INTERRUPT_InterruptManager->_USBDeviceTasks
    _USBDeviceTasks->_USBCtrlEPService

Critical Paths under _main in BANK2

    None.

Critical Paths under _INTERRUPT_InterruptManager in BANK2

    None.

Critical Paths under _main in BANK3

    None.

Critical Paths under _INTERRUPT_InterruptManager in BANK3

    None.

Critical Paths under _main in BANK4

    _main->_eeprom_storeBurstGroup

Critical Paths under _INTERRUPT_InterruptManager in BANK4

    None.

Critical Paths under _main in BANK5

    None.

Critical Paths under _INTERRUPT_InterruptManager in BANK5

    None.

Critical Paths under _main in BANK6

    None.

Critical Paths under _INTERRUPT_InterruptManager in BANK6

    None.

Critical Paths under _main in BANK7

    None.

Critical Paths under _INTERRUPT_InterruptManager in BANK7

    None.

Critical Paths under _main in BANK8

    None.

Critical Paths under _INTERRUPT_InterruptManager in BANK8

    None.

Critical Paths under _main in BANK9

    None.

Critical Paths under _INTERRUPT_InterruptManager in BANK9

    None.

Critical Paths under _main in BANK10

    None.

Critical Paths under _INTERRUPT_InterruptManager in BANK10

    None.

Critical Paths under _main in BANK11

    None.

Critical Paths under _INTERRUPT_InterruptManager in BANK11

    None.

Critical Paths under _main in BANK12

    None.

Critical Paths under _INTERRUPT_InterruptManager in BANK12

    None.

Call Graph Tables:

 ---------------------------------------------------------------------------------
 (Depth) Function   	        Calls       Base Space   Used Autos Params    Refs
 ---------------------------------------------------------------------------------
 (0) _main                                                 0     0      0    1139
                     _I2C_Initialize
                  _SYSTEM_Initialize
             _eeprom_storeBurstGroup
 ---------------------------------------------------------------------------------
 (1) _eeprom_storeBurstGroup                              14    10      4     645
                                              6 BANK1      8     4      4
                                              0 BANK4      6     6      0
                           _ACK_Poll
                    _I2C_MasterStart
                     _I2C_MasterStop
                    _I2C_MasterWrite
 ---------------------------------------------------------------------------------
 (2) _ACK_Poll                                             0     0      0      22
                    _I2C_MasterStart
                     _I2C_MasterStop
                    _I2C_MasterWrite
 ---------------------------------------------------------------------------------
 (2) _I2C_MasterWrite                                      1     1      0      22
                                              5 BANK1      1     1      0
              _I2C_WaitForCompletion
 ---------------------------------------------------------------------------------
 (2) _I2C_MasterStop                                       0     0      0       0
              _I2C_WaitForCompletion
 ---------------------------------------------------------------------------------
 (2) _I2C_MasterStart                                      0     0      0       0
              _I2C_WaitForCompletion
 ---------------------------------------------------------------------------------
 (3) _I2C_WaitForCompletion                                0     0      0       0
 ---------------------------------------------------------------------------------
 (1) _SYSTEM_Initialize                                    0     0      0     494
                     _ADC_Initialize
              _OSCILLATOR_Initialize
             _PIN_MANAGER_Initialize
                    _TMR0_Initialize
                    _USBDeviceAttach
                      _USBDeviceInit
                     _WDT_Initialize
 ---------------------------------------------------------------------------------
 (2) _WDT_Initialize                                       0     0      0       0
 ---------------------------------------------------------------------------------
 (2) _USBDeviceInit                                        5     5      0     272
                                              5 BANK1      5     5      0
 ---------------------------------------------------------------------------------
 (2) _USBDeviceAttach                                      1     1      0       0
                                              5 BANK1      1     1      0
 ---------------------------------------------------------------------------------
 (2) _TMR0_Initialize                                      1     1      0     111
                                              7 BANK1      1     1      0
           _TMR0_SetInterruptHandler
 ---------------------------------------------------------------------------------
 (3) _TMR0_SetInterruptHandler                             2     0      2     111
                                              5 BANK1      2     0      2
 ---------------------------------------------------------------------------------
 (2) _PIN_MANAGER_Initialize                               0     0      0     111
         _IOCAF5_SetInterruptHandler
 ---------------------------------------------------------------------------------
 (3) _IOCAF5_SetInterruptHandler                           2     0      2     111
                                              5 BANK1      2     0      2
 ---------------------------------------------------------------------------------
 (2) _OSCILLATOR_Initialize                                0     0      0       0
 ---------------------------------------------------------------------------------
 (2) _ADC_Initialize                                       0     0      0       0
 ---------------------------------------------------------------------------------
 (1) _I2C_Initialize                                       0     0      0       0
 ---------------------------------------------------------------------------------
 Estimated maximum stack depth 3
 ---------------------------------------------------------------------------------
 (Depth) Function   	        Calls       Base Space   Used Autos Params    Refs
 ---------------------------------------------------------------------------------
 (5) _INTERRUPT_InterruptManager                           0     0      0   39247
                    _PIN_MANAGER_IOC
                           _TMR0_ISR
                     _USBDeviceTasks
 ---------------------------------------------------------------------------------
 (6) _USBDeviceTasks                                       3     3      0   39247
                                              2 BANK1      3     3      0
          _USBCtrlEPAllowStatusStage
                   _USBCtrlEPService
      _USBIncrement1msInternalTimers
                    _USBStallHandler
                         _USBSuspend
                 _USBWakeFromSuspend
    _USER_USB_CALLBACK_EVENT_HANDLER
                    i1_USBDeviceInit
 ---------------------------------------------------------------------------------
 (7) i1_USBDeviceInit                                      5     5      0     272
                                              0 COMMON     5     5      0
 ---------------------------------------------------------------------------------
 (7) _USBWakeFromSuspend                                   1     1      0    5136
                                              6 BANK0      1     1      0
    _USER_USB_CALLBACK_EVENT_HANDLER
 ---------------------------------------------------------------------------------
 (7) _USBSuspend                                           1     1      0    5136
                                              6 BANK0      1     1      0
    _USER_USB_CALLBACK_EVENT_HANDLER
 ---------------------------------------------------------------------------------
 (7) _USBStallHandler                                      1     1      0       0
                                              0 COMMON     1     1      0
 ---------------------------------------------------------------------------------
 (7) _USBIncrement1msInternalTimers                        1     1      0       0
                                              0 COMMON     1     1      0
 ---------------------------------------------------------------------------------
 (7) _USBCtrlEPService                                     2     2      0   23499
                                              0 BANK1      2     2      0
                _USBCtrlTrfInHandler
               _USBCtrlTrfOutHandler
             _USBCtrlTrfSetupHandler
                             _memcpy
 ---------------------------------------------------------------------------------
 (8) _memcpy                                              10     6      4     363
                                              0 COMMON    10     6      4
 ---------------------------------------------------------------------------------
 (8) _USBCtrlTrfSetupHandler                               1     1      0   22907
                                             15 BANK0      1     1      0
                 _USBCheckStdRequest
           _USBCtrlEPServiceComplete
    _USER_USB_CALLBACK_EVENT_HANDLER
 ---------------------------------------------------------------------------------
 (9) _USBCtrlEPServiceComplete                             2     2      0      92
                                              5 COMMON     2     2      0
            _USBCtrlEPAllowDataStage
          _USBCtrlEPAllowStatusStage
 ---------------------------------------------------------------------------------
 (10) _USBCtrlEPAllowDataStage                             2     2      0      92
                                              3 COMMON     2     2      0
                _USBCtrlTrfTxService
 ---------------------------------------------------------------------------------
 (9) _USBCheckStdRequest                                   2     2      0   17679
                                             13 BANK0      2     2      0
            _USBStdFeatureReqHandler
                _USBStdGetDscHandler
             _USBStdGetStatusHandler
                _USBStdSetCfgHandler
    _USER_USB_CALLBACK_EVENT_HANDLER
 ---------------------------------------------------------------------------------
 (10) _USBStdSetCfgHandler                                 5     5      0    6890
                                              6 BANK0      5     5      0
    _USER_USB_CALLBACK_EVENT_HANDLER
                             _memset
 ---------------------------------------------------------------------------------
 (11) _memset                                             14     8      6    1519
                                              0 COMMON    14     8      6
 ---------------------------------------------------------------------------------
 (10) _USBStdGetStatusHandler                              4     4      0      46
                                              0 COMMON     4     4      0
 ---------------------------------------------------------------------------------
 (10) _USBStdGetDscHandler                                 3     3      0       0
                                              0 COMMON     3     3      0
 ---------------------------------------------------------------------------------
 (10) _USBStdFeatureReqHandler                             7     7      0    5607
                                              6 BANK0      7     7      0
    _USER_USB_CALLBACK_EVENT_HANDLER
 ---------------------------------------------------------------------------------
 (7) _USER_USB_CALLBACK_EVENT_HANDLER                      6     0      6    5136
                                              0 BANK0      6     0      6
                          _CDCInitEP
                 _USBCheckCDCRequest
 ---------------------------------------------------------------------------------
 (8) _USBCheckCDCRequest                                   2     2      0       0
                                              0 COMMON     2     2      0
 ---------------------------------------------------------------------------------
 (8) _CDCInitEP                                            1     1      0    2444
                                             13 COMMON     1     1      0
                  _USBEnableEndpoint
               _USBTransferOnePacket
 ---------------------------------------------------------------------------------
 (9) _USBTransferOnePacket                                11     7      4    1711
                                              0 COMMON    11     7      4
 ---------------------------------------------------------------------------------
 (9) _USBEnableEndpoint                                    6     5      1     733
                                              7 COMMON     6     5      1
               _USBConfigureEndpoint
 ---------------------------------------------------------------------------------
 (10) _USBConfigureEndpoint                                7     6      1     400
                                              0 COMMON     7     6      1
 ---------------------------------------------------------------------------------
 (8) _USBCtrlTrfOutHandler                                 2     2      0     114
                                              6 COMMON     2     2      0
                _USBCtrlTrfRxService
 ---------------------------------------------------------------------------------
 (9) _USBCtrlTrfRxService                                  4     4      0     114
                                              2 COMMON     4     4      0
          _USBCtrlEPAllowStatusStage
 ---------------------------------------------------------------------------------
 (10) _USBCtrlEPAllowStatusStage                           2     2      0       0
                                              0 COMMON     2     2      0
 ---------------------------------------------------------------------------------
 (8) _USBCtrlTrfInHandler                                  3     3      0     115
                                              3 COMMON     3     3      0
                _USBCtrlTrfTxService
 ---------------------------------------------------------------------------------
 (11) _USBCtrlTrfTxService                                 3     3      0      92
                                              0 COMMON     3     3      0
 ---------------------------------------------------------------------------------
 (6) _TMR0_ISR                                             1     1      0       0
                                              0 COMMON     1     1      0
                   Absolute function *
       _TMR0_DefaultInterruptHandler *
 ---------------------------------------------------------------------------------
 (7) _TMR0_DefaultInterruptHandler                         0     0      0       0
 ---------------------------------------------------------------------------------
 (6) _PIN_MANAGER_IOC                                      0     0      0       0
                         _IOCAF5_ISR
 ---------------------------------------------------------------------------------
 (7) _IOCAF5_ISR                                           0     0      0       0
                   Absolute function *
     _IOCAF5_DefaultInterruptHandler *
 ---------------------------------------------------------------------------------
 (8) _IOCAF5_DefaultInterruptHandler                       0     0      0       0
 ---------------------------------------------------------------------------------
 (7) Absolute function(Fake)                               0     0      0       0
 ---------------------------------------------------------------------------------
 Estimated maximum stack depth 11
 ---------------------------------------------------------------------------------

 Call Graph Graphs:

 _main (ROOT)
   _I2C_Initialize
   _SYSTEM_Initialize
     _ADC_Initialize
     _OSCILLATOR_Initialize
     _PIN_MANAGER_Initialize
       _IOCAF5_SetInterruptHandler
     _TMR0_Initialize
       _TMR0_SetInterruptHandler
     _USBDeviceAttach
     _USBDeviceInit
     _WDT_Initialize
   _eeprom_storeBurstGroup
     _ACK_Poll
       _I2C_MasterStart
         _I2C_WaitForCompletion
       _I2C_MasterStop
         _I2C_WaitForCompletion
       _I2C_MasterWrite
         _I2C_WaitForCompletion
     _I2C_MasterStart
       _I2C_WaitForCompletion
     _I2C_MasterStop
       _I2C_WaitForCompletion
     _I2C_MasterWrite
       _I2C_WaitForCompletion

 _INTERRUPT_InterruptManager (ROOT)
   _PIN_MANAGER_IOC
     _IOCAF5_ISR
       Absolute function(Fake) *
       _IOCAF5_DefaultInterruptHandler *
   _TMR0_ISR
     Absolute function(Fake) *
     _TMR0_DefaultInterruptHandler *
   _USBDeviceTasks
     _USBCtrlEPAllowStatusStage
     _USBCtrlEPService
       _USBCtrlTrfInHandler
         _USBCtrlTrfTxService
       _USBCtrlTrfOutHandler
         _USBCtrlTrfRxService
           _USBCtrlEPAllowStatusStage
       _USBCtrlTrfSetupHandler
         _USBCheckStdRequest
           _USBStdFeatureReqHandler
             _USER_USB_CALLBACK_EVENT_HANDLER
               _CDCInitEP
                 _USBEnableEndpoint
                   _USBConfigureEndpoint
                 _USBTransferOnePacket
               _USBCheckCDCRequest
           _USBStdGetDscHandler
           _USBStdGetStatusHandler
           _USBStdSetCfgHandler
             _USER_USB_CALLBACK_EVENT_HANDLER
               _CDCInitEP
                 _USBEnableEndpoint
                   _USBConfigureEndpoint
                 _USBTransferOnePacket
               _USBCheckCDCRequest
             _memset
           _USER_USB_CALLBACK_EVENT_HANDLER
             _CDCInitEP
               _USBEnableEndpoint
                 _USBConfigureEndpoint
               _USBTransferOnePacket
             _USBCheckCDCRequest
         _USBCtrlEPServiceComplete
           _USBCtrlEPAllowDataStage
             _USBCtrlTrfTxService
           _USBCtrlEPAllowStatusStage
         _USER_USB_CALLBACK_EVENT_HANDLER
           _CDCInitEP
             _USBEnableEndpoint
               _USBConfigureEndpoint
             _USBTransferOnePacket
           _USBCheckCDCRequest
       _memcpy
     _USBIncrement1msInternalTimers
     _USBStallHandler
     _USBSuspend
       _USER_USB_CALLBACK_EVENT_HANDLER
         _CDCInitEP
           _USBEnableEndpoint
             _USBConfigureEndpoint
           _USBTransferOnePacket
         _USBCheckCDCRequest
     _USBWakeFromSuspend
       _USER_USB_CALLBACK_EVENT_HANDLER
         _CDCInitEP
           _USBEnableEndpoint
             _USBConfigureEndpoint
           _USBTransferOnePacket
         _USBCheckCDCRequest
     _USER_USB_CALLBACK_EVENT_HANDLER
       _CDCInitEP
         _USBEnableEndpoint
           _USBConfigureEndpoint
         _USBTransferOnePacket
       _USBCheckCDCRequest
     i1_USBDeviceInit

 Address spaces:
Name               Size   Autos  Total    Cost      Usage
BIGRAM             3F0      0       0       0        0.0%
NULL                 0      0       0       0        0.0%
CODE                 0      0       0       0        0.0%
BITCOMMON            E      0       0       1        0.0%
BITSFR0              0      0       0       1        0.0%
SFR0                 0      0       0       1        0.0%
COMMON               E      E       E       2      100.0%
BITSFR1              0      0       0       2        0.0%
SFR1                 0      0       0       2        0.0%
BITSFR2              0      0       0       3        0.0%
SFR2                 0      0       0       3        0.0%
STACK                0      0       0       3        0.0%
BITBANK0            10      0       0       4        0.0%
BITSFR3              0      0       0       4        0.0%
SFR3                 0      0       0       4        0.0%
BANK0               10     10      10       5      100.0%
BITSFR4              0      0       0       5        0.0%
SFR4                 0      0       0       5        0.0%
BITBANK1            50      0       0       6        0.0%
BITSFR5              0      0       0       6        0.0%
SFR5                 0      0       0       6        0.0%
BANK1               30      E      2A       7       87.5%
BITSFR6              0      0       0       7        0.0%
SFR6                 0      0       0       7        0.0%
BITBANK2            50      0       0       8        0.0%
BITSFR7              0      0       0       8        0.0%
SFR7                 0      0       0       8        0.0%
BITSFR8              0      0       0       9        0.0%
SFR8                 0      0       0       9        0.0%
BANK2                0      0       0       9        0.0%
BITBANK3            50      0       0      10        0.0%
BITSFR9              0      0       0      10        0.0%
SFR9                 0      0       0      10        0.0%
BANK3               40      0      40      11      100.0%
BITSFR10             0      0       0      11        0.0%
SFR10                0      0       0      11        0.0%
BITBANK4            50      0       0      12        0.0%
BITSFR11             0      0       0      12        0.0%
SFR11                0      0       0      12        0.0%
BANK4               50      6      3C      13       75.0%
BITSFR12             0      0       0      13        0.0%
SFR12                0      0       0      13        0.0%
BITBANK5            50      0       0      14        0.0%
BITSFR13             0      0       0      14        0.0%
SFR13                0      0       0      14        0.0%
BANK5               50      0      40      15       80.0%
BITSFR14             0      0       0      15        0.0%
SFR14                0      0       0      15        0.0%
BITBANK6            50      0       0      16        0.0%
BITSFR15             0      0       0      16        0.0%
SFR15                0      0       0      16        0.0%
BANK6               50      0      40      17       80.0%
BITSFR16             0      0       0      17        0.0%
SFR16                0      0       0      17        0.0%
BITBANK7            50      0       0      18        0.0%
BITSFR17             0      0       0      18        0.0%
SFR17                0      0       0      18        0.0%
BANK7               50      0       0      19        0.0%
BITSFR18             0      0       0      19        0.0%
SFR18                0      0       0      19        0.0%
BITSFR19             0      0       0      20        0.0%
SFR19                0      0       0      20        0.0%
ABS                  0      0     144      20        0.0%
BITBANK8            50      0       0      21        0.0%
BITSFR20             0      0       0      21        0.0%
SFR20                0      0       0      21        0.0%
BANK8               50      0       0      22        0.0%
BITSFR21             0      0       0      22        0.0%
SFR21                0      0       0      22        0.0%
BITBANK9            50      0       0      23        0.0%
BITSFR22             0      0       0      23        0.0%
SFR22                0      0       0      23        0.0%
BANK9               50      0       0      24        0.0%
BITSFR23             0      0       0      24        0.0%
SFR23                0      0       0      24        0.0%
BITBANK10           50      0       0      25        0.0%
BITSFR24             0      0       0      25        0.0%
SFR24                0      0       0      25        0.0%
BANK10               8      0       0      26        0.0%
BITSFR25             0      0       0      26        0.0%
SFR25                0      0       0      26        0.0%
BITBANK11           50      0       0      27        0.0%
BITSFR26             0      0       0      27        0.0%
SFR26                0      0       0      27        0.0%
BITSFR27             0      0       0      28        0.0%
SFR27                0      0       0      28        0.0%
BANK11               0      0       0      28        0.0%
BITBANK12           30      0       0      29        0.0%
BITSFR28             0      0       0      29        0.0%
SFR28                0      0       0      29        0.0%
BITSFR29             0      0       0      30        0.0%
SFR29                0      0       0      30        0.0%
BANK12               0      0       0      30        0.0%
BITSFR30             0      0       0      31        0.0%
SFR30                0      0       0      31        0.0%
DATA                 0      0     144      31        0.0%
BITSFR31             0      0       0      32        0.0%
SFR31                0      0       0      32        0.0%


Microchip Technology PIC Macro Assembler V2.31 build 20201012212115 
Symbol Table                                                                                   Sun Apr 04 12:32:13 2021

                                _USB_SD_Ptr 0000                    ??_eeprom_storeBurstGroup 0000  
                                        l60 000B                                          l70 0005  
                                        l71 0006                                          l63 0000  
                                        l80 0008                                          l65 000F  
                                        l74 0005                                          l68 0000  
                                        l77 0005                               _USBDeviceInit 0000  
                        __size_of_CDCInitEP 0037                             _timer0ReloadVal 0024  
      USER_USB_CALLBACK_EVENT_HANDLER@event 0000        USER_USB_CALLBACK_EVENT_HANDLER@pdata 0002  
                                       l102 007A                                         l143 0015  
                                       l152 0003                                         l146 0008  
                                       l171 0008                                         l149 000D  
                                       l333 00B1                 __end_of_USBStdGetDscHandler 008B  
                                       l328 0043                                         l391 001D  
                                       l633 0026                                         l644 0008  
                                       l388 0013                                         l389 0012  
                                       l676 0018                                         _BDT 0020  
                                       l696 0008                                         _UIE 0E92  
                                       _UIR 0E90                                  _USBSuspend 0000  
                      USBStdSetCfgHandler@i 000A                        USBStdSetCfgHandler@p 0007  
                                       wreg 0009                              _USBDeviceTasks 0000  
                            _USBDeviceState 0019          __end_of_IOCAF5_SetInterruptHandler 0009  
                _IOCAF5_SetInterruptHandler 0000                       ??_USBCtrlTrfRxService 0002  
                  USBEnableEndpoint@options 0007                                        l4100 0000  
                                      l4110 000C                                        l4102 0002  
                                      l4200 0008                                        l4120 0026  
                                      l4112 0011                                        l4104 0006  
                                      l4202 000E                                        l4210 0006  
                                      l4130 003D                                        l4114 0015  
                                      l4050 0000                                        l4060 0003  
                                      l4204 000F                                        l4220 0018  
                                      l4212 0009                                        l4140 004E  
                                      l4132 0045                                        l4116 0019  
                                      l4052 0003                  USBConfigureEndpoint@handle 0006  
                                      l4046 0000                                        l4070 000F  
                                      l4062 0005                                        l4206 0010  
                                      l4214 000B                                        l4150 0064  
                                      l4142 0050                                        l4134 0046  
                                      l4126 0028                                        l4118 001F  
                                      l4054 0007                                        l4400 0009  
                                      l4080 0019                                        l4072 0012  
                                      l4064 0008                                        l4048 0000  
                                      l4216 000D                                        l4208 0000  
                                      l4160 0069                                        l4152 0065  
                                      l4144 0051                                        l4136 0047  
                                      l4128 0039                                        l4056 000C  
                                      l4090 0000                                        l4082 001B  
                                      l4074 0014                                        l4066 000A  
                                      l4058 0000                                        l4218 000F  
                                      l4170 0095                                        l4162 0084  
                                      l4154 0066                                        l4146 0053  
                                      l4138 0048                                        l4092 0003  
                                      l4084 001C                                        l4076 0015  
                                      l4068 000C                                        l4180 00A5  
                                      l4172 009A                                        l4164 0088  
                                      l4156 0067                                        l4148 0058  
                                      l5300 0030                                        l4190 0004  
                                      l4094 0004                                        l4086 001D  
                                      l4078 0017                                        l4182 00AE  
                                      l4174 009C                                        l4166 008E  
                                      l5310 005C                                        l5302 0034  
                                      l4192 0005                                        l4096 0006  
                                      l4088 0025                                        l4184 00AF  
                                      l4176 00A2                                        l4168 0092  
                                      l5320 0074                                        l5312 0062  
                                      l5304 0039                                        l4194 0006  
                                      l4186 0000                                        l4178 00A3  
                                      l4098 0000                                        l3802 0000  
                                      l5314 0068                                        l4188 0003  
                                      l4196 0000                                        l5316 006B  
                                      l5308 003B                                        l4198 0005  
                                      l4390 0012                                        l4382 0000  
                                      l5318 006E                                        l5430 0007  
                                      l4392 0000                                        l4384 0009  
                                      l5280 0000                                        l5440 0015  
                                      l5432 0008                                        l5424 0000  
                                      l4394 0002                                        l4386 000C  
                                      l5290 0013                                        l5442 001A  
                                      l5434 000E                                        l5426 0003  
                                      l4396 0004                                        l4388 000F  
                                      l5292 0023                                        l5284 0011  
                                      l5444 001B                                        l5436 000F  
                                      l5428 0006                                        l4398 0007  
                                      l3950 0005                                        l5294 0023  
                                      l5438 0014                                        l3944 0000  
                                      l3952 0000                                        l5296 0029  
                                      l3946 0002                                        l3954 0002  
                                      l5298 002C                                        l3948 0002  
                                      _LATA 010C                                        _LATB 010D  
                                      _LATC 010E                                        u2700 000C  
                                      u2701 000B                                        u2710 000D  
                                      u2470 0005                                        u2711 000C  
                                      u2471 0004                                        u2720 001F  
                                      u2721 001E                                        u4170 000E  
                                      u4171 000D                                        u2740 0043  
                                      u4180 0014                                        u2741 0042  
                                      u4181 0013                                        u2750 0058  
                                      u4190 001A                                        u2751 0057  
                                      u2735 002B                                        u4191 0019  
                                      u2760 008E                                        u2761 008D  
                                      u2770 0006                                        u2771 0005  
                                      u2780 0018                                        u3900 0010  
                                      u2781 0017                                        u3901 000F  
                eeprom_storeBurstGroup@data 0008                                        u3920 0068  
                                      u3921 0067                                        u3930 007A  
                                      u3931 0079                                        u3915 0018  
                     ??_USBCtrlTrfTxService 0000                                        _UCFG 0E91  
                                      _UEP0 0E98                                        _UEP1 0E99  
                                      _UEIE 0E97                                        _UEIR 0E93  
                                      _UCON 0E8E                                        _TMR0 0015  
                                      _WPUA 020C                                        _WPUB 020D  
                           _CDCDataInHandle 0010      USBStdFeatureReqHandler@current_ep_data 000A  
                                      _pDst 0030                                        _data 0000  
                                      _main 0000                                        _byte 0031  
                                      fsr0h 0005                                        fsr1h 0007  
                                      indf0 0000                                        fsr0l 0004  
                                      indf1 0001                                 _BaudRateGen 000A  
                                      fsr1l 0006                             _USBDeviceAttach 0000  
                                      btemp 007E                                        start 0000* 
                          __end_of_ACK_Poll 0010                  __end_of_USBCheckStdRequest 0088  
                    ??_USBCtrlTrfOutHandler 0006                         USBDeviceInit@i_1026 0008  
                 ??_USBStdFeatureReqHandler 0006                    ??_USBStdGetStatusHandler 0000  
                            ?_USBDeviceInit 0000                     __end_of_TMR0_Initialize 0019  
            ??_TMR0_DefaultInterruptHandler 0000              __size_of_OSCILLATOR_Initialize 000E  
                          ?_I2C_MasterStart 0000                         __size_of_IOCAF5_ISR 000F  
                          ?_I2C_MasterWrite 0000               __end_of_OSCILLATOR_Initialize 000E  
                               _writeBuffer 0000                                       ?_main 0000  
         __size_of_USBCtrlEPServiceComplete 009E                      __end_of_USBDeviceTasks 0119  
                 ?_USBCtrlEPServiceComplete 0000                                       i1l410 0042  
                                     i1l340 0118                                       i1l405 005F  
                                     i1l413 004C                                       i1l333 00A8  
                                     i1l510 0055                                       i1l502 0021  
                                     i1l350 0116                                       i1l423 009D  
                                     i1l351 00B8                                       i1l520 0039  
                                     i1l328 0041                                       i1l441 0017  
                                     i1l513 0054                                       i1l345 0078  
                                     i1l426 0025                                       i1l451 00A8  
                                     i1l363 0024                                       i1l339 002D  
                                     i1l460 008C                                       i1l540 000A  
                                     i1l533 0075                                       i1l349 00B1  
                                     i1l438 0080                                       i1l534 0077  
                                     i1l526 006F                                       i1l641 000E  
                                     i1l449 009E                                       i1l369 0086  
                                     i1l481 0058                                       i1l474 008A  
                                     i1l482 000F                                       i1l538 0087  
                                     i1l395 0078                                       i1l483 0012  
                                     i1l724 002C                                       i1l716 000E  
                                     i1l637 0008                                       i1l549 0040  
                                     i1l493 002A                                       i1l574 0110  
                                     i1l478 0004                                       i1l718 001A  
                                     i1l647 0000                                       i1l399 0078  
                                     i1l583 001B                                       i1l719 002C  
                                     i1l576 0123                                       i1l488 0066  
                                     i1l496 001F                                       i1l770 006E  
                                     i1l578 0157                                       i1l691 0046  
                                     i1l693 0048                                       i1l783 0036  
                                     i1l699 0000                                       i1l877 0031  
                                     _UADDR 0E96                                       _TRISA 008C  
                                     _TRISB 008D                                       _TRISC 008E  
                                     _USTAT 0E8F           __size_of_TMR0_SetInterruptHandler 0009  
        __size_of_USBCtrlEPAllowStatusStage 0079                   ?_TMR0_SetInterruptHandler 0005  
           __end_of_USBCtrlEPAllowDataStage 0060                            __end_of_TMR0_ISR 0049  
                                     _sd000 0000                                       _sd001 0000  
                                     _sd002 0000                                       _sd003 0000  
            ?_USBIncrement1msInternalTimers 0000                     __end_of_PIN_MANAGER_IOC 0009  
                            _WDT_Initialize 0000                                       pclath 000A  
                         __end_of_CDCInitEP 0037                                       status 0003  
                                     wtemp0 007E                __size_of_USBStdSetCfgHandler 008D  
                           __initialization 0000                                __end_of_main 0029  
                     _control_signal_bitmap 0020             __size_of_eeprom_storeBurstGroup 007B  
               ?_INTERRUPT_InterruptManager 0000                   __size_of_USBCtrlEPService 0056  
                                    ??_main 000E                             ?_USBDeviceTasks 0000  
                               ?_USBSuspend 0000                             i1_USBDeviceInit 0000  
                    __end_of_WDT_Initialize 0004                                _cdc_mem_type 0021  
                   __end_of_USBDeviceAttach 001E                                      _ADCON0 009D  
                                    _ADCON1 009E                                      _ADCON2 009F  
                          _CDCDataOutHandle 0012                                      _ACTCON 039B  
                                    _ADRESH 009C                                      _ADRESL 009B  
                                    _APFCON 011D                                      _ANSELA 018C  
                                    _ANSELB 018D                                      _ANSELC 018E  
                                    _BORCON 0116                                      i1l4000 000C  
                                    u200_20 001C                                      u200_21 001B  
                                    i1l4002 0012                                      i1l4010 0038  
                                    i1l1442 00C9                                      i1l4020 001A  
                                    i1l4012 0000                                      i1l4004 001F  
                                    i1l4030 003C                                      i1l4022 001F  
                                    i1l4014 0009                                      i1l4006 002C  
                                    i1l1438 002D                                      u201_20 000E  
                                    i1l4040 0063                                      i1l4032 003F  
                                    i1l4024 0025                                      i1l4016 000F  
                                    i1l4008 0032                                      i1l3320 0022  
                                    i1l3400 003D                                      u201_21 000D  
                                    i1l4042 0073                                      i1l4034 0046  
                                    i1l4018 0015                                      i1l4026 002A  
                                    i1l3322 0027                                      i1l3314 0001  
                                    i1l3330 0001                                      i1l3410 0052  
                                    i1l3402 003F                                      i1l4044 0076  
                                    i1l4036 0052                                      i1l4028 002F  
                                    i1l3324 0031                                      i1l3316 0005  
                                    i1l3340 001E                                      i1l3332 0005  
                                    i1l3420 0000                                      i1l3404 0044  
                                    i1l4300 0006                                      i1l4038 0057  
                                    i1l3326 0039                                      i1l3318 001E  
                                    i1l3334 000A                                      i1l3350 001E  
                                    i1l3342 0001                                      i1l3430 0018  
                                    i1l3422 0009                                      i1l3406 0048  
                                    i1l3414 0055                                      i1l5110 002D  
                                    i1l5102 000B                                      i1l4230 0015  
                                    i1l4222 0000                                      i1l4310 0014  
                                    u202_20 0017                                      i1l3328 003D  
                                    i1l3336 000E                                      i1l3360 004E  
                                    i1l3344 0006                                      i1l3432 0020  
                                    i1l3424 000A                                      i1l3408 004D  
                                    i1l3440 0001                                      i1l5112 0069  
                                    i1l5104 0011                                      i1l5200 001B  
                                    i1l4240 0008                                      i1l4232 001B  
                                    i1l4224 0002                                      i1l4312 0018  
                                    u202_21 0016                                      i1l3338 0014  
                                    i1l3362 0053                                      i1l3354 0021  
                                    i1l3346 000F                                      i1l3434 0032  
                                    i1l3426 000F                                      i1l3370 0000  
                                    i1l3442 0005                                      i1l5130 00B5  
                                    i1l5122 009B                                      i1l5106 0023  
                                    i1l5210 002D                                      i1l5202 0020  
                                    i1l4250 0009                                      i1l4242 0009  
                                    i1l4234 001F                                      i1l4226 0011  
                                    i1l4330 0044                                      i1l4322 0026  
                                    i1l4314 001E                                      i1l4306 000B  
                                    i1l3460 0012                                      i1l3540 0006  
                                    i1l3364 006A                                      i1l3356 0030  
                                    i1l3348 0018                                      i1l3436 0034  
                                    i1l3428 0010                                      i1l3380 0017  
                                    i1l3700 0037                                      i1l5132 00BB  
                                    i1l5124 00A8                                      i1l5116 0073  
                                    i1l5140 0007                                      i1l5220 0042  
                                    i1l5212 0031                                      i1l5204 0021  
                                    i1l4252 000E                                      i1l4260 000F  
                                    i1l4244 000F                                      i1l4236 0000  
                                    i1l4228 0013                                      i1l4340 004D  
                                    i1l4332 0045                                      i1l4324 0037  
                                    i1l4316 0025                                      i1l4308 0010  
                                    i1l3470 0038                                      i1l3462 0017  
                                    i1l3550 0020                                      i1l3542 000A  
                                    i1l3366 0082                                      i1l3358 003C  
                                    i1l3390 0027                                      i1l3374 0009  
                                    i1l3446 0009                                      i1l3438 0000  
                                    i1l3710 0061                                      i1l3702 003F  
                                    i1l5134 00BF                                      i1l5126 00AC  
                                    i1l5118 0091                                      i1l5150 0011  
                                    i1l5222 004D                                      i1l5214 0037  
                                    i1l5206 0027                                      i1l4254 0017  
                                    i1l4262 0019                                      i1l4246 0010  
                                    i1l4238 0002                                      i1l4350 005F  
                                    i1l4342 004F                                      i1l4334 0046  
                                    i1l4326 003B                                      i1l3480 0055  
                                    i1l3472 003D                                      u203_20 0021  
                                    i1l3464 001C                                      i1l3456 0000  
                                    i1l3560 003B                                      i1l3552 0026  
                                    i1l3544 000F                                      i1l3392 0029  
                                    i1l3384 001D                                      i1l3800 014F  
                                    i1l3720 0006                                      i1l3712 0062  
                                    i1l5136 00C3                                      i1l5128 00B0  
                                    i1l5152 0015                                      i1l5216 0038  
                                    i1l5208 0029                                      i1l5240 0026  
                                    i1l5232 0000                                      i1l4248 0000  
                                    i1l4264 0024                                      i1l4256 0000  
                                    i1l4360 0080                                      i1l4352 0060  
                                    i1l4344 0054                                      i1l4336 004A  
                                    i1l4328 0043                                      u203_21 0020  
                                    i1l4290 0000                                      i1l3490 0074  
                                    i1l3482 005A                                      i1l3466 0021  
                                    i1l3458 000E                                      i1l3570 0064  
                                    i1l3562 0047                                      i1l3554 002C  
                                    i1l3546 0013                                      i1l3538 0000  
                                    i1l3394 002E                                      i1l3386 0022  
                                    i1l3378 0012                                      i1l3722 000D  
                                    i1l3730 001E                                      i1l3650 0000  
                                    i1l3706 0044                                      i1l5170 0043  
                                    i1l5154 001B                                      i1l5146 0008  
                                    i1l5138 0000                                      i1l5218 003E  
                                    i1l5226 005C                                      i1l3810 000F  
                                    i1l5250 003D                                      i1l5242 002D  
                                    i1l5234 0009                                      i1l4258 0005  
                                    i1l4266 0026                                      i1l4370 0095  
                                    i1l4362 0086                                      i1l4346 005D  
                                    i1l4338 004C                                      i1l5410 00D4  
                                    i1l5402 00BD                                      i1l5330 000D  
                                    i1l5322 0000                                      i1l4292 0007  
                                    i1l3492 0079                                      i1l3476 0043  
                                    i1l3484 005C                                      i1l3468 002C  
                                    i1l3572 0071                                      i1l3564 004E  
                                    i1l3556 0031                                      i1l3548 001A  
                                    i1l3900 00A5                                      i1l3396 0030  
                                    i1l3388 0026                                      i1l3740 0042  
                                    i1l3732 0024                                      i1l3724 000F  
                                    i1l3660 001C                                      i1l3652 0007  
                                    i1l3708 005D                                      i1l5180 0064  
                                    i1l5172 0051                                      i1l5164 002D  
                                    i1l5156 0029                                      i1l5148 000D  
                                    i1l3580 0016                                      i1l3820 0028  
                                    i1l3812 0015                                      i1l3804 0000  
                                    i1l5252 003F                                      i1l5244 0038  
                                    i1l5236 0014                                      i1l5260 0006  
                                    i1l4380 00A6                                      i1l4372 0099  
                                    i1l4364 008B                                      i1l4356 0061  
                                    i1l4348 005E                                      i1l5420 010B  
                                    i1l5412 00E4                                      i1l5404 00C2  
                                    i1l5340 0022                                      i1l5332 000E  
                                    i1l5324 0006                                      i1l4294 000C  
                                    i1l3486 0062                                      i1l3478 0050  
                                    i1l3494 007B                                      i1l3566 0052  
                                    i1l3558 0033                                      i1l3398 003B  
                                    i1l3750 0081                                      i1l3742 0048  
                                    i1l3734 002B                                      i1l3726 0016  
                                    i1l3718 0000                                      i1l3670 0054  
                                    i1l3662 002C                                      i1l3654 000D  
                                    i1l5182 006A                                      i1l5174 0053  
                                    i1l5166 0039                                      i1l5158 002B  
                                    i1l5190 0000                                      i1l3590 0043  
                                    i1l3582 0023                                      i1l3574 0000  
                                    i1l3830 0051                                      i1l3822 0035  
                                    i1l3814 0018                                      i1l3806 0007  
                                    i1l5254 0042                                      i1l5246 003A  
                                    i1l5238 001B                                      i1l5270 0031  
                                    i1l5262 000D                                      i1l4374 009A  
                                    i1l4366 008E                                      i1l4358 007C  
                                    i1l5422 0110                                      i1l5414 00F3  
                                    i1l5406 00CA                                      i1l5350 0038  
                                    i1l5342 0025                                      i1l5326 000B  
                                    i1l5334 0013                                      i1l4560 0005  
                                    i1l3488 006F                                      u204_20 0042  
                                    i1l3568 0057                                      u212_20 0006  
                                    i1l3760 00A7                                      i1l3752 0087  
                                    i1l3744 005E                                      i1l3736 0032  
                                    i1l3728 001C                                      i1l3672 0064  
                                    i1l3664 003B                                      i1l3656 0012  
                                    i1l3680 0076                                      i1l5096 0000  
                                    i1l5184 006F                                      i1l5176 0058  
                                    i1l5168 003D                                      i1l3592 0046  
                                    i1l3584 0029                                      i1l3576 0003  
                                    i1l3840 0062                                      i1l3832 0056  
                                    i1l3824 003B                                      i1l3816 001A  
                                    i1l3808 000B                                      i1l5256 0051  
                                    i1l5248 003C                                      i1l5272 0041  
                                    i1l5264 001A                                      i1l4376 009C  
                                    i1l4368 0093                                      i1l4296 0000  
                                    i1l5416 00F8                                      i1l5408 00CF  
                                    i1l5360 004B                                      i1l5352 003A  
                                    i1l5344 002A                                      i1l5336 0018  
                                    i1l5328 000C                                      u204_21 0041  
                                    u212_21 0005                                      i1l4570 0011  
                                    i1l4562 0000                                      i1l3770 00C7  
                                    i1l3762 00AF                                      i1l3754 008B  
                                    i1l3746 0072                                      i1l3738 003B  
                                    i1l3674 0070                                      i1l3666 004B  
                                    i1l3658 0017                                      i1l3690 0006  
                                    i1l5098 0004                                      i1l5186 0076  
                                    i1l5178 005E                                      i1l5194 000C  
                                    i1l3594 0054                                      i1l3578 000A  
                                    i1l3586 002F                                      i1l3850 0089  
                                    i1l3842 0067                                      i1l3834 005C  
                                    i1l3826 0040                                      i1l3818 001C  
                                    i1l5274 0045                                      i1l5266 0020  
                                    i1l5258 0000                                      i1l4378 00A5  
                                    i1l4298 0002                                      i1l5418 00FC  
                                    i1l5370 006D                                      i1l5362 004E  
                                    i1l5354 003E                                      i1l5346 0031  
                                    i1l5338 001C                                      i1l5450 000A  
                                    i1l4572 0023                                      i1l4564 0001  
                                    i1l3860 0000                                      i1l3780 00E8  
                                    i1l3764 00B3                                      i1l3772 00CD  
                                    i1l3756 0097                                      i1l3748 0076  
                                    i1l3676 0073                                      i1l3668 004E  
                                    i1l3692 000C                                      i1l5188 0086  
                                    i1l5196 0013                                      i1l3596 005A  
                                    i1l3588 003C                                      i1l3852 008F  
                                    i1l3836 005F                                      i1l3844 006B  
                                    i1l3828 0046                                      i1l5268 0026  
                                    i1l5276 0049                                      i1l5380 0085  
                                    i1l5372 0070                                      i1l5364 0053  
                                    i1l5348 0035                                      i1l5356 0043  
                                    i1l5460 0028                                      i1l5452 0012  
                                    i1l4558 0000                                      i1l4574 0026  
                                    i1l4566 0005                                      i1l3870 002C  
                                    i1l3862 0006                                      i1l3790 0114  
                                    i1l3782 00F8                                      i1l3774 00D3  
                                    i1l3766 00BB                                      i1l3758 00A1  
                                    i1l3694 0019                                      i1l3686 0000  
                                    i1l5198 0017                                      i1l3854 0094  
                                    i1l3846 0070                                      i1l3838 0061  
                                    i1l5278 0052                                      i1l5390 00A5  
                                    i1l5382 0089                                      i1l5374 0076  
                                    i1l5366 0057                                      i1l5358 0047  
                                    i1l5454 0016                                      i1l5446 0002  
                                    i1l4576 0038                                      i1l4568 000C  
                                    u205_20 0061                                      u213_20 000F  
                                    i1l3880 004C                                      i1l3872 0030  
                                    i1l3864 0013                                      i1l3792 011C  
                                    i1l3784 00FD                                      i1l3776 00DB  
                                    i1l3768 00C2                                      u221_20 0007  
                                    i1l3696 0025                                      i1l3856 0096  
                                    i1l3848 007C                                      i1l3960 0012  
                                    i1l5392 00A7                                      i1l5384 008C  
                                    i1l5376 007D                                      i1l5368 0067  
                                    i1l5456 001E                                      i1l5448 0006  
                                    u205_21 0060                                      u213_21 000E  
                                    u221_21 0006                                      i1l4578 0043  
                                    i1l3890 0084                                      i1l3882 0059  
                                    i1l3874 0034                                      i1l3866 001E  
                                    i1l3794 012B                                      i1l3786 0104  
                                    i1l3778 00E3                                      i1l3698 002F  
                                    i1l3962 0016                                      i1l5394 00AE  
                                    i1l5386 0091                                      i1l5378 0080  
                                    i1l5458 0023                                      i1l3892 0091  
                                    i1l3884 0060                                      i1l3876 003A  
                                    i1l3868 0020                                      i1l3796 013B  
                                    i1l3788 0108                                      i1l3964 001D  
                                    i1l3956 0001                                      i1l5396 00B6  
                                    i1l5388 0095                                      i1l3894 0097  
                                    i1l3886 006C                                      i1l3878 0040  
                                    i1l5590 002C                                      i1l3798 0143  
                                    i1l5582 0064                                      i1l3958 000A  
                                    i1l3966 0021                                      u206_20 0080  
                                    u214_20 001A                                      i1l3896 009C  
                                    i1l3888 0078                                      i1l5592 005D  
                                    u230_20 000D                                      u222_20 001C  
                                    i1l5584 004D                                      u206_21 007F  
                                    u214_21 0019                                      u230_21 000C  
                                    u222_21 001B                                      i1l3898 009F  
                                    i1l3994 0000                                      i1l5586 007F  
                                    i1l3996 0007                                      i1l5588 0012  
                                    i1l3998 000B                                      u215_20 0031  
                                    u231_20 0016                                      u223_20 0054  
                                    u215_21 0030                                      u231_21 0015  
                                    u223_21 0053                                      u240_20 00A7  
                                    u232_20 0024                                      u224_20 000C  
                                    u216_20 000A                                      u400_20 0035  
                                    u240_21 00A6                                      u232_21 0023  
                                    u224_21 000B                                      u216_21 0009  
                                    u400_21 0034                                      u241_20 00AF  
                                    u233_20 002B                                      u225_20 0019  
                                    u217_20 003C                                      u401_20 0047  
                                    u241_21 00AE                                      u233_21 002A  
                                    u225_21 0018                                      u217_21 003B  
                                    u401_21 0046                                      u217_25 0038  
                                    u322_20 0005                                      u242_20 00B3  
                                    u234_20 0032                                      u226_20 0037  
                                    u250_20 0015                                      u410_20 0095  
                                    u402_20 004B                                      u322_21 0004  
                                    u242_21 00B2                                      u234_21 0031  
                                    u226_21 0036                                      u250_21 0014  
                                    u410_21 0094                                      u402_21 004A  
                                    u323_20 000C                                      u243_20 00DB  
                                    u235_20 003B                                      u227_20 003F  
                                    u251_20 0051                                      u411_20 00AE  
                                    u403_20 0053                                      u323_21 000B  
                                    u243_21 00DA                                      u235_21 003A  
                                    u227_21 003E                                      u251_21 0050  
                                    u411_21 00AD                                      u403_21 0052  
                                    u324_20 0023                                      u244_20 0108  
                                    u236_20 0042                                      u228_20 005D  
                                    u252_20 005C                                      u412_20 00B6  
                                    u404_20 0057                                      u420_20 0006  
                                    u324_21 0022                                      u244_21 0107  
                                    u236_21 0041                                      u228_21 005C  
                                    u252_21 005B                                      u412_21 00B5  
                                    u404_21 0056                                      u420_21 0005  
                                    u324_25 001F                                      u325_20 0038  
                                    u245_20 0110                                      u237_20 0048  
                                    u229_20 0006                                      u253_20 0067  
                                    u261_20 002D                                      u413_20 00BD  
                                    u405_20 0076                                      u421_20 000A  
                                    u325_21 0037                                      u245_21 010F  
                                    u237_21 0047                                      u229_21 0005  
                                    u253_21 0066                                      u261_21 002C  
                                    u413_21 00BC                                      u405_21 0075  
                                    u421_21 0009                                      u325_25 0034  
                                    u326_20 0043                                      u262_20 0007  
                                    u246_20 0114                                      u238_20 0076  
                                    u254_20 009C                                      u414_20 00D4  
                                    u406_20 007D                                      u422_20 0012  
                                    u326_21 0042                                      u262_21 0006  
                                    u246_21 0113                                      u238_21 0075  
                                    u254_21 009B                                      u414_21 00D3  
                                    u406_21 007C                                      u422_21 0011  
                                    u190_25 0016                                      u255_20 0013  
                                    u263_20 0012                                      u191_20 0027  
                                    u239_20 008B                                      u415_20 00F8  
                                    u407_20 0085                                      u423_20 0016  
                                    u255_21 0012                                      u263_21 0011  
                                    u191_21 0026                                      u239_21 008A  
                                    u415_21 00F7                                      u407_21 0084  
                                    u423_21 0015                                      u255_25 000F  
                                    u264_20 0015                                      u256_20 003A  
                                    u192_20 0005                                      u248_20 0007  
                                    u280_20 000E                                      u416_20 0116  
                                    u408_20 0089                                      u424_20 001E  
                                    u264_21 0014                                      u256_21 0039  
                                    u192_21 0004                                      u248_21 0006  
                                    u280_21 000D                                      u416_21 0115  
                                    u408_21 0088                                      u424_21 001D  
                                    u265_20 001F                                      u257_20 0040  
                                    u193_20 000E                                      u249_20 000B  
                                    u281_20 0017                                      u409_20 0091  
                                    u425_20 0023                                      u265_21 001E  
                                    u257_21 003F                                      u193_21 000D  
                                    u249_21 000A                                      u281_21 0016  
                                    u409_21 0090                                      u425_21 0022  
                                    u266_20 002F                                      u258_20 0060  
                                    u194_20 0006                                      u282_20 0005  
                                    u290_20 001E                                      u426_20 0028  
                                    u266_21 002E                                      u258_21 005F  
                                    u194_21 0005                                      u282_21 0004  
                                    u290_21 001D                                      u426_21 0027  
                                    u267_20 0046                                      u259_20 00A5  
                                    u195_20 001E                                      u283_20 000F  
                                    u267_21 0045                                      u259_21 00A4  
                                    u195_21 001D                                      u283_21 000E  
                                    u291_25 0029                                      u268_20 0057  
                                    u196_20 0053                                      u380_20 009A  
                                    u284_20 0019                                      u292_20 0041  
                                    u268_21 0056                                      u196_21 0052  
                                    u380_21 0099                                      u284_21 0018  
                                    u292_21 0040                                      u188_25 0008  
                                    u269_20 0073                                      u197_20 0008  
                                    u381_20 00C9                                      u293_20 0054  
                                    u269_21 0072                                      u197_21 0007  
                                    u381_21 00C8                                      u293_21 0053  
                                    u189_25 000E                                      u198_20 0011  
                                    u382_20 001B                                      u294_20 0086  
                                    u198_21 0010                                      u382_21 001A  
                                    u294_21 0085                                      u199_20 0017  
                                    u383_20 0043                                      u279_20 001F  
                                    u199_21 0016                                      u383_21 0042  
                                    u279_21 001E                                      u384_20 006F  
                                    u384_21 006E                                      u289_20 0007  
                                    u377_20 000A                                      u385_20 0009  
                                    u289_21 0006                                      u377_21 0009  
                                    u385_21 0008                                      u378_20 002C  
                                    u386_20 000D                                      u394_20 0006  
                                    _OSCCON 0099                                      u378_21 002B  
                                    u386_21 000C                                      u394_21 0005  
                                    u379_20 0072                                      u395_20 000B  
                                    u379_21 0071                                      u395_21 000A  
                                    u387_25 0011                                      u388_20 0031  
                                    u396_20 0018                                      u388_21 0030  
                                    u396_21 0017                                      u389_20 0052  
                                    u397_20 001C                                      u389_21 0051  
                                    u397_21 001B                                      u398_20 002A  
                                    u398_21 0029                                      u399_20 0031  
                                    u399_21 0030                                      _PLLRDY 04D6  
                                    _WDTCON 0097                eeprom_storeBurstGroup@column 000C  
                                    _SSPBUF 0211                       _I2C_WaitForCompletion 0000  
                         _shortPacketStatus 0017                             USBDeviceTasks@i 0004  
               USBStdFeatureReqHandler@pUEP 0008                    USBTransferOnePacket@data 0001  
                USBCtrlTrfInHandler@lastDTS 0005                             ??_USBDeviceInit 0005  
                         _USBEnableEndpoint 0000             __size_of_USBStdGetStatusHandler 0067  
                                    _memcpy 0000                            ?_TMR0_Initialize 0000  
                                    _memset 0000                     __size_of_I2C_MasterStop 0006  
                   __size_of_I2C_Initialize 000C                          ?_USBEnableEndpoint 0007  
             __size_of_USBTransferOnePacket 0087                                __pdataBIGRAM 2328  
                           ?_WDT_Initialize 0000                                   ?_ACK_Poll 0000  
                       ??_USBEnableEndpoint 0008    TMR0_SetInterruptHandler@InterruptHandler 0005  
IOCAF5_SetInterruptHandler@InterruptHandler 0005                            ?_PIN_MANAGER_IOC 0000  
                               _CtrlTrfData 0058                      _eeprom_storeBurstGroup 0000  
                              ??_IOCAF5_ISR 0000                        _controlTransferState 0016  
                         _SYSTEM_Initialize 0000                     __end_of__initialization 0053  
                        ?_SYSTEM_Initialize 0000                    __size_of_USBStallHandler 002B  
                       __size_of_USBSuspend 0020                              __pcstackCOMMON 0000  
                 __end_of_USBEnableEndpoint 0025                               __end_of_sd000 0004  
                             __end_of_sd001 0034                               __end_of_sd002 0016  
                             __end_of_sd003 0008                                __pidataBANK4 0000  
                       ??_SYSTEM_Initialize 000A                                   ?_TMR0_ISR 0000  
          __size_of_USBCtrlEPAllowDataStage 0060               __size_of_USBConfigureEndpoint 0043  
                   __end_ofi1_USBDeviceInit 00A9                 __end_of_USBCtrlTrfInHandler 0078  
                        __end_of_IOCAF5_ISR 000F                              _OPTION_REGbits 0095  
                                _cdc_notice 0000                                  _cdc_rx_len 0023  
                                _cdc_tx_len 0022                                  ??_ACK_Poll 0006  
               ?_IOCAF5_SetInterruptHandler 0005                    ??_USBCtrlTrfSetupHandler 000F  
                   _USBTicksSinceSuspendEnd 0026                            ?_USBDeviceAttach 0000  
                 __end_of_SYSTEM_Initialize 0016                      _USBStdGetStatusHandler 0000  
                                __pbssBANK1 0000                                  __pbssBANK3 0000  
                                __pbssBANK4 0000                                  __pbssBANK5 0000  
                                __pbssBANK6 0000            ??_IOCAF5_DefaultInterruptHandler 0000  
           ?_IOCAF5_DefaultInterruptHandler 0000                      ?_I2C_WaitForCompletion 0000  
               __size_of_USBWakeFromSuspend 0022                                 _pBDTEntryIn 0007  
                   _IOCAF5_InterruptHandler 0000            __end_of_USBCtrlEPServiceComplete 009E  
               __size_of_USBCheckCDCRequest 006F                                  __pmaintext 0000  
                      USBCtrlTrfRxService@i 0004            __end_of_TMR0_SetInterruptHandler 0009  
                                ??_TMR0_ISR 0000                                  __pintentry 0000  
                                   ?_memcpy 0000                                     ?_memset 0000  
                                _device_dsc 0000                            _USBCtrlEPService 0000  
                                _ep_data_in 000D                     __size_of_ADC_Initialize 0009  
               __end_of_USBCtrlTrfRxService 00A9                          _USBCheckStdRequest 0000  
                         _configDescriptor1 0000                 __end_of_USBCtrlTrfTxService 0081  
                       _USBStdSetCfgHandler 0000                                     _OSCTUNE 0098  
                                   _SSP1ADD 0212                                     _SSP1BUF 0211  
                       ?_USBCheckStdRequest 0000                __size_of_USBStdGetDscHandler 008B  
                                   _UIEbits 0E92                                     _UIRbits 0E90  
                             _cdc_trf_state 0014                                     _pCDCDst 0014  
                                   _pCDCSrc 0016                        _ADC_InterruptHandler 001E  
           ??_USBIncrement1msInternalTimers 0000                        ?_USBStdSetCfgHandler 0000  
                                 _CDCInitEP 0000                  __size_of_USBEnableEndpoint 0025  
                                _readBuffer 0000                        ??_USBCheckStdRequest 000D  
             __size_of_USBCtrlTrfOutHandler 003A                            ??_USBDeviceTasks 0002  
                         ??_USBStallHandler 0000                            ?i1_USBDeviceInit 0000  
                            _I2C_MasterStop 0000                             __size_of_memcpy 002E  
                            _I2C_Initialize 0000                             __size_of_memset 00CA  
                 __end_of_configDescriptor1 0043                                     __ptext1 0000  
                                   __ptext2 0000                                     __ptext3 0000  
                                   __ptext4 0000                                     __ptext5 0000  
                                   __ptext6 0000                                     __ptext7 0000  
                                   __ptext8 0000                                     __ptext9 0000  
                                   _inPipes 000D                 _USBDeferOUTDataStagePackets 0027  
                                   _counter 001C                       _OSCILLATOR_Initialize 0000  
                              ??_USBSuspend 0006                    ??_PIN_MANAGER_Initialize 0007  
                                 _IOCAFbits 0393                                   _IOCANbits 0392  
                                 _IOCAPbits 0391                    __size_of_I2C_MasterStart 0006  
                  __size_of_I2C_MasterWrite 0009                          __end_of_USB_CD_Ptr 0002  
                __size_of_SYSTEM_Initialize 0016             __size_of_USBCtrlTrfSetupHandler 0055  
                                   clrloop0 0001                               _writeout_flag 0032  
                      end_of_initialization 0053                          __end_of_USB_SD_Ptr 0008  
                                   memcpy@d 0009                                     memcpy@n 0002  
                                   memcpy@s 0005                         _pBDTEntryEP0OutNext 0012  
                                   init_ram 0000                                     memset@c 0002  
                                   memset@k 000A                                     memset@n 0004  
                                   memset@s 000C                                     initloop 0001  
                           _USB1msTickCount 0006             _dummy_encapsulated_cmd_response 000E  
                  ?_USBStdFeatureReqHandler 0000                       ??_USBStdSetCfgHandler 0006  
                                ?_CDCInitEP 0000                          __end_of_USBSuspend 0020  
                   _USBCtrlEPAllowDataStage 0000                                  _sleep_flag 0033  
                    __end_of_I2C_MasterStop 0006                      __end_of_I2C_Initialize 000C  
                  _USBCtrlEPServiceComplete 0000                  _USBStatusStageEnabledFlag1 002A  
                _USBStatusStageEnabledFlag2 0029                            ??_WDT_Initialize 0005  
                        USBEnableEndpoint@p 000A                    _TMR0_SetInterruptHandler 0000  
                   ?_eeprom_storeBurstGroup 0006                          _BothEP0OutUOWNsSet 002D  
                 USBStdSetCfgHandler@i_1762 0009                   USBConfigureEndpoint@EPNum 0005  
                         __size_of_ACK_Poll 0010                  ?_USBCtrlEPAllowStatusStage 0000  
       USER_USB_CALLBACK_EVENT_HANDLER@size 0004                                   _USTATcopy 001A  
              __end_of_USBTransferOnePacket 0087                       i1USBDeviceInit@i_1026 0003  
                    _USBCtrlTrfSetupHandler 0000                             ?_I2C_MasterStop 0000  
                           ?_I2C_Initialize 0000                       __end_of_USBDeviceInit 00B2  
     __end_of_USBIncrement1msInternalTimers 001C      __size_of_USBIncrement1msInternalTimers 001C  
             _USBIncrement1msInternalTimers 0000                               __pidataBIGRAM 0000  
                         __size_of_TMR0_ISR 0049                              _ADC_Initialize 0000  
                            __end_of_memcpy 002E                      ?_OSCILLATOR_Initialize 0000  
                            __end_of_memset 00CA                           _USBBusIsSuspended 002E  
            __end_of_eeprom_storeBurstGroup 007B                         start_initialization 0000  
                   ?_USBStdGetStatusHandler 0000               USBCtrlTrfRxService@byteToRead 0005  
                  __size_of_TMR0_Initialize 0019             __size_of_PIN_MANAGER_Initialize 0027  
                               _cdc_data_rx 20C0                                 _cdc_data_tx 2080  
              __end_of_USBConfigureEndpoint 0043             __end_of_USBStdFeatureReqHandler 0158  
                   ??_I2C_WaitForCompletion 0005           __end_of_USBCtrlEPAllowStatusStage 0079  
                  __end_of_USBCtrlEPService 0056                           ??_I2C_MasterStart 0005  
                         ??_I2C_MasterWrite 0005                   ??_USBCtrlEPAllowDataStage 0003  
                  __size_of_PIN_MANAGER_IOC 0009                                 ??_CDCInitEP 000D  
                            USBDeviceInit@i 0009                              USBDeviceInit@p 0006  
                    _pBDTEntryEP0OutCurrent 0018                     USBTransferOnePacket@dir 0000  
                   USBTransferOnePacket@len 0003                         _USBStdGetDscHandler 0000  
                    __end_of_ADC_Initialize 0009                                 __pdataBANK4 0000  
                                  ??_memcpy 0004                                    ??_memset 0006  
                                memset@dest 0000      __end_of_IOCAF5_DefaultInterruptHandler 0001  
   __size_of_IOCAF5_DefaultInterruptHandler 0001              _IOCAF5_DefaultInterruptHandler 0000  
                    _USBActiveConfiguration 001B              __end_of_USBStdGetStatusHandler 0067  
                                 ___latbits 0002                               __pcstackBANK0 0000  
                             __pcstackBANK1 0000                __size_of_USBCtrlTrfInHandler 0078  
                             __pcstackBANK4 0000                        ?_USBStdGetDscHandler 0000  
                __end_of_USBWakeFromSuspend 0022                             _USBStallHandler 0000  
                              _pBDTEntryOut 0000                  __end_of_USBCheckCDCRequest 006F  
                     _TMR0_InterruptHandler 0018                                   __pnvBANK3 0000  
                  __size_of_USBDeviceAttach 001E                      _PIN_MANAGER_Initialize 0000  
                           ?_ADC_Initialize 0000                ??_INTERRUPT_InterruptManager 000E  
                      _USBTransferOnePacket 0000                                   _measarray 2328  
                                  _ACK_Poll 0000                __end_of_USBCtrlTrfOutHandler 003A  
                     ??_USBStdGetDscHandler 0000                                 _ep_data_out 000A  
              __size_of_USBCtrlTrfRxService 00A9               USBConfigureEndpoint@direction 0000  
              __size_of_USBCtrlTrfTxService 0081                           ??_TMR0_Initialize 0007  
                ??_USBCtrlEPServiceComplete 0005                                   clear_ram0 0000  
                                  _PIE2bits 0092                   eeprom_storeBurstGroup@row 000D  
       __size_of_INTERRUPT_InterruptManager 002E                  ??_TMR0_SetInterruptHandler 0007  
                                  _PIR1bits 0011                                    _PIR2bits 0012  
                                  _UEP0bits 0E98                  _USBDeferINDataStagePackets 0028  
                                  _SSP1CON1 0215                                    _SSP1CON2 0216  
                                  _TMR0_ISR 0000                 __size_of_USBCheckStdRequest 0088  
                                  _SSP1STAT 0214                                    _UCONbits 0E8E  
                         ??_PIN_MANAGER_IOC 0000                        _USBConfigureEndpoint 0000  
          eeprom_storeBurstGroup@addresslsb 000B            __size_of_USBStdFeatureReqHandler 0158  
                                _ADCON0bits 009D                       ?_USBTransferOnePacket 0000  
                              _RemoteWakeup 002F                    __size_ofi1_USBDeviceInit 00A9  
                   __end_of_USBStallHandler 002B                 ??_USBCtrlEPAllowStatusStage 0000  
               __end_of_USBStdSetCfgHandler 008D                           _measurement_count 0025  
                        __end_of_device_dsc 0012                            ??_I2C_MasterStop 0005  
                   ?_USBCtrlTrfSetupHandler 0000                            ??_I2C_Initialize 0005  
                   USBStdGetStatusHandler@p 0002                                   memcpy@tmp 0007  
                    USBTransferOnePacket@ep 0008                                    _SetupPkt 0050  
                   ??_OSCILLATOR_Initialize 0005                       ?_USBConfigureEndpoint 0000  
                         ??_USBDeviceAttach 0005                          _waitforsleep_count 001A  
                               _line_coding 0035                             _I2C_MasterStart 0000  
                           _I2C_MasterWrite 0000                     __size_of_USBDeviceTasks 0119  
                                  __ptext10 0000                                    __ptext11 0000  
                                  __ptext20 0000                                    __ptext12 0000  
                                  __ptext21 0000                                    __ptext13 0000  
                                  __ptext30 0000                                    __ptext22 0000  
                                  __ptext14 0000                                    __ptext31 0000  
                                  __ptext23 0000                                    __ptext15 0000  
                                  __ptext40 0000                                    __ptext32 0000  
                                  __ptext24 0000                                    __ptext16 0000  
                                  __ptext41 0000                                    __ptext33 0000  
                                  __ptext25 0000                                    __ptext17 0000  
                                  __ptext50 0000                                    __ptext42 0000  
                                  __ptext34 0000                                    __ptext26 0000  
                                  __ptext51 0000                                    __ptext43 0000  
                                  __ptext35 0000                                    __ptext27 0000  
                                  __ptext19 0000                                    __ptext44 0000  
                                  __ptext36 0000                                    __ptext28 0000  
                                  __ptext45 0000                                    __ptext37 0000  
                                  __ptext29 0000                                    __ptext46 0000  
                                  __ptext38 0000                                    __ptext47 0000  
                                  __ptext39 0000                                    __ptext48 0000  
                                  __ptext49 0000                ??_IOCAF5_SetInterruptHandler 0007  
                              _SSP1CON1bits 0215                                _SSP1CON2bits 0216  
                                _IOCAF5_ISR 0000              __size_of_I2C_WaitForCompletion 0007  
            __end_of_USBCtrlTrfSetupHandler 0055                               __size_of_main 0029  
                         ?_USBCtrlEPService 0000               __end_of_I2C_WaitForCompletion 0007  
      __end_of_TMR0_DefaultInterruptHandler 0001       __size_of_TMR0_DefaultInterruptHandler 0001  
              _TMR0_DefaultInterruptHandler 0000                          ??_USBCtrlEPService 0000  
                       _USBCtrlTrfInHandler 0000                         I2C_MasterWrite@data 0005  
                                  _outPipes 0000                        _USBCtrlTrfOutHandler 0000  
                                  int$flags 007E                   _USBCtrlEPAllowStatusStage 0000  
        __end_of_INTERRUPT_InterruptManager 002E                  _INTERRUPT_InterruptManager 0000  
                    ??_USBTransferOnePacket 0004         __size_of_IOCAF5_SetInterruptHandler 0009  
                          _measurement_flag 0034                   _USBDeferStatusStagePacket 002B  
                          i1USBDeviceInit@i 0004                            i1USBDeviceInit@p 0001  
                                _INTCONbits 000B                        ?_USBCtrlTrfInHandler 0000  
                                  memcpy@d1 0008                                    memcpy@s1 0000  
             USBCtrlTrfTxService@byteToSend 0002                            ?_USBStallHandler 0000  
                  USBStdFeatureReqHandler@p 000B                     __size_of_WDT_Initialize 0004  
                                  intlevel1 0000*                     __size_of_USBDeviceInit 00B2  
   __end_of_USER_USB_CALLBACK_EVENT_HANDLER 0032    __size_of_USER_USB_CALLBACK_EVENT_HANDLER 0032  
          ?_USER_USB_CALLBACK_EVENT_HANDLER 0000           ??_USER_USB_CALLBACK_EVENT_HANDLER 000E  
           _USER_USB_CALLBACK_EVENT_HANDLER 0000                           ??i1_USBDeviceInit 0000  
                   ?_PIN_MANAGER_Initialize 0000                            ??_ADC_Initialize 0005  
             ?_TMR0_DefaultInterruptHandler 0000                      ??_USBConfigureEndpoint 0001  
                     ?_USBCtrlTrfOutHandler 0000                         _USBCtrlTrfRxService 0000  
                        _USBWakeFromSuspend 0000                     _USBStdFeatureReqHandler 0000  
                   __end_of_I2C_MasterStart 0006                     __end_of_I2C_MasterWrite 0009  
                        _USBCheckCDCRequest 0000                         _USBCtrlTrfTxService 0000  
                             __pstringtext1 0000                               __pstringtext2 0000  
                             __pstringtext3 0000                               __pstringtext4 0000  
                             __pstringtext5 0000                               __pstringtext6 0000  
                             __pstringtext7 0000                               __pstringtext8 0000  
             eeprom_storeBurstGroup@address 0006                                  _OPTION_REG 0095  
                       ?_USBWakeFromSuspend 0000                             _TMR0_Initialize 0000  
                     ??_USBCtrlTrfInHandler 0003                       _USBAlternateInterface 003C  
                       ?_USBCheckCDCRequest 0000                                 _SSPCON2bits 0216  
                       USBEnableEndpoint@ep 000C                             _endpoint_number 0015  
                      ?_USBCtrlTrfRxService 0000                                 ?_IOCAF5_ISR 0000  
            __end_of_PIN_MANAGER_Initialize 0027                    ?_USBCtrlEPAllowDataStage 0000  
                      ?_USBCtrlTrfTxService 0000                _USBStatusStageTimeoutCounter 002C  
                           _PIN_MANAGER_IOC 0000                        ??_USBWakeFromSuspend 0006  
                USBTransferOnePacket@handle 0009                        ??_USBCheckCDCRequest 0000  
                                _USB_CD_Ptr 0000  
