

Microchip MPLAB XC8 Assembler V2.31 build 20201012212115 
                                                                                               Thu Apr 08 12:26:44 2021

Microchip MPLAB XC8 C Compiler v2.31 (Free license) build 20201012212115 Og1 
     1                           	processor	16F1459
     2                           	pagewidth 120
     3                           	opt	flic
     4                           	psect	idataBIGRAM,global,class=CODE,delta=2,noexec
     5                           	psect	stringtext1,global,class=STRCODE,delta=2,noexec
     6                           	psect	stringtext2,global,class=STRCODE,delta=2,noexec
     7                           	psect	stringtext3,global,class=STRCODE,delta=2,noexec
     8                           	psect	stringtext4,global,class=STRCODE,delta=2,noexec
     9                           	psect	stringtext5,global,class=STRCODE,delta=2,noexec
    10                           	psect	stringtext6,global,class=STRCODE,delta=2,noexec
    11                           	psect	stringtext7,global,class=STRCODE,delta=2,noexec
    12                           	psect	stringtext8,global,class=STRCODE,delta=2,noexec
    13                           	psect	nvBANK4,global,class=BANK4,space=1,delta=1,noexec
    14                           	psect	cinit,global,class=CODE,merge=1,delta=2
    15                           	psect	bssBANK1,global,class=BANK1,space=1,delta=1,noexec
    16                           	psect	bssBANK3,global,class=BANK3,space=1,delta=1,noexec
    17                           	psect	bssBANK4,global,class=BANK4,space=1,delta=1,noexec
    18                           	psect	bssBANK5,global,class=BANK5,space=1,delta=1,noexec
    19                           	psect	bssBANK6,global,class=BANK6,space=1,delta=1,noexec
    20                           	psect	inittext,global,class=CODE,delta=2
    21                           	psect	clrtext,global,class=CODE,delta=2
    22                           	psect	cstackBANK4,global,class=BANK4,space=1,delta=1,noexec
    23                           	psect	cstackBANK3,global,class=BANK3,space=1,delta=1,noexec
    24                           	psect	cstackBANK1,global,class=BANK1,space=1,delta=1,noexec
    25                           	psect	cstackCOMMON,global,class=COMMON,space=1,delta=1,noexec
    26                           	psect	cstackBANK0,global,class=BANK0,space=1,delta=1,noexec
    27                           	psect	maintext,global,class=CODE,merge=1,split=1,delta=2
    28                           	psect	text1,local,class=CODE,merge=1,delta=2
    29                           	psect	text2,local,class=CODE,merge=1,delta=2
    30                           	psect	text3,local,class=CODE,merge=1,delta=2
    31                           	psect	text4,local,class=CODE,merge=1,delta=2
    32                           	psect	text5,local,class=CODE,merge=1,delta=2
    33                           	psect	text6,local,class=CODE,merge=1,delta=2
    34                           	psect	text7,local,class=CODE,merge=1,delta=2
    35                           	psect	text8,local,class=CODE,merge=1,delta=2
    36                           	psect	text9,local,class=CODE,merge=1,delta=2
    37                           	psect	text10,local,class=CODE,merge=1,delta=2
    38                           	psect	text11,local,class=CODE,merge=1,delta=2
    39                           	psect	text12,local,class=CODE,merge=1,delta=2
    40                           	psect	text13,local,class=CODE,merge=1,delta=2
    41                           	psect	text14,local,class=CODE,merge=1,delta=2
    42                           	psect	text15,local,class=CODE,merge=1,delta=2
    43                           	psect	text16,local,class=CODE,merge=1,delta=2
    44                           	psect	text17,local,class=CODE,merge=1,delta=2
    45                           	psect	text18,local,class=CODE,merge=1,delta=2
    46                           	psect	text19,local,class=CODE,merge=1,delta=2
    47                           	psect	intentry,global,class=CODE,delta=2
    48                           	psect	text21,local,class=CODE,merge=1,delta=2
    49                           	psect	text22,local,class=CODE,merge=1,delta=2
    50                           	psect	text23,local,class=CODE,merge=1,delta=2
    51                           	psect	text24,local,class=CODE,merge=1,delta=2
    52                           	psect	text25,local,class=CODE,merge=1,delta=2
    53                           	psect	text26,local,class=CODE,merge=1,delta=2
    54                           	psect	text27,local,class=CODE,merge=1,delta=2
    55                           	psect	text28,local,class=CODE,merge=1,delta=2,group=2
    56                           	psect	text29,local,class=CODE,merge=1,delta=2
    57                           	psect	text30,local,class=CODE,merge=1,delta=2
    58                           	psect	text31,local,class=CODE,merge=1,delta=2
    59                           	psect	text32,local,class=CODE,merge=1,delta=2
    60                           	psect	text33,local,class=CODE,merge=1,delta=2
    61                           	psect	text34,local,class=CODE,merge=1,delta=2,group=2
    62                           	psect	text35,local,class=CODE,merge=1,delta=2
    63                           	psect	text36,local,class=CODE,merge=1,delta=2
    64                           	psect	text37,local,class=CODE,merge=1,delta=2
    65                           	psect	text38,local,class=CODE,merge=1,delta=2
    66                           	psect	text39,local,class=CODE,merge=1,delta=2
    67                           	psect	text40,local,class=CODE,merge=1,delta=2
    68                           	psect	text41,local,class=CODE,merge=1,delta=2
    69                           	psect	text42,local,class=CODE,merge=1,delta=2
    70                           	psect	text43,local,class=CODE,merge=1,delta=2
    71                           	psect	text44,local,class=CODE,merge=1,delta=2
    72                           	psect	text45,local,class=CODE,merge=1,delta=2
    73                           	psect	text46,local,class=CODE,merge=1,delta=2
    74                           	psect	text47,local,class=CODE,merge=1,delta=2
    75                           	psect	text48,local,class=CODE,merge=1,delta=2
    76                           	psect	text49,local,class=CODE,merge=1,delta=2
    77                           	psect	text50,local,class=CODE,merge=1,delta=2
    78                           	psect	config,global,abs,ovrld,class=CONFIG,space=4,delta=2,noexec
    79                           	dabs	1,0x1A0,16
    80                           	dabs	1,0x140,48
    81                           	dabs	1,0x120,32
    82                           	dabs	1,0xD0,32
    83                           	dabs	1,0x620,48
    84                           	dabs	1,0x5A0,80
    85                           	dabs	1,0x520,80
    86                           	dabs	1,0x4A0,80
    87                           	dabs	1,0x420,80
    88                           	dabs	1,0x3C0,48
    89                           	dabs	1,0x20,48,_BDT
    90                           	dabs	1,0x58,8,_CtrlTrfData
    91                           	dabs	1,0x50,8,_SetupPkt
    92                           	dabs	1,0x2250,0,_measarray
    93                           	dabs	1,0x7E,2
    94  0000                     
    95                           ; Version 2.20
    96                           ; Generated 12/02/2020 GMT
    97                           ; 
    98                           ; Copyright © 2020, Microchip Technology Inc. and its subsidiaries ("Microchip")
    99                           ; All rights reserved.
   100                           ; 
   101                           ; This software is developed by Microchip Technology Inc. and its subsidiaries ("Microch
      +                          ip").
   102                           ; 
   103                           ; Redistribution and use in source and binary forms, with or without modification, are
   104                           ; permitted provided that the following conditions are met:
   105                           ; 
   106                           ;     1. Redistributions of source code must retain the above copyright notice, this lis
      +                          t of
   107                           ;        conditions and the following disclaimer.
   108                           ; 
   109                           ;     2. Redistributions in binary form must reproduce the above copyright notice, this 
      +                          list
   110                           ;        of conditions and the following disclaimer in the documentation and/or other
   111                           ;        materials provided with the distribution.
   112                           ; 
   113                           ;     3. Microchip's name may not be used to endorse or promote products derived from th
      +                          is
   114                           ;        software without specific prior written permission.
   115                           ; 
   116                           ; THIS SOFTWARE IS PROVIDED BY MICROCHIP "AS IS" AND ANY EXPRESS OR IMPLIED WARRANTIES,
   117                           ; INCLUDING, BUT NOT LIMITED TO, THE IMPLIED WARRANTIES OF MERCHANTABILITY AND FITNESS F
      +                          OR
   118                           ; PURPOSE ARE DISCLAIMED.  IN NO EVENT SHALL MICROCHIP BE LIABLE FOR ANY DIRECT, INDIREC
      +                          T,
   119                           ; INCIDENTAL, SPECIAL, EXEMPLARY, OR CONSEQUENTIAL DAMAGES (INCLUDING BUT NOT LIMITED TO
   120                           ; PROCUREMENT OF SUBSTITUTE GOODS OR SERVICES; LOSS OF USE, DATA OR PROFITS; OR BUSINESS
   121                           ; INTERRUPTION) HOWSOEVER CAUSED AND ON ANY THEORY OF LIABILITY, WHETHER IN CONTRACT, ST
      +                          RICT
   122                           ; LIABILITY, OR TORT (INCLUDING NEGLIGENCE OR OTHERWISE) ARISING IN ANY WAY OUT OF THE U
      +                          SE OF
   123                           ; THIS SOFTWARE, EVEN IF ADVISED OF THE POSSIBILITY OF SUCH DAMAGE.
   124                           ; 
   125                           ; 
   126                           ; Code-generator required, PIC16F1459 Definitions
   127                           ; 
   128                           ; SFR Addresses
   129  0000                     	;# 
   130  0001                     	;# 
   131  0002                     	;# 
   132  0003                     	;# 
   133  0004                     	;# 
   134  0005                     	;# 
   135  0006                     	;# 
   136  0007                     	;# 
   137  0008                     	;# 
   138  0009                     	;# 
   139  000A                     	;# 
   140  000B                     	;# 
   141  000C                     	;# 
   142  000D                     	;# 
   143  000E                     	;# 
   144  0011                     	;# 
   145  0012                     	;# 
   146  0015                     	;# 
   147  0016                     	;# 
   148  0016                     	;# 
   149  0017                     	;# 
   150  0018                     	;# 
   151  0019                     	;# 
   152  001A                     	;# 
   153  001B                     	;# 
   154  001C                     	;# 
   155  008C                     	;# 
   156  008D                     	;# 
   157  008E                     	;# 
   158  0091                     	;# 
   159  0092                     	;# 
   160  0095                     	;# 
   161  0096                     	;# 
   162  0097                     	;# 
   163  0098                     	;# 
   164  0099                     	;# 
   165  009A                     	;# 
   166  009B                     	;# 
   167  009B                     	;# 
   168  009C                     	;# 
   169  009D                     	;# 
   170  009E                     	;# 
   171  009F                     	;# 
   172  010C                     	;# 
   173  010D                     	;# 
   174  010E                     	;# 
   175  0111                     	;# 
   176  0112                     	;# 
   177  0113                     	;# 
   178  0114                     	;# 
   179  0115                     	;# 
   180  0116                     	;# 
   181  0117                     	;# 
   182  0118                     	;# 
   183  0119                     	;# 
   184  011D                     	;# 
   185  018C                     	;# 
   186  018D                     	;# 
   187  018E                     	;# 
   188  0191                     	;# 
   189  0191                     	;# 
   190  0192                     	;# 
   191  0193                     	;# 
   192  0193                     	;# 
   193  0194                     	;# 
   194  0195                     	;# 
   195  0196                     	;# 
   196  0197                     	;# 
   197  0199                     	;# 
   198  019A                     	;# 
   199  019B                     	;# 
   200  019B                     	;# 
   201  019C                     	;# 
   202  019D                     	;# 
   203  019E                     	;# 
   204  019F                     	;# 
   205  020C                     	;# 
   206  020D                     	;# 
   207  0211                     	;# 
   208  0211                     	;# 
   209  0212                     	;# 
   210  0212                     	;# 
   211  0213                     	;# 
   212  0213                     	;# 
   213  0214                     	;# 
   214  0214                     	;# 
   215  0215                     	;# 
   216  0215                     	;# 
   217  0215                     	;# 
   218  0216                     	;# 
   219  0216                     	;# 
   220  0217                     	;# 
   221  0217                     	;# 
   222  0391                     	;# 
   223  0392                     	;# 
   224  0393                     	;# 
   225  0394                     	;# 
   226  0395                     	;# 
   227  0396                     	;# 
   228  039A                     	;# 
   229  039B                     	;# 
   230  0611                     	;# 
   231  0612                     	;# 
   232  0613                     	;# 
   233  0613                     	;# 
   234  0614                     	;# 
   235  0615                     	;# 
   236  0616                     	;# 
   237  0616                     	;# 
   238  0691                     	;# 
   239  0692                     	;# 
   240  0693                     	;# 
   241  0694                     	;# 
   242  0695                     	;# 
   243  0E8E                     	;# 
   244  0E8F                     	;# 
   245  0E90                     	;# 
   246  0E91                     	;# 
   247  0E92                     	;# 
   248  0E93                     	;# 
   249  0E94                     	;# 
   250  0E94                     	;# 
   251  0E95                     	;# 
   252  0E96                     	;# 
   253  0E97                     	;# 
   254  0E98                     	;# 
   255  0E99                     	;# 
   256  0E9A                     	;# 
   257  0E9B                     	;# 
   258  0E9C                     	;# 
   259  0E9D                     	;# 
   260  0E9E                     	;# 
   261  0E9F                     	;# 
   262  0FE4                     	;# 
   263  0FE5                     	;# 
   264  0FE6                     	;# 
   265  0FE7                     	;# 
   266  0FE8                     	;# 
   267  0FE9                     	;# 
   268  0FEA                     	;# 
   269  0FEB                     	;# 
   270  0FED                     	;# 
   271  0FEE                     	;# 
   272  0FEF                     	;# 
   273  0000                     	;# 
   274  0001                     	;# 
   275  0002                     	;# 
   276  0003                     	;# 
   277  0004                     	;# 
   278  0005                     	;# 
   279  0006                     	;# 
   280  0007                     	;# 
   281  0008                     	;# 
   282  0009                     	;# 
   283  000A                     	;# 
   284  000B                     	;# 
   285  000C                     	;# 
   286  000D                     	;# 
   287  000E                     	;# 
   288  0011                     	;# 
   289  0012                     	;# 
   290  0015                     	;# 
   291  0016                     	;# 
   292  0016                     	;# 
   293  0017                     	;# 
   294  0018                     	;# 
   295  0019                     	;# 
   296  001A                     	;# 
   297  001B                     	;# 
   298  001C                     	;# 
   299  008C                     	;# 
   300  008D                     	;# 
   301  008E                     	;# 
   302  0091                     	;# 
   303  0092                     	;# 
   304  0095                     	;# 
   305  0096                     	;# 
   306  0097                     	;# 
   307  0098                     	;# 
   308  0099                     	;# 
   309  009A                     	;# 
   310  009B                     	;# 
   311  009B                     	;# 
   312  009C                     	;# 
   313  009D                     	;# 
   314  009E                     	;# 
   315  009F                     	;# 
   316  010C                     	;# 
   317  010D                     	;# 
   318  010E                     	;# 
   319  0111                     	;# 
   320  0112                     	;# 
   321  0113                     	;# 
   322  0114                     	;# 
   323  0115                     	;# 
   324  0116                     	;# 
   325  0117                     	;# 
   326  0118                     	;# 
   327  0119                     	;# 
   328  011D                     	;# 
   329  018C                     	;# 
   330  018D                     	;# 
   331  018E                     	;# 
   332  0191                     	;# 
   333  0191                     	;# 
   334  0192                     	;# 
   335  0193                     	;# 
   336  0193                     	;# 
   337  0194                     	;# 
   338  0195                     	;# 
   339  0196                     	;# 
   340  0197                     	;# 
   341  0199                     	;# 
   342  019A                     	;# 
   343  019B                     	;# 
   344  019B                     	;# 
   345  019C                     	;# 
   346  019D                     	;# 
   347  019E                     	;# 
   348  019F                     	;# 
   349  020C                     	;# 
   350  020D                     	;# 
   351  0211                     	;# 
   352  0211                     	;# 
   353  0212                     	;# 
   354  0212                     	;# 
   355  0213                     	;# 
   356  0213                     	;# 
   357  0214                     	;# 
   358  0214                     	;# 
   359  0215                     	;# 
   360  0215                     	;# 
   361  0215                     	;# 
   362  0216                     	;# 
   363  0216                     	;# 
   364  0217                     	;# 
   365  0217                     	;# 
   366  0391                     	;# 
   367  0392                     	;# 
   368  0393                     	;# 
   369  0394                     	;# 
   370  0395                     	;# 
   371  0396                     	;# 
   372  039A                     	;# 
   373  039B                     	;# 
   374  0611                     	;# 
   375  0612                     	;# 
   376  0613                     	;# 
   377  0613                     	;# 
   378  0614                     	;# 
   379  0615                     	;# 
   380  0616                     	;# 
   381  0616                     	;# 
   382  0691                     	;# 
   383  0692                     	;# 
   384  0693                     	;# 
   385  0694                     	;# 
   386  0695                     	;# 
   387  0E8E                     	;# 
   388  0E8F                     	;# 
   389  0E90                     	;# 
   390  0E91                     	;# 
   391  0E92                     	;# 
   392  0E93                     	;# 
   393  0E94                     	;# 
   394  0E94                     	;# 
   395  0E95                     	;# 
   396  0E96                     	;# 
   397  0E97                     	;# 
   398  0E98                     	;# 
   399  0E99                     	;# 
   400  0E9A                     	;# 
   401  0E9B                     	;# 
   402  0E9C                     	;# 
   403  0E9D                     	;# 
   404  0E9E                     	;# 
   405  0E9F                     	;# 
   406  0FE4                     	;# 
   407  0FE5                     	;# 
   408  0FE6                     	;# 
   409  0FE7                     	;# 
   410  0FE8                     	;# 
   411  0FE9                     	;# 
   412  0FEA                     	;# 
   413  0FEB                     	;# 
   414  0FED                     	;# 
   415  0FEE                     	;# 
   416  0FEF                     	;# 
   417  0000                     	;# 
   418  0001                     	;# 
   419  0002                     	;# 
   420  0003                     	;# 
   421  0004                     	;# 
   422  0005                     	;# 
   423  0006                     	;# 
   424  0007                     	;# 
   425  0008                     	;# 
   426  0009                     	;# 
   427  000A                     	;# 
   428  000B                     	;# 
   429  000C                     	;# 
   430  000D                     	;# 
   431  000E                     	;# 
   432  0011                     	;# 
   433  0012                     	;# 
   434  0015                     	;# 
   435  0016                     	;# 
   436  0016                     	;# 
   437  0017                     	;# 
   438  0018                     	;# 
   439  0019                     	;# 
   440  001A                     	;# 
   441  001B                     	;# 
   442  001C                     	;# 
   443  008C                     	;# 
   444  008D                     	;# 
   445  008E                     	;# 
   446  0091                     	;# 
   447  0092                     	;# 
   448  0095                     	;# 
   449  0096                     	;# 
   450  0097                     	;# 
   451  0098                     	;# 
   452  0099                     	;# 
   453  009A                     	;# 
   454  009B                     	;# 
   455  009B                     	;# 
   456  009C                     	;# 
   457  009D                     	;# 
   458  009E                     	;# 
   459  009F                     	;# 
   460  010C                     	;# 
   461  010D                     	;# 
   462  010E                     	;# 
   463  0111                     	;# 
   464  0112                     	;# 
   465  0113                     	;# 
   466  0114                     	;# 
   467  0115                     	;# 
   468  0116                     	;# 
   469  0117                     	;# 
   470  0118                     	;# 
   471  0119                     	;# 
   472  011D                     	;# 
   473  018C                     	;# 
   474  018D                     	;# 
   475  018E                     	;# 
   476  0191                     	;# 
   477  0191                     	;# 
   478  0192                     	;# 
   479  0193                     	;# 
   480  0193                     	;# 
   481  0194                     	;# 
   482  0195                     	;# 
   483  0196                     	;# 
   484  0197                     	;# 
   485  0199                     	;# 
   486  019A                     	;# 
   487  019B                     	;# 
   488  019B                     	;# 
   489  019C                     	;# 
   490  019D                     	;# 
   491  019E                     	;# 
   492  019F                     	;# 
   493  020C                     	;# 
   494  020D                     	;# 
   495  0211                     	;# 
   496  0211                     	;# 
   497  0212                     	;# 
   498  0212                     	;# 
   499  0213                     	;# 
   500  0213                     	;# 
   501  0214                     	;# 
   502  0214                     	;# 
   503  0215                     	;# 
   504  0215                     	;# 
   505  0215                     	;# 
   506  0216                     	;# 
   507  0216                     	;# 
   508  0217                     	;# 
   509  0217                     	;# 
   510  0391                     	;# 
   511  0392                     	;# 
   512  0393                     	;# 
   513  0394                     	;# 
   514  0395                     	;# 
   515  0396                     	;# 
   516  039A                     	;# 
   517  039B                     	;# 
   518  0611                     	;# 
   519  0612                     	;# 
   520  0613                     	;# 
   521  0613                     	;# 
   522  0614                     	;# 
   523  0615                     	;# 
   524  0616                     	;# 
   525  0616                     	;# 
   526  0691                     	;# 
   527  0692                     	;# 
   528  0693                     	;# 
   529  0694                     	;# 
   530  0695                     	;# 
   531  0E8E                     	;# 
   532  0E8F                     	;# 
   533  0E90                     	;# 
   534  0E91                     	;# 
   535  0E92                     	;# 
   536  0E93                     	;# 
   537  0E94                     	;# 
   538  0E94                     	;# 
   539  0E95                     	;# 
   540  0E96                     	;# 
   541  0E97                     	;# 
   542  0E98                     	;# 
   543  0E99                     	;# 
   544  0E9A                     	;# 
   545  0E9B                     	;# 
   546  0E9C                     	;# 
   547  0E9D                     	;# 
   548  0E9E                     	;# 
   549  0E9F                     	;# 
   550  0FE4                     	;# 
   551  0FE5                     	;# 
   552  0FE6                     	;# 
   553  0FE7                     	;# 
   554  0FE8                     	;# 
   555  0FE9                     	;# 
   556  0FEA                     	;# 
   557  0FEB                     	;# 
   558  0FED                     	;# 
   559  0FEE                     	;# 
   560  0FEF                     	;# 
   561  0000                     	;# 
   562  0001                     	;# 
   563  0002                     	;# 
   564  0003                     	;# 
   565  0004                     	;# 
   566  0005                     	;# 
   567  0006                     	;# 
   568  0007                     	;# 
   569  0008                     	;# 
   570  0009                     	;# 
   571  000A                     	;# 
   572  000B                     	;# 
   573  000C                     	;# 
   574  000D                     	;# 
   575  000E                     	;# 
   576  0011                     	;# 
   577  0012                     	;# 
   578  0015                     	;# 
   579  0016                     	;# 
   580  0016                     	;# 
   581  0017                     	;# 
   582  0018                     	;# 
   583  0019                     	;# 
   584  001A                     	;# 
   585  001B                     	;# 
   586  001C                     	;# 
   587  008C                     	;# 
   588  008D                     	;# 
   589  008E                     	;# 
   590  0091                     	;# 
   591  0092                     	;# 
   592  0095                     	;# 
   593  0096                     	;# 
   594  0097                     	;# 
   595  0098                     	;# 
   596  0099                     	;# 
   597  009A                     	;# 
   598  009B                     	;# 
   599  009B                     	;# 
   600  009C                     	;# 
   601  009D                     	;# 
   602  009E                     	;# 
   603  009F                     	;# 
   604  010C                     	;# 
   605  010D                     	;# 
   606  010E                     	;# 
   607  0111                     	;# 
   608  0112                     	;# 
   609  0113                     	;# 
   610  0114                     	;# 
   611  0115                     	;# 
   612  0116                     	;# 
   613  0117                     	;# 
   614  0118                     	;# 
   615  0119                     	;# 
   616  011D                     	;# 
   617  018C                     	;# 
   618  018D                     	;# 
   619  018E                     	;# 
   620  0191                     	;# 
   621  0191                     	;# 
   622  0192                     	;# 
   623  0193                     	;# 
   624  0193                     	;# 
   625  0194                     	;# 
   626  0195                     	;# 
   627  0196                     	;# 
   628  0197                     	;# 
   629  0199                     	;# 
   630  019A                     	;# 
   631  019B                     	;# 
   632  019B                     	;# 
   633  019C                     	;# 
   634  019D                     	;# 
   635  019E                     	;# 
   636  019F                     	;# 
   637  020C                     	;# 
   638  020D                     	;# 
   639  0211                     	;# 
   640  0211                     	;# 
   641  0212                     	;# 
   642  0212                     	;# 
   643  0213                     	;# 
   644  0213                     	;# 
   645  0214                     	;# 
   646  0214                     	;# 
   647  0215                     	;# 
   648  0215                     	;# 
   649  0215                     	;# 
   650  0216                     	;# 
   651  0216                     	;# 
   652  0217                     	;# 
   653  0217                     	;# 
   654  0391                     	;# 
   655  0392                     	;# 
   656  0393                     	;# 
   657  0394                     	;# 
   658  0395                     	;# 
   659  0396                     	;# 
   660  039A                     	;# 
   661  039B                     	;# 
   662  0611                     	;# 
   663  0612                     	;# 
   664  0613                     	;# 
   665  0613                     	;# 
   666  0614                     	;# 
   667  0615                     	;# 
   668  0616                     	;# 
   669  0616                     	;# 
   670  0691                     	;# 
   671  0692                     	;# 
   672  0693                     	;# 
   673  0694                     	;# 
   674  0695                     	;# 
   675  0E8E                     	;# 
   676  0E8F                     	;# 
   677  0E90                     	;# 
   678  0E91                     	;# 
   679  0E92                     	;# 
   680  0E93                     	;# 
   681  0E94                     	;# 
   682  0E94                     	;# 
   683  0E95                     	;# 
   684  0E96                     	;# 
   685  0E97                     	;# 
   686  0E98                     	;# 
   687  0E99                     	;# 
   688  0E9A                     	;# 
   689  0E9B                     	;# 
   690  0E9C                     	;# 
   691  0E9D                     	;# 
   692  0E9E                     	;# 
   693  0E9F                     	;# 
   694  0FE4                     	;# 
   695  0FE5                     	;# 
   696  0FE6                     	;# 
   697  0FE7                     	;# 
   698  0FE8                     	;# 
   699  0FE9                     	;# 
   700  0FEA                     	;# 
   701  0FEB                     	;# 
   702  0FED                     	;# 
   703  0FEE                     	;# 
   704  0FEF                     	;# 
   705  0000                     	;# 
   706  0001                     	;# 
   707  0002                     	;# 
   708  0003                     	;# 
   709  0004                     	;# 
   710  0005                     	;# 
   711  0006                     	;# 
   712  0007                     	;# 
   713  0008                     	;# 
   714  0009                     	;# 
   715  000A                     	;# 
   716  000B                     	;# 
   717  000C                     	;# 
   718  000D                     	;# 
   719  000E                     	;# 
   720  0011                     	;# 
   721  0012                     	;# 
   722  0015                     	;# 
   723  0016                     	;# 
   724  0016                     	;# 
   725  0017                     	;# 
   726  0018                     	;# 
   727  0019                     	;# 
   728  001A                     	;# 
   729  001B                     	;# 
   730  001C                     	;# 
   731  008C                     	;# 
   732  008D                     	;# 
   733  008E                     	;# 
   734  0091                     	;# 
   735  0092                     	;# 
   736  0095                     	;# 
   737  0096                     	;# 
   738  0097                     	;# 
   739  0098                     	;# 
   740  0099                     	;# 
   741  009A                     	;# 
   742  009B                     	;# 
   743  009B                     	;# 
   744  009C                     	;# 
   745  009D                     	;# 
   746  009E                     	;# 
   747  009F                     	;# 
   748  010C                     	;# 
   749  010D                     	;# 
   750  010E                     	;# 
   751  0111                     	;# 
   752  0112                     	;# 
   753  0113                     	;# 
   754  0114                     	;# 
   755  0115                     	;# 
   756  0116                     	;# 
   757  0117                     	;# 
   758  0118                     	;# 
   759  0119                     	;# 
   760  011D                     	;# 
   761  018C                     	;# 
   762  018D                     	;# 
   763  018E                     	;# 
   764  0191                     	;# 
   765  0191                     	;# 
   766  0192                     	;# 
   767  0193                     	;# 
   768  0193                     	;# 
   769  0194                     	;# 
   770  0195                     	;# 
   771  0196                     	;# 
   772  0197                     	;# 
   773  0199                     	;# 
   774  019A                     	;# 
   775  019B                     	;# 
   776  019B                     	;# 
   777  019C                     	;# 
   778  019D                     	;# 
   779  019E                     	;# 
   780  019F                     	;# 
   781  020C                     	;# 
   782  020D                     	;# 
   783  0211                     	;# 
   784  0211                     	;# 
   785  0212                     	;# 
   786  0212                     	;# 
   787  0213                     	;# 
   788  0213                     	;# 
   789  0214                     	;# 
   790  0214                     	;# 
   791  0215                     	;# 
   792  0215                     	;# 
   793  0215                     	;# 
   794  0216                     	;# 
   795  0216                     	;# 
   796  0217                     	;# 
   797  0217                     	;# 
   798  0391                     	;# 
   799  0392                     	;# 
   800  0393                     	;# 
   801  0394                     	;# 
   802  0395                     	;# 
   803  0396                     	;# 
   804  039A                     	;# 
   805  039B                     	;# 
   806  0611                     	;# 
   807  0612                     	;# 
   808  0613                     	;# 
   809  0613                     	;# 
   810  0614                     	;# 
   811  0615                     	;# 
   812  0616                     	;# 
   813  0616                     	;# 
   814  0691                     	;# 
   815  0692                     	;# 
   816  0693                     	;# 
   817  0694                     	;# 
   818  0695                     	;# 
   819  0E8E                     	;# 
   820  0E8F                     	;# 
   821  0E90                     	;# 
   822  0E91                     	;# 
   823  0E92                     	;# 
   824  0E93                     	;# 
   825  0E94                     	;# 
   826  0E94                     	;# 
   827  0E95                     	;# 
   828  0E96                     	;# 
   829  0E97                     	;# 
   830  0E98                     	;# 
   831  0E99                     	;# 
   832  0E9A                     	;# 
   833  0E9B                     	;# 
   834  0E9C                     	;# 
   835  0E9D                     	;# 
   836  0E9E                     	;# 
   837  0E9F                     	;# 
   838  0FE4                     	;# 
   839  0FE5                     	;# 
   840  0FE6                     	;# 
   841  0FE7                     	;# 
   842  0FE8                     	;# 
   843  0FE9                     	;# 
   844  0FEA                     	;# 
   845  0FEB                     	;# 
   846  0FED                     	;# 
   847  0FEE                     	;# 
   848  0FEF                     	;# 
   849  0000                     	;# 
   850  0001                     	;# 
   851  0002                     	;# 
   852  0003                     	;# 
   853  0004                     	;# 
   854  0005                     	;# 
   855  0006                     	;# 
   856  0007                     	;# 
   857  0008                     	;# 
   858  0009                     	;# 
   859  000A                     	;# 
   860  000B                     	;# 
   861  000C                     	;# 
   862  000D                     	;# 
   863  000E                     	;# 
   864  0011                     	;# 
   865  0012                     	;# 
   866  0015                     	;# 
   867  0016                     	;# 
   868  0016                     	;# 
   869  0017                     	;# 
   870  0018                     	;# 
   871  0019                     	;# 
   872  001A                     	;# 
   873  001B                     	;# 
   874  001C                     	;# 
   875  008C                     	;# 
   876  008D                     	;# 
   877  008E                     	;# 
   878  0091                     	;# 
   879  0092                     	;# 
   880  0095                     	;# 
   881  0096                     	;# 
   882  0097                     	;# 
   883  0098                     	;# 
   884  0099                     	;# 
   885  009A                     	;# 
   886  009B                     	;# 
   887  009B                     	;# 
   888  009C                     	;# 
   889  009D                     	;# 
   890  009E                     	;# 
   891  009F                     	;# 
   892  010C                     	;# 
   893  010D                     	;# 
   894  010E                     	;# 
   895  0111                     	;# 
   896  0112                     	;# 
   897  0113                     	;# 
   898  0114                     	;# 
   899  0115                     	;# 
   900  0116                     	;# 
   901  0117                     	;# 
   902  0118                     	;# 
   903  0119                     	;# 
   904  011D                     	;# 
   905  018C                     	;# 
   906  018D                     	;# 
   907  018E                     	;# 
   908  0191                     	;# 
   909  0191                     	;# 
   910  0192                     	;# 
   911  0193                     	;# 
   912  0193                     	;# 
   913  0194                     	;# 
   914  0195                     	;# 
   915  0196                     	;# 
   916  0197                     	;# 
   917  0199                     	;# 
   918  019A                     	;# 
   919  019B                     	;# 
   920  019B                     	;# 
   921  019C                     	;# 
   922  019D                     	;# 
   923  019E                     	;# 
   924  019F                     	;# 
   925  020C                     	;# 
   926  020D                     	;# 
   927  0211                     	;# 
   928  0211                     	;# 
   929  0212                     	;# 
   930  0212                     	;# 
   931  0213                     	;# 
   932  0213                     	;# 
   933  0214                     	;# 
   934  0214                     	;# 
   935  0215                     	;# 
   936  0215                     	;# 
   937  0215                     	;# 
   938  0216                     	;# 
   939  0216                     	;# 
   940  0217                     	;# 
   941  0217                     	;# 
   942  0391                     	;# 
   943  0392                     	;# 
   944  0393                     	;# 
   945  0394                     	;# 
   946  0395                     	;# 
   947  0396                     	;# 
   948  039A                     	;# 
   949  039B                     	;# 
   950  0611                     	;# 
   951  0612                     	;# 
   952  0613                     	;# 
   953  0613                     	;# 
   954  0614                     	;# 
   955  0615                     	;# 
   956  0616                     	;# 
   957  0616                     	;# 
   958  0691                     	;# 
   959  0692                     	;# 
   960  0693                     	;# 
   961  0694                     	;# 
   962  0695                     	;# 
   963  0E8E                     	;# 
   964  0E8F                     	;# 
   965  0E90                     	;# 
   966  0E91                     	;# 
   967  0E92                     	;# 
   968  0E93                     	;# 
   969  0E94                     	;# 
   970  0E94                     	;# 
   971  0E95                     	;# 
   972  0E96                     	;# 
   973  0E97                     	;# 
   974  0E98                     	;# 
   975  0E99                     	;# 
   976  0E9A                     	;# 
   977  0E9B                     	;# 
   978  0E9C                     	;# 
   979  0E9D                     	;# 
   980  0E9E                     	;# 
   981  0E9F                     	;# 
   982  0FE4                     	;# 
   983  0FE5                     	;# 
   984  0FE6                     	;# 
   985  0FE7                     	;# 
   986  0FE8                     	;# 
   987  0FE9                     	;# 
   988  0FEA                     	;# 
   989  0FEB                     	;# 
   990  0FED                     	;# 
   991  0FEE                     	;# 
   992  0FEF                     	;# 
   993  0000                     	;# 
   994  0001                     	;# 
   995  0002                     	;# 
   996  0003                     	;# 
   997  0004                     	;# 
   998  0005                     	;# 
   999  0006                     	;# 
  1000  0007                     	;# 
  1001  0008                     	;# 
  1002  0009                     	;# 
  1003  000A                     	;# 
  1004  000B                     	;# 
  1005  000C                     	;# 
  1006  000D                     	;# 
  1007  000E                     	;# 
  1008  0011                     	;# 
  1009  0012                     	;# 
  1010  0015                     	;# 
  1011  0016                     	;# 
  1012  0016                     	;# 
  1013  0017                     	;# 
  1014  0018                     	;# 
  1015  0019                     	;# 
  1016  001A                     	;# 
  1017  001B                     	;# 
  1018  001C                     	;# 
  1019  008C                     	;# 
  1020  008D                     	;# 
  1021  008E                     	;# 
  1022  0091                     	;# 
  1023  0092                     	;# 
  1024  0095                     	;# 
  1025  0096                     	;# 
  1026  0097                     	;# 
  1027  0098                     	;# 
  1028  0099                     	;# 
  1029  009A                     	;# 
  1030  009B                     	;# 
  1031  009B                     	;# 
  1032  009C                     	;# 
  1033  009D                     	;# 
  1034  009E                     	;# 
  1035  009F                     	;# 
  1036  010C                     	;# 
  1037  010D                     	;# 
  1038  010E                     	;# 
  1039  0111                     	;# 
  1040  0112                     	;# 
  1041  0113                     	;# 
  1042  0114                     	;# 
  1043  0115                     	;# 
  1044  0116                     	;# 
  1045  0117                     	;# 
  1046  0118                     	;# 
  1047  0119                     	;# 
  1048  011D                     	;# 
  1049  018C                     	;# 
  1050  018D                     	;# 
  1051  018E                     	;# 
  1052  0191                     	;# 
  1053  0191                     	;# 
  1054  0192                     	;# 
  1055  0193                     	;# 
  1056  0193                     	;# 
  1057  0194                     	;# 
  1058  0195                     	;# 
  1059  0196                     	;# 
  1060  0197                     	;# 
  1061  0199                     	;# 
  1062  019A                     	;# 
  1063  019B                     	;# 
  1064  019B                     	;# 
  1065  019C                     	;# 
  1066  019D                     	;# 
  1067  019E                     	;# 
  1068  019F                     	;# 
  1069  020C                     	;# 
  1070  020D                     	;# 
  1071  0211                     	;# 
  1072  0211                     	;# 
  1073  0212                     	;# 
  1074  0212                     	;# 
  1075  0213                     	;# 
  1076  0213                     	;# 
  1077  0214                     	;# 
  1078  0214                     	;# 
  1079  0215                     	;# 
  1080  0215                     	;# 
  1081  0215                     	;# 
  1082  0216                     	;# 
  1083  0216                     	;# 
  1084  0217                     	;# 
  1085  0217                     	;# 
  1086  0391                     	;# 
  1087  0392                     	;# 
  1088  0393                     	;# 
  1089  0394                     	;# 
  1090  0395                     	;# 
  1091  0396                     	;# 
  1092  039A                     	;# 
  1093  039B                     	;# 
  1094  0611                     	;# 
  1095  0612                     	;# 
  1096  0613                     	;# 
  1097  0613                     	;# 
  1098  0614                     	;# 
  1099  0615                     	;# 
  1100  0616                     	;# 
  1101  0616                     	;# 
  1102  0691                     	;# 
  1103  0692                     	;# 
  1104  0693                     	;# 
  1105  0694                     	;# 
  1106  0695                     	;# 
  1107  0E8E                     	;# 
  1108  0E8F                     	;# 
  1109  0E90                     	;# 
  1110  0E91                     	;# 
  1111  0E92                     	;# 
  1112  0E93                     	;# 
  1113  0E94                     	;# 
  1114  0E94                     	;# 
  1115  0E95                     	;# 
  1116  0E96                     	;# 
  1117  0E97                     	;# 
  1118  0E98                     	;# 
  1119  0E99                     	;# 
  1120  0E9A                     	;# 
  1121  0E9B                     	;# 
  1122  0E9C                     	;# 
  1123  0E9D                     	;# 
  1124  0E9E                     	;# 
  1125  0E9F                     	;# 
  1126  0FE4                     	;# 
  1127  0FE5                     	;# 
  1128  0FE6                     	;# 
  1129  0FE7                     	;# 
  1130  0FE8                     	;# 
  1131  0FE9                     	;# 
  1132  0FEA                     	;# 
  1133  0FEB                     	;# 
  1134  0FED                     	;# 
  1135  0FEE                     	;# 
  1136  0FEF                     	;# 
  1137  0000                     	;# 
  1138  0001                     	;# 
  1139  0002                     	;# 
  1140  0003                     	;# 
  1141  0004                     	;# 
  1142  0005                     	;# 
  1143  0006                     	;# 
  1144  0007                     	;# 
  1145  0008                     	;# 
  1146  0009                     	;# 
  1147  000A                     	;# 
  1148  000B                     	;# 
  1149  000C                     	;# 
  1150  000D                     	;# 
  1151  000E                     	;# 
  1152  0011                     	;# 
  1153  0012                     	;# 
  1154  0015                     	;# 
  1155  0016                     	;# 
  1156  0016                     	;# 
  1157  0017                     	;# 
  1158  0018                     	;# 
  1159  0019                     	;# 
  1160  001A                     	;# 
  1161  001B                     	;# 
  1162  001C                     	;# 
  1163  008C                     	;# 
  1164  008D                     	;# 
  1165  008E                     	;# 
  1166  0091                     	;# 
  1167  0092                     	;# 
  1168  0095                     	;# 
  1169  0096                     	;# 
  1170  0097                     	;# 
  1171  0098                     	;# 
  1172  0099                     	;# 
  1173  009A                     	;# 
  1174  009B                     	;# 
  1175  009B                     	;# 
  1176  009C                     	;# 
  1177  009D                     	;# 
  1178  009E                     	;# 
  1179  009F                     	;# 
  1180  010C                     	;# 
  1181  010D                     	;# 
  1182  010E                     	;# 
  1183  0111                     	;# 
  1184  0112                     	;# 
  1185  0113                     	;# 
  1186  0114                     	;# 
  1187  0115                     	;# 
  1188  0116                     	;# 
  1189  0117                     	;# 
  1190  0118                     	;# 
  1191  0119                     	;# 
  1192  011D                     	;# 
  1193  018C                     	;# 
  1194  018D                     	;# 
  1195  018E                     	;# 
  1196  0191                     	;# 
  1197  0191                     	;# 
  1198  0192                     	;# 
  1199  0193                     	;# 
  1200  0193                     	;# 
  1201  0194                     	;# 
  1202  0195                     	;# 
  1203  0196                     	;# 
  1204  0197                     	;# 
  1205  0199                     	;# 
  1206  019A                     	;# 
  1207  019B                     	;# 
  1208  019B                     	;# 
  1209  019C                     	;# 
  1210  019D                     	;# 
  1211  019E                     	;# 
  1212  019F                     	;# 
  1213  020C                     	;# 
  1214  020D                     	;# 
  1215  0211                     	;# 
  1216  0211                     	;# 
  1217  0212                     	;# 
  1218  0212                     	;# 
  1219  0213                     	;# 
  1220  0213                     	;# 
  1221  0214                     	;# 
  1222  0214                     	;# 
  1223  0215                     	;# 
  1224  0215                     	;# 
  1225  0215                     	;# 
  1226  0216                     	;# 
  1227  0216                     	;# 
  1228  0217                     	;# 
  1229  0217                     	;# 
  1230  0391                     	;# 
  1231  0392                     	;# 
  1232  0393                     	;# 
  1233  0394                     	;# 
  1234  0395                     	;# 
  1235  0396                     	;# 
  1236  039A                     	;# 
  1237  039B                     	;# 
  1238  0611                     	;# 
  1239  0612                     	;# 
  1240  0613                     	;# 
  1241  0613                     	;# 
  1242  0614                     	;# 
  1243  0615                     	;# 
  1244  0616                     	;# 
  1245  0616                     	;# 
  1246  0691                     	;# 
  1247  0692                     	;# 
  1248  0693                     	;# 
  1249  0694                     	;# 
  1250  0695                     	;# 
  1251  0E8E                     	;# 
  1252  0E8F                     	;# 
  1253  0E90                     	;# 
  1254  0E91                     	;# 
  1255  0E92                     	;# 
  1256  0E93                     	;# 
  1257  0E94                     	;# 
  1258  0E94                     	;# 
  1259  0E95                     	;# 
  1260  0E96                     	;# 
  1261  0E97                     	;# 
  1262  0E98                     	;# 
  1263  0E99                     	;# 
  1264  0E9A                     	;# 
  1265  0E9B                     	;# 
  1266  0E9C                     	;# 
  1267  0E9D                     	;# 
  1268  0E9E                     	;# 
  1269  0E9F                     	;# 
  1270  0FE4                     	;# 
  1271  0FE5                     	;# 
  1272  0FE6                     	;# 
  1273  0FE7                     	;# 
  1274  0FE8                     	;# 
  1275  0FE9                     	;# 
  1276  0FEA                     	;# 
  1277  0FEB                     	;# 
  1278  0FED                     	;# 
  1279  0FEE                     	;# 
  1280  0FEF                     	;# 
  1281  0000                     	;# 
  1282  0001                     	;# 
  1283  0002                     	;# 
  1284  0003                     	;# 
  1285  0004                     	;# 
  1286  0005                     	;# 
  1287  0006                     	;# 
  1288  0007                     	;# 
  1289  0008                     	;# 
  1290  0009                     	;# 
  1291  000A                     	;# 
  1292  000B                     	;# 
  1293  000C                     	;# 
  1294  000D                     	;# 
  1295  000E                     	;# 
  1296  0011                     	;# 
  1297  0012                     	;# 
  1298  0015                     	;# 
  1299  0016                     	;# 
  1300  0016                     	;# 
  1301  0017                     	;# 
  1302  0018                     	;# 
  1303  0019                     	;# 
  1304  001A                     	;# 
  1305  001B                     	;# 
  1306  001C                     	;# 
  1307  008C                     	;# 
  1308  008D                     	;# 
  1309  008E                     	;# 
  1310  0091                     	;# 
  1311  0092                     	;# 
  1312  0095                     	;# 
  1313  0096                     	;# 
  1314  0097                     	;# 
  1315  0098                     	;# 
  1316  0099                     	;# 
  1317  009A                     	;# 
  1318  009B                     	;# 
  1319  009B                     	;# 
  1320  009C                     	;# 
  1321  009D                     	;# 
  1322  009E                     	;# 
  1323  009F                     	;# 
  1324  010C                     	;# 
  1325  010D                     	;# 
  1326  010E                     	;# 
  1327  0111                     	;# 
  1328  0112                     	;# 
  1329  0113                     	;# 
  1330  0114                     	;# 
  1331  0115                     	;# 
  1332  0116                     	;# 
  1333  0117                     	;# 
  1334  0118                     	;# 
  1335  0119                     	;# 
  1336  011D                     	;# 
  1337  018C                     	;# 
  1338  018D                     	;# 
  1339  018E                     	;# 
  1340  0191                     	;# 
  1341  0191                     	;# 
  1342  0192                     	;# 
  1343  0193                     	;# 
  1344  0193                     	;# 
  1345  0194                     	;# 
  1346  0195                     	;# 
  1347  0196                     	;# 
  1348  0197                     	;# 
  1349  0199                     	;# 
  1350  019A                     	;# 
  1351  019B                     	;# 
  1352  019B                     	;# 
  1353  019C                     	;# 
  1354  019D                     	;# 
  1355  019E                     	;# 
  1356  019F                     	;# 
  1357  020C                     	;# 
  1358  020D                     	;# 
  1359  0211                     	;# 
  1360  0211                     	;# 
  1361  0212                     	;# 
  1362  0212                     	;# 
  1363  0213                     	;# 
  1364  0213                     	;# 
  1365  0214                     	;# 
  1366  0214                     	;# 
  1367  0215                     	;# 
  1368  0215                     	;# 
  1369  0215                     	;# 
  1370  0216                     	;# 
  1371  0216                     	;# 
  1372  0217                     	;# 
  1373  0217                     	;# 
  1374  0391                     	;# 
  1375  0392                     	;# 
  1376  0393                     	;# 
  1377  0394                     	;# 
  1378  0395                     	;# 
  1379  0396                     	;# 
  1380  039A                     	;# 
  1381  039B                     	;# 
  1382  0611                     	;# 
  1383  0612                     	;# 
  1384  0613                     	;# 
  1385  0613                     	;# 
  1386  0614                     	;# 
  1387  0615                     	;# 
  1388  0616                     	;# 
  1389  0616                     	;# 
  1390  0691                     	;# 
  1391  0692                     	;# 
  1392  0693                     	;# 
  1393  0694                     	;# 
  1394  0695                     	;# 
  1395  0E8E                     	;# 
  1396  0E8F                     	;# 
  1397  0E90                     	;# 
  1398  0E91                     	;# 
  1399  0E92                     	;# 
  1400  0E93                     	;# 
  1401  0E94                     	;# 
  1402  0E94                     	;# 
  1403  0E95                     	;# 
  1404  0E96                     	;# 
  1405  0E97                     	;# 
  1406  0E98                     	;# 
  1407  0E99                     	;# 
  1408  0E9A                     	;# 
  1409  0E9B                     	;# 
  1410  0E9C                     	;# 
  1411  0E9D                     	;# 
  1412  0E9E                     	;# 
  1413  0E9F                     	;# 
  1414  0FE4                     	;# 
  1415  0FE5                     	;# 
  1416  0FE6                     	;# 
  1417  0FE7                     	;# 
  1418  0FE8                     	;# 
  1419  0FE9                     	;# 
  1420  0FEA                     	;# 
  1421  0FEB                     	;# 
  1422  0FED                     	;# 
  1423  0FEE                     	;# 
  1424  0FEF                     	;# 
  1425  0000                     	;# 
  1426  0001                     	;# 
  1427  0002                     	;# 
  1428  0003                     	;# 
  1429  0004                     	;# 
  1430  0005                     	;# 
  1431  0006                     	;# 
  1432  0007                     	;# 
  1433  0008                     	;# 
  1434  0009                     	;# 
  1435  000A                     	;# 
  1436  000B                     	;# 
  1437  000C                     	;# 
  1438  000D                     	;# 
  1439  000E                     	;# 
  1440  0011                     	;# 
  1441  0012                     	;# 
  1442  0015                     	;# 
  1443  0016                     	;# 
  1444  0016                     	;# 
  1445  0017                     	;# 
  1446  0018                     	;# 
  1447  0019                     	;# 
  1448  001A                     	;# 
  1449  001B                     	;# 
  1450  001C                     	;# 
  1451  008C                     	;# 
  1452  008D                     	;# 
  1453  008E                     	;# 
  1454  0091                     	;# 
  1455  0092                     	;# 
  1456  0095                     	;# 
  1457  0096                     	;# 
  1458  0097                     	;# 
  1459  0098                     	;# 
  1460  0099                     	;# 
  1461  009A                     	;# 
  1462  009B                     	;# 
  1463  009B                     	;# 
  1464  009C                     	;# 
  1465  009D                     	;# 
  1466  009E                     	;# 
  1467  009F                     	;# 
  1468  010C                     	;# 
  1469  010D                     	;# 
  1470  010E                     	;# 
  1471  0111                     	;# 
  1472  0112                     	;# 
  1473  0113                     	;# 
  1474  0114                     	;# 
  1475  0115                     	;# 
  1476  0116                     	;# 
  1477  0117                     	;# 
  1478  0118                     	;# 
  1479  0119                     	;# 
  1480  011D                     	;# 
  1481  018C                     	;# 
  1482  018D                     	;# 
  1483  018E                     	;# 
  1484  0191                     	;# 
  1485  0191                     	;# 
  1486  0192                     	;# 
  1487  0193                     	;# 
  1488  0193                     	;# 
  1489  0194                     	;# 
  1490  0195                     	;# 
  1491  0196                     	;# 
  1492  0197                     	;# 
  1493  0199                     	;# 
  1494  019A                     	;# 
  1495  019B                     	;# 
  1496  019B                     	;# 
  1497  019C                     	;# 
  1498  019D                     	;# 
  1499  019E                     	;# 
  1500  019F                     	;# 
  1501  020C                     	;# 
  1502  020D                     	;# 
  1503  0211                     	;# 
  1504  0211                     	;# 
  1505  0212                     	;# 
  1506  0212                     	;# 
  1507  0213                     	;# 
  1508  0213                     	;# 
  1509  0214                     	;# 
  1510  0214                     	;# 
  1511  0215                     	;# 
  1512  0215                     	;# 
  1513  0215                     	;# 
  1514  0216                     	;# 
  1515  0216                     	;# 
  1516  0217                     	;# 
  1517  0217                     	;# 
  1518  0391                     	;# 
  1519  0392                     	;# 
  1520  0393                     	;# 
  1521  0394                     	;# 
  1522  0395                     	;# 
  1523  0396                     	;# 
  1524  039A                     	;# 
  1525  039B                     	;# 
  1526  0611                     	;# 
  1527  0612                     	;# 
  1528  0613                     	;# 
  1529  0613                     	;# 
  1530  0614                     	;# 
  1531  0615                     	;# 
  1532  0616                     	;# 
  1533  0616                     	;# 
  1534  0691                     	;# 
  1535  0692                     	;# 
  1536  0693                     	;# 
  1537  0694                     	;# 
  1538  0695                     	;# 
  1539  0E8E                     	;# 
  1540  0E8F                     	;# 
  1541  0E90                     	;# 
  1542  0E91                     	;# 
  1543  0E92                     	;# 
  1544  0E93                     	;# 
  1545  0E94                     	;# 
  1546  0E94                     	;# 
  1547  0E95                     	;# 
  1548  0E96                     	;# 
  1549  0E97                     	;# 
  1550  0E98                     	;# 
  1551  0E99                     	;# 
  1552  0E9A                     	;# 
  1553  0E9B                     	;# 
  1554  0E9C                     	;# 
  1555  0E9D                     	;# 
  1556  0E9E                     	;# 
  1557  0E9F                     	;# 
  1558  0FE4                     	;# 
  1559  0FE5                     	;# 
  1560  0FE6                     	;# 
  1561  0FE7                     	;# 
  1562  0FE8                     	;# 
  1563  0FE9                     	;# 
  1564  0FEA                     	;# 
  1565  0FEB                     	;# 
  1566  0FED                     	;# 
  1567  0FEE                     	;# 
  1568  0FEF                     	;# 
  1569  0000                     	;# 
  1570  0001                     	;# 
  1571  0002                     	;# 
  1572  0003                     	;# 
  1573  0004                     	;# 
  1574  0005                     	;# 
  1575  0006                     	;# 
  1576  0007                     	;# 
  1577  0008                     	;# 
  1578  0009                     	;# 
  1579  000A                     	;# 
  1580  000B                     	;# 
  1581  000C                     	;# 
  1582  000D                     	;# 
  1583  000E                     	;# 
  1584  0011                     	;# 
  1585  0012                     	;# 
  1586  0015                     	;# 
  1587  0016                     	;# 
  1588  0016                     	;# 
  1589  0017                     	;# 
  1590  0018                     	;# 
  1591  0019                     	;# 
  1592  001A                     	;# 
  1593  001B                     	;# 
  1594  001C                     	;# 
  1595  008C                     	;# 
  1596  008D                     	;# 
  1597  008E                     	;# 
  1598  0091                     	;# 
  1599  0092                     	;# 
  1600  0095                     	;# 
  1601  0096                     	;# 
  1602  0097                     	;# 
  1603  0098                     	;# 
  1604  0099                     	;# 
  1605  009A                     	;# 
  1606  009B                     	;# 
  1607  009B                     	;# 
  1608  009C                     	;# 
  1609  009D                     	;# 
  1610  009E                     	;# 
  1611  009F                     	;# 
  1612  010C                     	;# 
  1613  010D                     	;# 
  1614  010E                     	;# 
  1615  0111                     	;# 
  1616  0112                     	;# 
  1617  0113                     	;# 
  1618  0114                     	;# 
  1619  0115                     	;# 
  1620  0116                     	;# 
  1621  0117                     	;# 
  1622  0118                     	;# 
  1623  0119                     	;# 
  1624  011D                     	;# 
  1625  018C                     	;# 
  1626  018D                     	;# 
  1627  018E                     	;# 
  1628  0191                     	;# 
  1629  0191                     	;# 
  1630  0192                     	;# 
  1631  0193                     	;# 
  1632  0193                     	;# 
  1633  0194                     	;# 
  1634  0195                     	;# 
  1635  0196                     	;# 
  1636  0197                     	;# 
  1637  0199                     	;# 
  1638  019A                     	;# 
  1639  019B                     	;# 
  1640  019B                     	;# 
  1641  019C                     	;# 
  1642  019D                     	;# 
  1643  019E                     	;# 
  1644  019F                     	;# 
  1645  020C                     	;# 
  1646  020D                     	;# 
  1647  0211                     	;# 
  1648  0211                     	;# 
  1649  0212                     	;# 
  1650  0212                     	;# 
  1651  0213                     	;# 
  1652  0213                     	;# 
  1653  0214                     	;# 
  1654  0214                     	;# 
  1655  0215                     	;# 
  1656  0215                     	;# 
  1657  0215                     	;# 
  1658  0216                     	;# 
  1659  0216                     	;# 
  1660  0217                     	;# 
  1661  0217                     	;# 
  1662  0391                     	;# 
  1663  0392                     	;# 
  1664  0393                     	;# 
  1665  0394                     	;# 
  1666  0395                     	;# 
  1667  0396                     	;# 
  1668  039A                     	;# 
  1669  039B                     	;# 
  1670  0611                     	;# 
  1671  0612                     	;# 
  1672  0613                     	;# 
  1673  0613                     	;# 
  1674  0614                     	;# 
  1675  0615                     	;# 
  1676  0616                     	;# 
  1677  0616                     	;# 
  1678  0691                     	;# 
  1679  0692                     	;# 
  1680  0693                     	;# 
  1681  0694                     	;# 
  1682  0695                     	;# 
  1683  0E8E                     	;# 
  1684  0E8F                     	;# 
  1685  0E90                     	;# 
  1686  0E91                     	;# 
  1687  0E92                     	;# 
  1688  0E93                     	;# 
  1689  0E94                     	;# 
  1690  0E94                     	;# 
  1691  0E95                     	;# 
  1692  0E96                     	;# 
  1693  0E97                     	;# 
  1694  0E98                     	;# 
  1695  0E99                     	;# 
  1696  0E9A                     	;# 
  1697  0E9B                     	;# 
  1698  0E9C                     	;# 
  1699  0E9D                     	;# 
  1700  0E9E                     	;# 
  1701  0E9F                     	;# 
  1702  0FE4                     	;# 
  1703  0FE5                     	;# 
  1704  0FE6                     	;# 
  1705  0FE7                     	;# 
  1706  0FE8                     	;# 
  1707  0FE9                     	;# 
  1708  0FEA                     	;# 
  1709  0FEB                     	;# 
  1710  0FED                     	;# 
  1711  0FEE                     	;# 
  1712  0FEF                     	;# 
  1713  0000                     	;# 
  1714  0001                     	;# 
  1715  0002                     	;# 
  1716  0003                     	;# 
  1717  0004                     	;# 
  1718  0005                     	;# 
  1719  0006                     	;# 
  1720  0007                     	;# 
  1721  0008                     	;# 
  1722  0009                     	;# 
  1723  000A                     	;# 
  1724  000B                     	;# 
  1725  000C                     	;# 
  1726  000D                     	;# 
  1727  000E                     	;# 
  1728  0011                     	;# 
  1729  0012                     	;# 
  1730  0015                     	;# 
  1731  0016                     	;# 
  1732  0016                     	;# 
  1733  0017                     	;# 
  1734  0018                     	;# 
  1735  0019                     	;# 
  1736  001A                     	;# 
  1737  001B                     	;# 
  1738  001C                     	;# 
  1739  008C                     	;# 
  1740  008D                     	;# 
  1741  008E                     	;# 
  1742  0091                     	;# 
  1743  0092                     	;# 
  1744  0095                     	;# 
  1745  0096                     	;# 
  1746  0097                     	;# 
  1747  0098                     	;# 
  1748  0099                     	;# 
  1749  009A                     	;# 
  1750  009B                     	;# 
  1751  009B                     	;# 
  1752  009C                     	;# 
  1753  009D                     	;# 
  1754  009E                     	;# 
  1755  009F                     	;# 
  1756  010C                     	;# 
  1757  010D                     	;# 
  1758  010E                     	;# 
  1759  0111                     	;# 
  1760  0112                     	;# 
  1761  0113                     	;# 
  1762  0114                     	;# 
  1763  0115                     	;# 
  1764  0116                     	;# 
  1765  0117                     	;# 
  1766  0118                     	;# 
  1767  0119                     	;# 
  1768  011D                     	;# 
  1769  018C                     	;# 
  1770  018D                     	;# 
  1771  018E                     	;# 
  1772  0191                     	;# 
  1773  0191                     	;# 
  1774  0192                     	;# 
  1775  0193                     	;# 
  1776  0193                     	;# 
  1777  0194                     	;# 
  1778  0195                     	;# 
  1779  0196                     	;# 
  1780  0197                     	;# 
  1781  0199                     	;# 
  1782  019A                     	;# 
  1783  019B                     	;# 
  1784  019B                     	;# 
  1785  019C                     	;# 
  1786  019D                     	;# 
  1787  019E                     	;# 
  1788  019F                     	;# 
  1789  020C                     	;# 
  1790  020D                     	;# 
  1791  0211                     	;# 
  1792  0211                     	;# 
  1793  0212                     	;# 
  1794  0212                     	;# 
  1795  0213                     	;# 
  1796  0213                     	;# 
  1797  0214                     	;# 
  1798  0214                     	;# 
  1799  0215                     	;# 
  1800  0215                     	;# 
  1801  0215                     	;# 
  1802  0216                     	;# 
  1803  0216                     	;# 
  1804  0217                     	;# 
  1805  0217                     	;# 
  1806  0391                     	;# 
  1807  0392                     	;# 
  1808  0393                     	;# 
  1809  0394                     	;# 
  1810  0395                     	;# 
  1811  0396                     	;# 
  1812  039A                     	;# 
  1813  039B                     	;# 
  1814  0611                     	;# 
  1815  0612                     	;# 
  1816  0613                     	;# 
  1817  0613                     	;# 
  1818  0614                     	;# 
  1819  0615                     	;# 
  1820  0616                     	;# 
  1821  0616                     	;# 
  1822  0691                     	;# 
  1823  0692                     	;# 
  1824  0693                     	;# 
  1825  0694                     	;# 
  1826  0695                     	;# 
  1827  0E8E                     	;# 
  1828  0E8F                     	;# 
  1829  0E90                     	;# 
  1830  0E91                     	;# 
  1831  0E92                     	;# 
  1832  0E93                     	;# 
  1833  0E94                     	;# 
  1834  0E94                     	;# 
  1835  0E95                     	;# 
  1836  0E96                     	;# 
  1837  0E97                     	;# 
  1838  0E98                     	;# 
  1839  0E99                     	;# 
  1840  0E9A                     	;# 
  1841  0E9B                     	;# 
  1842  0E9C                     	;# 
  1843  0E9D                     	;# 
  1844  0E9E                     	;# 
  1845  0E9F                     	;# 
  1846  0FE4                     	;# 
  1847  0FE5                     	;# 
  1848  0FE6                     	;# 
  1849  0FE7                     	;# 
  1850  0FE8                     	;# 
  1851  0FE9                     	;# 
  1852  0FEA                     	;# 
  1853  0FEB                     	;# 
  1854  0FED                     	;# 
  1855  0FEE                     	;# 
  1856  0FEF                     	;_measarray
  1857                           
  1858 ;; Function _IOCAF5_DefaultInterruptHandler is unused but had its address taken
  1859  0000                     
  1860                           	psect	idataBIGRAM
  1861  0502                     __pidataBIGRAM:
  1862                           
  1863                           ;initializer for _measarray
  1864  0502  3400               	retlw	0
  1865  0503  3400               	retlw	0
  1866  0504  3401               	retlw	1
  1867  0505  3400               	retlw	0
  1868  0506  3402               	retlw	2
  1869  0507  3400               	retlw	0
  1870  0508  3403               	retlw	3
  1871  0509  3400               	retlw	0
  1872  050A  3404               	retlw	4
  1873  050B  3400               	retlw	0
  1874  050C  3405               	retlw	5
  1875  050D  3400               	retlw	0
  1876  050E  3406               	retlw	6
  1877  050F  3400               	retlw	0
  1878  0510  3407               	retlw	7
  1879  0511  3400               	retlw	0
  1880  0512  3408               	retlw	8
  1881  0513  3400               	retlw	0
  1882  0514  3409               	retlw	9
  1883  0515  3400               	retlw	0
  1884  0516  340A               	retlw	10
  1885  0517  3400               	retlw	0
  1886  0518  340B               	retlw	11
  1887  0519  3400               	retlw	0
  1888  051A  340C               	retlw	12
  1889  051B  3400               	retlw	0
  1890  051C  340D               	retlw	13
  1891  051D  3400               	retlw	0
  1892  051E  340E               	retlw	14
  1893  051F  3400               	retlw	0
  1894  0520  340F               	retlw	15
  1895  0521  3400               	retlw	0
  1896  0522  3410               	retlw	16
  1897  0523  3400               	retlw	0
  1898  0524  3411               	retlw	17
  1899  0525  3400               	retlw	0
  1900  0526  3412               	retlw	18
  1901  0527  3400               	retlw	0
  1902  0528  3413               	retlw	19
  1903  0529  3400               	retlw	0
  1904  052A  3414               	retlw	20
  1905  052B  3400               	retlw	0
  1906  052C  3415               	retlw	21
  1907  052D  3400               	retlw	0
  1908  052E  3416               	retlw	22
  1909  052F  3400               	retlw	0
  1910  0530  3417               	retlw	23
  1911  0531  3400               	retlw	0
  1912  0532  3418               	retlw	24
  1913  0533  3400               	retlw	0
  1914  0534  3419               	retlw	25
  1915  0535  3400               	retlw	0
  1916  0536  341A               	retlw	26
  1917  0537  3400               	retlw	0
  1918  0538  341B               	retlw	27
  1919  0539  3400               	retlw	0
  1920  053A  341C               	retlw	28
  1921  053B  3400               	retlw	0
  1922  053C  341D               	retlw	29
  1923  053D  3400               	retlw	0
  1924  053E  341E               	retlw	30
  1925  053F  3400               	retlw	0
  1926  0540  341F               	retlw	31
  1927  0541  3400               	retlw	0
  1928  0542  3420               	retlw	32
  1929  0543  3400               	retlw	0
  1930  0544  3421               	retlw	33
  1931  0545  3400               	retlw	0
  1932  0546  3422               	retlw	34
  1933  0547  3400               	retlw	0
  1934  0548  3423               	retlw	35
  1935  0549  3400               	retlw	0
  1936  054A  3424               	retlw	36
  1937  054B  3400               	retlw	0
  1938  054C  3425               	retlw	37
  1939  054D  3400               	retlw	0
  1940  054E  3426               	retlw	38
  1941  054F  3400               	retlw	0
  1942  0550  3427               	retlw	39
  1943  0551  3400               	retlw	0
  1944  0552  3428               	retlw	40
  1945  0553  3400               	retlw	0
  1946  0554  3429               	retlw	41
  1947  0555  3400               	retlw	0
  1948  0556  342A               	retlw	42
  1949  0557  3400               	retlw	0
  1950  0558  342B               	retlw	43
  1951  0559  3400               	retlw	0
  1952  055A  342C               	retlw	44
  1953  055B  3400               	retlw	0
  1954  055C  342D               	retlw	45
  1955  055D  3400               	retlw	0
  1956  055E  342E               	retlw	46
  1957  055F  3400               	retlw	0
  1958  0560  342F               	retlw	47
  1959  0561  3400               	retlw	0
  1960  0562  3430               	retlw	48
  1961  0563  3400               	retlw	0
  1962  0564  3431               	retlw	49
  1963  0565  3400               	retlw	0
  1964  0566  3432               	retlw	50
  1965  0567  3400               	retlw	0
  1966  0568  3433               	retlw	51
  1967  0569  3400               	retlw	0
  1968  056A  3434               	retlw	52
  1969  056B  3400               	retlw	0
  1970  056C  3435               	retlw	53
  1971  056D  3400               	retlw	0
  1972  056E  3436               	retlw	54
  1973  056F  3400               	retlw	0
  1974  0570  3437               	retlw	55
  1975  0571  3400               	retlw	0
  1976  0572  3438               	retlw	56
  1977  0573  3400               	retlw	0
  1978  0574  3439               	retlw	57
  1979  0575  3400               	retlw	0
  1980  0576  343A               	retlw	58
  1981  0577  3400               	retlw	0
  1982  0578  343B               	retlw	59
  1983  0579  3400               	retlw	0
  1984  057A  343C               	retlw	60
  1985  057B  3400               	retlw	0
  1986  057C  343D               	retlw	61
  1987  057D  3400               	retlw	0
  1988  057E  343E               	retlw	62
  1989  057F  3400               	retlw	0
  1990  0580  343F               	retlw	63
  1991  0581  3400               	retlw	0
  1992  0582  3440               	retlw	64
  1993  0583  3400               	retlw	0
  1994  0584  3441               	retlw	65
  1995  0585  3400               	retlw	0
  1996  0586  3442               	retlw	66
  1997  0587  3400               	retlw	0
  1998  0588  3443               	retlw	67
  1999  0589  3400               	retlw	0
  2000  058A  3444               	retlw	68
  2001  058B  3400               	retlw	0
  2002  058C  3445               	retlw	69
  2003  058D  3400               	retlw	0
  2004  058E  3446               	retlw	70
  2005  058F  3400               	retlw	0
  2006  0590  3447               	retlw	71
  2007  0591  3400               	retlw	0
  2008  0592  3448               	retlw	72
  2009  0593  3400               	retlw	0
  2010  0594  3449               	retlw	73
  2011  0595  3400               	retlw	0
  2012  0596  344A               	retlw	74
  2013  0597  3400               	retlw	0
  2014  0598  344B               	retlw	75
  2015  0599  3400               	retlw	0
  2016  059A  344C               	retlw	76
  2017  059B  3400               	retlw	0
  2018  059C  344D               	retlw	77
  2019  059D  3400               	retlw	0
  2020  059E  344E               	retlw	78
  2021  059F  3400               	retlw	0
  2022  05A0  344F               	retlw	79
  2023  05A1  3400               	retlw	0
  2024  05A2  3450               	retlw	80
  2025  05A3  3400               	retlw	0
  2026  05A4  3451               	retlw	81
  2027  05A5  3400               	retlw	0
  2028  05A6  3452               	retlw	82
  2029  05A7  3400               	retlw	0
  2030  05A8  3453               	retlw	83
  2031  05A9  3400               	retlw	0
  2032  05AA  3454               	retlw	84
  2033  05AB  3400               	retlw	0
  2034  05AC  3455               	retlw	85
  2035  05AD  3400               	retlw	0
  2036  05AE  3456               	retlw	86
  2037  05AF  3400               	retlw	0
  2038  05B0  3457               	retlw	87
  2039  05B1  3400               	retlw	0
  2040  05B2  3458               	retlw	88
  2041  05B3  3400               	retlw	0
  2042  05B4  3459               	retlw	89
  2043  05B5  3400               	retlw	0
  2044  05B6  345A               	retlw	90
  2045  05B7  3400               	retlw	0
  2046  05B8  345B               	retlw	91
  2047  05B9  3400               	retlw	0
  2048  05BA  345C               	retlw	92
  2049  05BB  3400               	retlw	0
  2050  05BC  345D               	retlw	93
  2051  05BD  3400               	retlw	0
  2052  05BE  345E               	retlw	94
  2053  05BF  3400               	retlw	0
  2054  05C0  345F               	retlw	95
  2055  05C1  3400               	retlw	0
  2056  05C2  3460               	retlw	96
  2057  05C3  3400               	retlw	0
  2058  05C4  3461               	retlw	97
  2059  05C5  3400               	retlw	0
  2060  05C6  3462               	retlw	98
  2061  05C7  3400               	retlw	0
  2062  05C8  3463               	retlw	99
  2063  05C9  3400               	retlw	0
  2064  05CA  3464               	retlw	100
  2065  05CB  3400               	retlw	0
  2066  05CC  3465               	retlw	101
  2067  05CD  3400               	retlw	0
  2068  05CE  3466               	retlw	102
  2069  05CF  3400               	retlw	0
  2070  05D0  3467               	retlw	103
  2071  05D1  3400               	retlw	0
  2072  05D2  3468               	retlw	104
  2073  05D3  3400               	retlw	0
  2074  05D4  3469               	retlw	105
  2075  05D5  3400               	retlw	0
  2076  05D6  346A               	retlw	106
  2077  05D7  3400               	retlw	0
  2078  05D8  346B               	retlw	107
  2079  05D9  3400               	retlw	0
  2080  05DA  346C               	retlw	108
  2081  05DB  3400               	retlw	0
  2082  05DC  346D               	retlw	109
  2083  05DD  3400               	retlw	0
  2084  05DE  346E               	retlw	110
  2085  05DF  3400               	retlw	0
  2086  05E0  346F               	retlw	111
  2087  05E1  3400               	retlw	0
  2088  05E2  3470               	retlw	112
  2089  05E3  3400               	retlw	0
  2090  05E4  3471               	retlw	113
  2091  05E5  3400               	retlw	0
  2092  05E6  3472               	retlw	114
  2093  05E7  3400               	retlw	0
  2094  05E8  3473               	retlw	115
  2095  05E9  3400               	retlw	0
  2096  05EA  3474               	retlw	116
  2097  05EB  3400               	retlw	0
  2098  05EC  3475               	retlw	117
  2099  05ED  3400               	retlw	0
  2100  05EE  3476               	retlw	118
  2101  05EF  3400               	retlw	0
  2102  05F0  3477               	retlw	119
  2103  05F1  3400               	retlw	0
  2104  05F2  3478               	retlw	120
  2105  05F3  3400               	retlw	0
  2106  05F4  3479               	retlw	121
  2107  05F5  3400               	retlw	0
  2108  05F6  347A               	retlw	122
  2109  05F7  3400               	retlw	0
  2110  05F8  347B               	retlw	123
  2111  05F9  3400               	retlw	0
  2112  05FA  347C               	retlw	124
  2113  05FB  3400               	retlw	0
  2114  05FC  347D               	retlw	125
  2115  05FD  3400               	retlw	0
  2116  05FE  347E               	retlw	126
  2117  05FF  3400               	retlw	0
  2118  0600  347F               	retlw	127
  2119  0601  3400               	retlw	0
  2120  0602  3480               	retlw	128
  2121  0603  3400               	retlw	0
  2122  0604  3481               	retlw	129
  2123  0605  3400               	retlw	0
  2124  0606  3482               	retlw	130
  2125  0607  3400               	retlw	0
  2126  0608  3483               	retlw	131
  2127  0609  3400               	retlw	0
  2128  060A  3484               	retlw	132
  2129  060B  3400               	retlw	0
  2130  060C  3485               	retlw	133
  2131  060D  3400               	retlw	0
  2132  060E  3486               	retlw	134
  2133  060F  3400               	retlw	0
  2134  0610  3487               	retlw	135
  2135  0611  3400               	retlw	0
  2136  0612  3488               	retlw	136
  2137  0613  3400               	retlw	0
  2138  0614  3489               	retlw	137
  2139  0615  3400               	retlw	0
  2140  0616  348A               	retlw	138
  2141  0617  3400               	retlw	0
  2142  0618  348B               	retlw	139
  2143  0619  3400               	retlw	0
  2144  061A  348C               	retlw	140
  2145  061B  3400               	retlw	0
  2146  061C  348D               	retlw	141
  2147  061D  3400               	retlw	0
  2148  061E  348E               	retlw	142
  2149  061F  3400               	retlw	0
  2150  0620  348F               	retlw	143
  2151  0621  3400               	retlw	0
  2152  0622  3490               	retlw	144
  2153  0623  3400               	retlw	0
  2154  0624  3491               	retlw	145
  2155  0625  3400               	retlw	0
  2156  0626  3492               	retlw	146
  2157  0627  3400               	retlw	0
  2158  0628  3493               	retlw	147
  2159  0629  3400               	retlw	0
  2160  062A  3494               	retlw	148
  2161  062B  3400               	retlw	0
  2162  062C  3495               	retlw	149
  2163  062D  3400               	retlw	0
  2164  062E  3496               	retlw	150
  2165  062F  3400               	retlw	0
  2166  0630  3497               	retlw	151
  2167  0631  3400               	retlw	0
  2168  0632  3498               	retlw	152
  2169  0633  3400               	retlw	0
  2170  0634  3499               	retlw	153
  2171  0635  3400               	retlw	0
  2172  0636  349A               	retlw	154
  2173  0637  3400               	retlw	0
  2174  0638  349B               	retlw	155
  2175  0639  3400               	retlw	0
  2176  063A  349C               	retlw	156
  2177  063B  3400               	retlw	0
  2178  063C  349D               	retlw	157
  2179  063D  3400               	retlw	0
  2180  063E  349E               	retlw	158
  2181  063F  3400               	retlw	0
  2182  0640  349F               	retlw	159
  2183  0641  3400               	retlw	0
  2184  0642  34A0               	retlw	160
  2185  0643  3400               	retlw	0
  2186  0644  34A1               	retlw	161
  2187  0645  3400               	retlw	0
  2188  0646  34A2               	retlw	162
  2189  0647  3400               	retlw	0
  2190  0648  34A3               	retlw	163
  2191  0649  3400               	retlw	0
  2192  064A  34A4               	retlw	164
  2193  064B  3400               	retlw	0
  2194  064C  34A5               	retlw	165
  2195  064D  3400               	retlw	0
  2196  064E  34A6               	retlw	166
  2197  064F  3400               	retlw	0
  2198  0650  34A7               	retlw	167
  2199  0651  3400               	retlw	0
  2200  0652  34A8               	retlw	168
  2201  0653  3400               	retlw	0
  2202  0654  34A9               	retlw	169
  2203  0655  3400               	retlw	0
  2204  0656  34AA               	retlw	170
  2205  0657  3400               	retlw	0
  2206  0658  34AB               	retlw	171
  2207  0659  3400               	retlw	0
  2208  065A  34AC               	retlw	172
  2209  065B  3400               	retlw	0
  2210  065C  34AD               	retlw	173
  2211  065D  3400               	retlw	0
  2212  065E  34AE               	retlw	174
  2213  065F  3400               	retlw	0
  2214  0660  34AF               	retlw	175
  2215  0661  3400               	retlw	0
  2216  0662  34B0               	retlw	176
  2217  0663  3400               	retlw	0
  2218  0664  34B1               	retlw	177
  2219  0665  3400               	retlw	0
  2220  0666  34B2               	retlw	178
  2221  0667  3400               	retlw	0
  2222  0668  34B3               	retlw	179
  2223  0669  3400               	retlw	0
  2224  066A  34B4               	retlw	180
  2225  066B  3400               	retlw	0
  2226  066C  34B5               	retlw	181
  2227  066D  3400               	retlw	0
  2228  066E  34B6               	retlw	182
  2229  066F  3400               	retlw	0
  2230  0670  34B7               	retlw	183
  2231  0671  3400               	retlw	0
  2232  0672  34B8               	retlw	184
  2233  0673  3400               	retlw	0
  2234  0674  34B9               	retlw	185
  2235  0675  3400               	retlw	0
  2236  0676  34BA               	retlw	186
  2237  0677  3400               	retlw	0
  2238  0678  34BB               	retlw	187
  2239  0679  3400               	retlw	0
  2240  067A  34BC               	retlw	188
  2241  067B  3400               	retlw	0
  2242  067C  34BD               	retlw	189
  2243  067D  3400               	retlw	0
  2244  067E  34BE               	retlw	190
  2245  067F  3400               	retlw	0
  2246  0680  34BF               	retlw	191
  2247  0681  3400               	retlw	0
  2248  0682  34C0               	retlw	192
  2249  0683  3400               	retlw	0
  2250  0684  34C1               	retlw	193
  2251  0685  3400               	retlw	0
  2252  0686  34C2               	retlw	194
  2253  0687  3400               	retlw	0
  2254  0688  34C3               	retlw	195
  2255  0689  3400               	retlw	0
  2256  068A  34C4               	retlw	196
  2257  068B  3400               	retlw	0
  2258  068C  34C5               	retlw	197
  2259  068D  3400               	retlw	0
  2260  068E  34C6               	retlw	198
  2261  068F  3400               	retlw	0
  2262  0690  34C7               	retlw	199
  2263  0691  3400               	retlw	0
  2264  0692  34C8               	retlw	200
  2265  0693  3400               	retlw	0
  2266  0694  34C9               	retlw	201
  2267  0695  3400               	retlw	0
  2268  0696  34CA               	retlw	202
  2269  0697  3400               	retlw	0
  2270  0698  34CB               	retlw	203
  2271  0699  3400               	retlw	0
  2272  069A  34CC               	retlw	204
  2273  069B  3400               	retlw	0
  2274  069C  34CD               	retlw	205
  2275  069D  3400               	retlw	0
  2276  069E  34CE               	retlw	206
  2277  069F  3400               	retlw	0
  2278  06A0  34CF               	retlw	207
  2279  06A1  3400               	retlw	0
  2280                           
  2281                           	psect	stringtext1
  2282  189F                     __pstringtext1:
  2283  189F                     _USB_SD_Ptr:
  2284  189F  34AF               	retlw	low (_sd000| (0+32768))
  2285  18A0  3498               	retlw	high (_sd000| (0+32768))
  2286  18A1  3443               	retlw	low (_sd001| (0+32768))
  2287  18A2  3498               	retlw	high (_sd001| (0+32768))
  2288  18A3  3477               	retlw	low (_sd002| (0+32768))
  2289  18A4  3498               	retlw	high (_sd002| (0+32768))
  2290  18A5  34A7               	retlw	low (_sd003| (0+32768))
  2291  18A6  3498               	retlw	high (_sd003| (0+32768))
  2292  18A7                     __end_of_USB_SD_Ptr:
  2293                           
  2294                           	psect	stringtext2
  2295  18B3                     __pstringtext2:
  2296  18B3                     _USB_CD_Ptr:
  2297  18B3  3400               	retlw	low (_configDescriptor1| (0+32768))
  2298  18B4  3498               	retlw	high (_configDescriptor1| (0+32768))
  2299  18B5                     __end_of_USB_CD_Ptr:
  2300                           
  2301                           	psect	stringtext3
  2302  1800                     __pstringtext3:
  2303  1800                     _configDescriptor1:
  2304  1800  3409               	retlw	9
  2305  1801  3402               	retlw	2
  2306  1802  3443               	retlw	67
  2307  1803  3400               	retlw	0
  2308  1804  3402               	retlw	2
  2309  1805  3401               	retlw	1
  2310  1806  3400               	retlw	0
  2311  1807  34C0               	retlw	192
  2312  1808  3432               	retlw	50
  2313  1809  3409               	retlw	9
  2314  180A  3404               	retlw	4
  2315  180B  3400               	retlw	0
  2316  180C  3400               	retlw	0
  2317  180D  3401               	retlw	1
  2318  180E  3402               	retlw	2
  2319  180F  3402               	retlw	2
  2320  1810  3401               	retlw	1
  2321  1811  3400               	retlw	0
  2322  1812  3405               	retlw	5
  2323  1813  3424               	retlw	36
  2324  1814  3400               	retlw	0
  2325  1815  3410               	retlw	16
  2326  1816  3401               	retlw	1
  2327  1817  3404               	retlw	4
  2328  1818  3424               	retlw	36
  2329  1819  3402               	retlw	2
  2330  181A  3402               	retlw	2
  2331  181B  3405               	retlw	5
  2332  181C  3424               	retlw	36
  2333  181D  3406               	retlw	6
  2334  181E  3400               	retlw	0
  2335  181F  3401               	retlw	1
  2336  1820  3405               	retlw	5
  2337  1821  3424               	retlw	36
  2338  1822  3401               	retlw	1
  2339  1823  3400               	retlw	0
  2340  1824  3401               	retlw	1
  2341  1825  3407               	retlw	7
  2342  1826  3405               	retlw	5
  2343  1827  3481               	retlw	129
  2344  1828  3403               	retlw	3
  2345  1829  340A               	retlw	10
  2346  182A  3400               	retlw	0
  2347  182B  3402               	retlw	2
  2348  182C  3409               	retlw	9
  2349  182D  3404               	retlw	4
  2350  182E  3401               	retlw	1
  2351  182F  3400               	retlw	0
  2352  1830  3402               	retlw	2
  2353  1831  340A               	retlw	10
  2354  1832  3400               	retlw	0
  2355  1833  3400               	retlw	0
  2356  1834  3400               	retlw	0
  2357  1835  3407               	retlw	7
  2358  1836  3405               	retlw	5
  2359  1837  3402               	retlw	2
  2360  1838  3402               	retlw	2
  2361  1839  3440               	retlw	64
  2362  183A  3400               	retlw	0
  2363  183B  3400               	retlw	0
  2364  183C  3407               	retlw	7
  2365  183D  3405               	retlw	5
  2366  183E  3482               	retlw	130
  2367  183F  3402               	retlw	2
  2368  1840  3440               	retlw	64
  2369  1841  3400               	retlw	0
  2370  1842  3400               	retlw	0
  2371  1843                     __end_of_configDescriptor1:
  2372                           
  2373                           	psect	stringtext4
  2374  1843                     __pstringtext4:
  2375  1843                     _sd001:
  2376  1843  3434               	retlw	52
  2377  1844  3403               	retlw	3
  2378  1845  344D               	retlw	77
  2379  1846  3400               	retlw	0
  2380  1847  3469               	retlw	105
  2381  1848  3400               	retlw	0
  2382  1849  3463               	retlw	99
  2383  184A  3400               	retlw	0
  2384  184B  3472               	retlw	114
  2385  184C  3400               	retlw	0
  2386  184D  346F               	retlw	111
  2387  184E  3400               	retlw	0
  2388  184F  3463               	retlw	99
  2389  1850  3400               	retlw	0
  2390  1851  3468               	retlw	104
  2391  1852  3400               	retlw	0
  2392  1853  3469               	retlw	105
  2393  1854  3400               	retlw	0
  2394  1855  3470               	retlw	112
  2395  1856  3400               	retlw	0
  2396  1857  3420               	retlw	32
  2397  1858  3400               	retlw	0
  2398  1859  3454               	retlw	84
  2399  185A  3400               	retlw	0
  2400  185B  3465               	retlw	101
  2401  185C  3400               	retlw	0
  2402  185D  3463               	retlw	99
  2403  185E  3400               	retlw	0
  2404  185F  3468               	retlw	104
  2405  1860  3400               	retlw	0
  2406  1861  346E               	retlw	110
  2407  1862  3400               	retlw	0
  2408  1863  346F               	retlw	111
  2409  1864  3400               	retlw	0
  2410  1865  346C               	retlw	108
  2411  1866  3400               	retlw	0
  2412  1867  346F               	retlw	111
  2413  1868  3400               	retlw	0
  2414  1869  3467               	retlw	103
  2415  186A  3400               	retlw	0
  2416  186B  3479               	retlw	121
  2417  186C  3400               	retlw	0
  2418  186D  3420               	retlw	32
  2419  186E  3400               	retlw	0
  2420  186F  3449               	retlw	73
  2421  1870  3400               	retlw	0
  2422  1871  346E               	retlw	110
  2423  1872  3400               	retlw	0
  2424  1873  3463               	retlw	99
  2425  1874  3400               	retlw	0
  2426  1875  342E               	retlw	46
  2427  1876  3400               	retlw	0
  2428  1877                     __end_of_sd001:
  2429                           
  2430                           	psect	stringtext5
  2431  1877                     __pstringtext5:
  2432  1877                     _sd002:
  2433  1877  3416               	retlw	22
  2434  1878  3403               	retlw	3
  2435  1879  3453               	retlw	83
  2436  187A  3400               	retlw	0
  2437  187B  346D               	retlw	109
  2438  187C  3400               	retlw	0
  2439  187D  3461               	retlw	97
  2440  187E  3400               	retlw	0
  2441  187F  3472               	retlw	114
  2442  1880  3400               	retlw	0
  2443  1881  3474               	retlw	116
  2444  1882  3400               	retlw	0
  2445  1883  3420               	retlw	32
  2446  1884  3400               	retlw	0
  2447  1885  3453               	retlw	83
  2448  1886  3400               	retlw	0
  2449  1887  3468               	retlw	104
  2450  1888  3400               	retlw	0
  2451  1889  346F               	retlw	111
  2452  188A  3400               	retlw	0
  2453  188B  3465               	retlw	101
  2454  188C  3400               	retlw	0
  2455  188D                     __end_of_sd002:
  2456                           
  2457                           	psect	stringtext6
  2458  188D                     __pstringtext6:
  2459  188D                     _device_dsc:
  2460  188D  3412               	retlw	18
  2461  188E  3401               	retlw	1
  2462  188F  3400               	retlw	0
  2463  1890  3402               	retlw	2
  2464  1891  3402               	retlw	2
  2465  1892  3400               	retlw	0
  2466  1893  3400               	retlw	0
  2467  1894  3408               	retlw	8
  2468  1895  34D8               	retlw	216
  2469  1896  3404               	retlw	4
  2470  1897  340A               	retlw	10
  2471  1898  3400               	retlw	0
  2472  1899  3400               	retlw	0
  2473  189A  3401               	retlw	1
  2474  189B  3401               	retlw	1
  2475  189C  3402               	retlw	2
  2476  189D  3403               	retlw	3
  2477  189E  3401               	retlw	1
  2478  189F                     __end_of_device_dsc:
  2479                           
  2480                           	psect	stringtext7
  2481  18A7                     __pstringtext7:
  2482  18A7                     _sd003:
  2483  18A7  3408               	retlw	8
  2484  18A8  3403               	retlw	3
  2485  18A9  3431               	retlw	49
  2486  18AA  3400               	retlw	0
  2487  18AB  3432               	retlw	50
  2488  18AC  3400               	retlw	0
  2489  18AD  3434               	retlw	52
  2490  18AE  3400               	retlw	0
  2491  18AF                     __end_of_sd003:
  2492                           
  2493                           	psect	stringtext8
  2494  18AF                     __pstringtext8:
  2495  18AF                     _sd000:
  2496  18AF  3404               	retlw	4
  2497  18B0  3403               	retlw	3
  2498  18B1  3409               	retlw	9
  2499  18B2  3404               	retlw	4
  2500  18B3                     __end_of_sd000:
  2501                           
  2502                           	psect	nvBANK4
  2503  0249                     __pnvBANK4:
  2504  0249                     _IOCAF5_InterruptHandler:
  2505  0249                     	ds	2
  2506  20C0                     _cdc_data_rx	set	8384
  2507  2080                     _cdc_data_tx	set	8320
  2508  0011                     _PIR1bits	set	17
  2509  000B                     _INTCONbits	set	11
  2510  0015                     _TMR0	set	21
  2511  0012                     _PIR2bits	set	18
  2512  009D                     _ADCON0bits	set	157
  2513  0095                     _OPTION_REG	set	149
  2514  0095                     _OPTION_REGbits	set	149
  2515  008E                     _TRISC	set	142
  2516  008D                     _TRISB	set	141
  2517  008C                     _TRISA	set	140
  2518  009D                     _ADCON0	set	157
  2519  009C                     _ADRESH	set	156
  2520  009B                     _ADRESL	set	155
  2521  009F                     _ADCON2	set	159
  2522  009E                     _ADCON1	set	158
  2523  0097                     _WDTCON	set	151
  2524  0098                     _OSCTUNE	set	152
  2525  0099                     _OSCCON	set	153
  2526  0092                     _PIE2bits	set	146
  2527  04D6                     _PLLRDY	set	1238
  2528  011D                     _APFCON	set	285
  2529  010E                     _LATC	set	270
  2530  010D                     _LATB	set	269
  2531  010C                     _LATA	set	268
  2532  0116                     _BORCON	set	278
  2533  018C                     _ANSELA	set	396
  2534  018D                     _ANSELB	set	397
  2535  018E                     _ANSELC	set	398
  2536  0211                     _SSPBUF	set	529
  2537  0216                     _SSPCON2bits	set	534
  2538  0211                     _SSP1BUF	set	529
  2539  0216                     _SSP1CON2bits	set	534
  2540  0215                     _SSP1CON1bits	set	533
  2541  0212                     _SSP1ADD	set	530
  2542  0216                     _SSP1CON2	set	534
  2543  0215                     _SSP1CON1	set	533
  2544  0214                     _SSP1STAT	set	532
  2545  020C                     _WPUA	set	524
  2546  020D                     _WPUB	set	525
  2547  0391                     _IOCAPbits	set	913
  2548  0392                     _IOCANbits	set	914
  2549  0393                     _IOCAFbits	set	915
  2550  039B                     _ACTCON	set	923
  2551  0E98                     _UEP0bits	set	3736
  2552  0E8E                     _UCON	set	3726
  2553  0E8F                     _USTAT	set	3727
  2554  0E92                     _UIEbits	set	3730
  2555  0E90                     _UIRbits	set	3728
  2556  0E96                     _UADDR	set	3734
  2557  0E8E                     _UCONbits	set	3726
  2558  0E92                     _UIE	set	3730
  2559  0E97                     _UEIE	set	3735
  2560  0E91                     _UCFG	set	3729
  2561  0E90                     _UIR	set	3728
  2562  0E93                     _UEIR	set	3731
  2563  0E99                     _UEP1	set	3737
  2564  0E98                     _UEP0	set	3736
  2565                           
  2566                           	psect	cinit
  2567  0028                     start_initialization:	
  2568                           ; #config settings
  2569                           
  2570  0028                     __initialization:	;BIGRAM
  2571                           
  2572                           ; Initialize objects allocated to BIGRAM
  2573  0028  3002               	movlw	low __pidataBIGRAM
  2574  0029  0084               	movwf	4
  2575  002A  3085               	movlw	(high __pidataBIGRAM)| (0+128)
  2576  002B  0085               	movwf	5
  2577  002C  3050               	movlw	low (0+8784)
  2578  002D  0086               	movwf	6
  2579  002E  3022               	movlw	high (0+8784)
  2580  002F  0087               	movwf	7
  2581  0030  3001               	movlw	1
  2582  0031  00FF               	movwf	btemp+1
  2583  0032  30A0               	movlw	160
  2584  0033  3191  21EA  3180   	fcall	init_ram
  2585                           
  2586                           ; Clear objects allocated to BANK1
  2587  0036  30A0               	movlw	low __pbssBANK1
  2588  0037  0084               	movwf	4
  2589  0038  3000               	movlw	high __pbssBANK1
  2590  0039  0085               	movwf	5
  2591  003A  3016               	movlw	22
  2592  003B  00FE               	movwf	btemp
  2593  003C  3000               	movlw	0
  2594  003D  00FF               	movwf	btemp+1
  2595  003E  3191  21DE  3180   	fcall	clear_ram0
  2596                           
  2597                           ; Clear objects allocated to BANK3
  2598  0041  30B0               	movlw	low __pbssBANK3
  2599  0042  0084               	movwf	4
  2600  0043  3001               	movlw	high __pbssBANK3
  2601  0044  0085               	movwf	5
  2602  0045  303F               	movlw	63
  2603  0046  00FE               	movwf	btemp
  2604  0047  3000               	movlw	0
  2605  0048  00FF               	movwf	btemp+1
  2606  0049  3191  21DE  3180   	fcall	clear_ram0
  2607                           
  2608                           ; Clear objects allocated to BANK4
  2609  004C  3020               	movlw	low __pbssBANK4
  2610  004D  0084               	movwf	4
  2611  004E  3002               	movlw	high __pbssBANK4
  2612  004F  0085               	movwf	5
  2613  0050  3023               	movlw	35
  2614  0051  00FE               	movwf	btemp
  2615  0052  3000               	movlw	0
  2616  0053  00FF               	movwf	btemp+1
  2617  0054  3191  21DE  3180   	fcall	clear_ram0
  2618                           
  2619                           ; Clear objects allocated to BANK5
  2620  0057  30A0               	movlw	low __pbssBANK5
  2621  0058  0084               	movwf	4
  2622  0059  3002               	movlw	high __pbssBANK5
  2623  005A  0085               	movwf	5
  2624  005B  3040               	movlw	64
  2625  005C  00FE               	movwf	btemp
  2626  005D  3000               	movlw	0
  2627  005E  00FF               	movwf	btemp+1
  2628  005F  3191  21DE  3180   	fcall	clear_ram0
  2629                           
  2630                           ; Clear objects allocated to BANK6
  2631  0062  3020               	movlw	low __pbssBANK6
  2632  0063  0084               	movwf	4
  2633  0064  3003               	movlw	high __pbssBANK6
  2634  0065  0085               	movwf	5
  2635  0066  3040               	movlw	64
  2636  0067  00FE               	movwf	btemp
  2637  0068  3000               	movlw	0
  2638  0069  00FF               	movwf	btemp+1
  2639  006A  3191  21DE  3180   	fcall	clear_ram0
  2640  006D                     end_of_initialization:	
  2641                           ;End of C runtime variable initialization code
  2642                           
  2643  006D                     __end_of__initialization:
  2644  006D  107E               	bcf	int$flags,0	;clear compiler interrupt flag (level 1)
  2645  006E  0020               	movlb	0
  2646  006F  3196  2E95         	ljmp	_main	;jump to C main() function
  2647                           
  2648                           	psect	bssBANK1
  2649  00A0                     __pbssBANK1:
  2650  00A0                     _pBDTEntryIn:
  2651  00A0                     	ds	6
  2652  00A6                     _inPipes:
  2653  00A6                     	ds	5
  2654  00AB                     _pBDTEntryEP0OutNext:
  2655  00AB                     	ds	2
  2656  00AD                     _column:
  2657  00AD                     	ds	1
  2658  00AE                     _row:
  2659  00AE                     	ds	1
  2660  00AF                     _cdc_trf_state:
  2661  00AF                     	ds	1
  2662  00B0                     _controlTransferState:
  2663  00B0                     	ds	1
  2664  00B1                     _shortPacketStatus:
  2665  00B1                     	ds	1
  2666  00B2                     _pBDTEntryEP0OutCurrent:
  2667  00B2                     	ds	1
  2668  00B3                     _USBDeviceState:
  2669  00B3                     	ds	1
  2670  00B4                     _USTATcopy:
  2671  00B4                     	ds	1
  2672  00B5                     _USBActiveConfiguration:
  2673  00B5                     	ds	1
  2674                           
  2675                           	psect	bssBANK3
  2676  01B0                     __pbssBANK3:
  2677  01B0                     _outPipes:
  2678  01B0                     	ds	7
  2679  01B7                     _pBDTEntryOut:
  2680  01B7                     	ds	6
  2681  01BD                     _USB1msTickCount:
  2682  01BD                     	ds	4
  2683  01C1                     _ep_data_out:
  2684  01C1                     	ds	3
  2685  01C4                     _ep_data_in:
  2686  01C4                     	ds	3
  2687  01C7                     _currentEepromAddress:
  2688  01C7                     	ds	2
  2689  01C9                     _TMR0_InterruptHandler:
  2690  01C9                     	ds	2
  2691  01CB                     _counter:
  2692  01CB                     	ds	2
  2693  01CD                     _CDCDataInHandle:
  2694  01CD                     	ds	2
  2695  01CF                     _CDCDataOutHandle:
  2696  01CF                     	ds	2
  2697  01D1                     _pCDCDst:
  2698  01D1                     	ds	2
  2699  01D3                     _pCDCSrc:
  2700  01D3                     	ds	2
  2701  01D5                     _second_round:
  2702  01D5                     	ds	1
  2703  01D6                     _write_complete:
  2704  01D6                     	ds	1
  2705  01D7                     _burst_count:
  2706  01D7                     	ds	1
  2707  01D8                     _byte:
  2708  01D8                     	ds	1
  2709  01D9                     _timer0ReloadVal:
  2710  01D9                     	ds	1
  2711  01DA                     _measurement_flag:
  2712  01DA                     	ds	1
  2713  01DB                     _writeout_flag:
  2714  01DB                     	ds	1
  2715  01DC                     _sleep_flag:
  2716  01DC                     	ds	1
  2717  01DD                     _control_signal_bitmap:
  2718  01DD                     	ds	1
  2719  01DE                     _cdc_mem_type:
  2720  01DE                     	ds	1
  2721  01DF                     _cdc_tx_len:
  2722  01DF                     	ds	1
  2723  01E0                     _cdc_rx_len:
  2724  01E0                     	ds	1
  2725  01E1                     _USBTicksSinceSuspendEnd:
  2726  01E1                     	ds	1
  2727  01E2                     _USBDeferOUTDataStagePackets:
  2728  01E2                     	ds	1
  2729  01E3                     _USBDeferINDataStagePackets:
  2730  01E3                     	ds	1
  2731  01E4                     _USBStatusStageEnabledFlag2:
  2732  01E4                     	ds	1
  2733  01E5                     _USBStatusStageEnabledFlag1:
  2734  01E5                     	ds	1
  2735  01E6                     _USBDeferStatusStagePacket:
  2736  01E6                     	ds	1
  2737  01E7                     _USBStatusStageTimeoutCounter:
  2738  01E7                     	ds	1
  2739  01E8                     _BothEP0OutUOWNsSet:
  2740  01E8                     	ds	1
  2741  01E9                     _endpoint_number:
  2742  01E9                     	ds	1
  2743  01EA                     _USBBusIsSuspended:
  2744  01EA                     	ds	1
  2745  01EB                     _RemoteWakeup:
  2746  01EB                     	ds	1
  2747  01EC                     _pDst:
  2748  01EC                     	ds	1
  2749  01ED                     _USBAlternateInterface:
  2750  01ED                     	ds	2
  2751                           
  2752                           	psect	bssBANK4
  2753  0220                     __pbssBANK4:
  2754  0220                     _cdc_notice:
  2755  0220                     	ds	10
  2756  022A                     _BaudRateGen:
  2757  022A                     	ds	4
  2758  022E                     _measurementburst_count:
  2759  022E                     	ds	2
  2760  0230                     _waitforsleep_count:
  2761  0230                     	ds	2
  2762  0232                     _ADC_InterruptHandler:
  2763  0232                     	ds	2
  2764  0234                     _dummy_encapsulated_cmd_response:
  2765  0234                     	ds	8
  2766  023C                     _line_coding:
  2767  023C                     	ds	7
  2768                           
  2769                           	psect	bssBANK5
  2770  02A0                     __pbssBANK5:
  2771  02A0                     _readBuffer:
  2772  02A0                     	ds	64
  2773                           
  2774                           	psect	bssBANK6
  2775  0320                     __pbssBANK6:
  2776  0320                     _writeBuffer:
  2777  0320                     	ds	64
  2778                           
  2779                           	psect	inittext
  2780  11EA                     init_ram:
  2781  11EA  00FE               	movwf	btemp
  2782  11EB                     initloop:
  2783  11EB  0012               	moviw fsr0++
  2784  11EC  001E               	movwi fsr1++
  2785  11ED  3001               	movlw	1
  2786  11EE  02FE               	subwf	btemp,f
  2787  11EF  3000               	movlw	0
  2788  11F0  3BFF               	subwfb	btemp+1,f
  2789  11F1  087F               	movf	btemp+1,w
  2790  11F2  047E               	iorwf	btemp,w
  2791  11F3  1D03               	skipz
  2792  11F4  29EB               	goto	initloop
  2793  11F5  3400               	retlw	0
  2794                           
  2795                           	psect	clrtext
  2796  11DE                     clear_ram0:	
  2797                           ;	Called with FSR0 containing the base address, and
  2798                           ;	btemp/btemp+1 has the size to clear
  2799                           
  2800  11DE  0064               	clrwdt	;clear the watchdog before getting into this loop
  2801  11DF                     clrloop0:
  2802  11DF  0180               	clrf	0	;clear RAM location pointed to by FSR
  2803  11E0  3101               	addfsr 0,1
  2804  11E1  3001               	movlw	1
  2805  11E2  02FE               	subwf	btemp,f
  2806  11E3  3000               	movlw	0
  2807  11E4  3BFF               	subwfb	btemp+1,f
  2808  11E5  087F               	movf	btemp+1,w
  2809  11E6  047E               	iorwf	btemp,w
  2810  11E7  1D03               	skipz
  2811  11E8  29DF               	goto	clrloop0	;have we reached the end yet?
  2812  11E9  3400               	retlw	0	;all done for this memory range, return
  2813                           
  2814                           	psect	cstackBANK4
  2815  0243                     __pcstackBANK4:
  2816  0243                     eeprom_storeBurstGroup@addressmsb:
  2817                           
  2818                           ; 1 bytes @ 0x0
  2819  0243                     	ds	1
  2820  0244                     eeprom_storeBurstGroup@addresslsb:
  2821                           
  2822                           ; 1 bytes @ 0x1
  2823  0244                     	ds	1
  2824  0245                     eeprom_storeBurstGroup@pagewritten:
  2825                           
  2826                           ; 1 bytes @ 0x2
  2827  0245                     	ds	1
  2828  0246                     eeprom_storeBurstGroup@row:
  2829                           
  2830                           ; 1 bytes @ 0x3
  2831  0246                     	ds	1
  2832  0247                     eeprom_storeBurstGroup@column:
  2833                           
  2834                           ; 1 bytes @ 0x4
  2835  0247                     	ds	1
  2836  0248                     ??_main:
  2837                           
  2838                           ; 1 bytes @ 0x5
  2839  0248                     	ds	1
  2840                           
  2841                           	psect	cstackBANK3
  2842  01EF                     __pcstackBANK3:
  2843  01EF                     measurementBurst@measurement_type:
  2844                           
  2845                           ; 1 bytes @ 0x0
  2846  01EF                     	ds	1
  2847                           
  2848                           	psect	cstackBANK1
  2849  00B6                     __pcstackBANK1:
  2850  00B6                     ??_USBCtrlEPService:
  2851                           
  2852                           ; 1 bytes @ 0x0
  2853  00B6                     	ds	2
  2854  00B8                     ??_USBDeviceTasks:
  2855                           
  2856                           ; 1 bytes @ 0x2
  2857  00B8                     	ds	2
  2858  00BA                     USBDeviceTasks@i:
  2859                           
  2860                           ; 1 bytes @ 0x4
  2861  00BA                     	ds	1
  2862  00BB                     ??_OSCILLATOR_Initialize:
  2863  00BB                     ??_WDT_Initialize:	
  2864                           ; 1 bytes @ 0x5
  2865                           
  2866  00BB                     ??_ADC_Initialize:	
  2867                           ; 1 bytes @ 0x5
  2868                           
  2869  00BB                     ?_IOCAF5_SetInterruptHandler:	
  2870                           ; 1 bytes @ 0x5
  2871                           
  2872  00BB                     ?_TMR0_SetInterruptHandler:	
  2873                           ; 1 bytes @ 0x5
  2874                           
  2875  00BB                     ??_I2C_Initialize:	
  2876                           ; 1 bytes @ 0x5
  2877                           
  2878  00BB                     ??_I2C_MasterStart:	
  2879                           ; 1 bytes @ 0x5
  2880                           
  2881  00BB                     ??_I2C_MasterWrite:	
  2882                           ; 1 bytes @ 0x5
  2883                           
  2884  00BB                     ??_I2C_MasterStop:	
  2885                           ; 1 bytes @ 0x5
  2886                           
  2887  00BB                     ??_USBDeviceInit:	
  2888                           ; 1 bytes @ 0x5
  2889                           
  2890  00BB                     ??_USBDeviceAttach:	
  2891                           ; 1 bytes @ 0x5
  2892                           
  2893  00BB                     ??_takeMeasurement:	
  2894                           ; 1 bytes @ 0x5
  2895                           
  2896  00BB                     ??_I2C_WaitForCompletion:	
  2897                           ; 1 bytes @ 0x5
  2898                           
  2899  00BB                     I2C_MasterWrite@data:	
  2900                           ; 1 bytes @ 0x5
  2901                           
  2902  00BB                     IOCAF5_SetInterruptHandler@InterruptHandler:	
  2903                           ; 1 bytes @ 0x5
  2904                           
  2905  00BB                     TMR0_SetInterruptHandler@InterruptHandler:	
  2906                           ; 2 bytes @ 0x5
  2907                           
  2908                           
  2909                           ; 2 bytes @ 0x5
  2910  00BB                     	ds	1
  2911  00BC                     ?_eeprom_storeBurstGroup:
  2912  00BC                     ??_ACK_Poll:	
  2913                           ; 1 bytes @ 0x6
  2914                           
  2915  00BC                     takeMeasurement@channel:	
  2916                           ; 1 bytes @ 0x6
  2917                           
  2918  00BC                     USBDeviceInit@p:	
  2919                           ; 1 bytes @ 0x6
  2920                           
  2921  00BC                     eeprom_storeBurstGroup@address:	
  2922                           ; 2 bytes @ 0x6
  2923                           
  2924                           
  2925                           ; 2 bytes @ 0x6
  2926  00BC                     	ds	1
  2927  00BD                     ??_PIN_MANAGER_Initialize:
  2928  00BD                     ??_TMR0_Initialize:	
  2929                           ; 1 bytes @ 0x7
  2930                           
  2931  00BD                     ??_IOCAF5_SetInterruptHandler:	
  2932                           ; 1 bytes @ 0x7
  2933                           
  2934  00BD                     ??_TMR0_SetInterruptHandler:	
  2935                           ; 1 bytes @ 0x7
  2936                           
  2937  00BD                     ??_measurementBurst:	
  2938                           ; 1 bytes @ 0x7
  2939                           
  2940                           
  2941                           ; 1 bytes @ 0x7
  2942  00BD                     	ds	1
  2943  00BE                     USBDeviceInit@i_665:
  2944  00BE                     eeprom_storeBurstGroup@data:	
  2945                           ; 1 bytes @ 0x8
  2946                           
  2947                           
  2948                           ; 2 bytes @ 0x8
  2949  00BE                     	ds	1
  2950  00BF                     USBDeviceInit@i:
  2951                           
  2952                           ; 1 bytes @ 0x9
  2953  00BF                     	ds	1
  2954  00C0                     ??_eeprom_storeBurstGroup:
  2955  00C0                     ??_SYSTEM_Initialize:	
  2956                           ; 1 bytes @ 0xA
  2957                           
  2958                           
  2959                           ; 1 bytes @ 0xA
  2960  00C0                     	ds	11
  2961                           
  2962                           	psect	cstackCOMMON
  2963  0070                     __pcstackCOMMON:
  2964  0070                     ?_USBWakeFromSuspend:
  2965  0070                     ?_USBSuspend:	
  2966                           ; 1 bytes @ 0x0
  2967                           
  2968  0070                     ?_USBIncrement1msInternalTimers:	
  2969                           ; 1 bytes @ 0x0
  2970                           
  2971  0070                     ??_USBIncrement1msInternalTimers:	
  2972                           ; 1 bytes @ 0x0
  2973                           
  2974  0070                     ?_USBCtrlEPAllowStatusStage:	
  2975                           ; 1 bytes @ 0x0
  2976                           
  2977  0070                     ??_USBCtrlEPAllowStatusStage:	
  2978                           ; 1 bytes @ 0x0
  2979                           
  2980  0070                     ?_USBStallHandler:	
  2981                           ; 1 bytes @ 0x0
  2982                           
  2983  0070                     ??_USBStallHandler:	
  2984                           ; 1 bytes @ 0x0
  2985                           
  2986  0070                     ?_USBCtrlEPService:	
  2987                           ; 1 bytes @ 0x0
  2988                           
  2989  0070                     ?_USBConfigureEndpoint:	
  2990                           ; 1 bytes @ 0x0
  2991                           
  2992  0070                     ?_USBCtrlTrfTxService:	
  2993                           ; 1 bytes @ 0x0
  2994                           
  2995  0070                     ??_USBCtrlTrfTxService:	
  2996                           ; 1 bytes @ 0x0
  2997                           
  2998  0070                     ?_memcpy:	
  2999                           ; 1 bytes @ 0x0
  3000                           
  3001  0070                     ?_USBCtrlTrfSetupHandler:	
  3002                           ; 1 bytes @ 0x0
  3003                           
  3004  0070                     ?_USBCtrlTrfOutHandler:	
  3005                           ; 1 bytes @ 0x0
  3006                           
  3007  0070                     ?_USBCtrlTrfInHandler:	
  3008                           ; 1 bytes @ 0x0
  3009                           
  3010  0070                     ?_USBCheckStdRequest:	
  3011                           ; 1 bytes @ 0x0
  3012                           
  3013  0070                     ?_USBStdFeatureReqHandler:	
  3014                           ; 1 bytes @ 0x0
  3015                           
  3016  0070                     ?_PIN_MANAGER_Initialize:	
  3017                           ; 1 bytes @ 0x0
  3018                           
  3019  0070                     ?_OSCILLATOR_Initialize:	
  3020                           ; 1 bytes @ 0x0
  3021                           
  3022  0070                     ?_WDT_Initialize:	
  3023                           ; 1 bytes @ 0x0
  3024                           
  3025  0070                     ?_ADC_Initialize:	
  3026                           ; 1 bytes @ 0x0
  3027                           
  3028  0070                     ?_TMR0_Initialize:	
  3029                           ; 1 bytes @ 0x0
  3030                           
  3031  0070                     ?_TMR0_DefaultInterruptHandler:	
  3032                           ; 1 bytes @ 0x0
  3033                           
  3034  0070                     ??_TMR0_DefaultInterruptHandler:	
  3035                           ; 1 bytes @ 0x0
  3036                           
  3037  0070                     ?_I2C_Initialize:	
  3038                           ; 1 bytes @ 0x0
  3039                           
  3040  0070                     ?_I2C_MasterStart:	
  3041                           ; 1 bytes @ 0x0
  3042                           
  3043  0070                     ?_I2C_MasterWrite:	
  3044                           ; 1 bytes @ 0x0
  3045                           
  3046  0070                     ?_I2C_MasterStop:	
  3047                           ; 1 bytes @ 0x0
  3048                           
  3049  0070                     ?_USBDeviceInit:	
  3050                           ; 1 bytes @ 0x0
  3051                           
  3052  0070                     ?_USBDeviceTasks:	
  3053                           ; 1 bytes @ 0x0
  3054                           
  3055  0070                     ?_USBDeviceAttach:	
  3056                           ; 1 bytes @ 0x0
  3057                           
  3058  0070                     ?_USBCtrlEPAllowDataStage:	
  3059                           ; 1 bytes @ 0x0
  3060                           
  3061  0070                     ?_USBCtrlEPServiceComplete:	
  3062                           ; 1 bytes @ 0x0
  3063                           
  3064  0070                     ?_USBCtrlTrfRxService:	
  3065                           ; 1 bytes @ 0x0
  3066                           
  3067  0070                     ?_USBStdSetCfgHandler:	
  3068                           ; 1 bytes @ 0x0
  3069                           
  3070  0070                     ?_USBStdGetDscHandler:	
  3071                           ; 1 bytes @ 0x0
  3072                           
  3073  0070                     ??_USBStdGetDscHandler:	
  3074                           ; 1 bytes @ 0x0
  3075                           
  3076  0070                     ?_USBStdGetStatusHandler:	
  3077                           ; 1 bytes @ 0x0
  3078                           
  3079  0070                     ??_USBStdGetStatusHandler:	
  3080                           ; 1 bytes @ 0x0
  3081                           
  3082  0070                     ?_USBCheckCDCRequest:	
  3083                           ; 1 bytes @ 0x0
  3084                           
  3085  0070                     ??_USBCheckCDCRequest:	
  3086                           ; 1 bytes @ 0x0
  3087                           
  3088  0070                     ?_CDCInitEP:	
  3089                           ; 1 bytes @ 0x0
  3090                           
  3091  0070                     ?_SYSTEM_Initialize:	
  3092                           ; 1 bytes @ 0x0
  3093                           
  3094  0070                     ?_TMR0_ISR:	
  3095                           ; 1 bytes @ 0x0
  3096                           
  3097  0070                     ??_TMR0_ISR:	
  3098                           ; 1 bytes @ 0x0
  3099                           
  3100  0070                     ?_INTERRUPT_InterruptManager:	
  3101                           ; 1 bytes @ 0x0
  3102                           
  3103  0070                     ?_takeMeasurement:	
  3104                           ; 1 bytes @ 0x0
  3105                           
  3106  0070                     ?_measurementBurst:	
  3107                           ; 1 bytes @ 0x0
  3108                           
  3109  0070                     ?_main:	
  3110                           ; 1 bytes @ 0x0
  3111                           
  3112  0070                     ?_ACK_Poll:	
  3113                           ; 1 bytes @ 0x0
  3114                           
  3115  0070                     ?_I2C_WaitForCompletion:	
  3116                           ; 1 bytes @ 0x0
  3117                           
  3118  0070                     ?i1_USBDeviceInit:	
  3119                           ; 1 bytes @ 0x0
  3120                           
  3121  0070                     ??i1_USBDeviceInit:	
  3122                           ; 1 bytes @ 0x0
  3123                           
  3124  0070                     ?_memset:	
  3125                           ; 1 bytes @ 0x0
  3126                           
  3127  0070                     ?_USBTransferOnePacket:	
  3128                           ; 2 bytes @ 0x0
  3129                           
  3130  0070                     USBTransferOnePacket@dir:	
  3131                           ; 2 bytes @ 0x0
  3132                           
  3133  0070                     USBConfigureEndpoint@direction:	
  3134                           ; 1 bytes @ 0x0
  3135                           
  3136  0070                     memcpy@s1:	
  3137                           ; 1 bytes @ 0x0
  3138                           
  3139  0070                     memset@dest:	
  3140                           ; 2 bytes @ 0x0
  3141                           
  3142                           
  3143                           ; 2 bytes @ 0x0
  3144  0070                     	ds	1
  3145  0071                     ??_USBConfigureEndpoint:
  3146  0071                     USBTransferOnePacket@data:	
  3147                           ; 1 bytes @ 0x1
  3148                           
  3149  0071                     i1USBDeviceInit@p:	
  3150                           ; 2 bytes @ 0x1
  3151                           
  3152                           
  3153                           ; 2 bytes @ 0x1
  3154  0071                     	ds	1
  3155  0072                     ??_USBCtrlTrfRxService:
  3156  0072                     USBCtrlTrfTxService@byteToSend:	
  3157                           ; 1 bytes @ 0x2
  3158                           
  3159  0072                     USBStdGetStatusHandler@p:	
  3160                           ; 1 bytes @ 0x2
  3161                           
  3162  0072                     memcpy@n:	
  3163                           ; 2 bytes @ 0x2
  3164                           
  3165  0072                     memset@c:	
  3166                           ; 2 bytes @ 0x2
  3167                           
  3168                           
  3169                           ; 2 bytes @ 0x2
  3170  0072                     	ds	1
  3171  0073                     ??_USBCtrlTrfInHandler:
  3172  0073                     ??_USBCtrlEPAllowDataStage:	
  3173                           ; 1 bytes @ 0x3
  3174                           
  3175  0073                     USBTransferOnePacket@len:	
  3176                           ; 1 bytes @ 0x3
  3177                           
  3178  0073                     i1USBDeviceInit@i_665:	
  3179                           ; 1 bytes @ 0x3
  3180                           
  3181                           
  3182                           ; 1 bytes @ 0x3
  3183  0073                     	ds	1
  3184  0074                     ??_memcpy:
  3185  0074                     ??_USBTransferOnePacket:	
  3186                           ; 1 bytes @ 0x4
  3187                           
  3188  0074                     USBCtrlTrfRxService@i:	
  3189                           ; 1 bytes @ 0x4
  3190                           
  3191  0074                     i1USBDeviceInit@i:	
  3192                           ; 1 bytes @ 0x4
  3193                           
  3194  0074                     memset@n:	
  3195                           ; 1 bytes @ 0x4
  3196                           
  3197                           
  3198                           ; 2 bytes @ 0x4
  3199  0074                     	ds	1
  3200  0075                     ??_USBCtrlEPServiceComplete:
  3201  0075                     USBConfigureEndpoint@EPNum:	
  3202                           ; 1 bytes @ 0x5
  3203                           
  3204  0075                     USBCtrlTrfRxService@byteToRead:	
  3205                           ; 1 bytes @ 0x5
  3206                           
  3207  0075                     USBCtrlTrfInHandler@lastDTS:	
  3208                           ; 1 bytes @ 0x5
  3209                           
  3210  0075                     memcpy@s:	
  3211                           ; 1 bytes @ 0x5
  3212                           
  3213                           
  3214                           ; 2 bytes @ 0x5
  3215  0075                     	ds	1
  3216  0076                     ??_memset:
  3217  0076                     ??_USBCtrlTrfOutHandler:	
  3218                           ; 1 bytes @ 0x6
  3219                           
  3220  0076                     USBConfigureEndpoint@handle:	
  3221                           ; 1 bytes @ 0x6
  3222                           
  3223                           
  3224                           ; 1 bytes @ 0x6
  3225  0076                     	ds	1
  3226  0077                     ?_USBEnableEndpoint:
  3227  0077                     USBEnableEndpoint@options:	
  3228                           ; 1 bytes @ 0x7
  3229                           
  3230  0077                     memcpy@tmp:	
  3231                           ; 1 bytes @ 0x7
  3232                           
  3233                           
  3234                           ; 1 bytes @ 0x7
  3235  0077                     	ds	1
  3236  0078                     ??_USBEnableEndpoint:
  3237  0078                     USBTransferOnePacket@ep:	
  3238                           ; 1 bytes @ 0x8
  3239                           
  3240  0078                     memcpy@d1:	
  3241                           ; 1 bytes @ 0x8
  3242                           
  3243                           
  3244                           ; 1 bytes @ 0x8
  3245  0078                     	ds	1
  3246  0079                     memcpy@d:
  3247  0079                     USBTransferOnePacket@handle:	
  3248                           ; 1 bytes @ 0x9
  3249                           
  3250                           
  3251                           ; 2 bytes @ 0x9
  3252  0079                     	ds	1
  3253  007A                     USBEnableEndpoint@p:
  3254  007A                     memset@k:	
  3255                           ; 2 bytes @ 0xA
  3256                           
  3257                           
  3258                           ; 2 bytes @ 0xA
  3259  007A                     	ds	2
  3260  007C                     USBEnableEndpoint@ep:
  3261  007C                     memset@s:	
  3262                           ; 1 bytes @ 0xC
  3263                           
  3264                           
  3265                           ; 2 bytes @ 0xC
  3266  007C                     	ds	1
  3267  007D                     ??_CDCInitEP:
  3268                           
  3269                           ; 1 bytes @ 0xD
  3270  007D                     	ds	1
  3271  007E                     ??_USER_USB_CALLBACK_EVENT_HANDLER:
  3272  007E                     ??_INTERRUPT_InterruptManager:	
  3273                           ; 1 bytes @ 0xE
  3274                           
  3275                           
  3276                           	psect	cstackBANK0
  3277  0060                     __pcstackBANK0:	
  3278                           ; 1 bytes @ 0xE
  3279                           
  3280  0060                     ?_USER_USB_CALLBACK_EVENT_HANDLER:
  3281  0060                     USER_USB_CALLBACK_EVENT_HANDLER@event:	
  3282                           ; 1 bytes @ 0x0
  3283                           
  3284                           
  3285                           ; 2 bytes @ 0x0
  3286  0060                     	ds	2
  3287  0062                     USER_USB_CALLBACK_EVENT_HANDLER@pdata:
  3288                           
  3289                           ; 2 bytes @ 0x2
  3290  0062                     	ds	2
  3291  0064                     USER_USB_CALLBACK_EVENT_HANDLER@size:
  3292                           
  3293                           ; 2 bytes @ 0x4
  3294  0064                     	ds	2
  3295  0066                     ??_USBWakeFromSuspend:
  3296  0066                     ??_USBSuspend:	
  3297                           ; 1 bytes @ 0x6
  3298                           
  3299  0066                     ??_USBStdFeatureReqHandler:	
  3300                           ; 1 bytes @ 0x6
  3301                           
  3302  0066                     ??_USBStdSetCfgHandler:	
  3303                           ; 1 bytes @ 0x6
  3304                           
  3305                           
  3306                           ; 1 bytes @ 0x6
  3307  0066                     	ds	1
  3308  0067                     USBStdSetCfgHandler@p:
  3309                           
  3310                           ; 2 bytes @ 0x7
  3311  0067                     	ds	1
  3312  0068                     USBStdFeatureReqHandler@pUEP:
  3313                           
  3314                           ; 2 bytes @ 0x8
  3315  0068                     	ds	1
  3316  0069                     USBStdSetCfgHandler@i_1402:
  3317                           
  3318                           ; 1 bytes @ 0x9
  3319  0069                     	ds	1
  3320  006A                     USBStdSetCfgHandler@i:
  3321  006A                     USBStdFeatureReqHandler@current_ep_data:	
  3322                           ; 1 bytes @ 0xA
  3323                           
  3324                           
  3325                           ; 1 bytes @ 0xA
  3326  006A                     	ds	1
  3327  006B                     USBStdFeatureReqHandler@p:
  3328                           
  3329                           ; 2 bytes @ 0xB
  3330  006B                     	ds	2
  3331  006D                     ??_USBCheckStdRequest:
  3332                           
  3333                           ; 1 bytes @ 0xD
  3334  006D                     	ds	2
  3335  006F                     ??_USBCtrlTrfSetupHandler:
  3336                           
  3337                           ; 1 bytes @ 0xF
  3338  006F                     	ds	1
  3339                           
  3340                           	psect	maintext
  3341  1695                     __pmaintext:	
  3342 ;;
  3343 ;;Main: autosize = 0, tempsize = 1, incstack = 0, save=0
  3344 ;;
  3345 ;; *************** function _main *****************
  3346 ;; Defined at:
  3347 ;;		line 159 in file "main.c"
  3348 ;; Parameters:    Size  Location     Type
  3349 ;;		None
  3350 ;; Auto vars:     Size  Location     Type
  3351 ;;		None
  3352 ;; Return value:  Size  Location     Type
  3353 ;;                  1    wreg      void 
  3354 ;; Registers used:
  3355 ;;		wreg, fsr1l, fsr1h, status,2, status,0, pclath, cstack
  3356 ;; Tracked objects:
  3357 ;;		On entry : B1F/0
  3358 ;;		On exit  : 0/0
  3359 ;;		Unchanged: 0/0
  3360 ;; Data sizes:     COMMON   BANK0   BANK1   BANK2   BANK3   BANK4   BANK5   BANK6   BANK7   BANK8   BANK9  BANK10  BANK1
      +1  BANK12
  3361 ;;      Params:         0       0       0       0       0       0       0       0       0       0       0       0       
      +0       0
  3362 ;;      Locals:         0       0       0       0       0       0       0       0       0       0       0       0       
      +0       0
  3363 ;;      Temps:          0       0       0       0       0       1       0       0       0       0       0       0       
      +0       0
  3364 ;;      Totals:         0       0       0       0       0       1       0       0       0       0       0       0       
      +0       0
  3365 ;;Total ram usage:        1 bytes
  3366 ;; Hardware stack levels required when called:   14
  3367 ;; This function calls:
  3368 ;;		_I2C_Initialize
  3369 ;;		_SYSTEM_Initialize
  3370 ;;		_eeprom_storeBurstGroup
  3371 ;;		_measurementBurst
  3372 ;; This function is called by:
  3373 ;;		Startup code after reset
  3374 ;; This function uses a non-reentrant model
  3375 ;;
  3376                           
  3377                           
  3378                           ;psect for function _main
  3379  1695                     _main:
  3380  1695                     l5795:	
  3381                           ;incstack = 0
  3382                           ; Regs used in _main: [wreg+fsr1l+fsr1h+status,2+status,0+pclath+cstack]
  3383                           
  3384                           
  3385                           ;main.c: 160:     SYSTEM_Initialize();
  3386  1695  3192  2227  3196   	fcall	_SYSTEM_Initialize
  3387  1698                     l5797:
  3388                           
  3389                           ;main.c: 161:     I2C_Initialize();
  3390  1698  3191  21D2  3196   	fcall	_I2C_Initialize
  3391  169B                     l5799:
  3392                           
  3393                           ;main.c: 162:     (INTCONbits.GIE = 1);
  3394  169B  178B               	bsf	11,7	;volatile
  3395  169C                     l5801:
  3396                           
  3397                           ;main.c: 163:     (INTCONbits.PEIE = 1);
  3398  169C  170B               	bsf	11,6	;volatile
  3399  169D                     l5803:
  3400                           
  3401                           ;main.c: 165:         if (measurement_flag) {
  3402  169D  0023               	movlb	3	; select bank3
  3403  169E  085A               	movf	_measurement_flag^(0+384),w
  3404  169F  1903               	btfsc	3,2
  3405  16A0  2EA2               	goto	u4921
  3406  16A1  2EA3               	goto	u4920
  3407  16A2                     u4921:
  3408  16A2  2ECB               	goto	l5825
  3409  16A3                     u4920:
  3410  16A3                     l5805:
  3411                           
  3412                           ;main.c: 166:             measurement_flag = 0;
  3413  16A3  01DA               	clrf	_measurement_flag^(0+384)
  3414  16A4                     l5807:
  3415                           
  3416                           ;main.c: 167:             if (burst_count == 0) {
  3417  16A4  0857               	movf	_burst_count^(0+384),w
  3418  16A5  1D03               	btfss	3,2
  3419  16A6  2EA8               	goto	u4931
  3420  16A7  2EA9               	goto	u4930
  3421  16A8                     u4931:
  3422  16A8  2EB4               	goto	l5813
  3423  16A9                     u4930:
  3424  16A9                     l5809:
  3425                           
  3426                           ;main.c: 168:                 measurementBurst(0);
  3427  16A9  3000               	movlw	0
  3428  16AA  3180  2071  3196   	fcall	_measurementBurst
  3429  16AD                     l5811:
  3430                           
  3431                           ;main.c: 169:                 burst_count++;
  3432  16AD  3001               	movlw	1
  3433  16AE  0024               	movlb	4	; select bank4
  3434  16AF  00C8               	movwf	??_main^(0+512)
  3435  16B0  0848               	movf	??_main^(0+512),w
  3436  16B1  0023               	movlb	3	; select bank3
  3437  16B2  07D7               	addwf	_burst_count^(0+384),f
  3438                           
  3439                           ;main.c: 170:             }
  3440  16B3  2ECB               	goto	l5825
  3441  16B4                     l5813:
  3442  16B4  0357               	decf	_burst_count^(0+384),w
  3443  16B5  1D03               	btfss	3,2
  3444  16B6  2EB8               	goto	u4941
  3445  16B7  2EB9               	goto	u4940
  3446  16B8                     u4941:
  3447  16B8  2EBE               	goto	l5819
  3448  16B9                     u4940:
  3449  16B9                     l5815:
  3450                           
  3451                           ;main.c: 172:                 measurementBurst(1);
  3452  16B9  3001               	movlw	1
  3453  16BA  3180  2071  3196   	fcall	_measurementBurst
  3454  16BD  2EAD               	goto	l5811
  3455  16BE                     l5819:
  3456  16BE  3002               	movlw	2
  3457  16BF  0657               	xorwf	_burst_count^(0+384),w
  3458  16C0  1D03               	btfss	3,2
  3459  16C1  2EC3               	goto	u4951
  3460  16C2  2EC4               	goto	u4950
  3461  16C3                     u4951:
  3462  16C3  2ECB               	goto	l823
  3463  16C4                     u4950:
  3464  16C4                     l5821:
  3465                           
  3466                           ;main.c: 176:                 measurementBurst(3);
  3467  16C4  3003               	movlw	3
  3468  16C5  3180  2071  3196   	fcall	_measurementBurst
  3469  16C8                     l5823:
  3470                           
  3471                           ;main.c: 177:                 burst_count = 0;
  3472  16C8  0023               	movlb	3	; select bank3
  3473  16C9  01D7               	clrf	_burst_count^(0+384)
  3474  16CA  2ECB               	goto	l5825
  3475  16CB                     l823:
  3476  16CB                     l5825:
  3477                           
  3478                           ;main.c: 180:         if (sleep_flag)
  3479  16CB  085C               	movf	_sleep_flag^(0+384),w
  3480  16CC  1903               	btfsc	3,2
  3481  16CD  2ECF               	goto	u4961
  3482  16CE  2ED0               	goto	u4960
  3483  16CF                     u4961:
  3484  16CF  2EDE               	goto	l5837
  3485  16D0                     u4960:
  3486  16D0                     l5827:
  3487                           
  3488                           ;main.c: 181:         {;main.c: 182:             sleep_flag = 0;
  3489  16D0  01DC               	clrf	_sleep_flag^(0+384)
  3490  16D1                     l5829:
  3491                           
  3492                           ;main.c: 184:             IOCAFbits.IOCAF5 = 0;
  3493  16D1  0027               	movlb	7	; select bank7
  3494  16D2  1293               	bcf	19,5	;volatile
  3495  16D3                     l5831:
  3496                           
  3497                           ;main.c: 185:             INTCONbits.IOCIE = 1;
  3498  16D3  158B               	bsf	11,3	;volatile
  3499  16D4  0063               	sleep	;# 
  3500  16D5                     l5833:
  3501                           
  3502                           ;main.c: 187:             INTCONbits.IOCIE = 0;
  3503  16D5  118B               	bcf	11,3	;volatile
  3504  16D6                     l5835:
  3505                           
  3506                           ;main.c: 189:             IOCAFbits.IOCAF5 = 0;
  3507  16D6  0027               	movlb	7	; select bank7
  3508  16D7  1293               	bcf	19,5	;volatile
  3509                           
  3510                           ;main.c: 190:             write_complete = 0;
  3511  16D8  0023               	movlb	3	; select bank3
  3512  16D9  01D6               	clrf	_write_complete^(0+384)
  3513                           
  3514                           ;main.c: 191:             writeout_flag = 0;
  3515  16DA  01DB               	clrf	_writeout_flag^(0+384)
  3516                           
  3517                           ;main.c: 192:             measurementburst_count = 0;
  3518  16DB  0024               	movlb	4	; select bank4
  3519  16DC  01AE               	clrf	_measurementburst_count^(0+512)
  3520  16DD  01AF               	clrf	(_measurementburst_count+1)^(0+512)
  3521  16DE                     l5837:
  3522                           
  3523                           ;main.c: 194:         if (writeout_flag && !write_complete)
  3524  16DE  0023               	movlb	3	; select bank3
  3525  16DF  085B               	movf	_writeout_flag^(0+384),w
  3526  16E0  1903               	btfsc	3,2
  3527  16E1  2EE3               	goto	u4971
  3528  16E2  2EE4               	goto	u4970
  3529  16E3                     u4971:
  3530  16E3  2E9D               	goto	l5803
  3531  16E4                     u4970:
  3532  16E4                     l5839:
  3533  16E4  0856               	movf	_write_complete^(0+384),w
  3534  16E5  1D03               	btfss	3,2
  3535  16E6  2EE8               	goto	u4981
  3536  16E7  2EE9               	goto	u4980
  3537  16E8                     u4981:
  3538  16E8  2E9D               	goto	l5803
  3539  16E9                     u4980:
  3540  16E9                     l5841:
  3541                           
  3542                           ;main.c: 195:         {;main.c: 197:             writeout_flag = 0;
  3543  16E9  01DB               	clrf	_writeout_flag^(0+384)
  3544  16EA                     l5843:
  3545                           
  3546                           ;main.c: 198:             if (currentEepromAddress >= 0xFFF) currentEepromAddress = 0;
  3547  16EA  300F               	movlw	15
  3548  16EB  0248               	subwf	(_currentEepromAddress+1)^(0+384),w
  3549  16EC  30FF               	movlw	255
  3550  16ED  1903               	skipnz
  3551  16EE  0247               	subwf	_currentEepromAddress^(0+384),w
  3552  16EF  1C03               	skipc
  3553  16F0  2EF2               	goto	u4991
  3554  16F1  2EF3               	goto	u4990
  3555  16F2                     u4991:
  3556  16F2  2EF5               	goto	l5847
  3557  16F3                     u4990:
  3558  16F3                     l5845:
  3559  16F3  01C7               	clrf	_currentEepromAddress^(0+384)
  3560  16F4  01C8               	clrf	(_currentEepromAddress+1)^(0+384)
  3561  16F5                     l5847:
  3562                           
  3563                           ;main.c: 200:             eeprom_storeBurstGroup(currentEepromAddress, measarray);
  3564  16F5  0848               	movf	(_currentEepromAddress+1)^(0+384),w
  3565  16F6  0021               	movlb	1	; select bank1
  3566  16F7  00BD               	movwf	(eeprom_storeBurstGroup@address+1)^(0+128)
  3567  16F8  0023               	movlb	3	; select bank3
  3568  16F9  0847               	movf	_currentEepromAddress^(0+384),w
  3569  16FA  0021               	movlb	1	; select bank1
  3570  16FB  00BC               	movwf	eeprom_storeBurstGroup@address^(0+128)
  3571  16FC  3050               	movlw	80
  3572  16FD  00BE               	movwf	eeprom_storeBurstGroup@data^(0+128)
  3573  16FE  3022               	movlw	34
  3574  16FF  00BF               	movwf	(eeprom_storeBurstGroup@data^(0+128)+1)
  3575  1700  318D  2554  3196   	fcall	_eeprom_storeBurstGroup
  3576  1703                     l5849:
  3577                           
  3578                           ;main.c: 201:             currentEepromAddress += 0x1A0;
  3579  1703  30A0               	movlw	160
  3580  1704  0023               	movlb	3	; select bank3
  3581  1705  07C7               	addwf	_currentEepromAddress^(0+384),f
  3582  1706  3001               	movlw	1
  3583  1707  3DC8               	addwfc	(_currentEepromAddress+1)^(0+384),f
  3584  1708                     l5851:
  3585                           
  3586                           ;main.c: 203:             write_complete = 1;
  3587  1708  01D6               	clrf	_write_complete^(0+384)
  3588  1709  0AD6               	incf	_write_complete^(0+384),f
  3589  170A  2E9D               	goto	l5803
  3590  170B  3180  2826         	ljmp	start
  3591  170D                     __end_of_main:
  3592                           
  3593                           	psect	text1
  3594  0071                     __ptext1:	
  3595 ;; *************** function _measurementBurst *****************
  3596 ;; Defined at:
  3597 ;;		line 104 in file "main.c"
  3598 ;; Parameters:    Size  Location     Type
  3599 ;;  measurement_    1    wreg     unsigned char 
  3600 ;; Auto vars:     Size  Location     Type
  3601 ;;  measurement_    1    0[BANK3 ] unsigned char 
  3602 ;; Return value:  Size  Location     Type
  3603 ;;                  1    wreg      void 
  3604 ;; Registers used:
  3605 ;;		wreg, fsr1l, fsr1h, status,2, status,0, pclath, cstack
  3606 ;; Tracked objects:
  3607 ;;		On entry : 0/0
  3608 ;;		On exit  : 0/0
  3609 ;;		Unchanged: 0/0
  3610 ;; Data sizes:     COMMON   BANK0   BANK1   BANK2   BANK3   BANK4   BANK5   BANK6   BANK7   BANK8   BANK9  BANK10  BANK1
      +1  BANK12
  3611 ;;      Params:         0       0       0       0       0       0       0       0       0       0       0       0       
      +0       0
  3612 ;;      Locals:         0       0       0       0       1       0       0       0       0       0       0       0       
      +0       0
  3613 ;;      Temps:          0       0      14       0       0       0       0       0       0       0       0       0       
      +0       0
  3614 ;;      Totals:         0       0      14       0       1       0       0       0       0       0       0       0       
      +0       0
  3615 ;;Total ram usage:       15 bytes
  3616 ;; Hardware stack levels used:    1
  3617 ;; Hardware stack levels required when called:   11
  3618 ;; This function calls:
  3619 ;;		_takeMeasurement
  3620 ;; This function is called by:
  3621 ;;		_main
  3622 ;; This function uses a non-reentrant model
  3623 ;;
  3624                           
  3625                           
  3626                           ;psect for function _measurementBurst
  3627  0071                     _measurementBurst:
  3628                           
  3629                           ;incstack = 0
  3630                           ; Regs used in _measurementBurst: [wreg+fsr1l+fsr1h+status,2+status,0+pclath+cstack]
  3631                           ;measurementBurst@measurement_type stored from wreg
  3632  0071  0023               	movlb	3	; select bank3
  3633  0072  00EF               	movwf	measurementBurst@measurement_type^(0+384)
  3634  0073                     l5639:
  3635                           
  3636                           ;main.c: 105:     if (measurement_type == 0) {
  3637  0073  086F               	movf	measurementBurst@measurement_type^(0+384),w
  3638  0074  1D03               	btfss	3,2
  3639  0075  2877               	goto	u4641
  3640  0076  2878               	goto	u4640
  3641  0077                     u4641:
  3642  0077  29BB               	goto	l5659
  3643  0078                     u4640:
  3644  0078                     l5641:
  3645                           
  3646                           ;main.c: 106:         takeMeasurement(9);
  3647  0078  3009               	movlw	9
  3648  0079  3192  2214  3180   	fcall	_takeMeasurement
  3649  007C                     l5643:
  3650                           
  3651                           ;main.c: 107:         measarray[row][column] = (unsigned short)(ADRESH << 13) | (unsigne
      +                          d short)(ADRESL << 5);
  3652  007C  0021               	movlb	1	; select bank1
  3653  007D  081B               	movf	27,w	;volatile
  3654  007E  00BD               	movwf	??_measurementBurst^(0+128)
  3655  007F  01BE               	clrf	(??_measurementBurst^(0+128)+1)
  3656  0080  3005               	movlw	5
  3657  0081                     u4655:
  3658  0081  35BD               	lslf	??_measurementBurst^(0+128),f
  3659  0082  0DBE               	rlf	(??_measurementBurst^(0+128)+1),f
  3660  0083  0B89               	decfsz	9,f
  3661  0084  2881               	goto	u4655
  3662  0085  081C               	movf	28,w	;volatile
  3663  0086  00BF               	movwf	(??_measurementBurst+2)^(0+128)
  3664  0087  01C0               	clrf	((??_measurementBurst+2)^(0+128)+1)
  3665  0088  300D               	movlw	13
  3666  0089                     u4665:
  3667  0089  35BF               	lslf	(??_measurementBurst+2)^(0+128),f
  3668  008A  0DC0               	rlf	((??_measurementBurst+2)^(0+128)+1),f
  3669  008B  0B89               	decfsz	9,f
  3670  008C  2889               	goto	u4665
  3671  008D  083D               	movf	??_measurementBurst^(0+128),w
  3672  008E  043F               	iorwf	(??_measurementBurst+2)^(0+128),w
  3673  008F  00C1               	movwf	(??_measurementBurst+4)^(0+128)
  3674  0090  083E               	movf	(??_measurementBurst+1)^(0+128),w
  3675  0091  0440               	iorwf	(??_measurementBurst+3)^(0+128),w
  3676  0092  00C2               	movwf	(??_measurementBurst+5)^(0+128)
  3677  0093  082D               	movf	_column^(0+128),w
  3678  0094  00C3               	movwf	(??_measurementBurst+6)^(0+128)
  3679  0095  01C4               	clrf	((??_measurementBurst+6)^(0+128)+1)
  3680  0096  35C3               	lslf	(??_measurementBurst+6)^(0+128),f
  3681  0097  0DC4               	rlf	((??_measurementBurst+6)^(0+128)+1),f
  3682  0098  082E               	movf	_row^(0+128),w
  3683  0099  00C5               	movwf	(??_measurementBurst+8)^(0+128)
  3684  009A  01C6               	clrf	((??_measurementBurst+8)^(0+128)+1)
  3685  009B  0EC5               	swapf	(??_measurementBurst+8)^(0+128),f
  3686  009C  0EC6               	swapf	((??_measurementBurst+8)^(0+128)+1),f
  3687  009D  30F0               	movlw	240
  3688  009E  05C6               	andwf	((??_measurementBurst+8)^(0+128)+1),f
  3689  009F  0845               	movf	(??_measurementBurst+8)^(0+128),w
  3690  00A0  390F               	andlw	15
  3691  00A1  04C6               	iorwf	((??_measurementBurst+8)^(0+128)+1),f
  3692  00A2  30F0               	movlw	240
  3693  00A3  05C5               	andwf	(??_measurementBurst+8)^(0+128),f
  3694  00A4  3050               	movlw	80
  3695  00A5  00C7               	movwf	(??_measurementBurst+10)^(0+128)
  3696  00A6  3022               	movlw	34
  3697  00A7  00C8               	movwf	((??_measurementBurst+10)^(0+128)+1)
  3698  00A8  0845               	movf	(??_measurementBurst+8)^(0+128),w
  3699  00A9  0747               	addwf	(??_measurementBurst+10)^(0+128),w
  3700  00AA  00C9               	movwf	(??_measurementBurst+12)^(0+128)
  3701  00AB  0846               	movf	(??_measurementBurst+9)^(0+128),w
  3702  00AC  3D48               	addwfc	(??_measurementBurst+11)^(0+128),w
  3703  00AD  00CA               	movwf	(??_measurementBurst+13)^(0+128)
  3704  00AE  0843               	movf	(??_measurementBurst+6)^(0+128),w
  3705  00AF  0749               	addwf	(??_measurementBurst+12)^(0+128),w
  3706  00B0  0086               	movwf	6
  3707  00B1  0844               	movf	(??_measurementBurst+7)^(0+128),w
  3708  00B2  3D4A               	addwfc	(??_measurementBurst+13)^(0+128),w
  3709  00B3  0087               	movwf	7
  3710  00B4  0841               	movf	(??_measurementBurst+4)^(0+128),w
  3711  00B5  3FC0               	movwi [0]fsr1
  3712  00B6  0842               	movf	((??_measurementBurst+4)^(0+128)+1),w
  3713  00B7  3FC1               	movwi [1]fsr1
  3714  00B8                     l5645:
  3715                           
  3716                           ;main.c: 108:         takeMeasurement(8);
  3717  00B8  3008               	movlw	8
  3718  00B9  3192  2214  3180   	fcall	_takeMeasurement
  3719                           
  3720                           ;main.c: 109:         measarray[row][column] |= (unsigned short)(ADRESH << 3);
  3721  00BC  0021               	movlb	1	; select bank1
  3722  00BD  081C               	movf	28,w	;volatile
  3723  00BE  00BD               	movwf	??_measurementBurst^(0+128)
  3724  00BF  01BE               	clrf	(??_measurementBurst^(0+128)+1)
  3725  00C0  35BD               	lslf	??_measurementBurst^(0+128),f
  3726  00C1  0DBE               	rlf	(??_measurementBurst^(0+128)+1),f
  3727  00C2  35BD               	lslf	??_measurementBurst^(0+128),f
  3728  00C3  0DBE               	rlf	(??_measurementBurst^(0+128)+1),f
  3729  00C4  35BD               	lslf	??_measurementBurst^(0+128),f
  3730  00C5  0DBE               	rlf	(??_measurementBurst^(0+128)+1),f
  3731  00C6  082D               	movf	_column^(0+128),w
  3732  00C7  00BF               	movwf	(??_measurementBurst+2)^(0+128)
  3733  00C8  01C0               	clrf	((??_measurementBurst+2)^(0+128)+1)
  3734  00C9  35BF               	lslf	(??_measurementBurst+2)^(0+128),f
  3735  00CA  0DC0               	rlf	((??_measurementBurst+2)^(0+128)+1),f
  3736  00CB  082E               	movf	_row^(0+128),w
  3737  00CC  00C1               	movwf	(??_measurementBurst+4)^(0+128)
  3738  00CD  01C2               	clrf	((??_measurementBurst+4)^(0+128)+1)
  3739  00CE  0EC1               	swapf	(??_measurementBurst+4)^(0+128),f
  3740  00CF  0EC2               	swapf	((??_measurementBurst+4)^(0+128)+1),f
  3741  00D0  30F0               	movlw	240
  3742  00D1  05C2               	andwf	((??_measurementBurst+4)^(0+128)+1),f
  3743  00D2  0841               	movf	(??_measurementBurst+4)^(0+128),w
  3744  00D3  390F               	andlw	15
  3745  00D4  04C2               	iorwf	((??_measurementBurst+4)^(0+128)+1),f
  3746  00D5  30F0               	movlw	240
  3747  00D6  05C1               	andwf	(??_measurementBurst+4)^(0+128),f
  3748  00D7  3050               	movlw	80
  3749  00D8  00C3               	movwf	(??_measurementBurst+6)^(0+128)
  3750  00D9  3022               	movlw	34
  3751  00DA  00C4               	movwf	((??_measurementBurst+6)^(0+128)+1)
  3752  00DB  0841               	movf	(??_measurementBurst+4)^(0+128),w
  3753  00DC  0743               	addwf	(??_measurementBurst+6)^(0+128),w
  3754  00DD  00C5               	movwf	(??_measurementBurst+8)^(0+128)
  3755  00DE  0842               	movf	(??_measurementBurst+5)^(0+128),w
  3756  00DF  3D44               	addwfc	(??_measurementBurst+7)^(0+128),w
  3757  00E0  00C6               	movwf	(??_measurementBurst+9)^(0+128)
  3758  00E1  083F               	movf	(??_measurementBurst+2)^(0+128),w
  3759  00E2  0745               	addwf	(??_measurementBurst+8)^(0+128),w
  3760  00E3  0086               	movwf	6
  3761  00E4  0840               	movf	(??_measurementBurst+3)^(0+128),w
  3762  00E5  3D46               	addwfc	(??_measurementBurst+9)^(0+128),w
  3763  00E6  0087               	movwf	7
  3764  00E7  083D               	movf	??_measurementBurst^(0+128),w
  3765  00E8  0481               	iorwf	1,f
  3766  00E9  3141               	addfsr 1,1
  3767  00EA  083E               	movf	(??_measurementBurst+1)^(0+128),w
  3768  00EB  0481               	iorwf	1,f
  3769                           
  3770                           ;main.c: 110:         measarray[row][column++] |= (unsigned short)(ADRESL >> 5);
  3771  00EC  081B               	movf	27,w	;volatile
  3772  00ED  00BD               	movwf	??_measurementBurst^(0+128)
  3773  00EE  3005               	movlw	5
  3774  00EF                     u4675:
  3775  00EF  36BD               	lsrf	??_measurementBurst^(0+128),f
  3776  00F0  0B89               	decfsz	9,f
  3777  00F1  28EF               	goto	u4675
  3778  00F2  083D               	movf	??_measurementBurst^(0+128),w
  3779  00F3  00BE               	movwf	(??_measurementBurst+1)^(0+128)
  3780  00F4  01BF               	clrf	((??_measurementBurst+1)^(0+128)+1)
  3781  00F5  082D               	movf	_column^(0+128),w
  3782  00F6  00C0               	movwf	(??_measurementBurst+3)^(0+128)
  3783  00F7  01C1               	clrf	((??_measurementBurst+3)^(0+128)+1)
  3784  00F8  35C0               	lslf	(??_measurementBurst+3)^(0+128),f
  3785  00F9  0DC1               	rlf	((??_measurementBurst+3)^(0+128)+1),f
  3786  00FA  082E               	movf	_row^(0+128),w
  3787  00FB  00C2               	movwf	(??_measurementBurst+5)^(0+128)
  3788  00FC  01C3               	clrf	((??_measurementBurst+5)^(0+128)+1)
  3789  00FD  0EC2               	swapf	(??_measurementBurst+5)^(0+128),f
  3790  00FE  0EC3               	swapf	((??_measurementBurst+5)^(0+128)+1),f
  3791  00FF  30F0               	movlw	240
  3792  0100  05C3               	andwf	((??_measurementBurst+5)^(0+128)+1),f
  3793  0101  0842               	movf	(??_measurementBurst+5)^(0+128),w
  3794  0102  390F               	andlw	15
  3795  0103  04C3               	iorwf	((??_measurementBurst+5)^(0+128)+1),f
  3796  0104  30F0               	movlw	240
  3797  0105  05C2               	andwf	(??_measurementBurst+5)^(0+128),f
  3798  0106  3050               	movlw	80
  3799  0107  00C4               	movwf	(??_measurementBurst+7)^(0+128)
  3800  0108  3022               	movlw	34
  3801  0109  00C5               	movwf	((??_measurementBurst+7)^(0+128)+1)
  3802  010A  0842               	movf	(??_measurementBurst+5)^(0+128),w
  3803  010B  0744               	addwf	(??_measurementBurst+7)^(0+128),w
  3804  010C  00C6               	movwf	(??_measurementBurst+9)^(0+128)
  3805  010D  0843               	movf	(??_measurementBurst+6)^(0+128),w
  3806  010E  3D45               	addwfc	(??_measurementBurst+8)^(0+128),w
  3807  010F  00C7               	movwf	(??_measurementBurst+10)^(0+128)
  3808  0110  0840               	movf	(??_measurementBurst+3)^(0+128),w
  3809  0111  0746               	addwf	(??_measurementBurst+9)^(0+128),w
  3810  0112  0086               	movwf	6
  3811  0113  0841               	movf	(??_measurementBurst+4)^(0+128),w
  3812  0114  3D47               	addwfc	(??_measurementBurst+10)^(0+128),w
  3813  0115  0087               	movwf	7
  3814  0116  083E               	movf	(??_measurementBurst+1)^(0+128),w
  3815  0117  0481               	iorwf	1,f
  3816  0118  3141               	addfsr 1,1
  3817  0119  083F               	movf	(??_measurementBurst+2)^(0+128),w
  3818  011A  0481               	iorwf	1,f
  3819  011B                     l5647:
  3820  011B  3001               	movlw	1
  3821  011C  00BD               	movwf	??_measurementBurst^(0+128)
  3822  011D  083D               	movf	??_measurementBurst^(0+128),w
  3823  011E  07AD               	addwf	_column^(0+128),f
  3824  011F                     l5649:
  3825                           
  3826                           ;main.c: 112:         measarray[row][column] = (unsigned short)(ADRESL << 10);
  3827  011F  081B               	movf	27,w	;volatile
  3828  0120  00BD               	movwf	??_measurementBurst^(0+128)
  3829  0121  01BE               	clrf	(??_measurementBurst^(0+128)+1)
  3830  0122  300A               	movlw	10
  3831  0123                     u4685:
  3832  0123  35BD               	lslf	??_measurementBurst^(0+128),f
  3833  0124  0DBE               	rlf	(??_measurementBurst^(0+128)+1),f
  3834  0125  0B89               	decfsz	9,f
  3835  0126  2923               	goto	u4685
  3836  0127  082D               	movf	_column^(0+128),w
  3837  0128  00BF               	movwf	(??_measurementBurst+2)^(0+128)
  3838  0129  01C0               	clrf	((??_measurementBurst+2)^(0+128)+1)
  3839  012A  35BF               	lslf	(??_measurementBurst+2)^(0+128),f
  3840  012B  0DC0               	rlf	((??_measurementBurst+2)^(0+128)+1),f
  3841  012C  082E               	movf	_row^(0+128),w
  3842  012D  00C1               	movwf	(??_measurementBurst+4)^(0+128)
  3843  012E  01C2               	clrf	((??_measurementBurst+4)^(0+128)+1)
  3844  012F  0EC1               	swapf	(??_measurementBurst+4)^(0+128),f
  3845  0130  0EC2               	swapf	((??_measurementBurst+4)^(0+128)+1),f
  3846  0131  30F0               	movlw	240
  3847  0132  05C2               	andwf	((??_measurementBurst+4)^(0+128)+1),f
  3848  0133  0841               	movf	(??_measurementBurst+4)^(0+128),w
  3849  0134  390F               	andlw	15
  3850  0135  04C2               	iorwf	((??_measurementBurst+4)^(0+128)+1),f
  3851  0136  30F0               	movlw	240
  3852  0137  05C1               	andwf	(??_measurementBurst+4)^(0+128),f
  3853  0138  3050               	movlw	80
  3854  0139  00C3               	movwf	(??_measurementBurst+6)^(0+128)
  3855  013A  3022               	movlw	34
  3856  013B  00C4               	movwf	((??_measurementBurst+6)^(0+128)+1)
  3857  013C  0841               	movf	(??_measurementBurst+4)^(0+128),w
  3858  013D  0743               	addwf	(??_measurementBurst+6)^(0+128),w
  3859  013E  00C5               	movwf	(??_measurementBurst+8)^(0+128)
  3860  013F  0842               	movf	(??_measurementBurst+5)^(0+128),w
  3861  0140  3D44               	addwfc	(??_measurementBurst+7)^(0+128),w
  3862  0141  00C6               	movwf	(??_measurementBurst+9)^(0+128)
  3863  0142  083F               	movf	(??_measurementBurst+2)^(0+128),w
  3864  0143  0745               	addwf	(??_measurementBurst+8)^(0+128),w
  3865  0144  0086               	movwf	6
  3866  0145  0840               	movf	(??_measurementBurst+3)^(0+128),w
  3867  0146  3D46               	addwfc	(??_measurementBurst+9)^(0+128),w
  3868  0147  0087               	movwf	7
  3869  0148  083D               	movf	??_measurementBurst^(0+128),w
  3870  0149  3FC0               	movwi [0]fsr1
  3871  014A  083E               	movf	(??_measurementBurst^(0+128)+1),w
  3872  014B  3FC1               	movwi [1]fsr1
  3873  014C                     l5651:
  3874                           
  3875                           ;main.c: 113:         takeMeasurement(7);
  3876  014C  3007               	movlw	7
  3877  014D  3192  2214  3180   	fcall	_takeMeasurement
  3878  0150                     l5653:
  3879                           
  3880                           ;main.c: 114:         measarray[row][column++] |= (unsigned short)(ADRESH << 8) | (unsig
      +                          ned short)ADRESL;
  3881  0150  0021               	movlb	1	; select bank1
  3882  0151  082D               	movf	_column^(0+128),w
  3883  0152  00BD               	movwf	??_measurementBurst^(0+128)
  3884  0153  01BE               	clrf	(??_measurementBurst^(0+128)+1)
  3885  0154  35BD               	lslf	??_measurementBurst^(0+128),f
  3886  0155  0DBE               	rlf	(??_measurementBurst^(0+128)+1),f
  3887  0156  082E               	movf	_row^(0+128),w
  3888  0157  00BF               	movwf	(??_measurementBurst+2)^(0+128)
  3889  0158  01C0               	clrf	((??_measurementBurst+2)^(0+128)+1)
  3890  0159  0EBF               	swapf	(??_measurementBurst+2)^(0+128),f
  3891  015A  0EC0               	swapf	((??_measurementBurst+2)^(0+128)+1),f
  3892  015B  30F0               	movlw	240
  3893  015C  05C0               	andwf	((??_measurementBurst+2)^(0+128)+1),f
  3894  015D  083F               	movf	(??_measurementBurst+2)^(0+128),w
  3895  015E  390F               	andlw	15
  3896  015F  04C0               	iorwf	((??_measurementBurst+2)^(0+128)+1),f
  3897  0160  30F0               	movlw	240
  3898  0161  05BF               	andwf	(??_measurementBurst+2)^(0+128),f
  3899  0162  3050               	movlw	80
  3900  0163  00C1               	movwf	(??_measurementBurst+4)^(0+128)
  3901  0164  3022               	movlw	34
  3902  0165  00C2               	movwf	((??_measurementBurst+4)^(0+128)+1)
  3903  0166  083F               	movf	(??_measurementBurst+2)^(0+128),w
  3904  0167  0741               	addwf	(??_measurementBurst+4)^(0+128),w
  3905  0168  00C3               	movwf	(??_measurementBurst+6)^(0+128)
  3906  0169  0840               	movf	(??_measurementBurst+3)^(0+128),w
  3907  016A  3D42               	addwfc	(??_measurementBurst+5)^(0+128),w
  3908  016B  00C4               	movwf	(??_measurementBurst+7)^(0+128)
  3909  016C  083D               	movf	??_measurementBurst^(0+128),w
  3910  016D  0743               	addwf	(??_measurementBurst+6)^(0+128),w
  3911  016E  0086               	movwf	6
  3912  016F  083E               	movf	(??_measurementBurst+1)^(0+128),w
  3913  0170  3D44               	addwfc	(??_measurementBurst+7)^(0+128),w
  3914  0171  0087               	movwf	7
  3915  0172  081B               	movf	27,w	;volatile
  3916  0173  0481               	iorwf	1,f
  3917  0174  3141               	addfsr 1,1
  3918  0175  081C               	movf	28,w	;volatile
  3919  0176  0481               	iorwf	1,f
  3920  0177                     l5655:
  3921  0177  3001               	movlw	1
  3922  0178  00BD               	movwf	??_measurementBurst^(0+128)
  3923  0179  083D               	movf	??_measurementBurst^(0+128),w
  3924  017A  07AD               	addwf	_column^(0+128),f
  3925  017B                     l5657:
  3926                           
  3927                           ;main.c: 116:         takeMeasurement(6);
  3928  017B  3006               	movlw	6
  3929  017C  3192  2214  3180   	fcall	_takeMeasurement
  3930                           
  3931                           ;main.c: 117:         measarray[row][column] = (unsigned short)(ADRESH << 13) | (unsigne
      +                          d short)(ADRESL << 5);
  3932  017F  0021               	movlb	1	; select bank1
  3933  0180  081B               	movf	27,w	;volatile
  3934  0181  00BD               	movwf	??_measurementBurst^(0+128)
  3935  0182  01BE               	clrf	(??_measurementBurst^(0+128)+1)
  3936  0183  3005               	movlw	5
  3937  0184                     u4695:
  3938  0184  35BD               	lslf	??_measurementBurst^(0+128),f
  3939  0185  0DBE               	rlf	(??_measurementBurst^(0+128)+1),f
  3940  0186  0B89               	decfsz	9,f
  3941  0187  2984               	goto	u4695
  3942  0188  081C               	movf	28,w	;volatile
  3943  0189  00BF               	movwf	(??_measurementBurst+2)^(0+128)
  3944  018A  01C0               	clrf	((??_measurementBurst+2)^(0+128)+1)
  3945  018B  300D               	movlw	13
  3946  018C                     u4705:
  3947  018C  35BF               	lslf	(??_measurementBurst+2)^(0+128),f
  3948  018D  0DC0               	rlf	((??_measurementBurst+2)^(0+128)+1),f
  3949  018E  0B89               	decfsz	9,f
  3950  018F  298C               	goto	u4705
  3951  0190  083D               	movf	??_measurementBurst^(0+128),w
  3952  0191  043F               	iorwf	(??_measurementBurst+2)^(0+128),w
  3953  0192  00C1               	movwf	(??_measurementBurst+4)^(0+128)
  3954  0193  083E               	movf	(??_measurementBurst+1)^(0+128),w
  3955  0194  0440               	iorwf	(??_measurementBurst+3)^(0+128),w
  3956  0195  00C2               	movwf	(??_measurementBurst+5)^(0+128)
  3957  0196  082D               	movf	_column^(0+128),w
  3958  0197  00C3               	movwf	(??_measurementBurst+6)^(0+128)
  3959  0198  01C4               	clrf	((??_measurementBurst+6)^(0+128)+1)
  3960  0199  35C3               	lslf	(??_measurementBurst+6)^(0+128),f
  3961  019A  0DC4               	rlf	((??_measurementBurst+6)^(0+128)+1),f
  3962  019B  082E               	movf	_row^(0+128),w
  3963  019C  00C5               	movwf	(??_measurementBurst+8)^(0+128)
  3964  019D  01C6               	clrf	((??_measurementBurst+8)^(0+128)+1)
  3965  019E  0EC5               	swapf	(??_measurementBurst+8)^(0+128),f
  3966  019F  0EC6               	swapf	((??_measurementBurst+8)^(0+128)+1),f
  3967  01A0  30F0               	movlw	240
  3968  01A1  05C6               	andwf	((??_measurementBurst+8)^(0+128)+1),f
  3969  01A2  0845               	movf	(??_measurementBurst+8)^(0+128),w
  3970  01A3  390F               	andlw	15
  3971  01A4  04C6               	iorwf	((??_measurementBurst+8)^(0+128)+1),f
  3972  01A5  30F0               	movlw	240
  3973  01A6  05C5               	andwf	(??_measurementBurst+8)^(0+128),f
  3974  01A7  3050               	movlw	80
  3975  01A8  00C7               	movwf	(??_measurementBurst+10)^(0+128)
  3976  01A9  3022               	movlw	34
  3977  01AA  00C8               	movwf	((??_measurementBurst+10)^(0+128)+1)
  3978  01AB  0845               	movf	(??_measurementBurst+8)^(0+128),w
  3979  01AC  0747               	addwf	(??_measurementBurst+10)^(0+128),w
  3980  01AD  00C9               	movwf	(??_measurementBurst+12)^(0+128)
  3981  01AE  0846               	movf	(??_measurementBurst+9)^(0+128),w
  3982  01AF  3D48               	addwfc	(??_measurementBurst+11)^(0+128),w
  3983  01B0  00CA               	movwf	(??_measurementBurst+13)^(0+128)
  3984  01B1  0843               	movf	(??_measurementBurst+6)^(0+128),w
  3985  01B2  0749               	addwf	(??_measurementBurst+12)^(0+128),w
  3986  01B3  0086               	movwf	6
  3987  01B4  0844               	movf	(??_measurementBurst+7)^(0+128),w
  3988  01B5  3D4A               	addwfc	(??_measurementBurst+13)^(0+128),w
  3989  01B6  0087               	movwf	7
  3990  01B7  0841               	movf	(??_measurementBurst+4)^(0+128),w
  3991  01B8  3FC0               	movwi [0]fsr1
  3992  01B9  0842               	movf	((??_measurementBurst+4)^(0+128)+1),w
  3993  01BA  3FC1               	movwi [1]fsr1
  3994  01BB                     l5659:
  3995                           
  3996                           ;main.c: 120:     if (measurement_type == 1) {
  3997  01BB  0023               	movlb	3	; select bank3
  3998  01BC  036F               	decf	measurementBurst@measurement_type^(0+384),w
  3999  01BD  1D03               	btfss	3,2
  4000  01BE  29C0               	goto	u4711
  4001  01BF  29C1               	goto	u4710
  4002  01C0                     u4711:
  4003  01C0  2B4B               	goto	l813
  4004  01C1                     u4710:
  4005  01C1                     l5661:
  4006                           
  4007                           ;main.c: 121:         takeMeasurement(9);
  4008  01C1  3009               	movlw	9
  4009  01C2  3192  2214  3180   	fcall	_takeMeasurement
  4010  01C5                     l5663:
  4011                           
  4012                           ;main.c: 122:         measarray[row][column] |= (unsigned short)(ADRESH << 3);
  4013  01C5  0021               	movlb	1	; select bank1
  4014  01C6  081C               	movf	28,w	;volatile
  4015  01C7  00BD               	movwf	??_measurementBurst^(0+128)
  4016  01C8  01BE               	clrf	(??_measurementBurst^(0+128)+1)
  4017  01C9  35BD               	lslf	??_measurementBurst^(0+128),f
  4018  01CA  0DBE               	rlf	(??_measurementBurst^(0+128)+1),f
  4019  01CB  35BD               	lslf	??_measurementBurst^(0+128),f
  4020  01CC  0DBE               	rlf	(??_measurementBurst^(0+128)+1),f
  4021  01CD  35BD               	lslf	??_measurementBurst^(0+128),f
  4022  01CE  0DBE               	rlf	(??_measurementBurst^(0+128)+1),f
  4023  01CF  082D               	movf	_column^(0+128),w
  4024  01D0  00BF               	movwf	(??_measurementBurst+2)^(0+128)
  4025  01D1  01C0               	clrf	((??_measurementBurst+2)^(0+128)+1)
  4026  01D2  35BF               	lslf	(??_measurementBurst+2)^(0+128),f
  4027  01D3  0DC0               	rlf	((??_measurementBurst+2)^(0+128)+1),f
  4028  01D4  082E               	movf	_row^(0+128),w
  4029  01D5  00C1               	movwf	(??_measurementBurst+4)^(0+128)
  4030  01D6  01C2               	clrf	((??_measurementBurst+4)^(0+128)+1)
  4031  01D7  0EC1               	swapf	(??_measurementBurst+4)^(0+128),f
  4032  01D8  0EC2               	swapf	((??_measurementBurst+4)^(0+128)+1),f
  4033  01D9  30F0               	movlw	240
  4034  01DA  05C2               	andwf	((??_measurementBurst+4)^(0+128)+1),f
  4035  01DB  0841               	movf	(??_measurementBurst+4)^(0+128),w
  4036  01DC  390F               	andlw	15
  4037  01DD  04C2               	iorwf	((??_measurementBurst+4)^(0+128)+1),f
  4038  01DE  30F0               	movlw	240
  4039  01DF  05C1               	andwf	(??_measurementBurst+4)^(0+128),f
  4040  01E0  3050               	movlw	80
  4041  01E1  00C3               	movwf	(??_measurementBurst+6)^(0+128)
  4042  01E2  3022               	movlw	34
  4043  01E3  00C4               	movwf	((??_measurementBurst+6)^(0+128)+1)
  4044  01E4  0841               	movf	(??_measurementBurst+4)^(0+128),w
  4045  01E5  0743               	addwf	(??_measurementBurst+6)^(0+128),w
  4046  01E6  00C5               	movwf	(??_measurementBurst+8)^(0+128)
  4047  01E7  0842               	movf	(??_measurementBurst+5)^(0+128),w
  4048  01E8  3D44               	addwfc	(??_measurementBurst+7)^(0+128),w
  4049  01E9  00C6               	movwf	(??_measurementBurst+9)^(0+128)
  4050  01EA  083F               	movf	(??_measurementBurst+2)^(0+128),w
  4051  01EB  0745               	addwf	(??_measurementBurst+8)^(0+128),w
  4052  01EC  0086               	movwf	6
  4053  01ED  0840               	movf	(??_measurementBurst+3)^(0+128),w
  4054  01EE  3D46               	addwfc	(??_measurementBurst+9)^(0+128),w
  4055  01EF  0087               	movwf	7
  4056  01F0  083D               	movf	??_measurementBurst^(0+128),w
  4057  01F1  0481               	iorwf	1,f
  4058  01F2  3141               	addfsr 1,1
  4059  01F3  083E               	movf	(??_measurementBurst+1)^(0+128),w
  4060  01F4  0481               	iorwf	1,f
  4061  01F5                     l5665:
  4062                           
  4063                           ;main.c: 123:         measarray[row][column++] |= (unsigned short)(ADRESL >> 5);
  4064  01F5  081B               	movf	27,w	;volatile
  4065  01F6  00BD               	movwf	??_measurementBurst^(0+128)
  4066  01F7  3005               	movlw	5
  4067  01F8                     u4725:
  4068  01F8  36BD               	lsrf	??_measurementBurst^(0+128),f
  4069  01F9  0B89               	decfsz	9,f
  4070  01FA  29F8               	goto	u4725
  4071  01FB  083D               	movf	??_measurementBurst^(0+128),w
  4072  01FC  00BE               	movwf	(??_measurementBurst+1)^(0+128)
  4073  01FD  01BF               	clrf	((??_measurementBurst+1)^(0+128)+1)
  4074  01FE  082D               	movf	_column^(0+128),w
  4075  01FF  00C0               	movwf	(??_measurementBurst+3)^(0+128)
  4076  0200  01C1               	clrf	((??_measurementBurst+3)^(0+128)+1)
  4077  0201  35C0               	lslf	(??_measurementBurst+3)^(0+128),f
  4078  0202  0DC1               	rlf	((??_measurementBurst+3)^(0+128)+1),f
  4079  0203  082E               	movf	_row^(0+128),w
  4080  0204  00C2               	movwf	(??_measurementBurst+5)^(0+128)
  4081  0205  01C3               	clrf	((??_measurementBurst+5)^(0+128)+1)
  4082  0206  0EC2               	swapf	(??_measurementBurst+5)^(0+128),f
  4083  0207  0EC3               	swapf	((??_measurementBurst+5)^(0+128)+1),f
  4084  0208  30F0               	movlw	240
  4085  0209  05C3               	andwf	((??_measurementBurst+5)^(0+128)+1),f
  4086  020A  0842               	movf	(??_measurementBurst+5)^(0+128),w
  4087  020B  390F               	andlw	15
  4088  020C  04C3               	iorwf	((??_measurementBurst+5)^(0+128)+1),f
  4089  020D  30F0               	movlw	240
  4090  020E  05C2               	andwf	(??_measurementBurst+5)^(0+128),f
  4091  020F  3050               	movlw	80
  4092  0210  00C4               	movwf	(??_measurementBurst+7)^(0+128)
  4093  0211  3022               	movlw	34
  4094  0212  00C5               	movwf	((??_measurementBurst+7)^(0+128)+1)
  4095  0213  0842               	movf	(??_measurementBurst+5)^(0+128),w
  4096  0214  0744               	addwf	(??_measurementBurst+7)^(0+128),w
  4097  0215  00C6               	movwf	(??_measurementBurst+9)^(0+128)
  4098  0216  0843               	movf	(??_measurementBurst+6)^(0+128),w
  4099  0217  3D45               	addwfc	(??_measurementBurst+8)^(0+128),w
  4100  0218  00C7               	movwf	(??_measurementBurst+10)^(0+128)
  4101  0219  0840               	movf	(??_measurementBurst+3)^(0+128),w
  4102  021A  0746               	addwf	(??_measurementBurst+9)^(0+128),w
  4103  021B  0086               	movwf	6
  4104  021C  0841               	movf	(??_measurementBurst+4)^(0+128),w
  4105  021D  3D47               	addwfc	(??_measurementBurst+10)^(0+128),w
  4106  021E  0087               	movwf	7
  4107  021F  083E               	movf	(??_measurementBurst+1)^(0+128),w
  4108  0220  0481               	iorwf	1,f
  4109  0221  3141               	addfsr 1,1
  4110  0222  083F               	movf	(??_measurementBurst+2)^(0+128),w
  4111  0223  0481               	iorwf	1,f
  4112  0224                     l5667:
  4113  0224  3001               	movlw	1
  4114  0225  00BD               	movwf	??_measurementBurst^(0+128)
  4115  0226  083D               	movf	??_measurementBurst^(0+128),w
  4116  0227  07AD               	addwf	_column^(0+128),f
  4117  0228                     l5669:
  4118                           
  4119                           ;main.c: 125:         measarray[row][column] = (unsigned short)(ADRESL << 10);
  4120  0228  081B               	movf	27,w	;volatile
  4121  0229  00BD               	movwf	??_measurementBurst^(0+128)
  4122  022A  01BE               	clrf	(??_measurementBurst^(0+128)+1)
  4123  022B  300A               	movlw	10
  4124  022C                     u4735:
  4125  022C  35BD               	lslf	??_measurementBurst^(0+128),f
  4126  022D  0DBE               	rlf	(??_measurementBurst^(0+128)+1),f
  4127  022E  0B89               	decfsz	9,f
  4128  022F  2A2C               	goto	u4735
  4129  0230  082D               	movf	_column^(0+128),w
  4130  0231  00BF               	movwf	(??_measurementBurst+2)^(0+128)
  4131  0232  01C0               	clrf	((??_measurementBurst+2)^(0+128)+1)
  4132  0233  35BF               	lslf	(??_measurementBurst+2)^(0+128),f
  4133  0234  0DC0               	rlf	((??_measurementBurst+2)^(0+128)+1),f
  4134  0235  082E               	movf	_row^(0+128),w
  4135  0236  00C1               	movwf	(??_measurementBurst+4)^(0+128)
  4136  0237  01C2               	clrf	((??_measurementBurst+4)^(0+128)+1)
  4137  0238  0EC1               	swapf	(??_measurementBurst+4)^(0+128),f
  4138  0239  0EC2               	swapf	((??_measurementBurst+4)^(0+128)+1),f
  4139  023A  30F0               	movlw	240
  4140  023B  05C2               	andwf	((??_measurementBurst+4)^(0+128)+1),f
  4141  023C  0841               	movf	(??_measurementBurst+4)^(0+128),w
  4142  023D  390F               	andlw	15
  4143  023E  04C2               	iorwf	((??_measurementBurst+4)^(0+128)+1),f
  4144  023F  30F0               	movlw	240
  4145  0240  05C1               	andwf	(??_measurementBurst+4)^(0+128),f
  4146  0241  3050               	movlw	80
  4147  0242  00C3               	movwf	(??_measurementBurst+6)^(0+128)
  4148  0243  3022               	movlw	34
  4149  0244  00C4               	movwf	((??_measurementBurst+6)^(0+128)+1)
  4150  0245  0841               	movf	(??_measurementBurst+4)^(0+128),w
  4151  0246  0743               	addwf	(??_measurementBurst+6)^(0+128),w
  4152  0247  00C5               	movwf	(??_measurementBurst+8)^(0+128)
  4153  0248  0842               	movf	(??_measurementBurst+5)^(0+128),w
  4154  0249  3D44               	addwfc	(??_measurementBurst+7)^(0+128),w
  4155  024A  00C6               	movwf	(??_measurementBurst+9)^(0+128)
  4156  024B  083F               	movf	(??_measurementBurst+2)^(0+128),w
  4157  024C  0745               	addwf	(??_measurementBurst+8)^(0+128),w
  4158  024D  0086               	movwf	6
  4159  024E  0840               	movf	(??_measurementBurst+3)^(0+128),w
  4160  024F  3D46               	addwfc	(??_measurementBurst+9)^(0+128),w
  4161  0250  0087               	movwf	7
  4162  0251  083D               	movf	??_measurementBurst^(0+128),w
  4163  0252  3FC0               	movwi [0]fsr1
  4164  0253  083E               	movf	(??_measurementBurst^(0+128)+1),w
  4165  0254  3FC1               	movwi [1]fsr1
  4166  0255                     l5671:
  4167                           
  4168                           ;main.c: 126:         takeMeasurement(8);
  4169  0255  3008               	movlw	8
  4170  0256  3192  2214  3180   	fcall	_takeMeasurement
  4171  0259                     l5673:
  4172                           
  4173                           ;main.c: 127:         measarray[row][column++] |= (unsigned short)(ADRESH << 8) | (unsig
      +                          ned short)ADRESL;
  4174  0259  0021               	movlb	1	; select bank1
  4175  025A  082D               	movf	_column^(0+128),w
  4176  025B  00BD               	movwf	??_measurementBurst^(0+128)
  4177  025C  01BE               	clrf	(??_measurementBurst^(0+128)+1)
  4178  025D  35BD               	lslf	??_measurementBurst^(0+128),f
  4179  025E  0DBE               	rlf	(??_measurementBurst^(0+128)+1),f
  4180  025F  082E               	movf	_row^(0+128),w
  4181  0260  00BF               	movwf	(??_measurementBurst+2)^(0+128)
  4182  0261  01C0               	clrf	((??_measurementBurst+2)^(0+128)+1)
  4183  0262  0EBF               	swapf	(??_measurementBurst+2)^(0+128),f
  4184  0263  0EC0               	swapf	((??_measurementBurst+2)^(0+128)+1),f
  4185  0264  30F0               	movlw	240
  4186  0265  05C0               	andwf	((??_measurementBurst+2)^(0+128)+1),f
  4187  0266  083F               	movf	(??_measurementBurst+2)^(0+128),w
  4188  0267  390F               	andlw	15
  4189  0268  04C0               	iorwf	((??_measurementBurst+2)^(0+128)+1),f
  4190  0269  30F0               	movlw	240
  4191  026A  05BF               	andwf	(??_measurementBurst+2)^(0+128),f
  4192  026B  3050               	movlw	80
  4193  026C  00C1               	movwf	(??_measurementBurst+4)^(0+128)
  4194  026D  3022               	movlw	34
  4195  026E  00C2               	movwf	((??_measurementBurst+4)^(0+128)+1)
  4196  026F  083F               	movf	(??_measurementBurst+2)^(0+128),w
  4197  0270  0741               	addwf	(??_measurementBurst+4)^(0+128),w
  4198  0271  00C3               	movwf	(??_measurementBurst+6)^(0+128)
  4199  0272  0840               	movf	(??_measurementBurst+3)^(0+128),w
  4200  0273  3D42               	addwfc	(??_measurementBurst+5)^(0+128),w
  4201  0274  00C4               	movwf	(??_measurementBurst+7)^(0+128)
  4202  0275  083D               	movf	??_measurementBurst^(0+128),w
  4203  0276  0743               	addwf	(??_measurementBurst+6)^(0+128),w
  4204  0277  0086               	movwf	6
  4205  0278  083E               	movf	(??_measurementBurst+1)^(0+128),w
  4206  0279  3D44               	addwfc	(??_measurementBurst+7)^(0+128),w
  4207  027A  0087               	movwf	7
  4208  027B  081B               	movf	27,w	;volatile
  4209  027C  0481               	iorwf	1,f
  4210  027D  3141               	addfsr 1,1
  4211  027E  081C               	movf	28,w	;volatile
  4212  027F  0481               	iorwf	1,f
  4213  0280  3001               	movlw	1
  4214  0281  00BD               	movwf	??_measurementBurst^(0+128)
  4215  0282  083D               	movf	??_measurementBurst^(0+128),w
  4216  0283  07AD               	addwf	_column^(0+128),f
  4217  0284                     l5675:
  4218                           
  4219                           ;main.c: 129:         takeMeasurement(7);
  4220  0284  3007               	movlw	7
  4221  0285  3192  2214  3180   	fcall	_takeMeasurement
  4222  0288                     l5677:
  4223                           
  4224                           ;main.c: 130:         measarray[row][column] = (unsigned short)(ADRESH << 13);
  4225  0288  0021               	movlb	1	; select bank1
  4226  0289  081C               	movf	28,w	;volatile
  4227  028A  00BD               	movwf	??_measurementBurst^(0+128)
  4228  028B  01BE               	clrf	(??_measurementBurst^(0+128)+1)
  4229  028C  300D               	movlw	13
  4230  028D                     u4745:
  4231  028D  35BD               	lslf	??_measurementBurst^(0+128),f
  4232  028E  0DBE               	rlf	(??_measurementBurst^(0+128)+1),f
  4233  028F  0B89               	decfsz	9,f
  4234  0290  2A8D               	goto	u4745
  4235  0291  082D               	movf	_column^(0+128),w
  4236  0292  00BF               	movwf	(??_measurementBurst+2)^(0+128)
  4237  0293  01C0               	clrf	((??_measurementBurst+2)^(0+128)+1)
  4238  0294  35BF               	lslf	(??_measurementBurst+2)^(0+128),f
  4239  0295  0DC0               	rlf	((??_measurementBurst+2)^(0+128)+1),f
  4240  0296  082E               	movf	_row^(0+128),w
  4241  0297  00C1               	movwf	(??_measurementBurst+4)^(0+128)
  4242  0298  01C2               	clrf	((??_measurementBurst+4)^(0+128)+1)
  4243  0299  0EC1               	swapf	(??_measurementBurst+4)^(0+128),f
  4244  029A  0EC2               	swapf	((??_measurementBurst+4)^(0+128)+1),f
  4245  029B  30F0               	movlw	240
  4246  029C  05C2               	andwf	((??_measurementBurst+4)^(0+128)+1),f
  4247  029D  0841               	movf	(??_measurementBurst+4)^(0+128),w
  4248  029E  390F               	andlw	15
  4249  029F  04C2               	iorwf	((??_measurementBurst+4)^(0+128)+1),f
  4250  02A0  30F0               	movlw	240
  4251  02A1  05C1               	andwf	(??_measurementBurst+4)^(0+128),f
  4252  02A2  3050               	movlw	80
  4253  02A3  00C3               	movwf	(??_measurementBurst+6)^(0+128)
  4254  02A4  3022               	movlw	34
  4255  02A5  00C4               	movwf	((??_measurementBurst+6)^(0+128)+1)
  4256  02A6  0841               	movf	(??_measurementBurst+4)^(0+128),w
  4257  02A7  0743               	addwf	(??_measurementBurst+6)^(0+128),w
  4258  02A8  00C5               	movwf	(??_measurementBurst+8)^(0+128)
  4259  02A9  0842               	movf	(??_measurementBurst+5)^(0+128),w
  4260  02AA  3D44               	addwfc	(??_measurementBurst+7)^(0+128),w
  4261  02AB  00C6               	movwf	(??_measurementBurst+9)^(0+128)
  4262  02AC  083F               	movf	(??_measurementBurst+2)^(0+128),w
  4263  02AD  0745               	addwf	(??_measurementBurst+8)^(0+128),w
  4264  02AE  0086               	movwf	6
  4265  02AF  0840               	movf	(??_measurementBurst+3)^(0+128),w
  4266  02B0  3D46               	addwfc	(??_measurementBurst+9)^(0+128),w
  4267  02B1  0087               	movwf	7
  4268  02B2  083D               	movf	??_measurementBurst^(0+128),w
  4269  02B3  3FC0               	movwi [0]fsr1
  4270  02B4  083E               	movf	(??_measurementBurst^(0+128)+1),w
  4271  02B5  3FC1               	movwi [1]fsr1
  4272  02B6                     l5679:
  4273                           
  4274                           ;main.c: 131:         measarray[row][column] |= (unsigned short)(ADRESL << 5);
  4275  02B6  081B               	movf	27,w	;volatile
  4276  02B7  00BD               	movwf	??_measurementBurst^(0+128)
  4277  02B8  01BE               	clrf	(??_measurementBurst^(0+128)+1)
  4278  02B9  3005               	movlw	5
  4279  02BA                     u4755:
  4280  02BA  35BD               	lslf	??_measurementBurst^(0+128),f
  4281  02BB  0DBE               	rlf	(??_measurementBurst^(0+128)+1),f
  4282  02BC  0B89               	decfsz	9,f
  4283  02BD  2ABA               	goto	u4755
  4284  02BE  082D               	movf	_column^(0+128),w
  4285  02BF  00BF               	movwf	(??_measurementBurst+2)^(0+128)
  4286  02C0  01C0               	clrf	((??_measurementBurst+2)^(0+128)+1)
  4287  02C1  35BF               	lslf	(??_measurementBurst+2)^(0+128),f
  4288  02C2  0DC0               	rlf	((??_measurementBurst+2)^(0+128)+1),f
  4289  02C3  082E               	movf	_row^(0+128),w
  4290  02C4  00C1               	movwf	(??_measurementBurst+4)^(0+128)
  4291  02C5  01C2               	clrf	((??_measurementBurst+4)^(0+128)+1)
  4292  02C6  0EC1               	swapf	(??_measurementBurst+4)^(0+128),f
  4293  02C7  0EC2               	swapf	((??_measurementBurst+4)^(0+128)+1),f
  4294  02C8  30F0               	movlw	240
  4295  02C9  05C2               	andwf	((??_measurementBurst+4)^(0+128)+1),f
  4296  02CA  0841               	movf	(??_measurementBurst+4)^(0+128),w
  4297  02CB  390F               	andlw	15
  4298  02CC  04C2               	iorwf	((??_measurementBurst+4)^(0+128)+1),f
  4299  02CD  30F0               	movlw	240
  4300  02CE  05C1               	andwf	(??_measurementBurst+4)^(0+128),f
  4301  02CF  3050               	movlw	80
  4302  02D0  00C3               	movwf	(??_measurementBurst+6)^(0+128)
  4303  02D1  3022               	movlw	34
  4304  02D2  00C4               	movwf	((??_measurementBurst+6)^(0+128)+1)
  4305  02D3  0841               	movf	(??_measurementBurst+4)^(0+128),w
  4306  02D4  0743               	addwf	(??_measurementBurst+6)^(0+128),w
  4307  02D5  00C5               	movwf	(??_measurementBurst+8)^(0+128)
  4308  02D6  0842               	movf	(??_measurementBurst+5)^(0+128),w
  4309  02D7  3D44               	addwfc	(??_measurementBurst+7)^(0+128),w
  4310  02D8  00C6               	movwf	(??_measurementBurst+9)^(0+128)
  4311  02D9  083F               	movf	(??_measurementBurst+2)^(0+128),w
  4312  02DA  0745               	addwf	(??_measurementBurst+8)^(0+128),w
  4313  02DB  0086               	movwf	6
  4314  02DC  0840               	movf	(??_measurementBurst+3)^(0+128),w
  4315  02DD  3D46               	addwfc	(??_measurementBurst+9)^(0+128),w
  4316  02DE  0087               	movwf	7
  4317  02DF  083D               	movf	??_measurementBurst^(0+128),w
  4318  02E0  0481               	iorwf	1,f
  4319  02E1  3141               	addfsr 1,1
  4320  02E2  083E               	movf	(??_measurementBurst+1)^(0+128),w
  4321  02E3  0481               	iorwf	1,f
  4322  02E4                     l5681:
  4323                           
  4324                           ;main.c: 132:         takeMeasurement(6);
  4325  02E4  3006               	movlw	6
  4326  02E5  3192  2214  3180   	fcall	_takeMeasurement
  4327  02E8                     l5683:
  4328                           
  4329                           ;main.c: 133:         measarray[row][column] |= (unsigned short)(ADRESH << 3);
  4330  02E8  0021               	movlb	1	; select bank1
  4331  02E9  081C               	movf	28,w	;volatile
  4332  02EA  00BD               	movwf	??_measurementBurst^(0+128)
  4333  02EB  01BE               	clrf	(??_measurementBurst^(0+128)+1)
  4334  02EC  35BD               	lslf	??_measurementBurst^(0+128),f
  4335  02ED  0DBE               	rlf	(??_measurementBurst^(0+128)+1),f
  4336  02EE  35BD               	lslf	??_measurementBurst^(0+128),f
  4337  02EF  0DBE               	rlf	(??_measurementBurst^(0+128)+1),f
  4338  02F0  35BD               	lslf	??_measurementBurst^(0+128),f
  4339  02F1  0DBE               	rlf	(??_measurementBurst^(0+128)+1),f
  4340  02F2  082D               	movf	_column^(0+128),w
  4341  02F3  00BF               	movwf	(??_measurementBurst+2)^(0+128)
  4342  02F4  01C0               	clrf	((??_measurementBurst+2)^(0+128)+1)
  4343  02F5  35BF               	lslf	(??_measurementBurst+2)^(0+128),f
  4344  02F6  0DC0               	rlf	((??_measurementBurst+2)^(0+128)+1),f
  4345  02F7  082E               	movf	_row^(0+128),w
  4346  02F8  00C1               	movwf	(??_measurementBurst+4)^(0+128)
  4347  02F9  01C2               	clrf	((??_measurementBurst+4)^(0+128)+1)
  4348  02FA  0EC1               	swapf	(??_measurementBurst+4)^(0+128),f
  4349  02FB  0EC2               	swapf	((??_measurementBurst+4)^(0+128)+1),f
  4350  02FC  30F0               	movlw	240
  4351  02FD  05C2               	andwf	((??_measurementBurst+4)^(0+128)+1),f
  4352  02FE  0841               	movf	(??_measurementBurst+4)^(0+128),w
  4353  02FF  390F               	andlw	15
  4354  0300  04C2               	iorwf	((??_measurementBurst+4)^(0+128)+1),f
  4355  0301  30F0               	movlw	240
  4356  0302  05C1               	andwf	(??_measurementBurst+4)^(0+128),f
  4357  0303  3050               	movlw	80
  4358  0304  00C3               	movwf	(??_measurementBurst+6)^(0+128)
  4359  0305  3022               	movlw	34
  4360  0306  00C4               	movwf	((??_measurementBurst+6)^(0+128)+1)
  4361  0307  0841               	movf	(??_measurementBurst+4)^(0+128),w
  4362  0308  0743               	addwf	(??_measurementBurst+6)^(0+128),w
  4363  0309  00C5               	movwf	(??_measurementBurst+8)^(0+128)
  4364  030A  0842               	movf	(??_measurementBurst+5)^(0+128),w
  4365  030B  3D44               	addwfc	(??_measurementBurst+7)^(0+128),w
  4366  030C  00C6               	movwf	(??_measurementBurst+9)^(0+128)
  4367  030D  083F               	movf	(??_measurementBurst+2)^(0+128),w
  4368  030E  0745               	addwf	(??_measurementBurst+8)^(0+128),w
  4369  030F  0086               	movwf	6
  4370  0310  0840               	movf	(??_measurementBurst+3)^(0+128),w
  4371  0311  3D46               	addwfc	(??_measurementBurst+9)^(0+128),w
  4372  0312  0087               	movwf	7
  4373  0313  083D               	movf	??_measurementBurst^(0+128),w
  4374  0314  0481               	iorwf	1,f
  4375  0315  3141               	addfsr 1,1
  4376  0316  083E               	movf	(??_measurementBurst+1)^(0+128),w
  4377  0317  0481               	iorwf	1,f
  4378  0318                     l5685:
  4379                           
  4380                           ;main.c: 134:         measarray[row][column++] |= (unsigned short)(ADRESL >> 5);
  4381  0318  081B               	movf	27,w	;volatile
  4382  0319  00BD               	movwf	??_measurementBurst^(0+128)
  4383  031A  3005               	movlw	5
  4384  031B                     u4765:
  4385  031B  36BD               	lsrf	??_measurementBurst^(0+128),f
  4386  031C  0B89               	decfsz	9,f
  4387  031D  2B1B               	goto	u4765
  4388  031E  083D               	movf	??_measurementBurst^(0+128),w
  4389  031F  00BE               	movwf	(??_measurementBurst+1)^(0+128)
  4390  0320  01BF               	clrf	((??_measurementBurst+1)^(0+128)+1)
  4391  0321  082D               	movf	_column^(0+128),w
  4392  0322  00C0               	movwf	(??_measurementBurst+3)^(0+128)
  4393  0323  01C1               	clrf	((??_measurementBurst+3)^(0+128)+1)
  4394  0324  35C0               	lslf	(??_measurementBurst+3)^(0+128),f
  4395  0325  0DC1               	rlf	((??_measurementBurst+3)^(0+128)+1),f
  4396  0326  082E               	movf	_row^(0+128),w
  4397  0327  00C2               	movwf	(??_measurementBurst+5)^(0+128)
  4398  0328  01C3               	clrf	((??_measurementBurst+5)^(0+128)+1)
  4399  0329  0EC2               	swapf	(??_measurementBurst+5)^(0+128),f
  4400  032A  0EC3               	swapf	((??_measurementBurst+5)^(0+128)+1),f
  4401  032B  30F0               	movlw	240
  4402  032C  05C3               	andwf	((??_measurementBurst+5)^(0+128)+1),f
  4403  032D  0842               	movf	(??_measurementBurst+5)^(0+128),w
  4404  032E  390F               	andlw	15
  4405  032F  04C3               	iorwf	((??_measurementBurst+5)^(0+128)+1),f
  4406  0330  30F0               	movlw	240
  4407  0331  05C2               	andwf	(??_measurementBurst+5)^(0+128),f
  4408  0332  3050               	movlw	80
  4409  0333  00C4               	movwf	(??_measurementBurst+7)^(0+128)
  4410  0334  3022               	movlw	34
  4411  0335  00C5               	movwf	((??_measurementBurst+7)^(0+128)+1)
  4412  0336  0842               	movf	(??_measurementBurst+5)^(0+128),w
  4413  0337  0744               	addwf	(??_measurementBurst+7)^(0+128),w
  4414  0338  00C6               	movwf	(??_measurementBurst+9)^(0+128)
  4415  0339  0843               	movf	(??_measurementBurst+6)^(0+128),w
  4416  033A  3D45               	addwfc	(??_measurementBurst+8)^(0+128),w
  4417  033B  00C7               	movwf	(??_measurementBurst+10)^(0+128)
  4418  033C  0840               	movf	(??_measurementBurst+3)^(0+128),w
  4419  033D  0746               	addwf	(??_measurementBurst+9)^(0+128),w
  4420  033E  0086               	movwf	6
  4421  033F  0841               	movf	(??_measurementBurst+4)^(0+128),w
  4422  0340  3D47               	addwfc	(??_measurementBurst+10)^(0+128),w
  4423  0341  0087               	movwf	7
  4424  0342  083E               	movf	(??_measurementBurst+1)^(0+128),w
  4425  0343  0481               	iorwf	1,f
  4426  0344  3141               	addfsr 1,1
  4427  0345  083F               	movf	(??_measurementBurst+2)^(0+128),w
  4428  0346  0481               	iorwf	1,f
  4429  0347  3001               	movlw	1
  4430  0348  00BD               	movwf	??_measurementBurst^(0+128)
  4431  0349  083D               	movf	??_measurementBurst^(0+128),w
  4432  034A  07AD               	addwf	_column^(0+128),f
  4433  034B                     l813:	
  4434                           ;main.c: 136:     }
  4435                           
  4436                           
  4437                           ;main.c: 137:     if (measurement_type == 3) {
  4438  034B  3003               	movlw	3
  4439  034C  0023               	movlb	3	; select bank3
  4440  034D  066F               	xorwf	measurementBurst@measurement_type^(0+384),w
  4441  034E  1D03               	btfss	3,2
  4442  034F  2B51               	goto	u4771
  4443  0350  2B52               	goto	u4770
  4444  0351                     u4771:
  4445  0351  2D01               	goto	l815
  4446  0352                     u4770:
  4447  0352                     l5687:
  4448                           
  4449                           ;main.c: 138:         measarray[row][column] = (unsigned short)(ADRESL << 10);
  4450  0352  0021               	movlb	1	; select bank1
  4451  0353  081B               	movf	27,w	;volatile
  4452  0354  00BD               	movwf	??_measurementBurst^(0+128)
  4453  0355  01BE               	clrf	(??_measurementBurst^(0+128)+1)
  4454  0356  300A               	movlw	10
  4455  0357                     u4785:
  4456  0357  35BD               	lslf	??_measurementBurst^(0+128),f
  4457  0358  0DBE               	rlf	(??_measurementBurst^(0+128)+1),f
  4458  0359  0B89               	decfsz	9,f
  4459  035A  2B57               	goto	u4785
  4460  035B  082D               	movf	_column^(0+128),w
  4461  035C  00BF               	movwf	(??_measurementBurst+2)^(0+128)
  4462  035D  01C0               	clrf	((??_measurementBurst+2)^(0+128)+1)
  4463  035E  35BF               	lslf	(??_measurementBurst+2)^(0+128),f
  4464  035F  0DC0               	rlf	((??_measurementBurst+2)^(0+128)+1),f
  4465  0360  082E               	movf	_row^(0+128),w
  4466  0361  00C1               	movwf	(??_measurementBurst+4)^(0+128)
  4467  0362  01C2               	clrf	((??_measurementBurst+4)^(0+128)+1)
  4468  0363  0EC1               	swapf	(??_measurementBurst+4)^(0+128),f
  4469  0364  0EC2               	swapf	((??_measurementBurst+4)^(0+128)+1),f
  4470  0365  30F0               	movlw	240
  4471  0366  05C2               	andwf	((??_measurementBurst+4)^(0+128)+1),f
  4472  0367  0841               	movf	(??_measurementBurst+4)^(0+128),w
  4473  0368  390F               	andlw	15
  4474  0369  04C2               	iorwf	((??_measurementBurst+4)^(0+128)+1),f
  4475  036A  30F0               	movlw	240
  4476  036B  05C1               	andwf	(??_measurementBurst+4)^(0+128),f
  4477  036C  3050               	movlw	80
  4478  036D  00C3               	movwf	(??_measurementBurst+6)^(0+128)
  4479  036E  3022               	movlw	34
  4480  036F  00C4               	movwf	((??_measurementBurst+6)^(0+128)+1)
  4481  0370  0841               	movf	(??_measurementBurst+4)^(0+128),w
  4482  0371  0743               	addwf	(??_measurementBurst+6)^(0+128),w
  4483  0372  00C5               	movwf	(??_measurementBurst+8)^(0+128)
  4484  0373  0842               	movf	(??_measurementBurst+5)^(0+128),w
  4485  0374  3D44               	addwfc	(??_measurementBurst+7)^(0+128),w
  4486  0375  00C6               	movwf	(??_measurementBurst+9)^(0+128)
  4487  0376  083F               	movf	(??_measurementBurst+2)^(0+128),w
  4488  0377  0745               	addwf	(??_measurementBurst+8)^(0+128),w
  4489  0378  0086               	movwf	6
  4490  0379  0840               	movf	(??_measurementBurst+3)^(0+128),w
  4491  037A  3D46               	addwfc	(??_measurementBurst+9)^(0+128),w
  4492  037B  0087               	movwf	7
  4493  037C  083D               	movf	??_measurementBurst^(0+128),w
  4494  037D  3FC0               	movwi [0]fsr1
  4495  037E  083E               	movf	(??_measurementBurst^(0+128)+1),w
  4496  037F  3FC1               	movwi [1]fsr1
  4497  0380                     l5689:
  4498                           
  4499                           ;main.c: 139:         takeMeasurement(9);
  4500  0380  3009               	movlw	9
  4501  0381  3192  2214  3180   	fcall	_takeMeasurement
  4502  0384                     l5691:
  4503                           
  4504                           ;main.c: 140:         measarray[row][column] |= (unsigned short)(ADRESH << 8);
  4505  0384  0021               	movlb	1	; select bank1
  4506  0385  081C               	movf	28,w	;volatile
  4507  0386  00BD               	movwf	??_measurementBurst^(0+128)
  4508  0387  01BE               	clrf	(??_measurementBurst^(0+128)+1)
  4509  0388  083D               	movf	??_measurementBurst^(0+128),w
  4510  0389  00BE               	movwf	(??_measurementBurst^(0+128)+1)
  4511  038A  01BD               	clrf	??_measurementBurst^(0+128)
  4512  038B  082D               	movf	_column^(0+128),w
  4513  038C  00C0               	movwf	(??_measurementBurst+3)^(0+128)
  4514  038D  01C1               	clrf	((??_measurementBurst+3)^(0+128)+1)
  4515  038E  35C0               	lslf	(??_measurementBurst+3)^(0+128),f
  4516  038F  0DC1               	rlf	((??_measurementBurst+3)^(0+128)+1),f
  4517  0390  082E               	movf	_row^(0+128),w
  4518  0391  00C2               	movwf	(??_measurementBurst+5)^(0+128)
  4519  0392  01C3               	clrf	((??_measurementBurst+5)^(0+128)+1)
  4520  0393  0EC2               	swapf	(??_measurementBurst+5)^(0+128),f
  4521  0394  0EC3               	swapf	((??_measurementBurst+5)^(0+128)+1),f
  4522  0395  30F0               	movlw	240
  4523  0396  05C3               	andwf	((??_measurementBurst+5)^(0+128)+1),f
  4524  0397  0842               	movf	(??_measurementBurst+5)^(0+128),w
  4525  0398  390F               	andlw	15
  4526  0399  04C3               	iorwf	((??_measurementBurst+5)^(0+128)+1),f
  4527  039A  30F0               	movlw	240
  4528  039B  05C2               	andwf	(??_measurementBurst+5)^(0+128),f
  4529  039C  3050               	movlw	80
  4530  039D  00C4               	movwf	(??_measurementBurst+7)^(0+128)
  4531  039E  3022               	movlw	34
  4532  039F  00C5               	movwf	((??_measurementBurst+7)^(0+128)+1)
  4533  03A0  0842               	movf	(??_measurementBurst+5)^(0+128),w
  4534  03A1  0744               	addwf	(??_measurementBurst+7)^(0+128),w
  4535  03A2  00C6               	movwf	(??_measurementBurst+9)^(0+128)
  4536  03A3  0843               	movf	(??_measurementBurst+6)^(0+128),w
  4537  03A4  3D45               	addwfc	(??_measurementBurst+8)^(0+128),w
  4538  03A5  00C7               	movwf	(??_measurementBurst+10)^(0+128)
  4539  03A6  0840               	movf	(??_measurementBurst+3)^(0+128),w
  4540  03A7  0746               	addwf	(??_measurementBurst+9)^(0+128),w
  4541  03A8  0086               	movwf	6
  4542  03A9  0841               	movf	(??_measurementBurst+4)^(0+128),w
  4543  03AA  3D47               	addwfc	(??_measurementBurst+10)^(0+128),w
  4544  03AB  0087               	movwf	7
  4545  03AC  083D               	movf	??_measurementBurst^(0+128),w
  4546  03AD  0481               	iorwf	1,f
  4547  03AE  3141               	addfsr 1,1
  4548  03AF  083E               	movf	(??_measurementBurst+1)^(0+128),w
  4549  03B0  0481               	iorwf	1,f
  4550  03B1                     l5693:
  4551                           
  4552                           ;main.c: 141:         measarray[row][column++] |= (unsigned short)(ADRESL);
  4553  03B1  081B               	movf	27,w	;volatile
  4554  03B2  00BD               	movwf	??_measurementBurst^(0+128)
  4555  03B3  01BE               	clrf	(??_measurementBurst^(0+128)+1)
  4556  03B4  082D               	movf	_column^(0+128),w
  4557  03B5  00BF               	movwf	(??_measurementBurst+2)^(0+128)
  4558  03B6  01C0               	clrf	((??_measurementBurst+2)^(0+128)+1)
  4559  03B7  35BF               	lslf	(??_measurementBurst+2)^(0+128),f
  4560  03B8  0DC0               	rlf	((??_measurementBurst+2)^(0+128)+1),f
  4561  03B9  082E               	movf	_row^(0+128),w
  4562  03BA  00C1               	movwf	(??_measurementBurst+4)^(0+128)
  4563  03BB  01C2               	clrf	((??_measurementBurst+4)^(0+128)+1)
  4564  03BC  0EC1               	swapf	(??_measurementBurst+4)^(0+128),f
  4565  03BD  0EC2               	swapf	((??_measurementBurst+4)^(0+128)+1),f
  4566  03BE  30F0               	movlw	240
  4567  03BF  05C2               	andwf	((??_measurementBurst+4)^(0+128)+1),f
  4568  03C0  0841               	movf	(??_measurementBurst+4)^(0+128),w
  4569  03C1  390F               	andlw	15
  4570  03C2  04C2               	iorwf	((??_measurementBurst+4)^(0+128)+1),f
  4571  03C3  30F0               	movlw	240
  4572  03C4  05C1               	andwf	(??_measurementBurst+4)^(0+128),f
  4573  03C5  3050               	movlw	80
  4574  03C6  00C3               	movwf	(??_measurementBurst+6)^(0+128)
  4575  03C7  3022               	movlw	34
  4576  03C8  00C4               	movwf	((??_measurementBurst+6)^(0+128)+1)
  4577  03C9  0841               	movf	(??_measurementBurst+4)^(0+128),w
  4578  03CA  0743               	addwf	(??_measurementBurst+6)^(0+128),w
  4579  03CB  00C5               	movwf	(??_measurementBurst+8)^(0+128)
  4580  03CC  0842               	movf	(??_measurementBurst+5)^(0+128),w
  4581  03CD  3D44               	addwfc	(??_measurementBurst+7)^(0+128),w
  4582  03CE  00C6               	movwf	(??_measurementBurst+9)^(0+128)
  4583  03CF  083F               	movf	(??_measurementBurst+2)^(0+128),w
  4584  03D0  0745               	addwf	(??_measurementBurst+8)^(0+128),w
  4585  03D1  0086               	movwf	6
  4586  03D2  0840               	movf	(??_measurementBurst+3)^(0+128),w
  4587  03D3  3D46               	addwfc	(??_measurementBurst+9)^(0+128),w
  4588  03D4  0087               	movwf	7
  4589  03D5  083D               	movf	??_measurementBurst^(0+128),w
  4590  03D6  0481               	iorwf	1,f
  4591  03D7  3141               	addfsr 1,1
  4592  03D8  083E               	movf	(??_measurementBurst+1)^(0+128),w
  4593  03D9  0481               	iorwf	1,f
  4594  03DA                     l5695:
  4595  03DA  3001               	movlw	1
  4596  03DB  00BD               	movwf	??_measurementBurst^(0+128)
  4597  03DC  083D               	movf	??_measurementBurst^(0+128),w
  4598  03DD  07AD               	addwf	_column^(0+128),f
  4599  03DE                     l5697:
  4600                           
  4601                           ;main.c: 143:         takeMeasurement(8);
  4602  03DE  3008               	movlw	8
  4603  03DF  3192  2214  3180   	fcall	_takeMeasurement
  4604  03E2                     l5699:
  4605                           
  4606                           ;main.c: 144:         measarray[row][column] = (unsigned short)(ADRESH << 13);
  4607  03E2  0021               	movlb	1	; select bank1
  4608  03E3  081C               	movf	28,w	;volatile
  4609  03E4  00BD               	movwf	??_measurementBurst^(0+128)
  4610  03E5  01BE               	clrf	(??_measurementBurst^(0+128)+1)
  4611  03E6  300D               	movlw	13
  4612  03E7                     u4795:
  4613  03E7  35BD               	lslf	??_measurementBurst^(0+128),f
  4614  03E8  0DBE               	rlf	(??_measurementBurst^(0+128)+1),f
  4615  03E9  0B89               	decfsz	9,f
  4616  03EA  2BE7               	goto	u4795
  4617  03EB  082D               	movf	_column^(0+128),w
  4618  03EC  00BF               	movwf	(??_measurementBurst+2)^(0+128)
  4619  03ED  01C0               	clrf	((??_measurementBurst+2)^(0+128)+1)
  4620  03EE  35BF               	lslf	(??_measurementBurst+2)^(0+128),f
  4621  03EF  0DC0               	rlf	((??_measurementBurst+2)^(0+128)+1),f
  4622  03F0  082E               	movf	_row^(0+128),w
  4623  03F1  00C1               	movwf	(??_measurementBurst+4)^(0+128)
  4624  03F2  01C2               	clrf	((??_measurementBurst+4)^(0+128)+1)
  4625  03F3  0EC1               	swapf	(??_measurementBurst+4)^(0+128),f
  4626  03F4  0EC2               	swapf	((??_measurementBurst+4)^(0+128)+1),f
  4627  03F5  30F0               	movlw	240
  4628  03F6  05C2               	andwf	((??_measurementBurst+4)^(0+128)+1),f
  4629  03F7  0841               	movf	(??_measurementBurst+4)^(0+128),w
  4630  03F8  390F               	andlw	15
  4631  03F9  04C2               	iorwf	((??_measurementBurst+4)^(0+128)+1),f
  4632  03FA  30F0               	movlw	240
  4633  03FB  05C1               	andwf	(??_measurementBurst+4)^(0+128),f
  4634  03FC  3050               	movlw	80
  4635  03FD  00C3               	movwf	(??_measurementBurst+6)^(0+128)
  4636  03FE  3022               	movlw	34
  4637  03FF  00C4               	movwf	((??_measurementBurst+6)^(0+128)+1)
  4638  0400  0841               	movf	(??_measurementBurst+4)^(0+128),w
  4639  0401  0743               	addwf	(??_measurementBurst+6)^(0+128),w
  4640  0402  00C5               	movwf	(??_measurementBurst+8)^(0+128)
  4641  0403  0842               	movf	(??_measurementBurst+5)^(0+128),w
  4642  0404  3D44               	addwfc	(??_measurementBurst+7)^(0+128),w
  4643  0405  00C6               	movwf	(??_measurementBurst+9)^(0+128)
  4644  0406  083F               	movf	(??_measurementBurst+2)^(0+128),w
  4645  0407  0745               	addwf	(??_measurementBurst+8)^(0+128),w
  4646  0408  0086               	movwf	6
  4647  0409  0840               	movf	(??_measurementBurst+3)^(0+128),w
  4648  040A  3D46               	addwfc	(??_measurementBurst+9)^(0+128),w
  4649  040B  0087               	movwf	7
  4650  040C  083D               	movf	??_measurementBurst^(0+128),w
  4651  040D  3FC0               	movwi [0]fsr1
  4652  040E  083E               	movf	(??_measurementBurst^(0+128)+1),w
  4653  040F  3FC1               	movwi [1]fsr1
  4654  0410                     l5701:
  4655                           
  4656                           ;main.c: 145:         measarray[row][column] = (unsigned short)(ADRESL << 5);
  4657  0410  081B               	movf	27,w	;volatile
  4658  0411  00BD               	movwf	??_measurementBurst^(0+128)
  4659  0412  01BE               	clrf	(??_measurementBurst^(0+128)+1)
  4660  0413  3005               	movlw	5
  4661  0414                     u4805:
  4662  0414  35BD               	lslf	??_measurementBurst^(0+128),f
  4663  0415  0DBE               	rlf	(??_measurementBurst^(0+128)+1),f
  4664  0416  0B89               	decfsz	9,f
  4665  0417  2C14               	goto	u4805
  4666  0418  082D               	movf	_column^(0+128),w
  4667  0419  00BF               	movwf	(??_measurementBurst+2)^(0+128)
  4668  041A  01C0               	clrf	((??_measurementBurst+2)^(0+128)+1)
  4669  041B  35BF               	lslf	(??_measurementBurst+2)^(0+128),f
  4670  041C  0DC0               	rlf	((??_measurementBurst+2)^(0+128)+1),f
  4671  041D  082E               	movf	_row^(0+128),w
  4672  041E  00C1               	movwf	(??_measurementBurst+4)^(0+128)
  4673  041F  01C2               	clrf	((??_measurementBurst+4)^(0+128)+1)
  4674  0420  0EC1               	swapf	(??_measurementBurst+4)^(0+128),f
  4675  0421  0EC2               	swapf	((??_measurementBurst+4)^(0+128)+1),f
  4676  0422  30F0               	movlw	240
  4677  0423  05C2               	andwf	((??_measurementBurst+4)^(0+128)+1),f
  4678  0424  0841               	movf	(??_measurementBurst+4)^(0+128),w
  4679  0425  390F               	andlw	15
  4680  0426  04C2               	iorwf	((??_measurementBurst+4)^(0+128)+1),f
  4681  0427  30F0               	movlw	240
  4682  0428  05C1               	andwf	(??_measurementBurst+4)^(0+128),f
  4683  0429  3050               	movlw	80
  4684  042A  00C3               	movwf	(??_measurementBurst+6)^(0+128)
  4685  042B  3022               	movlw	34
  4686  042C  00C4               	movwf	((??_measurementBurst+6)^(0+128)+1)
  4687  042D  0841               	movf	(??_measurementBurst+4)^(0+128),w
  4688  042E  0743               	addwf	(??_measurementBurst+6)^(0+128),w
  4689  042F  00C5               	movwf	(??_measurementBurst+8)^(0+128)
  4690  0430  0842               	movf	(??_measurementBurst+5)^(0+128),w
  4691  0431  3D44               	addwfc	(??_measurementBurst+7)^(0+128),w
  4692  0432  00C6               	movwf	(??_measurementBurst+9)^(0+128)
  4693  0433  083F               	movf	(??_measurementBurst+2)^(0+128),w
  4694  0434  0745               	addwf	(??_measurementBurst+8)^(0+128),w
  4695  0435  0086               	movwf	6
  4696  0436  0840               	movf	(??_measurementBurst+3)^(0+128),w
  4697  0437  3D46               	addwfc	(??_measurementBurst+9)^(0+128),w
  4698  0438  0087               	movwf	7
  4699  0439  083D               	movf	??_measurementBurst^(0+128),w
  4700  043A  3FC0               	movwi [0]fsr1
  4701  043B  083E               	movf	(??_measurementBurst^(0+128)+1),w
  4702  043C  3FC1               	movwi [1]fsr1
  4703  043D                     l5703:
  4704                           
  4705                           ;main.c: 147:         takeMeasurement(7);
  4706  043D  3007               	movlw	7
  4707  043E  3192  2214  3180   	fcall	_takeMeasurement
  4708  0441                     l5705:
  4709                           
  4710                           ;main.c: 148:         measarray[row][column] |= (unsigned short)(ADRESH << 3);
  4711  0441  0021               	movlb	1	; select bank1
  4712  0442  081C               	movf	28,w	;volatile
  4713  0443  00BD               	movwf	??_measurementBurst^(0+128)
  4714  0444  01BE               	clrf	(??_measurementBurst^(0+128)+1)
  4715  0445  35BD               	lslf	??_measurementBurst^(0+128),f
  4716  0446  0DBE               	rlf	(??_measurementBurst^(0+128)+1),f
  4717  0447  35BD               	lslf	??_measurementBurst^(0+128),f
  4718  0448  0DBE               	rlf	(??_measurementBurst^(0+128)+1),f
  4719  0449  35BD               	lslf	??_measurementBurst^(0+128),f
  4720  044A  0DBE               	rlf	(??_measurementBurst^(0+128)+1),f
  4721  044B  082D               	movf	_column^(0+128),w
  4722  044C  00BF               	movwf	(??_measurementBurst+2)^(0+128)
  4723  044D  01C0               	clrf	((??_measurementBurst+2)^(0+128)+1)
  4724  044E  35BF               	lslf	(??_measurementBurst+2)^(0+128),f
  4725  044F  0DC0               	rlf	((??_measurementBurst+2)^(0+128)+1),f
  4726  0450  082E               	movf	_row^(0+128),w
  4727  0451  00C1               	movwf	(??_measurementBurst+4)^(0+128)
  4728  0452  01C2               	clrf	((??_measurementBurst+4)^(0+128)+1)
  4729  0453  0EC1               	swapf	(??_measurementBurst+4)^(0+128),f
  4730  0454  0EC2               	swapf	((??_measurementBurst+4)^(0+128)+1),f
  4731  0455  30F0               	movlw	240
  4732  0456  05C2               	andwf	((??_measurementBurst+4)^(0+128)+1),f
  4733  0457  0841               	movf	(??_measurementBurst+4)^(0+128),w
  4734  0458  390F               	andlw	15
  4735  0459  04C2               	iorwf	((??_measurementBurst+4)^(0+128)+1),f
  4736  045A  30F0               	movlw	240
  4737  045B  05C1               	andwf	(??_measurementBurst+4)^(0+128),f
  4738  045C  3050               	movlw	80
  4739  045D  00C3               	movwf	(??_measurementBurst+6)^(0+128)
  4740  045E  3022               	movlw	34
  4741  045F  00C4               	movwf	((??_measurementBurst+6)^(0+128)+1)
  4742  0460  0841               	movf	(??_measurementBurst+4)^(0+128),w
  4743  0461  0743               	addwf	(??_measurementBurst+6)^(0+128),w
  4744  0462  00C5               	movwf	(??_measurementBurst+8)^(0+128)
  4745  0463  0842               	movf	(??_measurementBurst+5)^(0+128),w
  4746  0464  3D44               	addwfc	(??_measurementBurst+7)^(0+128),w
  4747  0465  00C6               	movwf	(??_measurementBurst+9)^(0+128)
  4748  0466  083F               	movf	(??_measurementBurst+2)^(0+128),w
  4749  0467  0745               	addwf	(??_measurementBurst+8)^(0+128),w
  4750  0468  0086               	movwf	6
  4751  0469  0840               	movf	(??_measurementBurst+3)^(0+128),w
  4752  046A  3D46               	addwfc	(??_measurementBurst+9)^(0+128),w
  4753  046B  0087               	movwf	7
  4754  046C  083D               	movf	??_measurementBurst^(0+128),w
  4755  046D  0481               	iorwf	1,f
  4756  046E  3141               	addfsr 1,1
  4757  046F  083E               	movf	(??_measurementBurst+1)^(0+128),w
  4758  0470  0481               	iorwf	1,f
  4759  0471                     l5707:
  4760                           
  4761                           ;main.c: 149:         measarray[row][column++] |= (unsigned short)(ADRESL >> 5);
  4762  0471  081B               	movf	27,w	;volatile
  4763  0472  00BD               	movwf	??_measurementBurst^(0+128)
  4764  0473  3005               	movlw	5
  4765  0474                     u4815:
  4766  0474  36BD               	lsrf	??_measurementBurst^(0+128),f
  4767  0475  0B89               	decfsz	9,f
  4768  0476  2C74               	goto	u4815
  4769  0477  083D               	movf	??_measurementBurst^(0+128),w
  4770  0478  00BE               	movwf	(??_measurementBurst+1)^(0+128)
  4771  0479  01BF               	clrf	((??_measurementBurst+1)^(0+128)+1)
  4772  047A  082D               	movf	_column^(0+128),w
  4773  047B  00C0               	movwf	(??_measurementBurst+3)^(0+128)
  4774  047C  01C1               	clrf	((??_measurementBurst+3)^(0+128)+1)
  4775  047D  35C0               	lslf	(??_measurementBurst+3)^(0+128),f
  4776  047E  0DC1               	rlf	((??_measurementBurst+3)^(0+128)+1),f
  4777  047F  082E               	movf	_row^(0+128),w
  4778  0480  00C2               	movwf	(??_measurementBurst+5)^(0+128)
  4779  0481  01C3               	clrf	((??_measurementBurst+5)^(0+128)+1)
  4780  0482  0EC2               	swapf	(??_measurementBurst+5)^(0+128),f
  4781  0483  0EC3               	swapf	((??_measurementBurst+5)^(0+128)+1),f
  4782  0484  30F0               	movlw	240
  4783  0485  05C3               	andwf	((??_measurementBurst+5)^(0+128)+1),f
  4784  0486  0842               	movf	(??_measurementBurst+5)^(0+128),w
  4785  0487  390F               	andlw	15
  4786  0488  04C3               	iorwf	((??_measurementBurst+5)^(0+128)+1),f
  4787  0489  30F0               	movlw	240
  4788  048A  05C2               	andwf	(??_measurementBurst+5)^(0+128),f
  4789  048B  3050               	movlw	80
  4790  048C  00C4               	movwf	(??_measurementBurst+7)^(0+128)
  4791  048D  3022               	movlw	34
  4792  048E  00C5               	movwf	((??_measurementBurst+7)^(0+128)+1)
  4793  048F  0842               	movf	(??_measurementBurst+5)^(0+128),w
  4794  0490  0744               	addwf	(??_measurementBurst+7)^(0+128),w
  4795  0491  00C6               	movwf	(??_measurementBurst+9)^(0+128)
  4796  0492  0843               	movf	(??_measurementBurst+6)^(0+128),w
  4797  0493  3D45               	addwfc	(??_measurementBurst+8)^(0+128),w
  4798  0494  00C7               	movwf	(??_measurementBurst+10)^(0+128)
  4799  0495  0840               	movf	(??_measurementBurst+3)^(0+128),w
  4800  0496  0746               	addwf	(??_measurementBurst+9)^(0+128),w
  4801  0497  0086               	movwf	6
  4802  0498  0841               	movf	(??_measurementBurst+4)^(0+128),w
  4803  0499  3D47               	addwfc	(??_measurementBurst+10)^(0+128),w
  4804  049A  0087               	movwf	7
  4805  049B  083E               	movf	(??_measurementBurst+1)^(0+128),w
  4806  049C  0481               	iorwf	1,f
  4807  049D  3141               	addfsr 1,1
  4808  049E  083F               	movf	(??_measurementBurst+2)^(0+128),w
  4809  049F  0481               	iorwf	1,f
  4810  04A0                     l5709:
  4811  04A0  3001               	movlw	1
  4812  04A1  00BD               	movwf	??_measurementBurst^(0+128)
  4813  04A2  083D               	movf	??_measurementBurst^(0+128),w
  4814  04A3  07AD               	addwf	_column^(0+128),f
  4815  04A4                     l5711:
  4816                           
  4817                           ;main.c: 151:         measarray[row][column] = (unsigned short)(ADRESL << 10);
  4818  04A4  081B               	movf	27,w	;volatile
  4819  04A5  00BD               	movwf	??_measurementBurst^(0+128)
  4820  04A6  01BE               	clrf	(??_measurementBurst^(0+128)+1)
  4821  04A7  300A               	movlw	10
  4822  04A8                     u4825:
  4823  04A8  35BD               	lslf	??_measurementBurst^(0+128),f
  4824  04A9  0DBE               	rlf	(??_measurementBurst^(0+128)+1),f
  4825  04AA  0B89               	decfsz	9,f
  4826  04AB  2CA8               	goto	u4825
  4827  04AC  082D               	movf	_column^(0+128),w
  4828  04AD  00BF               	movwf	(??_measurementBurst+2)^(0+128)
  4829  04AE  01C0               	clrf	((??_measurementBurst+2)^(0+128)+1)
  4830  04AF  35BF               	lslf	(??_measurementBurst+2)^(0+128),f
  4831  04B0  0DC0               	rlf	((??_measurementBurst+2)^(0+128)+1),f
  4832  04B1  082E               	movf	_row^(0+128),w
  4833  04B2  00C1               	movwf	(??_measurementBurst+4)^(0+128)
  4834  04B3  01C2               	clrf	((??_measurementBurst+4)^(0+128)+1)
  4835  04B4  0EC1               	swapf	(??_measurementBurst+4)^(0+128),f
  4836  04B5  0EC2               	swapf	((??_measurementBurst+4)^(0+128)+1),f
  4837  04B6  30F0               	movlw	240
  4838  04B7  05C2               	andwf	((??_measurementBurst+4)^(0+128)+1),f
  4839  04B8  0841               	movf	(??_measurementBurst+4)^(0+128),w
  4840  04B9  390F               	andlw	15
  4841  04BA  04C2               	iorwf	((??_measurementBurst+4)^(0+128)+1),f
  4842  04BB  30F0               	movlw	240
  4843  04BC  05C1               	andwf	(??_measurementBurst+4)^(0+128),f
  4844  04BD  3050               	movlw	80
  4845  04BE  00C3               	movwf	(??_measurementBurst+6)^(0+128)
  4846  04BF  3022               	movlw	34
  4847  04C0  00C4               	movwf	((??_measurementBurst+6)^(0+128)+1)
  4848  04C1  0841               	movf	(??_measurementBurst+4)^(0+128),w
  4849  04C2  0743               	addwf	(??_measurementBurst+6)^(0+128),w
  4850  04C3  00C5               	movwf	(??_measurementBurst+8)^(0+128)
  4851  04C4  0842               	movf	(??_measurementBurst+5)^(0+128),w
  4852  04C5  3D44               	addwfc	(??_measurementBurst+7)^(0+128),w
  4853  04C6  00C6               	movwf	(??_measurementBurst+9)^(0+128)
  4854  04C7  083F               	movf	(??_measurementBurst+2)^(0+128),w
  4855  04C8  0745               	addwf	(??_measurementBurst+8)^(0+128),w
  4856  04C9  0086               	movwf	6
  4857  04CA  0840               	movf	(??_measurementBurst+3)^(0+128),w
  4858  04CB  3D46               	addwfc	(??_measurementBurst+9)^(0+128),w
  4859  04CC  0087               	movwf	7
  4860  04CD  083D               	movf	??_measurementBurst^(0+128),w
  4861  04CE  3FC0               	movwi [0]fsr1
  4862  04CF  083E               	movf	(??_measurementBurst^(0+128)+1),w
  4863  04D0  3FC1               	movwi [1]fsr1
  4864                           
  4865                           ;main.c: 152:         takeMeasurement(6);
  4866  04D1  3006               	movlw	6
  4867  04D2  3192  2214  3180   	fcall	_takeMeasurement
  4868  04D5                     l5713:
  4869                           
  4870                           ;main.c: 153:         measarray[row++][column] = (unsigned short)(ADRESH << 8) | (unsign
      +                          ed short)ADRESL;
  4871  04D5  0021               	movlb	1	; select bank1
  4872  04D6  082D               	movf	_column^(0+128),w
  4873  04D7  00BD               	movwf	??_measurementBurst^(0+128)
  4874  04D8  01BE               	clrf	(??_measurementBurst^(0+128)+1)
  4875  04D9  35BD               	lslf	??_measurementBurst^(0+128),f
  4876  04DA  0DBE               	rlf	(??_measurementBurst^(0+128)+1),f
  4877  04DB  082E               	movf	_row^(0+128),w
  4878  04DC  00BF               	movwf	(??_measurementBurst+2)^(0+128)
  4879  04DD  01C0               	clrf	((??_measurementBurst+2)^(0+128)+1)
  4880  04DE  0EBF               	swapf	(??_measurementBurst+2)^(0+128),f
  4881  04DF  0EC0               	swapf	((??_measurementBurst+2)^(0+128)+1),f
  4882  04E0  30F0               	movlw	240
  4883  04E1  05C0               	andwf	((??_measurementBurst+2)^(0+128)+1),f
  4884  04E2  083F               	movf	(??_measurementBurst+2)^(0+128),w
  4885  04E3  390F               	andlw	15
  4886  04E4  04C0               	iorwf	((??_measurementBurst+2)^(0+128)+1),f
  4887  04E5  30F0               	movlw	240
  4888  04E6  05BF               	andwf	(??_measurementBurst+2)^(0+128),f
  4889  04E7  3050               	movlw	80
  4890  04E8  00C1               	movwf	(??_measurementBurst+4)^(0+128)
  4891  04E9  3022               	movlw	34
  4892  04EA  00C2               	movwf	((??_measurementBurst+4)^(0+128)+1)
  4893  04EB  083F               	movf	(??_measurementBurst+2)^(0+128),w
  4894  04EC  0741               	addwf	(??_measurementBurst+4)^(0+128),w
  4895  04ED  00C3               	movwf	(??_measurementBurst+6)^(0+128)
  4896  04EE  0840               	movf	(??_measurementBurst+3)^(0+128),w
  4897  04EF  3D42               	addwfc	(??_measurementBurst+5)^(0+128),w
  4898  04F0  00C4               	movwf	(??_measurementBurst+7)^(0+128)
  4899  04F1  083D               	movf	??_measurementBurst^(0+128),w
  4900  04F2  0743               	addwf	(??_measurementBurst+6)^(0+128),w
  4901  04F3  0086               	movwf	6
  4902  04F4  083E               	movf	(??_measurementBurst+1)^(0+128),w
  4903  04F5  3D44               	addwfc	(??_measurementBurst+7)^(0+128),w
  4904  04F6  0087               	movwf	7
  4905  04F7  081B               	movf	27,w	;volatile
  4906  04F8  3FC0               	movwi [0]fsr1
  4907  04F9  081C               	movf	28,w	;volatile
  4908  04FA  3FC1               	movwi [1]fsr1
  4909  04FB                     l5715:
  4910  04FB  3001               	movlw	1
  4911  04FC  00BD               	movwf	??_measurementBurst^(0+128)
  4912  04FD  083D               	movf	??_measurementBurst^(0+128),w
  4913  04FE  07AE               	addwf	_row^(0+128),f
  4914  04FF                     l5717:
  4915                           
  4916                           ;main.c: 154:         column = 0;
  4917  04FF  01AD               	clrf	_column^(0+128)
  4918  0500                     l5719:
  4919                           
  4920                           ;main.c: 155:         ADCON0bits.ADON = 0;
  4921  0500  101D               	bcf	29,0	;volatile
  4922  0501                     l815:
  4923  0501  0008               	return
  4924  0502                     __end_of_measurementBurst:
  4925                           
  4926                           	psect	text2
  4927  1214                     __ptext2:	
  4928 ;; *************** function _takeMeasurement *****************
  4929 ;; Defined at:
  4930 ;;		line 96 in file "main.c"
  4931 ;; Parameters:    Size  Location     Type
  4932 ;;  channel         1    wreg     unsigned char 
  4933 ;; Auto vars:     Size  Location     Type
  4934 ;;  channel         1    6[BANK1 ] unsigned char 
  4935 ;; Return value:  Size  Location     Type
  4936 ;;                  1    wreg      void 
  4937 ;; Registers used:
  4938 ;;		wreg, status,2, status,0
  4939 ;; Tracked objects:
  4940 ;;		On entry : 0/0
  4941 ;;		On exit  : 0/0
  4942 ;;		Unchanged: 0/0
  4943 ;; Data sizes:     COMMON   BANK0   BANK1   BANK2   BANK3   BANK4   BANK5   BANK6   BANK7   BANK8   BANK9  BANK10  BANK1
      +1  BANK12
  4944 ;;      Params:         0       0       0       0       0       0       0       0       0       0       0       0       
      +0       0
  4945 ;;      Locals:         0       0       1       0       0       0       0       0       0       0       0       0       
      +0       0
  4946 ;;      Temps:          0       0       1       0       0       0       0       0       0       0       0       0       
      +0       0
  4947 ;;      Totals:         0       0       2       0       0       0       0       0       0       0       0       0       
      +0       0
  4948 ;;Total ram usage:        2 bytes
  4949 ;; Hardware stack levels used:    1
  4950 ;; Hardware stack levels required when called:   10
  4951 ;; This function calls:
  4952 ;;		Nothing
  4953 ;; This function is called by:
  4954 ;;		_measurementBurst
  4955 ;; This function uses a non-reentrant model
  4956 ;;
  4957                           
  4958                           
  4959                           ;psect for function _takeMeasurement
  4960  1214                     _takeMeasurement:
  4961                           
  4962                           ;incstack = 0
  4963                           ; Regs used in _takeMeasurement: [wreg+status,2+status,0]
  4964                           ;takeMeasurement@channel stored from wreg
  4965  1214  0021               	movlb	1	; select bank1
  4966  1215  00BC               	movwf	takeMeasurement@channel^(0+128)
  4967  1216                     l5523:
  4968                           
  4969                           ;main.c: 97:     ADCON0bits.CHS = channel;
  4970  1216  083C               	movf	takeMeasurement@channel^(0+128),w
  4971  1217  00BB               	movwf	??_takeMeasurement^(0+128)
  4972  1218  0DBB               	rlf	??_takeMeasurement^(0+128),f
  4973  1219  0DBB               	rlf	??_takeMeasurement^(0+128),f
  4974  121A  081D               	movf	29,w	;volatile
  4975  121B  063B               	xorwf	??_takeMeasurement^(0+128),w
  4976  121C  3983               	andlw	-125
  4977  121D  063B               	xorwf	??_takeMeasurement^(0+128),w
  4978  121E  009D               	movwf	29	;volatile
  4979  121F                     l5525:
  4980                           
  4981                           ;main.c: 98:     ADCON0bits.ADON = 1;
  4982  121F  141D               	bsf	29,0	;volatile
  4983  1220                     l5527:
  4984                           
  4985                           ;main.c: 99:     ADCON0bits.ADGO = 1;
  4986  1220  149D               	bsf	29,1	;volatile
  4987  1221                     l806:	
  4988                           ;main.c: 100:     while (ADCON0bits.GO_nDONE);
  4989                           
  4990  1221  189D               	btfsc	29,1	;volatile
  4991  1222  2A24               	goto	u4391
  4992  1223  2A25               	goto	u4390
  4993  1224                     u4391:
  4994  1224  2A21               	goto	l806
  4995  1225                     u4390:
  4996  1225                     l808:
  4997                           
  4998                           ;main.c: 101:     ADCON0bits.ADON = 0;
  4999  1225  101D               	bcf	29,0	;volatile
  5000  1226                     l809:
  5001  1226  0008               	return
  5002  1227                     __end_of_takeMeasurement:
  5003                           
  5004                           	psect	text3
  5005  0D54                     __ptext3:	
  5006 ;; *************** function _eeprom_storeBurstGroup *****************
  5007 ;; Defined at:
  5008 ;;		line 130 in file "24aa32a.c"
  5009 ;; Parameters:    Size  Location     Type
  5010 ;;  address         2    6[BANK1 ] unsigned short 
  5011 ;;  data            2    8[BANK1 ] PTR unsigned short [8]
  5012 ;;		 -> measarray(416), 
  5013 ;; Auto vars:     Size  Location     Type
  5014 ;;  column          1    4[BANK4 ] unsigned char 
  5015 ;;  row             1    3[BANK4 ] unsigned char 
  5016 ;;  addresslsb      1    1[BANK4 ] unsigned char 
  5017 ;;  addressmsb      1    0[BANK4 ] unsigned char 
  5018 ;;  pagewritten     1    2[BANK4 ] unsigned char 
  5019 ;; Return value:  Size  Location     Type
  5020 ;;                  1    wreg      void 
  5021 ;; Registers used:
  5022 ;;		wreg, fsr1l, fsr1h, status,2, status,0, pclath, cstack
  5023 ;; Tracked objects:
  5024 ;;		On entry : 0/0
  5025 ;;		On exit  : 0/0
  5026 ;;		Unchanged: 0/0
  5027 ;; Data sizes:     COMMON   BANK0   BANK1   BANK2   BANK3   BANK4   BANK5   BANK6   BANK7   BANK8   BANK9  BANK10  BANK1
      +1  BANK12
  5028 ;;      Params:         0       0       4       0       0       0       0       0       0       0       0       0       
      +0       0
  5029 ;;      Locals:         0       0       0       0       0       5       0       0       0       0       0       0       
      +0       0
  5030 ;;      Temps:          0       0      10       0       0       0       0       0       0       0       0       0       
      +0       0
  5031 ;;      Totals:         0       0      14       0       0       5       0       0       0       0       0       0       
      +0       0
  5032 ;;Total ram usage:       19 bytes
  5033 ;; Hardware stack levels used:    1
  5034 ;; Hardware stack levels required when called:   13
  5035 ;; This function calls:
  5036 ;;		_ACK_Poll
  5037 ;;		_I2C_MasterStart
  5038 ;;		_I2C_MasterStop
  5039 ;;		_I2C_MasterWrite
  5040 ;; This function is called by:
  5041 ;;		_main
  5042 ;; This function uses a non-reentrant model
  5043 ;;
  5044                           
  5045                           
  5046                           ;psect for function _eeprom_storeBurstGroup
  5047  0D54                     _eeprom_storeBurstGroup:
  5048  0D54                     l5721:	
  5049                           ;incstack = 0
  5050                           ; Regs used in _eeprom_storeBurstGroup: [wreg+fsr1l+fsr1h+status,2+status,0+pclath+cstac
      +                          k]
  5051                           
  5052  0D54  301F               	movlw	31
  5053  0D55  0021               	movlb	1	; select bank1
  5054  0D56  053C               	andwf	eeprom_storeBurstGroup@address^(0+128),w
  5055  0D57  00C0               	movwf	??_eeprom_storeBurstGroup^(0+128)
  5056  0D58  3000               	movlw	0
  5057  0D59  053D               	andwf	(eeprom_storeBurstGroup@address+1)^(0+128),w
  5058  0D5A  00C1               	movwf	(??_eeprom_storeBurstGroup+1)^(0+128)
  5059  0D5B  0840               	movf	??_eeprom_storeBurstGroup^(0+128),w
  5060  0D5C  0441               	iorwf	(??_eeprom_storeBurstGroup^(0+128)+1),w
  5061  0D5D  1903               	btfsc	3,2
  5062  0D5E  2D60               	goto	u4831
  5063  0D5F  2D61               	goto	u4830
  5064  0D60                     u4831:
  5065  0D60  2D62               	goto	l5725
  5066  0D61                     u4830:
  5067  0D61  2E15               	goto	l903
  5068  0D62                     l5725:
  5069  0D62  0024               	movlb	4	; select bank4
  5070  0D63  01C5               	clrf	eeprom_storeBurstGroup@pagewritten^(0+512)
  5071  0D64                     l5731:
  5072  0D64  0021               	movlb	1	; select bank1
  5073  0D65  083D               	movf	(eeprom_storeBurstGroup@address+1)^(0+128),w
  5074  0D66  00C0               	movwf	??_eeprom_storeBurstGroup^(0+128)
  5075  0D67  0840               	movf	??_eeprom_storeBurstGroup^(0+128),w
  5076  0D68  0024               	movlb	4	; select bank4
  5077  0D69  00C3               	movwf	eeprom_storeBurstGroup@addressmsb^(0+512)
  5078  0D6A                     l5733:
  5079  0D6A  0021               	movlb	1	; select bank1
  5080  0D6B  083C               	movf	eeprom_storeBurstGroup@address^(0+128),w
  5081  0D6C  00C0               	movwf	??_eeprom_storeBurstGroup^(0+128)
  5082  0D6D  0840               	movf	??_eeprom_storeBurstGroup^(0+128),w
  5083  0D6E  0024               	movlb	4	; select bank4
  5084  0D6F  00C4               	movwf	eeprom_storeBurstGroup@addresslsb^(0+512)
  5085  0D70                     l5735:
  5086  0D70  3191  21A1  318D   	fcall	_I2C_MasterStart
  5087  0D73                     l5737:
  5088  0D73  30A0               	movlw	160
  5089  0D74  3191  21C9  318D   	fcall	_I2C_MasterWrite
  5090  0D77                     l5739:
  5091  0D77  0024               	movlb	4	; select bank4
  5092  0D78  0843               	movf	eeprom_storeBurstGroup@addressmsb^(0+512),w
  5093  0D79  3191  21C9  318D   	fcall	_I2C_MasterWrite
  5094  0D7C                     l5741:
  5095  0D7C  0024               	movlb	4	; select bank4
  5096  0D7D  0844               	movf	eeprom_storeBurstGroup@addresslsb^(0+512),w
  5097  0D7E  3191  21C9  318D   	fcall	_I2C_MasterWrite
  5098  0D81                     l5743:
  5099  0D81  0024               	movlb	4	; select bank4
  5100  0D82  01C6               	clrf	eeprom_storeBurstGroup@row^(0+512)
  5101  0D83                     l5747:
  5102  0D83  01C7               	clrf	eeprom_storeBurstGroup@column^(0+512)
  5103  0D84                     l5753:
  5104  0D84  0847               	movf	eeprom_storeBurstGroup@column^(0+512),w
  5105  0D85  0021               	movlb	1	; select bank1
  5106  0D86  00C0               	movwf	??_eeprom_storeBurstGroup^(0+128)
  5107  0D87  01C1               	clrf	(??_eeprom_storeBurstGroup^(0+128)+1)
  5108  0D88  35C0               	lslf	??_eeprom_storeBurstGroup^(0+128),f
  5109  0D89  0DC1               	rlf	(??_eeprom_storeBurstGroup^(0+128)+1),f
  5110  0D8A  0024               	movlb	4	; select bank4
  5111  0D8B  0845               	movf	eeprom_storeBurstGroup@pagewritten^(0+512),w
  5112  0D8C  0021               	movlb	1	; select bank1
  5113  0D8D  00C2               	movwf	(??_eeprom_storeBurstGroup+2)^(0+128)
  5114  0D8E  01C3               	clrf	((??_eeprom_storeBurstGroup+2)^(0+128)+1)
  5115  0D8F  35C2               	lslf	(??_eeprom_storeBurstGroup+2)^(0+128),f
  5116  0D90  0DC3               	rlf	((??_eeprom_storeBurstGroup+2)^(0+128)+1),f
  5117  0D91  0024               	movlb	4	; select bank4
  5118  0D92  0846               	movf	eeprom_storeBurstGroup@row^(0+512),w
  5119  0D93  0021               	movlb	1	; select bank1
  5120  0D94  0742               	addwf	(??_eeprom_storeBurstGroup+2)^(0+128),w
  5121  0D95  00C4               	movwf	(??_eeprom_storeBurstGroup+4)^(0+128)
  5122  0D96  0843               	movf	(??_eeprom_storeBurstGroup+3)^(0+128),w
  5123  0D97  1803               	skipnc
  5124  0D98  0A43               	incf	(??_eeprom_storeBurstGroup+3)^(0+128),w
  5125  0D99  00C5               	movwf	((??_eeprom_storeBurstGroup+4)^(0+128)+1)
  5126  0D9A  0EC4               	swapf	(??_eeprom_storeBurstGroup+4)^(0+128),f
  5127  0D9B  0EC5               	swapf	((??_eeprom_storeBurstGroup+4)^(0+128)+1),f
  5128  0D9C  30F0               	movlw	240
  5129  0D9D  05C5               	andwf	((??_eeprom_storeBurstGroup+4)^(0+128)+1),f
  5130  0D9E  0844               	movf	(??_eeprom_storeBurstGroup+4)^(0+128),w
  5131  0D9F  390F               	andlw	15
  5132  0DA0  04C5               	iorwf	((??_eeprom_storeBurstGroup+4)^(0+128)+1),f
  5133  0DA1  30F0               	movlw	240
  5134  0DA2  05C4               	andwf	(??_eeprom_storeBurstGroup+4)^(0+128),f
  5135  0DA3  0844               	movf	(??_eeprom_storeBurstGroup+4)^(0+128),w
  5136  0DA4  073E               	addwf	eeprom_storeBurstGroup@data^(0+128),w
  5137  0DA5  00C6               	movwf	(??_eeprom_storeBurstGroup+6)^(0+128)
  5138  0DA6  0845               	movf	(??_eeprom_storeBurstGroup+5)^(0+128),w
  5139  0DA7  3D3F               	addwfc	(eeprom_storeBurstGroup@data+1)^(0+128),w
  5140  0DA8  00C7               	movwf	(??_eeprom_storeBurstGroup+7)^(0+128)
  5141  0DA9  0840               	movf	??_eeprom_storeBurstGroup^(0+128),w
  5142  0DAA  0746               	addwf	(??_eeprom_storeBurstGroup+6)^(0+128),w
  5143  0DAB  0086               	movwf	6
  5144  0DAC  0841               	movf	(??_eeprom_storeBurstGroup+1)^(0+128),w
  5145  0DAD  3D47               	addwfc	(??_eeprom_storeBurstGroup+7)^(0+128),w
  5146  0DAE  0087               	movwf	7
  5147  0DAF  3F40               	moviw [0]fsr1
  5148  0DB0  00C8               	movwf	(??_eeprom_storeBurstGroup+8)^(0+128)
  5149  0DB1  3F41               	moviw [1]fsr1
  5150  0DB2  00C9               	movwf	((??_eeprom_storeBurstGroup+8)^(0+128)+1)
  5151  0DB3  0849               	movf	(??_eeprom_storeBurstGroup+9)^(0+128),w
  5152  0DB4  3191  21C9  318D   	fcall	_I2C_MasterWrite
  5153  0DB7  0024               	movlb	4	; select bank4
  5154  0DB8  0847               	movf	eeprom_storeBurstGroup@column^(0+512),w
  5155  0DB9  0021               	movlb	1	; select bank1
  5156  0DBA  00C0               	movwf	??_eeprom_storeBurstGroup^(0+128)
  5157  0DBB  01C1               	clrf	(??_eeprom_storeBurstGroup^(0+128)+1)
  5158  0DBC  35C0               	lslf	??_eeprom_storeBurstGroup^(0+128),f
  5159  0DBD  0DC1               	rlf	(??_eeprom_storeBurstGroup^(0+128)+1),f
  5160  0DBE  0024               	movlb	4	; select bank4
  5161  0DBF  0845               	movf	eeprom_storeBurstGroup@pagewritten^(0+512),w
  5162  0DC0  0021               	movlb	1	; select bank1
  5163  0DC1  00C2               	movwf	(??_eeprom_storeBurstGroup+2)^(0+128)
  5164  0DC2  01C3               	clrf	((??_eeprom_storeBurstGroup+2)^(0+128)+1)
  5165  0DC3  35C2               	lslf	(??_eeprom_storeBurstGroup+2)^(0+128),f
  5166  0DC4  0DC3               	rlf	((??_eeprom_storeBurstGroup+2)^(0+128)+1),f
  5167  0DC5  0024               	movlb	4	; select bank4
  5168  0DC6  0846               	movf	eeprom_storeBurstGroup@row^(0+512),w
  5169  0DC7  0021               	movlb	1	; select bank1
  5170  0DC8  0742               	addwf	(??_eeprom_storeBurstGroup+2)^(0+128),w
  5171  0DC9  00C4               	movwf	(??_eeprom_storeBurstGroup+4)^(0+128)
  5172  0DCA  0843               	movf	(??_eeprom_storeBurstGroup+3)^(0+128),w
  5173  0DCB  1803               	skipnc
  5174  0DCC  0A43               	incf	(??_eeprom_storeBurstGroup+3)^(0+128),w
  5175  0DCD  00C5               	movwf	((??_eeprom_storeBurstGroup+4)^(0+128)+1)
  5176  0DCE  0EC4               	swapf	(??_eeprom_storeBurstGroup+4)^(0+128),f
  5177  0DCF  0EC5               	swapf	((??_eeprom_storeBurstGroup+4)^(0+128)+1),f
  5178  0DD0  30F0               	movlw	240
  5179  0DD1  05C5               	andwf	((??_eeprom_storeBurstGroup+4)^(0+128)+1),f
  5180  0DD2  0844               	movf	(??_eeprom_storeBurstGroup+4)^(0+128),w
  5181  0DD3  390F               	andlw	15
  5182  0DD4  04C5               	iorwf	((??_eeprom_storeBurstGroup+4)^(0+128)+1),f
  5183  0DD5  30F0               	movlw	240
  5184  0DD6  05C4               	andwf	(??_eeprom_storeBurstGroup+4)^(0+128),f
  5185  0DD7  0844               	movf	(??_eeprom_storeBurstGroup+4)^(0+128),w
  5186  0DD8  073E               	addwf	eeprom_storeBurstGroup@data^(0+128),w
  5187  0DD9  00C6               	movwf	(??_eeprom_storeBurstGroup+6)^(0+128)
  5188  0DDA  0845               	movf	(??_eeprom_storeBurstGroup+5)^(0+128),w
  5189  0DDB  3D3F               	addwfc	(eeprom_storeBurstGroup@data+1)^(0+128),w
  5190  0DDC  00C7               	movwf	(??_eeprom_storeBurstGroup+7)^(0+128)
  5191  0DDD  0840               	movf	??_eeprom_storeBurstGroup^(0+128),w
  5192  0DDE  0746               	addwf	(??_eeprom_storeBurstGroup+6)^(0+128),w
  5193  0DDF  0086               	movwf	6
  5194  0DE0  0841               	movf	(??_eeprom_storeBurstGroup+1)^(0+128),w
  5195  0DE1  3D47               	addwfc	(??_eeprom_storeBurstGroup+7)^(0+128),w
  5196  0DE2  0087               	movwf	7
  5197  0DE3  0801               	movf	1,w
  5198  0DE4  3191  21C9  318D   	fcall	_I2C_MasterWrite
  5199  0DE7                     l5755:
  5200  0DE7  3001               	movlw	1
  5201  0DE8  0021               	movlb	1	; select bank1
  5202  0DE9  00C0               	movwf	??_eeprom_storeBurstGroup^(0+128)
  5203  0DEA  0840               	movf	??_eeprom_storeBurstGroup^(0+128),w
  5204  0DEB  0024               	movlb	4	; select bank4
  5205  0DEC  07C7               	addwf	eeprom_storeBurstGroup@column^(0+512),f
  5206  0DED                     l5757:
  5207  0DED  3008               	movlw	8
  5208  0DEE  0247               	subwf	eeprom_storeBurstGroup@column^(0+512),w
  5209  0DEF  1C03               	skipc
  5210  0DF0  2DF2               	goto	u4841
  5211  0DF1  2DF3               	goto	u4840
  5212  0DF2                     u4841:
  5213  0DF2  2D84               	goto	l5753
  5214  0DF3                     u4840:
  5215  0DF3                     l5759:
  5216  0DF3  3001               	movlw	1
  5217  0DF4  0021               	movlb	1	; select bank1
  5218  0DF5  00C0               	movwf	??_eeprom_storeBurstGroup^(0+128)
  5219  0DF6  0840               	movf	??_eeprom_storeBurstGroup^(0+128),w
  5220  0DF7  0024               	movlb	4	; select bank4
  5221  0DF8  07C6               	addwf	eeprom_storeBurstGroup@row^(0+512),f
  5222  0DF9                     l5761:
  5223  0DF9  3002               	movlw	2
  5224  0DFA  0246               	subwf	eeprom_storeBurstGroup@row^(0+512),w
  5225  0DFB  1C03               	skipc
  5226  0DFC  2DFE               	goto	u4851
  5227  0DFD  2DFF               	goto	u4850
  5228  0DFE                     u4851:
  5229  0DFE  2D83               	goto	l5747
  5230  0DFF                     u4850:
  5231  0DFF                     l5763:
  5232  0DFF  3187  27FA  318D   	fcall	_I2C_MasterStop
  5233  0E02                     l5765:
  5234  0E02  3192  2204  318D   	fcall	_ACK_Poll
  5235  0E05  3020               	movlw	32
  5236  0E06  0021               	movlb	1	; select bank1
  5237  0E07  07BC               	addwf	eeprom_storeBurstGroup@address^(0+128),f
  5238  0E08  3000               	movlw	0
  5239  0E09  3DBD               	addwfc	(eeprom_storeBurstGroup@address+1)^(0+128),f
  5240  0E0A                     l5767:
  5241  0E0A  3001               	movlw	1
  5242  0E0B  00C0               	movwf	??_eeprom_storeBurstGroup^(0+128)
  5243  0E0C  0840               	movf	??_eeprom_storeBurstGroup^(0+128),w
  5244  0E0D  0024               	movlb	4	; select bank4
  5245  0E0E  07C5               	addwf	eeprom_storeBurstGroup@pagewritten^(0+512),f
  5246  0E0F                     l5769:
  5247  0E0F  300D               	movlw	13
  5248  0E10  0245               	subwf	eeprom_storeBurstGroup@pagewritten^(0+512),w
  5249  0E11  1C03               	skipc
  5250  0E12  2E14               	goto	u4861
  5251  0E13  2E15               	goto	u4860
  5252  0E14                     u4861:
  5253  0E14  2D64               	goto	l5731
  5254  0E15                     u4860:
  5255  0E15                     l903:
  5256  0E15  0008               	return
  5257  0E16                     __end_of_eeprom_storeBurstGroup:
  5258                           
  5259                           	psect	text4
  5260  1204                     __ptext4:	
  5261 ;; *************** function _ACK_Poll *****************
  5262 ;; Defined at:
  5263 ;;		line 15 in file "24aa32a.c"
  5264 ;; Parameters:    Size  Location     Type
  5265 ;;		None
  5266 ;; Auto vars:     Size  Location     Type
  5267 ;;		None
  5268 ;; Return value:  Size  Location     Type
  5269 ;;                  1    wreg      void 
  5270 ;; Registers used:
  5271 ;;		wreg, status,2, status,0, pclath, cstack
  5272 ;; Tracked objects:
  5273 ;;		On entry : 0/0
  5274 ;;		On exit  : 0/0
  5275 ;;		Unchanged: 0/0
  5276 ;; Data sizes:     COMMON   BANK0   BANK1   BANK2   BANK3   BANK4   BANK5   BANK6   BANK7   BANK8   BANK9  BANK10  BANK1
      +1  BANK12
  5277 ;;      Params:         0       0       0       0       0       0       0       0       0       0       0       0       
      +0       0
  5278 ;;      Locals:         0       0       0       0       0       0       0       0       0       0       0       0       
      +0       0
  5279 ;;      Temps:          0       0       0       0       0       0       0       0       0       0       0       0       
      +0       0
  5280 ;;      Totals:         0       0       0       0       0       0       0       0       0       0       0       0       
      +0       0
  5281 ;;Total ram usage:        0 bytes
  5282 ;; Hardware stack levels used:    1
  5283 ;; Hardware stack levels required when called:   12
  5284 ;; This function calls:
  5285 ;;		_I2C_MasterStart
  5286 ;;		_I2C_MasterStop
  5287 ;;		_I2C_MasterWrite
  5288 ;; This function is called by:
  5289 ;;		_eeprom_storeBurstGroup
  5290 ;;		_eeprom_writeByte
  5291 ;;		_eeprom_writePage
  5292 ;; This function uses a non-reentrant model
  5293 ;;
  5294                           
  5295                           
  5296                           ;psect for function _ACK_Poll
  5297  1204                     _ACK_Poll:
  5298  1204                     l864:	
  5299                           ;incstack = 0
  5300                           ; Regs used in _ACK_Poll: [wreg+status,2+status,0+pclath+cstack]
  5301                           
  5302  1204                     l5529:
  5303  1204  3191  21A1  3192   	fcall	_I2C_MasterStart
  5304  1207                     l5531:
  5305  1207  30A0               	movlw	160
  5306  1208  3191  21C9  3192   	fcall	_I2C_MasterWrite
  5307  120B                     l5533:
  5308  120B  0024               	movlb	4	; select bank4
  5309  120C  1B16               	btfsc	22,6	;volatile
  5310  120D  2A0F               	goto	u4401
  5311  120E  2A10               	goto	u4400
  5312  120F                     u4401:
  5313  120F  2A04               	goto	l864
  5314  1210                     u4400:
  5315  1210                     l5535:
  5316  1210  3187  27FA  3192   	fcall	_I2C_MasterStop
  5317  1213                     l866:
  5318  1213  0008               	return
  5319  1214                     __end_of_ACK_Poll:
  5320                           
  5321                           	psect	text5
  5322  11C9                     __ptext5:	
  5323 ;; *************** function _I2C_MasterWrite *****************
  5324 ;; Defined at:
  5325 ;;		line 52 in file "24aa32a.c"
  5326 ;; Parameters:    Size  Location     Type
  5327 ;;  data            1    wreg     unsigned char 
  5328 ;; Auto vars:     Size  Location     Type
  5329 ;;  data            1    5[BANK1 ] unsigned char 
  5330 ;; Return value:  Size  Location     Type
  5331 ;;                  1    wreg      void 
  5332 ;; Registers used:
  5333 ;;		wreg, status,2, status,0, pclath, cstack
  5334 ;; Tracked objects:
  5335 ;;		On entry : 0/0
  5336 ;;		On exit  : 0/0
  5337 ;;		Unchanged: 0/0
  5338 ;; Data sizes:     COMMON   BANK0   BANK1   BANK2   BANK3   BANK4   BANK5   BANK6   BANK7   BANK8   BANK9  BANK10  BANK1
      +1  BANK12
  5339 ;;      Params:         0       0       0       0       0       0       0       0       0       0       0       0       
      +0       0
  5340 ;;      Locals:         0       0       1       0       0       0       0       0       0       0       0       0       
      +0       0
  5341 ;;      Temps:          0       0       0       0       0       0       0       0       0       0       0       0       
      +0       0
  5342 ;;      Totals:         0       0       1       0       0       0       0       0       0       0       0       0       
      +0       0
  5343 ;;Total ram usage:        1 bytes
  5344 ;; Hardware stack levels used:    1
  5345 ;; Hardware stack levels required when called:   11
  5346 ;; This function calls:
  5347 ;;		_I2C_WaitForCompletion
  5348 ;; This function is called by:
  5349 ;;		_ACK_Poll
  5350 ;;		_eeprom_storeBurstGroup
  5351 ;;		_eeprom_writeByte
  5352 ;;		_eeprom_writePage
  5353 ;;		_eeprom_readByte
  5354 ;;		_eeprom_readMem
  5355 ;; This function uses a non-reentrant model
  5356 ;;
  5357                           
  5358                           
  5359                           ;psect for function _I2C_MasterWrite
  5360  11C9                     _I2C_MasterWrite:
  5361                           
  5362                           ;incstack = 0
  5363                           ; Regs used in _I2C_MasterWrite: [wreg+status,2+status,0+pclath+cstack]
  5364                           ;I2C_MasterWrite@data stored from wreg
  5365  11C9  0021               	movlb	1	; select bank1
  5366  11CA  00BB               	movwf	I2C_MasterWrite@data^(0+128)
  5367  11CB                     l5493:
  5368  11CB  083B               	movf	I2C_MasterWrite@data^(0+128),w
  5369  11CC  0024               	movlb	4	; select bank4
  5370  11CD  0091               	movwf	17	;volatile
  5371  11CE                     l5495:
  5372  11CE  3191  21A7  3191   	fcall	_I2C_WaitForCompletion
  5373  11D1                     l881:
  5374  11D1  0008               	return
  5375  11D2                     __end_of_I2C_MasterWrite:
  5376                           
  5377                           	psect	text6
  5378  07FA                     __ptext6:	
  5379 ;; *************** function _I2C_MasterStop *****************
  5380 ;; Defined at:
  5381 ;;		line 46 in file "24aa32a.c"
  5382 ;; Parameters:    Size  Location     Type
  5383 ;;		None
  5384 ;; Auto vars:     Size  Location     Type
  5385 ;;		None
  5386 ;; Return value:  Size  Location     Type
  5387 ;;                  1    wreg      void 
  5388 ;; Registers used:
  5389 ;;		status,2, status,0, pclath, cstack
  5390 ;; Tracked objects:
  5391 ;;		On entry : 0/0
  5392 ;;		On exit  : 0/0
  5393 ;;		Unchanged: 0/0
  5394 ;; Data sizes:     COMMON   BANK0   BANK1   BANK2   BANK3   BANK4   BANK5   BANK6   BANK7   BANK8   BANK9  BANK10  BANK1
      +1  BANK12
  5395 ;;      Params:         0       0       0       0       0       0       0       0       0       0       0       0       
      +0       0
  5396 ;;      Locals:         0       0       0       0       0       0       0       0       0       0       0       0       
      +0       0
  5397 ;;      Temps:          0       0       0       0       0       0       0       0       0       0       0       0       
      +0       0
  5398 ;;      Totals:         0       0       0       0       0       0       0       0       0       0       0       0       
      +0       0
  5399 ;;Total ram usage:        0 bytes
  5400 ;; Hardware stack levels used:    1
  5401 ;; Hardware stack levels required when called:   11
  5402 ;; This function calls:
  5403 ;;		_I2C_WaitForCompletion
  5404 ;; This function is called by:
  5405 ;;		_ACK_Poll
  5406 ;;		_eeprom_storeBurstGroup
  5407 ;;		_eeprom_writeByte
  5408 ;;		_eeprom_writePage
  5409 ;;		_eeprom_readByte
  5410 ;;		_eeprom_readMem
  5411 ;; This function uses a non-reentrant model
  5412 ;;
  5413                           
  5414                           
  5415                           ;psect for function _I2C_MasterStop
  5416  07FA                     _I2C_MasterStop:
  5417  07FA                     l5497:	
  5418                           ;incstack = 0
  5419                           ; Regs used in _I2C_MasterStop: [status,2+status,0+pclath+cstack]
  5420                           
  5421  07FA  0024               	movlb	4	; select bank4
  5422  07FB  1516               	bsf	22,2	;volatile
  5423  07FC                     l5499:
  5424  07FC  3191  21A7  3187   	fcall	_I2C_WaitForCompletion
  5425  07FF                     l878:
  5426  07FF  0008               	return
  5427  0800                     __end_of_I2C_MasterStop:
  5428                           
  5429                           	psect	text7
  5430  11A1                     __ptext7:	
  5431 ;; *************** function _I2C_MasterStart *****************
  5432 ;; Defined at:
  5433 ;;		line 40 in file "24aa32a.c"
  5434 ;; Parameters:    Size  Location     Type
  5435 ;;		None
  5436 ;; Auto vars:     Size  Location     Type
  5437 ;;		None
  5438 ;; Return value:  Size  Location     Type
  5439 ;;                  1    wreg      void 
  5440 ;; Registers used:
  5441 ;;		status,2, status,0, pclath, cstack
  5442 ;; Tracked objects:
  5443 ;;		On entry : 0/0
  5444 ;;		On exit  : 0/0
  5445 ;;		Unchanged: 0/0
  5446 ;; Data sizes:     COMMON   BANK0   BANK1   BANK2   BANK3   BANK4   BANK5   BANK6   BANK7   BANK8   BANK9  BANK10  BANK1
      +1  BANK12
  5447 ;;      Params:         0       0       0       0       0       0       0       0       0       0       0       0       
      +0       0
  5448 ;;      Locals:         0       0       0       0       0       0       0       0       0       0       0       0       
      +0       0
  5449 ;;      Temps:          0       0       0       0       0       0       0       0       0       0       0       0       
      +0       0
  5450 ;;      Totals:         0       0       0       0       0       0       0       0       0       0       0       0       
      +0       0
  5451 ;;Total ram usage:        0 bytes
  5452 ;; Hardware stack levels used:    1
  5453 ;; Hardware stack levels required when called:   11
  5454 ;; This function calls:
  5455 ;;		_I2C_WaitForCompletion
  5456 ;; This function is called by:
  5457 ;;		_ACK_Poll
  5458 ;;		_eeprom_storeBurstGroup
  5459 ;;		_eeprom_writeByte
  5460 ;;		_eeprom_writePage
  5461 ;;		_eeprom_readByte
  5462 ;;		_eeprom_readMem
  5463 ;; This function uses a non-reentrant model
  5464 ;;
  5465                           
  5466                           
  5467                           ;psect for function _I2C_MasterStart
  5468  11A1                     _I2C_MasterStart:
  5469  11A1                     l5489:	
  5470                           ;incstack = 0
  5471                           ; Regs used in _I2C_MasterStart: [status,2+status,0+pclath+cstack]
  5472                           
  5473  11A1  0024               	movlb	4	; select bank4
  5474  11A2  1416               	bsf	22,0	;volatile
  5475  11A3                     l5491:
  5476  11A3  3191  21A7  3191   	fcall	_I2C_WaitForCompletion
  5477  11A6                     l875:
  5478  11A6  0008               	return
  5479  11A7                     __end_of_I2C_MasterStart:
  5480                           
  5481                           	psect	text8
  5482  11A7                     __ptext8:	
  5483 ;; *************** function _I2C_WaitForCompletion *****************
  5484 ;; Defined at:
  5485 ;;		line 35 in file "24aa32a.c"
  5486 ;; Parameters:    Size  Location     Type
  5487 ;;		None
  5488 ;; Auto vars:     Size  Location     Type
  5489 ;;		None
  5490 ;; Return value:  Size  Location     Type
  5491 ;;                  1    wreg      void 
  5492 ;; Registers used:
  5493 ;;		None
  5494 ;; Tracked objects:
  5495 ;;		On entry : 0/0
  5496 ;;		On exit  : 0/0
  5497 ;;		Unchanged: 0/0
  5498 ;; Data sizes:     COMMON   BANK0   BANK1   BANK2   BANK3   BANK4   BANK5   BANK6   BANK7   BANK8   BANK9  BANK10  BANK1
      +1  BANK12
  5499 ;;      Params:         0       0       0       0       0       0       0       0       0       0       0       0       
      +0       0
  5500 ;;      Locals:         0       0       0       0       0       0       0       0       0       0       0       0       
      +0       0
  5501 ;;      Temps:          0       0       0       0       0       0       0       0       0       0       0       0       
      +0       0
  5502 ;;      Totals:         0       0       0       0       0       0       0       0       0       0       0       0       
      +0       0
  5503 ;;Total ram usage:        0 bytes
  5504 ;; Hardware stack levels used:    1
  5505 ;; Hardware stack levels required when called:   10
  5506 ;; This function calls:
  5507 ;;		Nothing
  5508 ;; This function is called by:
  5509 ;;		_I2C_MasterStart
  5510 ;;		_I2C_MasterStop
  5511 ;;		_I2C_MasterWrite
  5512 ;;		_I2C_MasterSetReceive
  5513 ;;		_I2C_MasterSendAck
  5514 ;;		_I2C_MasterSendNack
  5515 ;; This function uses a non-reentrant model
  5516 ;;
  5517                           
  5518                           
  5519                           ;psect for function _I2C_WaitForCompletion
  5520  11A7                     _I2C_WaitForCompletion:
  5521  11A7                     l5461:	
  5522                           ;incstack = 0
  5523                           ; Regs used in _I2C_WaitForCompletion: []
  5524                           
  5525  11A7                     l869:
  5526  11A7  0020               	movlb	0	; select bank0
  5527  11A8  1D91               	btfss	17,3	;volatile
  5528  11A9  29AB               	goto	u4341
  5529  11AA  29AC               	goto	u4340
  5530  11AB                     u4341:
  5531  11AB  29A7               	goto	l869
  5532  11AC                     u4340:
  5533  11AC                     l871:
  5534  11AC  1191               	bcf	17,3	;volatile
  5535  11AD                     l872:
  5536  11AD  0008               	return
  5537  11AE                     __end_of_I2C_WaitForCompletion:
  5538                           
  5539                           	psect	text9
  5540  1227                     __ptext9:	
  5541 ;; *************** function _SYSTEM_Initialize *****************
  5542 ;; Defined at:
  5543 ;;		line 50 in file "mcc_generated_files/mcc.c"
  5544 ;; Parameters:    Size  Location     Type
  5545 ;;		None
  5546 ;; Auto vars:     Size  Location     Type
  5547 ;;		None
  5548 ;; Return value:  Size  Location     Type
  5549 ;;                  1    wreg      void 
  5550 ;; Registers used:
  5551 ;;		wreg, fsr1l, fsr1h, status,2, status,0, pclath, cstack
  5552 ;; Tracked objects:
  5553 ;;		On entry : 0/0
  5554 ;;		On exit  : 0/0
  5555 ;;		Unchanged: 0/0
  5556 ;; Data sizes:     COMMON   BANK0   BANK1   BANK2   BANK3   BANK4   BANK5   BANK6   BANK7   BANK8   BANK9  BANK10  BANK1
      +1  BANK12
  5557 ;;      Params:         0       0       0       0       0       0       0       0       0       0       0       0       
      +0       0
  5558 ;;      Locals:         0       0       0       0       0       0       0       0       0       0       0       0       
      +0       0
  5559 ;;      Temps:          0       0       0       0       0       0       0       0       0       0       0       0       
      +0       0
  5560 ;;      Totals:         0       0       0       0       0       0       0       0       0       0       0       0       
      +0       0
  5561 ;;Total ram usage:        0 bytes
  5562 ;; Hardware stack levels used:    1
  5563 ;; Hardware stack levels required when called:   12
  5564 ;; This function calls:
  5565 ;;		_ADC_Initialize
  5566 ;;		_OSCILLATOR_Initialize
  5567 ;;		_PIN_MANAGER_Initialize
  5568 ;;		_TMR0_Initialize
  5569 ;;		_USBDeviceAttach
  5570 ;;		_USBDeviceInit
  5571 ;;		_WDT_Initialize
  5572 ;; This function is called by:
  5573 ;;		_main
  5574 ;; This function uses a non-reentrant model
  5575 ;;
  5576                           
  5577                           
  5578                           ;psect for function _SYSTEM_Initialize
  5579  1227                     _SYSTEM_Initialize:
  5580  1227                     l4685:	
  5581                           ;incstack = 0
  5582                           ; Regs used in _SYSTEM_Initialize: [wreg+fsr1l+fsr1h+status,2+status,0+pclath+cstack]
  5583                           
  5584                           
  5585                           ;mcc_generated_files/mcc.c: 53:     PIN_MANAGER_Initialize();
  5586  1227  3192  22D2  3192   	fcall	_PIN_MANAGER_Initialize
  5587                           
  5588                           ;mcc_generated_files/mcc.c: 54:     OSCILLATOR_Initialize();
  5589  122A  3191  21F6  3192   	fcall	_OSCILLATOR_Initialize
  5590                           
  5591                           ;mcc_generated_files/mcc.c: 55:     WDT_Initialize();
  5592  122D  3191  219D  3192   	fcall	_WDT_Initialize
  5593  1230                     l4687:
  5594                           
  5595                           ;mcc_generated_files/mcc.c: 56:     USBDeviceInit();
  5596  1230  318C  24A1  3192   	fcall	_USBDeviceInit
  5597  1233                     l4689:
  5598                           
  5599                           ;mcc_generated_files/mcc.c: 57:     ADC_Initialize();
  5600  1233  3191  21AE  3192   	fcall	_ADC_Initialize
  5601  1236                     l4691:
  5602                           
  5603                           ;mcc_generated_files/mcc.c: 58:     TMR0_Initialize();
  5604  1236  3192  223D  3192   	fcall	_TMR0_Initialize
  5605  1239                     l4693:
  5606                           
  5607                           ;mcc_generated_files/mcc.c: 59:     USBDeviceAttach();
  5608  1239  3192  2272  3192   	fcall	_USBDeviceAttach
  5609  123C                     l609:
  5610  123C  0008               	return
  5611  123D                     __end_of_SYSTEM_Initialize:
  5612                           
  5613                           	psect	text10
  5614  119D                     __ptext10:	
  5615 ;; *************** function _WDT_Initialize *****************
  5616 ;; Defined at:
  5617 ;;		line 78 in file "mcc_generated_files/mcc.c"
  5618 ;; Parameters:    Size  Location     Type
  5619 ;;		None
  5620 ;; Auto vars:     Size  Location     Type
  5621 ;;		None
  5622 ;; Return value:  Size  Location     Type
  5623 ;;                  1    wreg      void 
  5624 ;; Registers used:
  5625 ;;		wreg
  5626 ;; Tracked objects:
  5627 ;;		On entry : 0/0
  5628 ;;		On exit  : 0/0
  5629 ;;		Unchanged: 0/0
  5630 ;; Data sizes:     COMMON   BANK0   BANK1   BANK2   BANK3   BANK4   BANK5   BANK6   BANK7   BANK8   BANK9  BANK10  BANK1
      +1  BANK12
  5631 ;;      Params:         0       0       0       0       0       0       0       0       0       0       0       0       
      +0       0
  5632 ;;      Locals:         0       0       0       0       0       0       0       0       0       0       0       0       
      +0       0
  5633 ;;      Temps:          0       0       0       0       0       0       0       0       0       0       0       0       
      +0       0
  5634 ;;      Totals:         0       0       0       0       0       0       0       0       0       0       0       0       
      +0       0
  5635 ;;Total ram usage:        0 bytes
  5636 ;; Hardware stack levels used:    1
  5637 ;; Hardware stack levels required when called:   10
  5638 ;; This function calls:
  5639 ;;		Nothing
  5640 ;; This function is called by:
  5641 ;;		_SYSTEM_Initialize
  5642 ;; This function uses a non-reentrant model
  5643 ;;
  5644                           
  5645                           
  5646                           ;psect for function _WDT_Initialize
  5647  119D                     _WDT_Initialize:
  5648  119D                     l4353:	
  5649                           ;incstack = 0
  5650                           ; Regs used in _WDT_Initialize: [wreg]
  5651                           
  5652                           
  5653                           ;mcc_generated_files/mcc.c: 81:     WDTCON = 0x16;
  5654  119D  3016               	movlw	22
  5655  119E  0021               	movlb	1	; select bank1
  5656  119F  0097               	movwf	23	;volatile
  5657  11A0                     l618:
  5658  11A0  0008               	return
  5659  11A1                     __end_of_WDT_Initialize:
  5660                           
  5661                           	psect	text11
  5662  0CA1                     __ptext11:	
  5663 ;; *************** function _USBDeviceInit *****************
  5664 ;; Defined at:
  5665 ;;		line 281 in file "mcc_generated_files/usb/usb_device.c"
  5666 ;; Parameters:    Size  Location     Type
  5667 ;;		None
  5668 ;; Auto vars:     Size  Location     Type
  5669 ;;  p               2    6[BANK1 ] PTR unsigned char 
  5670 ;;		 -> UEP1(1), 
  5671 ;;  i               1    8[BANK1 ] unsigned char 
  5672 ;;  i               1    9[BANK1 ] unsigned char 
  5673 ;; Return value:  Size  Location     Type
  5674 ;;                  1    wreg      void 
  5675 ;; Registers used:
  5676 ;;		wreg, fsr1l, fsr1h, status,2, status,0
  5677 ;; Tracked objects:
  5678 ;;		On entry : 0/0
  5679 ;;		On exit  : 0/0
  5680 ;;		Unchanged: 0/0
  5681 ;; Data sizes:     COMMON   BANK0   BANK1   BANK2   BANK3   BANK4   BANK5   BANK6   BANK7   BANK8   BANK9  BANK10  BANK1
      +1  BANK12
  5682 ;;      Params:         0       0       0       0       0       0       0       0       0       0       0       0       
      +0       0
  5683 ;;      Locals:         0       0       4       0       0       0       0       0       0       0       0       0       
      +0       0
  5684 ;;      Temps:          0       0       1       0       0       0       0       0       0       0       0       0       
      +0       0
  5685 ;;      Totals:         0       0       5       0       0       0       0       0       0       0       0       0       
      +0       0
  5686 ;;Total ram usage:        5 bytes
  5687 ;; Hardware stack levels used:    1
  5688 ;; Hardware stack levels required when called:   10
  5689 ;; This function calls:
  5690 ;;		Nothing
  5691 ;; This function is called by:
  5692 ;;		_SYSTEM_Initialize
  5693 ;; This function uses a non-reentrant model
  5694 ;;
  5695                           
  5696                           
  5697                           ;psect for function _USBDeviceInit
  5698  0CA1                     _USBDeviceInit:
  5699  0CA1                     l4157:	
  5700                           ;incstack = 0
  5701                           ; Regs used in _USBDeviceInit: [wreg+fsr1l+fsr1h+status,2+status,0]
  5702                           
  5703                           
  5704                           ;mcc_generated_files/usb/usb_device.c: 283:     uint8_t i;;mcc_generated_files/usb/usb_d
      +                          evice.c: 285:     {PIE2bits.USBIE = 0;};
  5705  0CA1  0021               	movlb	1	; select bank1
  5706  0CA2  1112               	bcf	18,2	;volatile
  5707  0CA3                     l4159:
  5708                           
  5709                           ;mcc_generated_files/usb/usb_device.c: 292:     {UEIR = 0;};
  5710  0CA3  003D               	movlb	29	; select bank29
  5711  0CA4  0193               	clrf	19	;volatile
  5712                           
  5713                           ;mcc_generated_files/usb/usb_device.c: 295:     {UIR = 0;};
  5714  0CA5  0190               	clrf	16	;volatile
  5715                           
  5716                           ;mcc_generated_files/usb/usb_device.c: 298:     UEP0 = 0;
  5717  0CA6  0198               	clrf	24	;volatile
  5718  0CA7                     l4161:
  5719                           
  5720                           ;mcc_generated_files/usb/usb_device.c: 300:     { uint8_t i; uint8_t* p = (uint8_t*)&UEP
      +                          1; for(i=0;i<2;i++) *p++ = 0; };
  5721  0CA7  300E               	movlw	14
  5722  0CA8  0021               	movlb	1	; select bank1
  5723  0CA9  00BD               	movwf	(USBDeviceInit@p+1)^(0+128)
  5724  0CAA  3099               	movlw	153
  5725  0CAB  00BC               	movwf	USBDeviceInit@p^(0+128)
  5726  0CAC  01BE               	clrf	USBDeviceInit@i_665^(0+128)
  5727  0CAD                     l4167:
  5728  0CAD  083C               	movf	USBDeviceInit@p^(0+128),w
  5729  0CAE  0086               	movwf	6
  5730  0CAF  083D               	movf	(USBDeviceInit@p+1)^(0+128),w
  5731  0CB0  0087               	movwf	7
  5732  0CB1  0181               	clrf	1
  5733  0CB2                     l4169:
  5734  0CB2  3001               	movlw	1
  5735  0CB3  07BC               	addwf	USBDeviceInit@p^(0+128),f
  5736  0CB4  3000               	movlw	0
  5737  0CB5  3DBD               	addwfc	(USBDeviceInit@p+1)^(0+128),f
  5738  0CB6                     l4171:
  5739  0CB6  3001               	movlw	1
  5740  0CB7  00BB               	movwf	??_USBDeviceInit^(0+128)
  5741  0CB8  083B               	movf	??_USBDeviceInit^(0+128),w
  5742  0CB9  07BE               	addwf	USBDeviceInit@i_665^(0+128),f
  5743  0CBA                     l4173:
  5744  0CBA  3002               	movlw	2
  5745  0CBB  023E               	subwf	USBDeviceInit@i_665^(0+128),w
  5746  0CBC  1C03               	skipc
  5747  0CBD  2CBF               	goto	u2951
  5748  0CBE  2CC0               	goto	u2950
  5749  0CBF                     u2951:
  5750  0CBF  2CAD               	goto	l4167
  5751  0CC0                     u2950:
  5752  0CC0                     l4175:
  5753                           
  5754                           ;mcc_generated_files/usb/usb_device.c: 302:     { UCFG = 0x10 | 0x00 | 0x04 | 0x02; UEIE
      +                           = 0x9F; UIE = 0x39 | 0x40 | 0x02; };
  5755  0CC0  3016               	movlw	22
  5756  0CC1  003D               	movlb	29	; select bank29
  5757  0CC2  0091               	movwf	17	;volatile
  5758  0CC3  309F               	movlw	159
  5759  0CC4  0097               	movwf	23	;volatile
  5760  0CC5  307B               	movlw	123
  5761  0CC6  0092               	movwf	18	;volatile
  5762  0CC7                     l4177:
  5763                           
  5764                           ;mcc_generated_files/usb/usb_device.c: 311:     for(i = 0; i < (sizeof(BDT)/sizeof(BDT_E
      +                          NTRY)); i++)
  5765  0CC7  0021               	movlb	1	; select bank1
  5766  0CC8  01BF               	clrf	USBDeviceInit@i^(0+128)
  5767  0CC9                     l4183:
  5768                           
  5769                           ;mcc_generated_files/usb/usb_device.c: 312:     {;mcc_generated_files/usb/usb_device.c: 
      +                          313:         BDT[i].Val = 0x00;
  5770  0CC9  083F               	movf	USBDeviceInit@i^(0+128),w
  5771  0CCA  00BB               	movwf	??_USBDeviceInit^(0+128)
  5772  0CCB  3001               	movlw	1
  5773  0CCC                     u2965:
  5774  0CCC  35BB               	lslf	??_USBDeviceInit^(0+128),f
  5775  0CCD  3EFF               	addlw	-1
  5776  0CCE  1D03               	skipz
  5777  0CCF  2CCC               	goto	u2965
  5778  0CD0  353B               	lslf	??_USBDeviceInit^(0+128),w
  5779  0CD1  3E20               	addlw	32
  5780  0CD2  0086               	movwf	6
  5781  0CD3  0187               	clrf	7
  5782  0CD4  3000               	movlw	0
  5783  0CD5  3FC0               	movwi [0]fsr1
  5784  0CD6  3000               	movlw	0
  5785  0CD7  3FC1               	movwi [1]fsr1
  5786  0CD8  3FC2               	movwi [2]fsr1
  5787  0CD9  3FC3               	movwi [3]fsr1
  5788  0CDA                     l4185:
  5789                           
  5790                           ;mcc_generated_files/usb/usb_device.c: 314:     }
  5791  0CDA  3001               	movlw	1
  5792  0CDB  00BB               	movwf	??_USBDeviceInit^(0+128)
  5793  0CDC  083B               	movf	??_USBDeviceInit^(0+128),w
  5794  0CDD  07BF               	addwf	USBDeviceInit@i^(0+128),f
  5795  0CDE                     l4187:
  5796  0CDE  300C               	movlw	12
  5797  0CDF  023F               	subwf	USBDeviceInit@i^(0+128),w
  5798  0CE0  1C03               	skipc
  5799  0CE1  2CE3               	goto	u2971
  5800  0CE2  2CE4               	goto	u2970
  5801  0CE3                     u2971:
  5802  0CE3  2CC9               	goto	l4183
  5803  0CE4                     u2970:
  5804  0CE4                     l136:
  5805                           
  5806                           ;mcc_generated_files/usb/usb_device.c: 317:     UCONbits.PPBRST = 1;
  5807  0CE4  003D               	movlb	29	; select bank29
  5808  0CE5  170E               	bsf	14,6	;volatile
  5809  0CE6                     l4189:
  5810                           
  5811                           ;mcc_generated_files/usb/usb_device.c: 320:     UADDR = 0x00;
  5812  0CE6  0196               	clrf	22	;volatile
  5813  0CE7                     l4191:
  5814                           
  5815                           ;mcc_generated_files/usb/usb_device.c: 323:     UCONbits.PKTDIS = 0;
  5816  0CE7  120E               	bcf	14,4	;volatile
  5817  0CE8                     l4193:
  5818                           
  5819                           ;mcc_generated_files/usb/usb_device.c: 326:     UCONbits.PPBRST = 0;
  5820  0CE8  130E               	bcf	14,6	;volatile
  5821  0CE9                     l4195:
  5822                           
  5823                           ;mcc_generated_files/usb/usb_device.c: 330:     {;mcc_generated_files/usb/usb_device.c: 
      +                          331:         (UIR &= 0xF7);
  5824  0CE9  30F7               	movlw	247
  5825  0CEA  0021               	movlb	1	; select bank1
  5826  0CEB  00BB               	movwf	??_USBDeviceInit^(0+128)
  5827  0CEC  083B               	movf	??_USBDeviceInit^(0+128),w
  5828  0CED  003D               	movlb	29	; select bank29
  5829  0CEE  0590               	andwf	16,f	;volatile
  5830  0CEF                     l4197:
  5831                           
  5832                           ;mcc_generated_files/usb/usb_device.c: 333:         inPipes[0].info.Val = 0;
  5833  0CEF  0021               	movlb	1	; select bank1
  5834  0CF0  01A8               	clrf	(_inPipes^(0+128)+2)	;volatile
  5835  0CF1                     l4199:
  5836                           
  5837                           ;mcc_generated_files/usb/usb_device.c: 334:         outPipes[0].info.Val = 0;
  5838  0CF1  0023               	movlb	3	; select bank3
  5839  0CF2  01B2               	clrf	(_outPipes^(0+384)+2)	;volatile
  5840  0CF3                     l4201:
  5841                           
  5842                           ;mcc_generated_files/usb/usb_device.c: 335:         outPipes[0].wCount.Val = 0;
  5843  0CF3  01B3               	clrf	(_outPipes^(0+384)+3)	;volatile
  5844  0CF4  01B4               	clrf	((_outPipes+1)^(0+384)+3)	;volatile
  5845  0CF5                     l4203:
  5846                           
  5847                           ;mcc_generated_files/usb/usb_device.c: 336:     }while(UIRbits.TRNIF == 1);
  5848  0CF5  003D               	movlb	29	; select bank29
  5849  0CF6  1990               	btfsc	16,3	;volatile
  5850  0CF7  2CF9               	goto	u2981
  5851  0CF8  2CFA               	goto	u2980
  5852  0CF9                     u2981:
  5853  0CF9  2CE9               	goto	l4195
  5854  0CFA                     u2980:
  5855  0CFA                     l4205:
  5856                           
  5857                           ;mcc_generated_files/usb/usb_device.c: 340:     USBStatusStageEnabledFlag1 = 1;
  5858  0CFA  3001               	movlw	1
  5859  0CFB  0021               	movlb	1	; select bank1
  5860  0CFC  00BB               	movwf	??_USBDeviceInit^(0+128)
  5861  0CFD  083B               	movf	??_USBDeviceInit^(0+128),w
  5862  0CFE  0023               	movlb	3	; select bank3
  5863  0CFF  00E5               	movwf	_USBStatusStageEnabledFlag1^(0+384)	;volatile
  5864                           
  5865                           ;mcc_generated_files/usb/usb_device.c: 341:     USBStatusStageEnabledFlag2 = 1;
  5866  0D00  3001               	movlw	1
  5867  0D01  0021               	movlb	1	; select bank1
  5868  0D02  00BB               	movwf	??_USBDeviceInit^(0+128)
  5869  0D03  083B               	movf	??_USBDeviceInit^(0+128),w
  5870  0D04  0023               	movlb	3	; select bank3
  5871  0D05  00E4               	movwf	_USBStatusStageEnabledFlag2^(0+384)	;volatile
  5872  0D06                     l4207:
  5873                           
  5874                           ;mcc_generated_files/usb/usb_device.c: 343:     USBDeferINDataStagePackets = 0;
  5875  0D06  01E3               	clrf	_USBDeferINDataStagePackets^(0+384)	;volatile
  5876  0D07                     l4209:
  5877                           
  5878                           ;mcc_generated_files/usb/usb_device.c: 344:     USBDeferOUTDataStagePackets = 0;
  5879  0D07  01E2               	clrf	_USBDeferOUTDataStagePackets^(0+384)	;volatile
  5880  0D08                     l4211:
  5881                           
  5882                           ;mcc_generated_files/usb/usb_device.c: 345:     USBBusIsSuspended = 0;
  5883  0D08  01EA               	clrf	_USBBusIsSuspended^(0+384)	;volatile
  5884  0D09                     l4213:
  5885                           
  5886                           ;mcc_generated_files/usb/usb_device.c: 349:     for(i = 0; i < (uint8_t)(2 +1u); i++)
  5887  0D09  0021               	movlb	1	; select bank1
  5888  0D0A  01BF               	clrf	USBDeviceInit@i^(0+128)
  5889  0D0B                     l4217:
  5890                           
  5891                           ;mcc_generated_files/usb/usb_device.c: 350:     {;mcc_generated_files/usb/usb_device.c: 
      +                          351:         pBDTEntryIn[i] = 0u;
  5892  0D0B  353F               	lslf	USBDeviceInit@i^(0+128),w
  5893  0D0C  3EA0               	addlw	(low (_pBDTEntryIn| 0))& (0+255)
  5894  0D0D  0086               	movwf	6
  5895  0D0E  0187               	clrf	7
  5896  0D0F  3000               	movlw	0
  5897  0D10  3FC0               	movwi [0]fsr1
  5898  0D11  3FC1               	movwi [1]fsr1
  5899                           
  5900                           ;mcc_generated_files/usb/usb_device.c: 352:         pBDTEntryOut[i] = 0u;
  5901  0D12  353F               	lslf	USBDeviceInit@i^(0+128),w
  5902  0D13  3EB7               	addlw	(low (_pBDTEntryOut| (0+256)))& (0+255)
  5903  0D14  0086               	movwf	6
  5904  0D15  3001               	movlw	1	; select bank3/4
  5905  0D16  0087               	movwf	7
  5906  0D17  3000               	movlw	0
  5907  0D18  3FC0               	movwi [0]fsr1
  5908  0D19  3FC1               	movwi [1]fsr1
  5909                           
  5910                           ;mcc_generated_files/usb/usb_device.c: 353:         ep_data_in[i].Val = 0u;
  5911  0D1A  083F               	movf	USBDeviceInit@i^(0+128),w
  5912  0D1B  3EC4               	addlw	(low (_ep_data_in| (0+256)))& (0+255)
  5913  0D1C  0086               	movwf	6
  5914  0D1D  3001               	movlw	1	; select bank3/4
  5915  0D1E  0087               	movwf	7
  5916  0D1F  0181               	clrf	1
  5917                           
  5918                           ;mcc_generated_files/usb/usb_device.c: 354:         ep_data_out[i].Val = 0u;
  5919  0D20  083F               	movf	USBDeviceInit@i^(0+128),w
  5920  0D21  3EC1               	addlw	(low (_ep_data_out| (0+256)))& (0+255)
  5921  0D22  0086               	movwf	6
  5922  0D23  3001               	movlw	1	; select bank3/4
  5923  0D24  0087               	movwf	7
  5924  0D25  0181               	clrf	1
  5925  0D26                     l4219:
  5926                           
  5927                           ;mcc_generated_files/usb/usb_device.c: 355:     }
  5928  0D26  3001               	movlw	1
  5929  0D27  00BB               	movwf	??_USBDeviceInit^(0+128)
  5930  0D28  083B               	movf	??_USBDeviceInit^(0+128),w
  5931  0D29  07BF               	addwf	USBDeviceInit@i^(0+128),f
  5932  0D2A                     l4221:
  5933  0D2A  3003               	movlw	3
  5934  0D2B  023F               	subwf	USBDeviceInit@i^(0+128),w
  5935  0D2C  1C03               	skipc
  5936  0D2D  2D2F               	goto	u2991
  5937  0D2E  2D30               	goto	u2990
  5938  0D2F                     u2991:
  5939  0D2F  2D0B               	goto	l4217
  5940  0D30                     u2990:
  5941  0D30                     l4223:
  5942                           
  5943                           ;mcc_generated_files/usb/usb_device.c: 358:     pBDTEntryIn[0] = (volatile BDT_ENTRY*)&B
      +                          DT[2];
  5944  0D30  3028               	movlw	40
  5945  0D31  00A0               	movwf	_pBDTEntryIn^(0+128)
  5946  0D32  3000               	movlw	0
  5947  0D33  00A1               	movwf	(_pBDTEntryIn+1)^(0+128)
  5948  0D34                     l4225:
  5949                           
  5950                           ;mcc_generated_files/usb/usb_device.c: 360:     UEP0 = 0x06|0x10;
  5951  0D34  3016               	movlw	22
  5952  0D35  003D               	movlb	29	; select bank29
  5953  0D36  0098               	movwf	24	;volatile
  5954  0D37                     l4227:
  5955                           
  5956                           ;mcc_generated_files/usb/usb_device.c: 362:     BDT[0].ADR = (((uint16_t)(&SetupPkt)) & 
      +                          0x7FFF);
  5957  0D37  3000               	movlw	0
  5958  0D38  0020               	movlb	0	; select bank0
  5959  0D39  00A3               	movwf	35	;volatile
  5960  0D3A  3050               	movlw	80
  5961  0D3B  00A2               	movwf	34	;volatile
  5962  0D3C                     l4229:
  5963                           
  5964                           ;mcc_generated_files/usb/usb_device.c: 363:     BDT[0].CNT = 8;
  5965  0D3C  3008               	movlw	8
  5966  0D3D  00A1               	movwf	33	;volatile
  5967  0D3E                     l4231:
  5968                           
  5969                           ;mcc_generated_files/usb/usb_device.c: 364:     BDT[0].STAT.Val = 0x00|0x04;
  5970  0D3E  3004               	movlw	4
  5971  0D3F  0021               	movlb	1	; select bank1
  5972  0D40  00BB               	movwf	??_USBDeviceInit^(0+128)
  5973  0D41  083B               	movf	??_USBDeviceInit^(0+128),w
  5974  0D42  0020               	movlb	0	; select bank0
  5975  0D43  00A0               	movwf	32	;volatile
  5976  0D44                     l4233:
  5977                           
  5978                           ;mcc_generated_files/usb/usb_device.c: 365:     BDT[0].STAT.Val |= 0x80;
  5979  0D44  17A0               	bsf	32,7	;volatile
  5980  0D45                     l4235:
  5981                           
  5982                           ;mcc_generated_files/usb/usb_device.c: 368:     USBActiveConfiguration = 0;
  5983  0D45  0021               	movlb	1	; select bank1
  5984  0D46  01B5               	clrf	_USBActiveConfiguration^(0+128)	;volatile
  5985  0D47                     l4237:
  5986                           
  5987                           ;mcc_generated_files/usb/usb_device.c: 370:     USB1msTickCount = 0;
  5988  0D47  3000               	movlw	0
  5989  0D48  0023               	movlb	3	; select bank3
  5990  0D49  00C0               	movwf	(_USB1msTickCount+3)^(0+384)	;volatile
  5991  0D4A  3000               	movlw	0
  5992  0D4B  00BF               	movwf	(_USB1msTickCount+2)^(0+384)	;volatile
  5993  0D4C  3000               	movlw	0
  5994  0D4D  00BE               	movwf	(_USB1msTickCount+1)^(0+384)	;volatile
  5995  0D4E  3000               	movlw	0
  5996  0D4F  00BD               	movwf	_USB1msTickCount^(0+384)	;volatile
  5997  0D50                     l4239:
  5998                           
  5999                           ;mcc_generated_files/usb/usb_device.c: 371:     USBTicksSinceSuspendEnd = 0;
  6000  0D50  01E1               	clrf	_USBTicksSinceSuspendEnd^(0+384)	;volatile
  6001  0D51                     l4241:
  6002                           
  6003                           ;mcc_generated_files/usb/usb_device.c: 374:     USBDeviceState = DETACHED_STATE;
  6004  0D51  0021               	movlb	1	; select bank1
  6005  0D52  01B3               	clrf	_USBDeviceState^(0+128)	;volatile
  6006  0D53                     l141:
  6007  0D53  0008               	return
  6008  0D54                     __end_of_USBDeviceInit:
  6009                           
  6010                           	psect	text12
  6011  1272                     __ptext12:	
  6012 ;; *************** function _USBDeviceAttach *****************
  6013 ;; Defined at:
  6014 ;;		line 1356 in file "mcc_generated_files/usb/usb_device.c"
  6015 ;; Parameters:    Size  Location     Type
  6016 ;;		None
  6017 ;; Auto vars:     Size  Location     Type
  6018 ;;		None
  6019 ;; Return value:  Size  Location     Type
  6020 ;;                  1    wreg      void 
  6021 ;; Registers used:
  6022 ;;		wreg, status,2, status,0
  6023 ;; Tracked objects:
  6024 ;;		On entry : 0/0
  6025 ;;		On exit  : 0/0
  6026 ;;		Unchanged: 0/0
  6027 ;; Data sizes:     COMMON   BANK0   BANK1   BANK2   BANK3   BANK4   BANK5   BANK6   BANK7   BANK8   BANK9  BANK10  BANK1
      +1  BANK12
  6028 ;;      Params:         0       0       0       0       0       0       0       0       0       0       0       0       
      +0       0
  6029 ;;      Locals:         0       0       0       0       0       0       0       0       0       0       0       0       
      +0       0
  6030 ;;      Temps:          0       0       1       0       0       0       0       0       0       0       0       0       
      +0       0
  6031 ;;      Totals:         0       0       1       0       0       0       0       0       0       0       0       0       
      +0       0
  6032 ;;Total ram usage:        1 bytes
  6033 ;; Hardware stack levels used:    1
  6034 ;; Hardware stack levels required when called:   10
  6035 ;; This function calls:
  6036 ;;		Nothing
  6037 ;; This function is called by:
  6038 ;;		_SYSTEM_Initialize
  6039 ;; This function uses a non-reentrant model
  6040 ;;
  6041                           
  6042                           
  6043                           ;psect for function _USBDeviceAttach
  6044  1272                     _USBDeviceAttach:
  6045  1272                     l4311:	
  6046                           ;incstack = 0
  6047                           ; Regs used in _USBDeviceAttach: [wreg+status,2+status,0]
  6048                           
  6049                           
  6050                           ;mcc_generated_files/usb/usb_device.c: 1360:     {;mcc_generated_files/usb/usb_device.c:
      +                           1361:         if(1 == 1)
  6051  1272  0021               	movlb	1	; select bank1
  6052  1273  0833               	movf	_USBDeviceState^(0+128),w	;volatile
  6053  1274  1D03               	btfss	3,2
  6054  1275  2A77               	goto	u3101
  6055  1276  2A78               	goto	u3100
  6056  1277                     u3101:
  6057  1277  2A8F               	goto	l199
  6058  1278                     u3100:
  6059  1278                     l4313:
  6060                           
  6061                           ;mcc_generated_files/usb/usb_device.c: 1362:         {;mcc_generated_files/usb/usb_devic
      +                          e.c: 1364:             UCON = 0;
  6062  1278  003D               	movlb	29	; select bank29
  6063  1279  018E               	clrf	14	;volatile
  6064                           
  6065                           ;mcc_generated_files/usb/usb_device.c: 1367:             UIE = 0;
  6066  127A  0192               	clrf	18	;volatile
  6067  127B                     l4315:
  6068                           
  6069                           ;mcc_generated_files/usb/usb_device.c: 1371:             { UCFG = 0x10 | 0x00 | 0x04 | 0
      +                          x02; UEIE = 0x9F; UIE = 0x39 | 0x40 | 0x02; };
  6070  127B  3016               	movlw	22
  6071  127C  0091               	movwf	17	;volatile
  6072  127D                     l4317:
  6073  127D  309F               	movlw	159
  6074  127E  0097               	movwf	23	;volatile
  6075  127F                     l4319:
  6076  127F  307B               	movlw	123
  6077  1280  0092               	movwf	18	;volatile
  6078  1281                     l4321:
  6079                           
  6080                           ;mcc_generated_files/usb/usb_device.c: 1373:             {PIE2bits.USBIE = 1;};
  6081  1281  0021               	movlb	1	; select bank1
  6082  1282  1512               	bsf	18,2	;volatile
  6083                           
  6084                           ;mcc_generated_files/usb/usb_device.c: 1376:             while(!UCONbits.USBEN){UCONbits
      +                          .USBEN = 1;}
  6085  1283  2A85               	goto	l196
  6086  1284                     l197:
  6087  1284  158E               	bsf	14,3	;volatile
  6088  1285                     l196:
  6089  1285  003D               	movlb	29	; select bank29
  6090  1286  1D8E               	btfss	14,3	;volatile
  6091  1287  2A89               	goto	u3111
  6092  1288  2A8A               	goto	u3110
  6093  1289                     u3111:
  6094  1289  2A84               	goto	l197
  6095  128A                     u3110:
  6096  128A                     l4323:
  6097                           
  6098                           ;mcc_generated_files/usb/usb_device.c: 1379:             USBDeviceState = ATTACHED_STATE
      +                          ;
  6099  128A  3001               	movlw	1
  6100  128B  0021               	movlb	1	; select bank1
  6101  128C  00BB               	movwf	??_USBDeviceAttach^(0+128)
  6102  128D  083B               	movf	??_USBDeviceAttach^(0+128),w
  6103  128E  00B3               	movwf	_USBDeviceState^(0+128)	;volatile
  6104  128F                     l199:
  6105  128F  0008               	return
  6106  1290                     __end_of_USBDeviceAttach:
  6107                           
  6108                           	psect	text13
  6109  123D                     __ptext13:	
  6110 ;; *************** function _TMR0_Initialize *****************
  6111 ;; Defined at:
  6112 ;;		line 69 in file "mcc_generated_files/tmr0.c"
  6113 ;; Parameters:    Size  Location     Type
  6114 ;;		None
  6115 ;; Auto vars:     Size  Location     Type
  6116 ;;		None
  6117 ;; Return value:  Size  Location     Type
  6118 ;;                  1    wreg      void 
  6119 ;; Registers used:
  6120 ;;		wreg, status,2, status,0, pclath, cstack
  6121 ;; Tracked objects:
  6122 ;;		On entry : 0/0
  6123 ;;		On exit  : 0/0
  6124 ;;		Unchanged: 0/0
  6125 ;; Data sizes:     COMMON   BANK0   BANK1   BANK2   BANK3   BANK4   BANK5   BANK6   BANK7   BANK8   BANK9  BANK10  BANK1
      +1  BANK12
  6126 ;;      Params:         0       0       0       0       0       0       0       0       0       0       0       0       
      +0       0
  6127 ;;      Locals:         0       0       0       0       0       0       0       0       0       0       0       0       
      +0       0
  6128 ;;      Temps:          0       0       1       0       0       0       0       0       0       0       0       0       
      +0       0
  6129 ;;      Totals:         0       0       1       0       0       0       0       0       0       0       0       0       
      +0       0
  6130 ;;Total ram usage:        1 bytes
  6131 ;; Hardware stack levels used:    1
  6132 ;; Hardware stack levels required when called:   11
  6133 ;; This function calls:
  6134 ;;		_TMR0_SetInterruptHandler
  6135 ;; This function is called by:
  6136 ;;		_SYSTEM_Initialize
  6137 ;; This function uses a non-reentrant model
  6138 ;;
  6139                           
  6140                           
  6141                           ;psect for function _TMR0_Initialize
  6142  123D                     _TMR0_Initialize:
  6143  123D                     l4365:	
  6144                           ;incstack = 0
  6145                           ; Regs used in _TMR0_Initialize: [wreg+status,2+status,0+pclath+cstack]
  6146                           
  6147                           
  6148                           ;mcc_generated_files/tmr0.c: 74:     OPTION_REG = (uint8_t)((OPTION_REG & 0xC0) | (0xD2 
      +                          & 0x3F));
  6149  123D  0021               	movlb	1	; select bank1
  6150  123E  0815               	movf	21,w	;volatile
  6151  123F  39C0               	andlw	192
  6152  1240  3812               	iorlw	18
  6153  1241  0095               	movwf	21	;volatile
  6154  1242                     l4367:
  6155                           
  6156                           ;mcc_generated_files/tmr0.c: 77:     TMR0 = 0x06;
  6157  1242  3006               	movlw	6
  6158  1243  0020               	movlb	0	; select bank0
  6159  1244  0095               	movwf	21	;volatile
  6160  1245                     l4369:
  6161                           
  6162                           ;mcc_generated_files/tmr0.c: 80:     timer0ReloadVal= 6;
  6163  1245  3006               	movlw	6
  6164  1246  0021               	movlb	1	; select bank1
  6165  1247  00BD               	movwf	??_TMR0_Initialize^(0+128)
  6166  1248  083D               	movf	??_TMR0_Initialize^(0+128),w
  6167  1249  0023               	movlb	3	; select bank3
  6168  124A  00D9               	movwf	_timer0ReloadVal^(0+384)	;volatile
  6169  124B                     l4371:
  6170                           
  6171                           ;mcc_generated_files/tmr0.c: 83:     INTCONbits.TMR0IF = 0;
  6172  124B  110B               	bcf	11,2	;volatile
  6173  124C                     l4373:
  6174                           
  6175                           ;mcc_generated_files/tmr0.c: 86:     INTCONbits.TMR0IE = 1;
  6176  124C  168B               	bsf	11,5	;volatile
  6177  124D                     l4375:
  6178                           
  6179                           ;mcc_generated_files/tmr0.c: 89:     TMR0_SetInterruptHandler(TMR0_DefaultInterruptHandl
      +                          er);
  6180  124D  3003               	movlw	low _TMR0_DefaultInterruptHandler
  6181  124E  0021               	movlb	1	; select bank1
  6182  124F  00BB               	movwf	TMR0_SetInterruptHandler@InterruptHandler^(0+128)
  6183  1250  3000               	movlw	high _TMR0_DefaultInterruptHandler
  6184  1251  00BC               	movwf	(TMR0_SetInterruptHandler@InterruptHandler^(0+128)+1)
  6185  1252  3191  21C0  3192   	fcall	_TMR0_SetInterruptHandler
  6186  1255                     l719:
  6187  1255  0008               	return
  6188  1256                     __end_of_TMR0_Initialize:
  6189                           
  6190                           	psect	text14
  6191  11C0                     __ptext14:	
  6192 ;; *************** function _TMR0_SetInterruptHandler *****************
  6193 ;; Defined at:
  6194 ;;		line 148 in file "mcc_generated_files/tmr0.c"
  6195 ;; Parameters:    Size  Location     Type
  6196 ;;  InterruptHan    2    5[BANK1 ] PTR FTN()void 
  6197 ;;		 -> TMR0_DefaultInterruptHandler(1), 
  6198 ;; Auto vars:     Size  Location     Type
  6199 ;;		None
  6200 ;; Return value:  Size  Location     Type
  6201 ;;                  1    wreg      void 
  6202 ;; Registers used:
  6203 ;;		wreg
  6204 ;; Tracked objects:
  6205 ;;		On entry : 0/0
  6206 ;;		On exit  : 0/0
  6207 ;;		Unchanged: 0/0
  6208 ;; Data sizes:     COMMON   BANK0   BANK1   BANK2   BANK3   BANK4   BANK5   BANK6   BANK7   BANK8   BANK9  BANK10  BANK1
      +1  BANK12
  6209 ;;      Params:         0       0       2       0       0       0       0       0       0       0       0       0       
      +0       0
  6210 ;;      Locals:         0       0       0       0       0       0       0       0       0       0       0       0       
      +0       0
  6211 ;;      Temps:          0       0       0       0       0       0       0       0       0       0       0       0       
      +0       0
  6212 ;;      Totals:         0       0       2       0       0       0       0       0       0       0       0       0       
      +0       0
  6213 ;;Total ram usage:        2 bytes
  6214 ;; Hardware stack levels used:    1
  6215 ;; Hardware stack levels required when called:   10
  6216 ;; This function calls:
  6217 ;;		Nothing
  6218 ;; This function is called by:
  6219 ;;		_TMR0_Initialize
  6220 ;; This function uses a non-reentrant model
  6221 ;;
  6222                           
  6223                           
  6224                           ;psect for function _TMR0_SetInterruptHandler
  6225  11C0                     _TMR0_SetInterruptHandler:
  6226  11C0                     l4143:	
  6227                           ;incstack = 0
  6228                           ; Regs used in _TMR0_SetInterruptHandler: [wreg]
  6229                           
  6230                           
  6231                           ;mcc_generated_files/tmr0.c: 149:     TMR0_InterruptHandler = InterruptHandler;
  6232  11C0  0021               	movlb	1	; select bank1
  6233  11C1  083C               	movf	(TMR0_SetInterruptHandler@InterruptHandler+1)^(0+128),w
  6234  11C2  0023               	movlb	3	; select bank3
  6235  11C3  00CA               	movwf	(_TMR0_InterruptHandler+1)^(0+384)
  6236  11C4  0021               	movlb	1	; select bank1
  6237  11C5  083B               	movf	TMR0_SetInterruptHandler@InterruptHandler^(0+128),w
  6238  11C6  0023               	movlb	3	; select bank3
  6239  11C7  00C9               	movwf	_TMR0_InterruptHandler^(0+384)
  6240  11C8                     l739:
  6241  11C8  0008               	return
  6242  11C9                     __end_of_TMR0_SetInterruptHandler:
  6243                           
  6244                           	psect	text15
  6245  12D2                     __ptext15:	
  6246 ;; *************** function _PIN_MANAGER_Initialize *****************
  6247 ;; Defined at:
  6248 ;;		line 57 in file "mcc_generated_files/pin_manager.c"
  6249 ;; Parameters:    Size  Location     Type
  6250 ;;		None
  6251 ;; Auto vars:     Size  Location     Type
  6252 ;;		None
  6253 ;; Return value:  Size  Location     Type
  6254 ;;                  1    wreg      void 
  6255 ;; Registers used:
  6256 ;;		wreg, status,2, status,0, pclath, cstack
  6257 ;; Tracked objects:
  6258 ;;		On entry : 0/0
  6259 ;;		On exit  : 0/0
  6260 ;;		Unchanged: 0/0
  6261 ;; Data sizes:     COMMON   BANK0   BANK1   BANK2   BANK3   BANK4   BANK5   BANK6   BANK7   BANK8   BANK9  BANK10  BANK1
      +1  BANK12
  6262 ;;      Params:         0       0       0       0       0       0       0       0       0       0       0       0       
      +0       0
  6263 ;;      Locals:         0       0       0       0       0       0       0       0       0       0       0       0       
      +0       0
  6264 ;;      Temps:          0       0       0       0       0       0       0       0       0       0       0       0       
      +0       0
  6265 ;;      Totals:         0       0       0       0       0       0       0       0       0       0       0       0       
      +0       0
  6266 ;;Total ram usage:        0 bytes
  6267 ;; Hardware stack levels used:    1
  6268 ;; Hardware stack levels required when called:   11
  6269 ;; This function calls:
  6270 ;;		_IOCAF5_SetInterruptHandler
  6271 ;; This function is called by:
  6272 ;;		_SYSTEM_Initialize
  6273 ;; This function uses a non-reentrant model
  6274 ;;
  6275                           
  6276                           
  6277                           ;psect for function _PIN_MANAGER_Initialize
  6278  12D2                     _PIN_MANAGER_Initialize:
  6279  12D2                     l4325:	
  6280                           ;incstack = 0
  6281                           ; Regs used in _PIN_MANAGER_Initialize: [wreg+status,2+status,0+pclath+cstack]
  6282                           
  6283                           
  6284                           ;mcc_generated_files/pin_manager.c: 62:     LATA = 0x00;
  6285  12D2  0022               	movlb	2	; select bank2
  6286  12D3  018C               	clrf	12	;volatile
  6287                           
  6288                           ;mcc_generated_files/pin_manager.c: 63:     LATB = 0x00;
  6289  12D4  018D               	clrf	13	;volatile
  6290                           
  6291                           ;mcc_generated_files/pin_manager.c: 64:     LATC = 0x00;
  6292  12D5  018E               	clrf	14	;volatile
  6293  12D6                     l4327:
  6294                           
  6295                           ;mcc_generated_files/pin_manager.c: 69:     TRISA = 0x30;
  6296  12D6  3030               	movlw	48
  6297  12D7  0021               	movlb	1	; select bank1
  6298  12D8  008C               	movwf	12	;volatile
  6299  12D9                     l4329:
  6300                           
  6301                           ;mcc_generated_files/pin_manager.c: 70:     TRISB = 0xF0;
  6302  12D9  30F0               	movlw	240
  6303  12DA  008D               	movwf	13	;volatile
  6304  12DB                     l4331:
  6305                           
  6306                           ;mcc_generated_files/pin_manager.c: 71:     TRISC = 0xFF;
  6307  12DB  30FF               	movlw	255
  6308  12DC  008E               	movwf	14	;volatile
  6309  12DD                     l4333:
  6310                           
  6311                           ;mcc_generated_files/pin_manager.c: 76:     ANSELC = 0xCC;
  6312  12DD  30CC               	movlw	204
  6313  12DE  0023               	movlb	3	; select bank3
  6314  12DF  008E               	movwf	14	;volatile
  6315                           
  6316                           ;mcc_generated_files/pin_manager.c: 77:     ANSELB = 0x00;
  6317  12E0  018D               	clrf	13	;volatile
  6318                           
  6319                           ;mcc_generated_files/pin_manager.c: 78:     ANSELA = 0x00;
  6320  12E1  018C               	clrf	12	;volatile
  6321                           
  6322                           ;mcc_generated_files/pin_manager.c: 83:     WPUB = 0x00;
  6323  12E2  0024               	movlb	4	; select bank4
  6324  12E3  018D               	clrf	13	;volatile
  6325                           
  6326                           ;mcc_generated_files/pin_manager.c: 84:     WPUA = 0x00;
  6327  12E4  018C               	clrf	12	;volatile
  6328  12E5                     l4335:
  6329                           
  6330                           ;mcc_generated_files/pin_manager.c: 85:     OPTION_REGbits.nWPUEN = 1;
  6331  12E5  0021               	movlb	1	; select bank1
  6332  12E6  1795               	bsf	21,7	;volatile
  6333                           
  6334                           ;mcc_generated_files/pin_manager.c: 91:     APFCON = 0x00;
  6335  12E7  0022               	movlb	2	; select bank2
  6336  12E8  019D               	clrf	29	;volatile
  6337  12E9                     l4337:
  6338                           
  6339                           ;mcc_generated_files/pin_manager.c: 97:     IOCAFbits.IOCAF5 = 0;
  6340  12E9  0027               	movlb	7	; select bank7
  6341  12EA  1293               	bcf	19,5	;volatile
  6342  12EB                     l4339:
  6343                           
  6344                           ;mcc_generated_files/pin_manager.c: 99:     IOCANbits.IOCAN5 = 1;
  6345  12EB  1692               	bsf	18,5	;volatile
  6346  12EC                     l4341:
  6347                           
  6348                           ;mcc_generated_files/pin_manager.c: 101:     IOCAPbits.IOCAP5 = 1;
  6349  12EC  1691               	bsf	17,5	;volatile
  6350  12ED                     l4343:
  6351                           
  6352                           ;mcc_generated_files/pin_manager.c: 106:     IOCAF5_SetInterruptHandler(IOCAF5_DefaultIn
      +                          terruptHandler);
  6353  12ED  3000               	movlw	0
  6354  12EE  0021               	movlb	1	; select bank1
  6355  12EF  00BB               	movwf	IOCAF5_SetInterruptHandler@InterruptHandler^(0+128)
  6356  12F0  3000               	movlw	0
  6357  12F1  00BC               	movwf	(IOCAF5_SetInterruptHandler@InterruptHandler^(0+128)+1)
  6358  12F2  3191  21B7  3192   	fcall	_IOCAF5_SetInterruptHandler
  6359  12F5                     l676:
  6360  12F5  0008               	return
  6361  12F6                     __end_of_PIN_MANAGER_Initialize:
  6362                           
  6363                           	psect	text16
  6364  11B7                     __ptext16:	
  6365 ;; *************** function _IOCAF5_SetInterruptHandler *****************
  6366 ;; Defined at:
  6367 ;;		line 138 in file "mcc_generated_files/pin_manager.c"
  6368 ;; Parameters:    Size  Location     Type
  6369 ;;  InterruptHan    2    5[BANK1 ] PTR FTN()void 
  6370 ;;		 -> IOCAF5_DefaultInterruptHandler(1), 
  6371 ;; Auto vars:     Size  Location     Type
  6372 ;;		None
  6373 ;; Return value:  Size  Location     Type
  6374 ;;                  1    wreg      void 
  6375 ;; Registers used:
  6376 ;;		wreg
  6377 ;; Tracked objects:
  6378 ;;		On entry : 0/0
  6379 ;;		On exit  : 0/0
  6380 ;;		Unchanged: 0/0
  6381 ;; Data sizes:     COMMON   BANK0   BANK1   BANK2   BANK3   BANK4   BANK5   BANK6   BANK7   BANK8   BANK9  BANK10  BANK1
      +1  BANK12
  6382 ;;      Params:         0       0       2       0       0       0       0       0       0       0       0       0       
      +0       0
  6383 ;;      Locals:         0       0       0       0       0       0       0       0       0       0       0       0       
      +0       0
  6384 ;;      Temps:          0       0       0       0       0       0       0       0       0       0       0       0       
      +0       0
  6385 ;;      Totals:         0       0       2       0       0       0       0       0       0       0       0       0       
      +0       0
  6386 ;;Total ram usage:        2 bytes
  6387 ;; Hardware stack levels used:    1
  6388 ;; Hardware stack levels required when called:   10
  6389 ;; This function calls:
  6390 ;;		Nothing
  6391 ;; This function is called by:
  6392 ;;		_PIN_MANAGER_Initialize
  6393 ;; This function uses a non-reentrant model
  6394 ;;
  6395                           
  6396                           
  6397                           ;psect for function _IOCAF5_SetInterruptHandler
  6398  11B7                     _IOCAF5_SetInterruptHandler:
  6399  11B7                     l4141:	
  6400                           ;incstack = 0
  6401                           ; Regs used in _IOCAF5_SetInterruptHandler: [wreg]
  6402                           
  6403                           
  6404                           ;mcc_generated_files/pin_manager.c: 139:     IOCAF5_InterruptHandler = InterruptHandler;
  6405  11B7  0021               	movlb	1	; select bank1
  6406  11B8  083C               	movf	(IOCAF5_SetInterruptHandler@InterruptHandler+1)^(0+128),w
  6407  11B9  0024               	movlb	4	; select bank4
  6408  11BA  00CA               	movwf	(_IOCAF5_InterruptHandler+1)^(0+512)
  6409  11BB  0021               	movlb	1	; select bank1
  6410  11BC  083B               	movf	IOCAF5_SetInterruptHandler@InterruptHandler^(0+128),w
  6411  11BD  0024               	movlb	4	; select bank4
  6412  11BE  00C9               	movwf	_IOCAF5_InterruptHandler^(0+512)
  6413  11BF                     l687:
  6414  11BF  0008               	return
  6415  11C0                     __end_of_IOCAF5_SetInterruptHandler:
  6416                           
  6417                           	psect	text17
  6418  11F6                     __ptext17:	
  6419 ;; *************** function _OSCILLATOR_Initialize *****************
  6420 ;; Defined at:
  6421 ;;		line 62 in file "mcc_generated_files/mcc.c"
  6422 ;; Parameters:    Size  Location     Type
  6423 ;;		None
  6424 ;; Auto vars:     Size  Location     Type
  6425 ;;		None
  6426 ;; Return value:  Size  Location     Type
  6427 ;;                  1    wreg      void 
  6428 ;; Registers used:
  6429 ;;		wreg, status,2
  6430 ;; Tracked objects:
  6431 ;;		On entry : 0/0
  6432 ;;		On exit  : 0/0
  6433 ;;		Unchanged: 0/0
  6434 ;; Data sizes:     COMMON   BANK0   BANK1   BANK2   BANK3   BANK4   BANK5   BANK6   BANK7   BANK8   BANK9  BANK10  BANK1
      +1  BANK12
  6435 ;;      Params:         0       0       0       0       0       0       0       0       0       0       0       0       
      +0       0
  6436 ;;      Locals:         0       0       0       0       0       0       0       0       0       0       0       0       
      +0       0
  6437 ;;      Temps:          0       0       0       0       0       0       0       0       0       0       0       0       
      +0       0
  6438 ;;      Totals:         0       0       0       0       0       0       0       0       0       0       0       0       
      +0       0
  6439 ;;Total ram usage:        0 bytes
  6440 ;; Hardware stack levels used:    1
  6441 ;; Hardware stack levels required when called:   10
  6442 ;; This function calls:
  6443 ;;		Nothing
  6444 ;; This function is called by:
  6445 ;;		_SYSTEM_Initialize
  6446 ;; This function uses a non-reentrant model
  6447 ;;
  6448                           
  6449                           
  6450                           ;psect for function _OSCILLATOR_Initialize
  6451  11F6                     _OSCILLATOR_Initialize:
  6452  11F6                     l4345:	
  6453                           ;incstack = 0
  6454                           ; Regs used in _OSCILLATOR_Initialize: [wreg+status,2]
  6455                           
  6456                           
  6457                           ;mcc_generated_files/mcc.c: 65:     OSCCON = 0x7C;
  6458  11F6  307C               	movlw	124
  6459  11F7  0021               	movlb	1	; select bank1
  6460  11F8  0099               	movwf	25	;volatile
  6461  11F9                     l4347:
  6462                           
  6463                           ;mcc_generated_files/mcc.c: 67:     OSCTUNE = 0x00;
  6464  11F9  0198               	clrf	24	;volatile
  6465  11FA                     l4349:
  6466                           
  6467                           ;mcc_generated_files/mcc.c: 69:     ACTCON = 0x00;
  6468  11FA  0027               	movlb	7	; select bank7
  6469  11FB  019B               	clrf	27	;volatile
  6470  11FC                     l4351:
  6471                           
  6472                           ;mcc_generated_files/mcc.c: 71:     BORCON = 0x00;
  6473  11FC  0022               	movlb	2	; select bank2
  6474  11FD  0196               	clrf	22	;volatile
  6475  11FE                     l612:	
  6476                           ;mcc_generated_files/mcc.c: 74:     {;mcc_generated_files/mcc.c: 75:     }
  6477                           
  6478                           
  6479                           ;mcc_generated_files/mcc.c: 73:     while(PLLRDY == 0)
  6480  11FE  0021               	movlb	1	; select bank1
  6481  11FF  1F1A               	btfss	26,6	;volatile
  6482  1200  2A02               	goto	u3121
  6483  1201  2A03               	goto	u3120
  6484  1202                     u3121:
  6485  1202  29FE               	goto	l612
  6486  1203                     u3120:
  6487  1203                     l615:
  6488  1203  0008               	return
  6489  1204                     __end_of_OSCILLATOR_Initialize:
  6490                           
  6491                           	psect	text18
  6492  11AE                     __ptext18:	
  6493 ;; *************** function _ADC_Initialize *****************
  6494 ;; Defined at:
  6495 ;;		line 67 in file "mcc_generated_files/adc.c"
  6496 ;; Parameters:    Size  Location     Type
  6497 ;;		None
  6498 ;; Auto vars:     Size  Location     Type
  6499 ;;		None
  6500 ;; Return value:  Size  Location     Type
  6501 ;;                  1    wreg      void 
  6502 ;; Registers used:
  6503 ;;		wreg, status,2
  6504 ;; Tracked objects:
  6505 ;;		On entry : 0/0
  6506 ;;		On exit  : 0/0
  6507 ;;		Unchanged: 0/0
  6508 ;; Data sizes:     COMMON   BANK0   BANK1   BANK2   BANK3   BANK4   BANK5   BANK6   BANK7   BANK8   BANK9  BANK10  BANK1
      +1  BANK12
  6509 ;;      Params:         0       0       0       0       0       0       0       0       0       0       0       0       
      +0       0
  6510 ;;      Locals:         0       0       0       0       0       0       0       0       0       0       0       0       
      +0       0
  6511 ;;      Temps:          0       0       0       0       0       0       0       0       0       0       0       0       
      +0       0
  6512 ;;      Totals:         0       0       0       0       0       0       0       0       0       0       0       0       
      +0       0
  6513 ;;Total ram usage:        0 bytes
  6514 ;; Hardware stack levels used:    1
  6515 ;; Hardware stack levels required when called:   10
  6516 ;; This function calls:
  6517 ;;		Nothing
  6518 ;; This function is called by:
  6519 ;;		_SYSTEM_Initialize
  6520 ;; This function uses a non-reentrant model
  6521 ;;
  6522                           
  6523                           
  6524                           ;psect for function _ADC_Initialize
  6525  11AE                     _ADC_Initialize:
  6526  11AE                     l4355:	
  6527                           ;incstack = 0
  6528                           ; Regs used in _ADC_Initialize: [wreg+status,2]
  6529                           
  6530                           
  6531                           ;mcc_generated_files/adc.c: 72:     ADCON1 = 0x90;
  6532  11AE  3090               	movlw	144
  6533  11AF  0021               	movlb	1	; select bank1
  6534  11B0  009E               	movwf	30	;volatile
  6535  11B1                     l4357:
  6536                           
  6537                           ;mcc_generated_files/adc.c: 75:     ADCON2 = 0x00;
  6538  11B1  019F               	clrf	31	;volatile
  6539  11B2                     l4359:
  6540                           
  6541                           ;mcc_generated_files/adc.c: 78:     ADRESL = 0x00;
  6542  11B2  019B               	clrf	27	;volatile
  6543  11B3                     l4361:
  6544                           
  6545                           ;mcc_generated_files/adc.c: 81:     ADRESH = 0x00;
  6546  11B3  019C               	clrf	28	;volatile
  6547  11B4                     l4363:
  6548                           
  6549                           ;mcc_generated_files/adc.c: 84:     ADCON0 = 0x01;
  6550  11B4  3001               	movlw	1
  6551  11B5  009D               	movwf	29	;volatile
  6552  11B6                     l633:
  6553  11B6  0008               	return
  6554  11B7                     __end_of_ADC_Initialize:
  6555                           
  6556                           	psect	text19
  6557  11D2                     __ptext19:	
  6558 ;; *************** function _I2C_Initialize *****************
  6559 ;; Defined at:
  6560 ;;		line 6 in file "24aa32a.c"
  6561 ;; Parameters:    Size  Location     Type
  6562 ;;		None
  6563 ;; Auto vars:     Size  Location     Type
  6564 ;;		None
  6565 ;; Return value:  Size  Location     Type
  6566 ;;                  1    wreg      void 
  6567 ;; Registers used:
  6568 ;;		wreg, status,2
  6569 ;; Tracked objects:
  6570 ;;		On entry : 0/0
  6571 ;;		On exit  : 0/0
  6572 ;;		Unchanged: 0/0
  6573 ;; Data sizes:     COMMON   BANK0   BANK1   BANK2   BANK3   BANK4   BANK5   BANK6   BANK7   BANK8   BANK9  BANK10  BANK1
      +1  BANK12
  6574 ;;      Params:         0       0       0       0       0       0       0       0       0       0       0       0       
      +0       0
  6575 ;;      Locals:         0       0       0       0       0       0       0       0       0       0       0       0       
      +0       0
  6576 ;;      Temps:          0       0       0       0       0       0       0       0       0       0       0       0       
      +0       0
  6577 ;;      Totals:         0       0       0       0       0       0       0       0       0       0       0       0       
      +0       0
  6578 ;;Total ram usage:        0 bytes
  6579 ;; Hardware stack levels used:    1
  6580 ;; Hardware stack levels required when called:   10
  6581 ;; This function calls:
  6582 ;;		Nothing
  6583 ;; This function is called by:
  6584 ;;		_main
  6585 ;; This function uses a non-reentrant model
  6586 ;;
  6587                           
  6588                           
  6589                           ;psect for function _I2C_Initialize
  6590  11D2                     _I2C_Initialize:
  6591  11D2                     l4801:	
  6592                           ;incstack = 0
  6593                           ; Regs used in _I2C_Initialize: [wreg+status,2]
  6594                           
  6595  11D2  0024               	movlb	4	; select bank4
  6596  11D3  0194               	clrf	20	;volatile
  6597  11D4                     l4803:
  6598  11D4  3008               	movlw	8
  6599  11D5  0095               	movwf	21	;volatile
  6600  11D6                     l4805:
  6601  11D6  0196               	clrf	22	;volatile
  6602  11D7  3013               	movlw	19
  6603  11D8  0092               	movwf	18	;volatile
  6604  11D9                     l4807:
  6605  11D9  0020               	movlb	0	; select bank0
  6606  11DA  1191               	bcf	17,3	;volatile
  6607  11DB                     l4809:
  6608  11DB  0024               	movlb	4	; select bank4
  6609  11DC  1695               	bsf	21,5	;volatile
  6610  11DD                     l861:
  6611  11DD  0008               	return
  6612  11DE                     __end_of_I2C_Initialize:
  6613                           
  6614                           	psect	intentry
  6615  0004                     __pintentry:	
  6616 ;; *************** function _INTERRUPT_InterruptManager *****************
  6617 ;; Defined at:
  6618 ;;		line 52 in file "mcc_generated_files/interrupt_manager.c"
  6619 ;; Parameters:    Size  Location     Type
  6620 ;;		None
  6621 ;; Auto vars:     Size  Location     Type
  6622 ;;		None
  6623 ;; Return value:  Size  Location     Type
  6624 ;;                  1    wreg      void 
  6625 ;; Registers used:
  6626 ;;		wreg, fsr0l, fsr0h, fsr1l, fsr1h, status,2, status,0, pclath, cstack
  6627 ;; Tracked objects:
  6628 ;;		On entry : 0/0
  6629 ;;		On exit  : 0/0
  6630 ;;		Unchanged: 0/0
  6631 ;; Data sizes:     COMMON   BANK0   BANK1   BANK2   BANK3   BANK4   BANK5   BANK6   BANK7   BANK8   BANK9  BANK10  BANK1
      +1  BANK12
  6632 ;;      Params:         0       0       0       0       0       0       0       0       0       0       0       0       
      +0       0
  6633 ;;      Locals:         0       0       0       0       0       0       0       0       0       0       0       0       
      +0       0
  6634 ;;      Temps:          0       0       0       0       0       0       0       0       0       0       0       0       
      +0       0
  6635 ;;      Totals:         0       0       0       0       0       0       0       0       0       0       0       0       
      +0       0
  6636 ;;Total ram usage:        0 bytes
  6637 ;; Hardware stack levels used:    1
  6638 ;; Hardware stack levels required when called:    9
  6639 ;; This function calls:
  6640 ;;		_TMR0_ISR
  6641 ;;		_USBDeviceTasks
  6642 ;; This function is called by:
  6643 ;;		Interrupt level 1
  6644 ;; This function uses a non-reentrant model
  6645 ;;
  6646                           
  6647  0004                     _INTERRUPT_InterruptManager:
  6648                           
  6649                           ;incstack = 0
  6650  0004  147E               	bsf	int$flags,0	;set compiler interrupt flag (level 1)
  6651                           
  6652                           ; Regs used in _INTERRUPT_InterruptManager: [wreg-fsr1h+status,2+status,0+pclath+cstack]
  6653  0005  3180               	pagesel	$
  6654  0006                     i1l5783:
  6655                           
  6656                           ;mcc_generated_files/interrupt_manager.c: 55:     if(INTCONbits.TMR0IE == 1 && INTCONbit
      +                          s.TMR0IF == 1)
  6657  0006  1E8B               	btfss	11,5	;volatile
  6658  0007  2809               	goto	u487_21
  6659  0008  280A               	goto	u487_20
  6660  0009                     u487_21:
  6661  0009  2812               	goto	i1l757
  6662  000A                     u487_20:
  6663  000A                     i1l5785:
  6664  000A  1D0B               	btfss	11,2	;volatile
  6665  000B  280D               	goto	u488_21
  6666  000C  280E               	goto	u488_20
  6667  000D                     u488_21:
  6668  000D  2812               	goto	i1l757
  6669  000E                     u488_20:
  6670  000E                     i1l5787:
  6671                           
  6672                           ;mcc_generated_files/interrupt_manager.c: 56:     {;mcc_generated_files/interrupt_manage
      +                          r.c: 57:         TMR0_ISR();
  6673  000E  3195  2507  3180   	fcall	_TMR0_ISR
  6674                           
  6675                           ;mcc_generated_files/interrupt_manager.c: 58:     }
  6676  0011  2824               	goto	i1l763
  6677  0012                     i1l757:	
  6678                           ;mcc_generated_files/interrupt_manager.c: 59:     else if(INTCONbits.PEIE == 1)
  6679                           
  6680  0012  1F0B               	btfss	11,6	;volatile
  6681  0013  2815               	goto	u489_21
  6682  0014  2816               	goto	u489_20
  6683  0015                     u489_21:
  6684  0015  2824               	goto	i1l763
  6685  0016                     u489_20:
  6686  0016                     i1l5789:
  6687                           
  6688                           ;mcc_generated_files/interrupt_manager.c: 60:     {;mcc_generated_files/interrupt_manage
      +                          r.c: 61:         if(PIE2bits.USBIE == 1 && PIR2bits.USBIF == 1)
  6689  0016  0021               	movlb	1	; select bank1
  6690  0017  1D12               	btfss	18,2	;volatile
  6691  0018  281A               	goto	u490_21
  6692  0019  281B               	goto	u490_20
  6693  001A                     u490_21:
  6694  001A  2824               	goto	i1l762
  6695  001B                     u490_20:
  6696  001B                     i1l5791:
  6697  001B  0020               	movlb	0	; select bank0
  6698  001C  1D12               	btfss	18,2	;volatile
  6699  001D  281F               	goto	u491_21
  6700  001E  2820               	goto	u491_20
  6701  001F                     u491_21:
  6702  001F  2824               	goto	i1l762
  6703  0020                     u491_20:
  6704  0020                     i1l5793:
  6705                           
  6706                           ;mcc_generated_files/interrupt_manager.c: 62:         {;mcc_generated_files/interrupt_ma
      +                          nager.c: 63:             USBDeviceTasks();
  6707  0020  318E  26E0  3180   	fcall	_USBDeviceTasks
  6708                           
  6709                           ;mcc_generated_files/interrupt_manager.c: 64:         }
  6710  0023  2824               	goto	i1l763
  6711  0024                     i1l762:	
  6712                           ;mcc_generated_files/interrupt_manager.c: 71:     {;mcc_generated_files/interrupt_manage
      +                          r.c: 73:     }
  6713                           
  6714  0024                     i1l763:
  6715  0024  107E               	bcf	int$flags,0	;clear compiler interrupt flag (level 1)
  6716  0025  0009               	retfie
  6717  0026                     __end_of_INTERRUPT_InterruptManager:
  6718                           
  6719                           	psect	text21
  6720  0EE0                     __ptext21:	
  6721 ;; *************** function _USBDeviceTasks *****************
  6722 ;; Defined at:
  6723 ;;		line 481 in file "mcc_generated_files/usb/usb_device.c"
  6724 ;; Parameters:    Size  Location     Type
  6725 ;;		None
  6726 ;; Auto vars:     Size  Location     Type
  6727 ;;  i               1    4[BANK1 ] unsigned char 
  6728 ;; Return value:  Size  Location     Type
  6729 ;;                  1    wreg      void 
  6730 ;; Registers used:
  6731 ;;		wreg, fsr0l, fsr0h, fsr1l, fsr1h, status,2, status,0, pclath, cstack
  6732 ;; Tracked objects:
  6733 ;;		On entry : 0/0
  6734 ;;		On exit  : 0/0
  6735 ;;		Unchanged: 0/0
  6736 ;; Data sizes:     COMMON   BANK0   BANK1   BANK2   BANK3   BANK4   BANK5   BANK6   BANK7   BANK8   BANK9  BANK10  BANK1
      +1  BANK12
  6737 ;;      Params:         0       0       0       0       0       0       0       0       0       0       0       0       
      +0       0
  6738 ;;      Locals:         0       0       1       0       0       0       0       0       0       0       0       0       
      +0       0
  6739 ;;      Temps:          0       0       2       0       0       0       0       0       0       0       0       0       
      +0       0
  6740 ;;      Totals:         0       0       3       0       0       0       0       0       0       0       0       0       
      +0       0
  6741 ;;Total ram usage:        3 bytes
  6742 ;; Hardware stack levels used:    1
  6743 ;; Hardware stack levels required when called:    8
  6744 ;; This function calls:
  6745 ;;		_USBCtrlEPAllowStatusStage
  6746 ;;		_USBCtrlEPService
  6747 ;;		_USBIncrement1msInternalTimers
  6748 ;;		_USBStallHandler
  6749 ;;		_USBSuspend
  6750 ;;		_USBWakeFromSuspend
  6751 ;;		_USER_USB_CALLBACK_EVENT_HANDLER
  6752 ;;		i1_USBDeviceInit
  6753 ;; This function is called by:
  6754 ;;		_INTERRUPT_InterruptManager
  6755 ;; This function uses a non-reentrant model
  6756 ;;
  6757                           
  6758                           
  6759                           ;psect for function _USBDeviceTasks
  6760  0EE0                     _USBDeviceTasks:
  6761  0EE0                     i1l5537:	
  6762                           ;incstack = 0
  6763                           ; Regs used in _USBDeviceTasks: [wreg-fsr1h+status,2+status,0+pclath+cstack]
  6764                           
  6765                           
  6766                           ;mcc_generated_files/usb/usb_device.c: 483:     uint8_t i;;mcc_generated_files/usb/usb_d
      +                          evice.c: 594:     if(USBDeviceState == ATTACHED_STATE)
  6767  0EE0  0021               	movlb	1	; select bank1
  6768  0EE1  0333               	decf	_USBDeviceState^(0+128),w	;volatile
  6769  0EE2  1D03               	btfss	3,2
  6770  0EE3  2EE5               	goto	u441_21
  6771  0EE4  2EE6               	goto	u441_20
  6772  0EE5                     u441_21:
  6773  0EE5  2EF3               	goto	i1l5549
  6774  0EE6                     u441_20:
  6775  0EE6                     i1l5539:
  6776                           
  6777                           ;mcc_generated_files/usb/usb_device.c: 595:     {;mcc_generated_files/usb/usb_device.c: 
      +                          605:         if(!UCONbits.SE0)
  6778  0EE6  003D               	movlb	29	; select bank29
  6779  0EE7  1A8E               	btfsc	14,5	;volatile
  6780  0EE8  2EEA               	goto	u442_21
  6781  0EE9  2EEB               	goto	u442_20
  6782  0EEA                     u442_21:
  6783  0EEA  2EF3               	goto	i1l5549
  6784  0EEB                     u442_20:
  6785  0EEB                     i1l5541:
  6786                           
  6787                           ;mcc_generated_files/usb/usb_device.c: 606:         {;mcc_generated_files/usb/usb_device
      +                          .c: 612:                 {UIR = 0;};
  6788  0EEB  0190               	clrf	16	;volatile
  6789  0EEC                     i1l5543:
  6790                           
  6791                           ;mcc_generated_files/usb/usb_device.c: 618:             UIEbits.URSTIE = 1;
  6792  0EEC  1412               	bsf	18,0	;volatile
  6793  0EED                     i1l5545:
  6794                           
  6795                           ;mcc_generated_files/usb/usb_device.c: 619:             UIEbits.IDLEIE = 1;
  6796  0EED  1612               	bsf	18,4	;volatile
  6797  0EEE                     i1l5547:
  6798                           
  6799                           ;mcc_generated_files/usb/usb_device.c: 620:             USBDeviceState = POWERED_STATE;
  6800  0EEE  3002               	movlw	2
  6801  0EEF  0021               	movlb	1	; select bank1
  6802  0EF0  00B8               	movwf	??_USBDeviceTasks^(0+128)
  6803  0EF1  0838               	movf	??_USBDeviceTasks^(0+128),w
  6804  0EF2  00B3               	movwf	_USBDeviceState^(0+128)	;volatile
  6805  0EF3                     i1l5549:
  6806                           
  6807                           ;mcc_generated_files/usb/usb_device.c: 638:     if(UIRbits.ACTVIF && UIEbits.ACTVIE)
  6808  0EF3  003D               	movlb	29	; select bank29
  6809  0EF4  1D10               	btfss	16,2	;volatile
  6810  0EF5  2EF7               	goto	u443_21
  6811  0EF6  2EF8               	goto	u443_20
  6812  0EF7                     u443_21:
  6813  0EF7  2F05               	goto	i1l5557
  6814  0EF8                     u443_20:
  6815  0EF8                     i1l5551:
  6816  0EF8  1D12               	btfss	18,2	;volatile
  6817  0EF9  2EFB               	goto	u444_21
  6818  0EFA  2EFC               	goto	u444_20
  6819  0EFB                     u444_21:
  6820  0EFB  2F05               	goto	i1l5557
  6821  0EFC                     u444_20:
  6822  0EFC                     i1l5553:
  6823                           
  6824                           ;mcc_generated_files/usb/usb_device.c: 639:     {;mcc_generated_files/usb/usb_device.c: 
      +                          640:         (UIR &= 0xFB);
  6825  0EFC  30FB               	movlw	251
  6826  0EFD  0021               	movlb	1	; select bank1
  6827  0EFE  00B8               	movwf	??_USBDeviceTasks^(0+128)
  6828  0EFF  0838               	movf	??_USBDeviceTasks^(0+128),w
  6829  0F00  003D               	movlb	29	; select bank29
  6830  0F01  0590               	andwf	16,f	;volatile
  6831  0F02                     i1l5555:
  6832                           
  6833                           ;mcc_generated_files/usb/usb_device.c: 644:             USBWakeFromSuspend();
  6834  0F02  3192  22B0  318E   	fcall	_USBWakeFromSuspend
  6835  0F05                     i1l5557:
  6836                           
  6837                           ;mcc_generated_files/usb/usb_device.c: 651:     if(UCONbits.SUSPND==1)
  6838  0F05  003D               	movlb	29	; select bank29
  6839  0F06  1C8E               	btfss	14,1	;volatile
  6840  0F07  2F09               	goto	u445_21
  6841  0F08  2F0A               	goto	u445_20
  6842  0F09                     u445_21:
  6843  0F09  2F0D               	goto	i1l147
  6844  0F0A                     u445_20:
  6845  0F0A                     i1l5559:
  6846                           
  6847                           ;mcc_generated_files/usb/usb_device.c: 652:     {;mcc_generated_files/usb/usb_device.c: 
      +                          653:         PIR2bits.USBIF = 0;;
  6848  0F0A  0020               	movlb	0	; select bank0
  6849  0F0B  1112               	bcf	18,2	;volatile
  6850                           
  6851                           ;mcc_generated_files/usb/usb_device.c: 654:         return;
  6852  0F0C  2FFF               	goto	i1l148
  6853  0F0D                     i1l147:	
  6854                           ;mcc_generated_files/usb/usb_device.c: 655:     }
  6855                           
  6856                           
  6857                           ;mcc_generated_files/usb/usb_device.c: 667:     if(UIRbits.URSTIF && UIEbits.URSTIE)
  6858  0F0D  1C10               	btfss	16,0	;volatile
  6859  0F0E  2F10               	goto	u446_21
  6860  0F0F  2F11               	goto	u446_20
  6861  0F10                     u446_21:
  6862  0F10  2F23               	goto	i1l5571
  6863  0F11                     u446_20:
  6864  0F11                     i1l5561:
  6865  0F11  1C12               	btfss	18,0	;volatile
  6866  0F12  2F14               	goto	u447_21
  6867  0F13  2F15               	goto	u447_20
  6868  0F14                     u447_21:
  6869  0F14  2F23               	goto	i1l5571
  6870  0F15                     u447_20:
  6871  0F15                     i1l5563:
  6872                           
  6873                           ;mcc_generated_files/usb/usb_device.c: 668:     {;mcc_generated_files/usb/usb_device.c: 
      +                          669:         USBDeviceInit();
  6874  0F15  318B  234B  318E   	fcall	i1_USBDeviceInit
  6875  0F18                     i1l5565:
  6876                           
  6877                           ;mcc_generated_files/usb/usb_device.c: 673:         {PIE2bits.USBIE = 1;};
  6878  0F18  0021               	movlb	1	; select bank1
  6879  0F19  1512               	bsf	18,2	;volatile
  6880  0F1A                     i1l5567:
  6881                           
  6882                           ;mcc_generated_files/usb/usb_device.c: 675:         USBDeviceState = DEFAULT_STATE;
  6883  0F1A  3004               	movlw	4
  6884  0F1B  00B8               	movwf	??_USBDeviceTasks^(0+128)
  6885  0F1C  0838               	movf	??_USBDeviceTasks^(0+128),w
  6886  0F1D  00B3               	movwf	_USBDeviceState^(0+128)	;volatile
  6887  0F1E                     i1l5569:
  6888                           
  6889                           ;mcc_generated_files/usb/usb_device.c: 685:         (UIR &= 0xFE);
  6890  0F1E  30FE               	movlw	254
  6891  0F1F  00B8               	movwf	??_USBDeviceTasks^(0+128)
  6892  0F20  0838               	movf	??_USBDeviceTasks^(0+128),w
  6893  0F21  003D               	movlb	29	; select bank29
  6894  0F22  0590               	andwf	16,f	;volatile
  6895  0F23                     i1l5571:
  6896                           
  6897                           ;mcc_generated_files/usb/usb_device.c: 691:     if(UIRbits.IDLEIF && UIEbits.IDLEIE)
  6898  0F23  1E10               	btfss	16,4	;volatile
  6899  0F24  2F26               	goto	u448_21
  6900  0F25  2F27               	goto	u448_20
  6901  0F26                     u448_21:
  6902  0F26  2F2E               	goto	i1l5577
  6903  0F27                     u448_20:
  6904  0F27                     i1l5573:
  6905  0F27  1E12               	btfss	18,4	;volatile
  6906  0F28  2F2A               	goto	u449_21
  6907  0F29  2F2B               	goto	u449_20
  6908  0F2A                     u449_21:
  6909  0F2A  2F2E               	goto	i1l5577
  6910  0F2B                     u449_20:
  6911  0F2B                     i1l5575:
  6912                           
  6913                           ;mcc_generated_files/usb/usb_device.c: 692:     {;mcc_generated_files/usb/usb_device.c: 
      +                          698:             USBSuspend();
  6914  0F2B  3192  2290  318E   	fcall	_USBSuspend
  6915  0F2E                     i1l5577:
  6916                           
  6917                           ;mcc_generated_files/usb/usb_device.c: 712:     if(UIRbits.SOFIF)
  6918  0F2E  003D               	movlb	29	; select bank29
  6919  0F2F  1F10               	btfss	16,6	;volatile
  6920  0F30  2F32               	goto	u450_21
  6921  0F31  2F33               	goto	u450_20
  6922  0F32                     u450_21:
  6923  0F32  2F60               	goto	i1l5593
  6924  0F33                     u450_20:
  6925  0F33                     i1l5579:
  6926                           
  6927                           ;mcc_generated_files/usb/usb_device.c: 713:     {;mcc_generated_files/usb/usb_device.c: 
      +                          715:         if(UIEbits.SOFIE)
  6928  0F33  1F12               	btfss	18,6	;volatile
  6929  0F34  2F36               	goto	u451_21
  6930  0F35  2F37               	goto	u451_20
  6931  0F36                     u451_21:
  6932  0F36  2F47               	goto	i1l5583
  6933  0F37                     u451_20:
  6934  0F37                     i1l5581:
  6935                           
  6936                           ;mcc_generated_files/usb/usb_device.c: 716:         {;mcc_generated_files/usb/usb_device
      +                          .c: 717:             USER_USB_CALLBACK_EVENT_HANDLER((USB_EVENT)EVENT_SOF,0,1);
  6937  0F37  3073               	movlw	115
  6938  0F38  0020               	movlb	0	; select bank0
  6939  0F39  00E0               	movwf	USER_USB_CALLBACK_EVENT_HANDLER@event
  6940  0F3A  3000               	movlw	0
  6941  0F3B  00E1               	movwf	USER_USB_CALLBACK_EVENT_HANDLER@event+1
  6942  0F3C  3000               	movlw	0
  6943  0F3D  00E2               	movwf	USER_USB_CALLBACK_EVENT_HANDLER@pdata
  6944  0F3E  3000               	movlw	0
  6945  0F3F  00E3               	movwf	USER_USB_CALLBACK_EVENT_HANDLER@pdata+1
  6946  0F40  3001               	movlw	1
  6947  0F41  00E4               	movwf	USER_USB_CALLBACK_EVENT_HANDLER@size
  6948  0F42  3000               	movlw	0
  6949  0F43  00E5               	movwf	USER_USB_CALLBACK_EVENT_HANDLER@size+1
  6950  0F44  3193  2374  318E   	fcall	_USER_USB_CALLBACK_EVENT_HANDLER
  6951  0F47                     i1l5583:
  6952                           
  6953                           ;mcc_generated_files/usb/usb_device.c: 719:         (UIR &= 0xBF);
  6954  0F47  30BF               	movlw	191
  6955  0F48  0021               	movlb	1	; select bank1
  6956  0F49  00B8               	movwf	??_USBDeviceTasks^(0+128)
  6957  0F4A  0838               	movf	??_USBDeviceTasks^(0+128),w
  6958  0F4B  003D               	movlb	29	; select bank29
  6959  0F4C  0590               	andwf	16,f	;volatile
  6960  0F4D                     i1l5585:
  6961                           
  6962                           ;mcc_generated_files/usb/usb_device.c: 722:             USBIncrement1msInternalTimers();
  6963  0F4D  3192  2256  318E   	fcall	_USBIncrement1msInternalTimers
  6964  0F50                     i1l5587:
  6965                           
  6966                           ;mcc_generated_files/usb/usb_device.c: 739:             if(USBStatusStageTimeoutCounter 
      +                          != 0u)
  6967  0F50  0023               	movlb	3	; select bank3
  6968  0F51  0867               	movf	_USBStatusStageTimeoutCounter^(0+384),w	;volatile
  6969  0F52  1903               	btfsc	3,2
  6970  0F53  2F55               	goto	u452_21
  6971  0F54  2F56               	goto	u452_20
  6972  0F55                     u452_21:
  6973  0F55  2F58               	goto	i1l153
  6974  0F56                     u452_20:
  6975  0F56                     i1l5589:
  6976                           
  6977                           ;mcc_generated_files/usb/usb_device.c: 740:             {;mcc_generated_files/usb/usb_de
      +                          vice.c: 741:                 USBStatusStageTimeoutCounter--;
  6978  0F56  3001               	movlw	1
  6979  0F57  02E7               	subwf	_USBStatusStageTimeoutCounter^(0+384),f	;volatile
  6980  0F58                     i1l153:	
  6981                           ;mcc_generated_files/usb/usb_device.c: 742:             }
  6982                           
  6983                           
  6984                           ;mcc_generated_files/usb/usb_device.c: 748:             if(USBStatusStageTimeoutCounter 
      +                          == 0)
  6985  0F58  0867               	movf	_USBStatusStageTimeoutCounter^(0+384),w	;volatile
  6986  0F59  1D03               	btfss	3,2
  6987  0F5A  2F5C               	goto	u453_21
  6988  0F5B  2F5D               	goto	u453_20
  6989  0F5C                     u453_21:
  6990  0F5C  2F60               	goto	i1l5593
  6991  0F5D                     u453_20:
  6992  0F5D                     i1l5591:
  6993                           
  6994                           ;mcc_generated_files/usb/usb_device.c: 749:             {;mcc_generated_files/usb/usb_de
      +                          vice.c: 750:                 USBCtrlEPAllowStatusStage();
  6995  0F5D  3197  270D  318E   	fcall	_USBCtrlEPAllowStatusStage
  6996  0F60                     i1l5593:
  6997                           
  6998                           ;mcc_generated_files/usb/usb_device.c: 755:     if(UIRbits.STALLIF && UIEbits.STALLIE)
  6999  0F60  003D               	movlb	29	; select bank29
  7000  0F61  1E90               	btfss	16,5	;volatile
  7001  0F62  2F64               	goto	u454_21
  7002  0F63  2F65               	goto	u454_20
  7003  0F64                     u454_21:
  7004  0F64  2F6C               	goto	i1l5599
  7005  0F65                     u454_20:
  7006  0F65                     i1l5595:
  7007  0F65  1E92               	btfss	18,5	;volatile
  7008  0F66  2F68               	goto	u455_21
  7009  0F67  2F69               	goto	u455_20
  7010  0F68                     u455_21:
  7011  0F68  2F6C               	goto	i1l5599
  7012  0F69                     u455_20:
  7013  0F69                     i1l5597:
  7014                           
  7015                           ;mcc_generated_files/usb/usb_device.c: 756:     {;mcc_generated_files/usb/usb_device.c: 
      +                          757:         USBStallHandler();
  7016  0F69  3193  231B  318E   	fcall	_USBStallHandler
  7017  0F6C                     i1l5599:
  7018                           
  7019                           ;mcc_generated_files/usb/usb_device.c: 760:     if(UIRbits.UERRIF && UIEbits.UERRIE)
  7020  0F6C  003D               	movlb	29	; select bank29
  7021  0F6D  1C90               	btfss	16,1	;volatile
  7022  0F6E  2F70               	goto	u456_21
  7023  0F6F  2F71               	goto	u456_20
  7024  0F70                     u456_21:
  7025  0F70  2F87               	goto	i1l5607
  7026  0F71                     u456_20:
  7027  0F71                     i1l5601:
  7028  0F71  1C92               	btfss	18,1	;volatile
  7029  0F72  2F74               	goto	u457_21
  7030  0F73  2F75               	goto	u457_20
  7031  0F74                     u457_21:
  7032  0F74  2F87               	goto	i1l5607
  7033  0F75                     u457_20:
  7034  0F75                     i1l5603:
  7035                           
  7036                           ;mcc_generated_files/usb/usb_device.c: 761:     {;mcc_generated_files/usb/usb_device.c: 
      +                          762:         USER_USB_CALLBACK_EVENT_HANDLER((USB_EVENT)EVENT_BUS_ERROR,0,1);
  7037  0F75  30FF               	movlw	255
  7038  0F76  0020               	movlb	0	; select bank0
  7039  0F77  00E0               	movwf	USER_USB_CALLBACK_EVENT_HANDLER@event
  7040  0F78  307F               	movlw	127
  7041  0F79  00E1               	movwf	USER_USB_CALLBACK_EVENT_HANDLER@event+1
  7042  0F7A  3000               	movlw	0
  7043  0F7B  00E2               	movwf	USER_USB_CALLBACK_EVENT_HANDLER@pdata
  7044  0F7C  3000               	movlw	0
  7045  0F7D  00E3               	movwf	USER_USB_CALLBACK_EVENT_HANDLER@pdata+1
  7046  0F7E  3001               	movlw	1
  7047  0F7F  00E4               	movwf	USER_USB_CALLBACK_EVENT_HANDLER@size
  7048  0F80  3000               	movlw	0
  7049  0F81  00E5               	movwf	USER_USB_CALLBACK_EVENT_HANDLER@size+1
  7050  0F82  3193  2374  318E   	fcall	_USER_USB_CALLBACK_EVENT_HANDLER
  7051  0F85                     i1l5605:
  7052                           
  7053                           ;mcc_generated_files/usb/usb_device.c: 763:         {UEIR = 0;};
  7054  0F85  003D               	movlb	29	; select bank29
  7055  0F86  0193               	clrf	19	;volatile
  7056  0F87                     i1l5607:
  7057                           
  7058                           ;mcc_generated_files/usb/usb_device.c: 778:     if(USBDeviceState < DEFAULT_STATE)
  7059  0F87  3004               	movlw	4
  7060  0F88  0021               	movlb	1	; select bank1
  7061  0F89  0233               	subwf	_USBDeviceState^(0+128),w	;volatile
  7062  0F8A  1803               	skipnc
  7063  0F8B  2F8D               	goto	u458_21
  7064  0F8C  2F8E               	goto	u458_20
  7065  0F8D                     u458_21:
  7066  0F8D  2F91               	goto	i1l157
  7067  0F8E                     u458_20:
  7068  0F8E                     i1l5609:
  7069                           
  7070                           ;mcc_generated_files/usb/usb_device.c: 779:     {;mcc_generated_files/usb/usb_device.c: 
      +                          780:         PIR2bits.USBIF = 0;;
  7071  0F8E  0020               	movlb	0	; select bank0
  7072  0F8F  1112               	bcf	18,2	;volatile
  7073                           
  7074                           ;mcc_generated_files/usb/usb_device.c: 781:         return;
  7075  0F90  2FFF               	goto	i1l148
  7076  0F91                     i1l157:	
  7077                           ;mcc_generated_files/usb/usb_device.c: 782:     }
  7078                           
  7079                           
  7080                           ;mcc_generated_files/usb/usb_device.c: 787:     if(UIEbits.TRNIE)
  7081  0F91  003D               	movlb	29	; select bank29
  7082  0F92  1D92               	btfss	18,3	;volatile
  7083  0F93  2F95               	goto	u459_21
  7084  0F94  2F96               	goto	u459_20
  7085  0F95                     u459_21:
  7086  0F95  2FFD               	goto	i1l158
  7087  0F96                     u459_20:
  7088  0F96                     i1l5611:
  7089                           
  7090                           ;mcc_generated_files/usb/usb_device.c: 788:     {;mcc_generated_files/usb/usb_device.c: 
      +                          789:         for(i = 0; i < 4u; i++)
  7091  0F96  0021               	movlb	1	; select bank1
  7092  0F97  01BA               	clrf	USBDeviceTasks@i^(0+128)
  7093  0F98                     i1l159:
  7094                           
  7095                           ;mcc_generated_files/usb/usb_device.c: 790:         {;mcc_generated_files/usb/usb_device
      +                          .c: 791:             if(UIRbits.TRNIF)
  7096  0F98  003D               	movlb	29	; select bank29
  7097  0F99  1D90               	btfss	16,3	;volatile
  7098  0F9A  2F9C               	goto	u460_21
  7099  0F9B  2F9D               	goto	u460_20
  7100  0F9C                     u460_21:
  7101  0F9C  2FFD               	goto	i1l158
  7102  0F9D                     u460_20:
  7103  0F9D                     i1l5617:
  7104                           
  7105                           ;mcc_generated_files/usb/usb_device.c: 792:             {;mcc_generated_files/usb/usb_de
      +                          vice.c: 794:                 USTATcopy.Val = USTAT;
  7106  0F9D  080F               	movf	15,w	;volatile
  7107  0F9E  0021               	movlb	1	; select bank1
  7108  0F9F  00B8               	movwf	??_USBDeviceTasks^(0+128)
  7109  0FA0  0838               	movf	??_USBDeviceTasks^(0+128),w
  7110  0FA1  00B4               	movwf	_USTATcopy^(0+128)	;volatile
  7111  0FA2                     i1l5619:
  7112                           
  7113                           ;mcc_generated_files/usb/usb_device.c: 795:                 endpoint_number = USTATcopy.
      +                          endpoint_number;
  7114  0FA2  0C34               	rrf	_USTATcopy^(0+128),w	;volatile
  7115  0FA3  00B8               	movwf	??_USBDeviceTasks^(0+128)
  7116  0FA4  0CB8               	rrf	??_USBDeviceTasks^(0+128),f
  7117  0FA5  0C38               	rrf	??_USBDeviceTasks^(0+128),w
  7118  0FA6  390F               	andlw	15
  7119  0FA7  00B9               	movwf	(??_USBDeviceTasks+1)^(0+128)
  7120  0FA8  0839               	movf	(??_USBDeviceTasks+1)^(0+128),w
  7121  0FA9  0023               	movlb	3	; select bank3
  7122  0FAA  00E9               	movwf	_endpoint_number^(0+384)	;volatile
  7123  0FAB                     i1l5621:
  7124                           
  7125                           ;mcc_generated_files/usb/usb_device.c: 797:                 (UIR &= 0xF7);
  7126  0FAB  30F7               	movlw	247
  7127  0FAC  0021               	movlb	1	; select bank1
  7128  0FAD  00B8               	movwf	??_USBDeviceTasks^(0+128)
  7129  0FAE  0838               	movf	??_USBDeviceTasks^(0+128),w
  7130  0FAF  003D               	movlb	29	; select bank29
  7131  0FB0  0590               	andwf	16,f	;volatile
  7132  0FB1                     i1l5623:
  7133                           
  7134                           ;mcc_generated_files/usb/usb_device.c: 802:                 if(USTATcopy.direction == 0)
  7135  0FB1  0021               	movlb	1	; select bank1
  7136  0FB2  1934               	btfsc	_USTATcopy^(0+128),2	;volatile
  7137  0FB3  2FB5               	goto	u461_21
  7138  0FB4  2FB6               	goto	u461_20
  7139  0FB5                     u461_21:
  7140  0FB5  2FC8               	goto	i1l5627
  7141  0FB6                     u461_20:
  7142  0FB6                     i1l5625:
  7143                           
  7144                           ;mcc_generated_files/usb/usb_device.c: 803:                 {;mcc_generated_files/usb/us
      +                          b_device.c: 804:                     ep_data_out[endpoint_number].bits.ping_pong_state ^
      +                          = 1;
  7145  0FB6  0023               	movlb	3	; select bank3
  7146  0FB7  0869               	movf	_endpoint_number^(0+384),w	;volatile
  7147  0FB8  3EC1               	addlw	(low (_ep_data_out| (0+256)))& (0+255)
  7148  0FB9  0086               	movwf	6
  7149  0FBA  3001               	movlw	1	; select bank3/4
  7150  0FBB  0087               	movwf	7
  7151  0FBC  0801               	movf	1,w
  7152  0FBD  3901               	andlw	1
  7153  0FBE  0021               	movlb	1	; select bank1
  7154  0FBF  00B8               	movwf	??_USBDeviceTasks^(0+128)
  7155  0FC0  3001               	movlw	1
  7156  0FC1  06B8               	xorwf	??_USBDeviceTasks^(0+128),f
  7157  0FC2  0801               	movf	1,w
  7158  0FC3  0638               	xorwf	??_USBDeviceTasks^(0+128),w
  7159  0FC4  39FE               	andlw	-2
  7160  0FC5  0638               	xorwf	??_USBDeviceTasks^(0+128),w
  7161  0FC6  0081               	movwf	1
  7162                           
  7163                           ;mcc_generated_files/usb/usb_device.c: 805:                 }
  7164  0FC7  2FD9               	goto	i1l5629
  7165  0FC8                     i1l5627:
  7166                           
  7167                           ;mcc_generated_files/usb/usb_device.c: 807:                 {;mcc_generated_files/usb/us
      +                          b_device.c: 808:                     ep_data_in[endpoint_number].bits.ping_pong_state ^=
      +                           1;
  7168  0FC8  0023               	movlb	3	; select bank3
  7169  0FC9  0869               	movf	_endpoint_number^(0+384),w	;volatile
  7170  0FCA  3EC4               	addlw	(low (_ep_data_in| (0+256)))& (0+255)
  7171  0FCB  0086               	movwf	6
  7172  0FCC  3001               	movlw	1	; select bank3/4
  7173  0FCD  0087               	movwf	7
  7174  0FCE  0801               	movf	1,w
  7175  0FCF  3901               	andlw	1
  7176  0FD0  0021               	movlb	1	; select bank1
  7177  0FD1  00B8               	movwf	??_USBDeviceTasks^(0+128)
  7178  0FD2  3001               	movlw	1
  7179  0FD3  06B8               	xorwf	??_USBDeviceTasks^(0+128),f
  7180  0FD4  0801               	movf	1,w
  7181  0FD5  0638               	xorwf	??_USBDeviceTasks^(0+128),w
  7182  0FD6  39FE               	andlw	-2
  7183  0FD7  0638               	xorwf	??_USBDeviceTasks^(0+128),w
  7184  0FD8  0081               	movwf	1
  7185  0FD9                     i1l5629:
  7186                           
  7187                           ;mcc_generated_files/usb/usb_device.c: 814:                 if(endpoint_number == 0)
  7188  0FD9  0023               	movlb	3	; select bank3
  7189  0FDA  0869               	movf	_endpoint_number^(0+384),w	;volatile
  7190  0FDB  1D03               	btfss	3,2
  7191  0FDC  2FDE               	goto	u462_21
  7192  0FDD  2FDF               	goto	u462_20
  7193  0FDE                     u462_21:
  7194  0FDE  2FE3               	goto	i1l5633
  7195  0FDF                     u462_20:
  7196  0FDF                     i1l5631:
  7197                           
  7198                           ;mcc_generated_files/usb/usb_device.c: 815:                 {;mcc_generated_files/usb/us
      +                          b_device.c: 816:                     USBCtrlEPService();
  7199  0FDF  3194  24B1  318E   	fcall	_USBCtrlEPService
  7200                           
  7201                           ;mcc_generated_files/usb/usb_device.c: 817:                 }
  7202  0FE2  2FF2               	goto	i1l5635
  7203  0FE3                     i1l5633:
  7204                           
  7205                           ;mcc_generated_files/usb/usb_device.c: 819:                 {;mcc_generated_files/usb/us
      +                          b_device.c: 820:                     USER_USB_CALLBACK_EVENT_HANDLER((USB_EVENT)EVENT_TR
      +                          ANSFER,(uint8_t*)&USTATcopy.Val,0);
  7206  0FE3  3072               	movlw	114
  7207  0FE4  0020               	movlb	0	; select bank0
  7208  0FE5  00E0               	movwf	USER_USB_CALLBACK_EVENT_HANDLER@event
  7209  0FE6  3000               	movlw	0
  7210  0FE7  00E1               	movwf	USER_USB_CALLBACK_EVENT_HANDLER@event+1
  7211  0FE8  30B4               	movlw	low _USTATcopy
  7212  0FE9  00E2               	movwf	USER_USB_CALLBACK_EVENT_HANDLER@pdata
  7213  0FEA  3000               	movlw	high _USTATcopy
  7214  0FEB  00E3               	movwf	USER_USB_CALLBACK_EVENT_HANDLER@pdata+1
  7215  0FEC  3000               	movlw	0
  7216  0FED  00E4               	movwf	USER_USB_CALLBACK_EVENT_HANDLER@size
  7217  0FEE  00E5               	movwf	USER_USB_CALLBACK_EVENT_HANDLER@size+1
  7218  0FEF  3193  2374  318E   	fcall	_USER_USB_CALLBACK_EVENT_HANDLER
  7219  0FF2                     i1l5635:
  7220                           
  7221                           ;mcc_generated_files/usb/usb_device.c: 827:         }
  7222  0FF2  3001               	movlw	1
  7223  0FF3  0021               	movlb	1	; select bank1
  7224  0FF4  00B8               	movwf	??_USBDeviceTasks^(0+128)
  7225  0FF5  0838               	movf	??_USBDeviceTasks^(0+128),w
  7226  0FF6  07BA               	addwf	USBDeviceTasks@i^(0+128),f
  7227  0FF7                     i1l5637:
  7228  0FF7  3004               	movlw	4
  7229  0FF8  023A               	subwf	USBDeviceTasks@i^(0+128),w
  7230  0FF9  1C03               	skipc
  7231  0FFA  2FFC               	goto	u463_21
  7232  0FFB  2FFD               	goto	u463_20
  7233  0FFC                     u463_21:
  7234  0FFC  2F98               	goto	i1l159
  7235  0FFD                     u463_20:
  7236  0FFD                     i1l158:	
  7237                           ;mcc_generated_files/usb/usb_device.c: 828:     }
  7238                           
  7239                           
  7240                           ;mcc_generated_files/usb/usb_device.c: 830:     PIR2bits.USBIF = 0;;
  7241  0FFD  0020               	movlb	0	; select bank0
  7242  0FFE  1112               	bcf	18,2	;volatile
  7243  0FFF                     i1l148:
  7244  0FFF  0008               	return
  7245  1000                     __end_of_USBDeviceTasks:
  7246                           
  7247                           	psect	text22
  7248  0B4B                     __ptext22:	
  7249 ;; *************** function i1_USBDeviceInit *****************
  7250 ;; Defined at:
  7251 ;;		line 281 in file "mcc_generated_files/usb/usb_device.c"
  7252 ;; Parameters:    Size  Location     Type
  7253 ;;		None
  7254 ;; Auto vars:     Size  Location     Type
  7255 ;;  p               2    1[COMMON] PTR unsigned char 
  7256 ;;		 -> UEP1(1), 
  7257 ;;  i               1    4[COMMON] unsigned char 
  7258 ;;  i               1    3[COMMON] unsigned char 
  7259 ;; Return value:  Size  Location     Type
  7260 ;;                  1    wreg      void 
  7261 ;; Registers used:
  7262 ;;		wreg, fsr1l, fsr1h, status,2, status,0
  7263 ;; Tracked objects:
  7264 ;;		On entry : 0/0
  7265 ;;		On exit  : 0/0
  7266 ;;		Unchanged: 0/0
  7267 ;; Data sizes:     COMMON   BANK0   BANK1   BANK2   BANK3   BANK4   BANK5   BANK6   BANK7   BANK8   BANK9  BANK10  BANK1
      +1  BANK12
  7268 ;;      Params:         0       0       0       0       0       0       0       0       0       0       0       0       
      +0       0
  7269 ;;      Locals:         4       0       0       0       0       0       0       0       0       0       0       0       
      +0       0
  7270 ;;      Temps:          1       0       0       0       0       0       0       0       0       0       0       0       
      +0       0
  7271 ;;      Totals:         5       0       0       0       0       0       0       0       0       0       0       0       
      +0       0
  7272 ;;Total ram usage:        5 bytes
  7273 ;; Hardware stack levels used:    1
  7274 ;; This function calls:
  7275 ;;		Nothing
  7276 ;; This function is called by:
  7277 ;;		_USBDeviceTasks
  7278 ;; This function uses a non-reentrant model
  7279 ;;
  7280                           
  7281                           
  7282                           ;psect for function i1_USBDeviceInit
  7283  0B4B                     i1_USBDeviceInit:
  7284  0B4B                     i1l4391:	
  7285                           ;incstack = 0
  7286                           ; Regs used in i1_USBDeviceInit: [wreg+fsr1l+fsr1h+status,2+status,0]
  7287                           
  7288                           
  7289                           ;mcc_generated_files/usb/usb_device.c: 283:     uint8_t i;;mcc_generated_files/usb/usb_d
      +                          evice.c: 285:     {PIE2bits.USBIE = 0;};
  7290  0B4B  0021               	movlb	1	; select bank1
  7291  0B4C  1112               	bcf	18,2	;volatile
  7292  0B4D                     i1l4393:
  7293                           
  7294                           ;mcc_generated_files/usb/usb_device.c: 292:     {UEIR = 0;};
  7295  0B4D  003D               	movlb	29	; select bank29
  7296  0B4E  0193               	clrf	19	;volatile
  7297                           
  7298                           ;mcc_generated_files/usb/usb_device.c: 295:     {UIR = 0;};
  7299  0B4F  0190               	clrf	16	;volatile
  7300                           
  7301                           ;mcc_generated_files/usb/usb_device.c: 298:     UEP0 = 0;
  7302  0B50  0198               	clrf	24	;volatile
  7303  0B51                     i1l4395:
  7304                           
  7305                           ;mcc_generated_files/usb/usb_device.c: 300:     { uint8_t i; uint8_t* p = (uint8_t*)&UEP
      +                          1; for(i=0;i<2;i++) *p++ = 0; };
  7306  0B51  300E               	movlw	14
  7307  0B52  00F2               	movwf	i1USBDeviceInit@p+1
  7308  0B53  3099               	movlw	153
  7309  0B54  00F1               	movwf	i1USBDeviceInit@p
  7310  0B55  01F3               	clrf	i1USBDeviceInit@i_665
  7311  0B56                     i1l4401:
  7312  0B56  0871               	movf	i1USBDeviceInit@p,w
  7313  0B57  0086               	movwf	6
  7314  0B58  0872               	movf	i1USBDeviceInit@p+1,w
  7315  0B59  0087               	movwf	7
  7316  0B5A  0181               	clrf	1
  7317  0B5B                     i1l4403:
  7318  0B5B  3001               	movlw	1
  7319  0B5C  07F1               	addwf	i1USBDeviceInit@p,f
  7320  0B5D  3000               	movlw	0
  7321  0B5E  3DF2               	addwfc	i1USBDeviceInit@p+1,f
  7322  0B5F                     i1l4405:
  7323  0B5F  3001               	movlw	1
  7324  0B60  00F0               	movwf	??i1_USBDeviceInit
  7325  0B61  0870               	movf	??i1_USBDeviceInit,w
  7326  0B62  07F3               	addwf	i1USBDeviceInit@i_665,f
  7327  0B63                     i1l4407:
  7328  0B63  3002               	movlw	2
  7329  0B64  0273               	subwf	i1USBDeviceInit@i_665,w
  7330  0B65  1C03               	skipc
  7331  0B66  2B68               	goto	u315_21
  7332  0B67  2B69               	goto	u315_20
  7333  0B68                     u315_21:
  7334  0B68  2B56               	goto	i1l4401
  7335  0B69                     u315_20:
  7336  0B69                     i1l4409:
  7337                           
  7338                           ;mcc_generated_files/usb/usb_device.c: 302:     { UCFG = 0x10 | 0x00 | 0x04 | 0x02; UEIE
      +                           = 0x9F; UIE = 0x39 | 0x40 | 0x02; };
  7339  0B69  3016               	movlw	22
  7340  0B6A  003D               	movlb	29	; select bank29
  7341  0B6B  0091               	movwf	17	;volatile
  7342  0B6C  309F               	movlw	159
  7343  0B6D  0097               	movwf	23	;volatile
  7344  0B6E  307B               	movlw	123
  7345  0B6F  0092               	movwf	18	;volatile
  7346  0B70                     i1l4411:
  7347                           
  7348                           ;mcc_generated_files/usb/usb_device.c: 311:     for(i = 0; i < (sizeof(BDT)/sizeof(BDT_E
      +                          NTRY)); i++)
  7349  0B70  01F4               	clrf	i1USBDeviceInit@i
  7350  0B71                     i1l4417:
  7351                           
  7352                           ;mcc_generated_files/usb/usb_device.c: 312:     {;mcc_generated_files/usb/usb_device.c: 
      +                          313:         BDT[i].Val = 0x00;
  7353  0B71  0874               	movf	i1USBDeviceInit@i,w
  7354  0B72  00F0               	movwf	??i1_USBDeviceInit
  7355  0B73  3001               	movlw	1
  7356  0B74                     u316_25:
  7357  0B74  35F0               	lslf	??i1_USBDeviceInit,f
  7358  0B75  3EFF               	addlw	-1
  7359  0B76  1D03               	skipz
  7360  0B77  2B74               	goto	u316_25
  7361  0B78  3570               	lslf	??i1_USBDeviceInit,w
  7362  0B79  3E20               	addlw	32
  7363  0B7A  0086               	movwf	6
  7364  0B7B  0187               	clrf	7
  7365  0B7C  3000               	movlw	0
  7366  0B7D  3FC0               	movwi [0]fsr1
  7367  0B7E  3000               	movlw	0
  7368  0B7F  3FC1               	movwi [1]fsr1
  7369  0B80  3FC2               	movwi [2]fsr1
  7370  0B81  3FC3               	movwi [3]fsr1
  7371  0B82                     i1l4419:
  7372                           
  7373                           ;mcc_generated_files/usb/usb_device.c: 314:     }
  7374  0B82  3001               	movlw	1
  7375  0B83  00F0               	movwf	??i1_USBDeviceInit
  7376  0B84  0870               	movf	??i1_USBDeviceInit,w
  7377  0B85  07F4               	addwf	i1USBDeviceInit@i,f
  7378  0B86                     i1l4421:
  7379  0B86  300C               	movlw	12
  7380  0B87  0274               	subwf	i1USBDeviceInit@i,w
  7381  0B88  1C03               	skipc
  7382  0B89  2B8B               	goto	u317_21
  7383  0B8A  2B8C               	goto	u317_20
  7384  0B8B                     u317_21:
  7385  0B8B  2B71               	goto	i1l4417
  7386  0B8C                     u317_20:
  7387  0B8C                     i1l136:
  7388                           
  7389                           ;mcc_generated_files/usb/usb_device.c: 317:     UCONbits.PPBRST = 1;
  7390  0B8C  003D               	movlb	29	; select bank29
  7391  0B8D  170E               	bsf	14,6	;volatile
  7392  0B8E                     i1l4423:
  7393                           
  7394                           ;mcc_generated_files/usb/usb_device.c: 320:     UADDR = 0x00;
  7395  0B8E  0196               	clrf	22	;volatile
  7396  0B8F                     i1l4425:
  7397                           
  7398                           ;mcc_generated_files/usb/usb_device.c: 323:     UCONbits.PKTDIS = 0;
  7399  0B8F  120E               	bcf	14,4	;volatile
  7400  0B90                     i1l4427:
  7401                           
  7402                           ;mcc_generated_files/usb/usb_device.c: 326:     UCONbits.PPBRST = 0;
  7403  0B90  130E               	bcf	14,6	;volatile
  7404  0B91                     i1l4429:
  7405                           
  7406                           ;mcc_generated_files/usb/usb_device.c: 330:     {;mcc_generated_files/usb/usb_device.c: 
      +                          331:         (UIR &= 0xF7);
  7407  0B91  30F7               	movlw	247
  7408  0B92  00F0               	movwf	??i1_USBDeviceInit
  7409  0B93  0870               	movf	??i1_USBDeviceInit,w
  7410  0B94  0590               	andwf	16,f	;volatile
  7411  0B95                     i1l4431:
  7412                           
  7413                           ;mcc_generated_files/usb/usb_device.c: 333:         inPipes[0].info.Val = 0;
  7414  0B95  0021               	movlb	1	; select bank1
  7415  0B96  01A8               	clrf	(_inPipes^(0+128)+2)	;volatile
  7416  0B97                     i1l4433:
  7417                           
  7418                           ;mcc_generated_files/usb/usb_device.c: 334:         outPipes[0].info.Val = 0;
  7419  0B97  0023               	movlb	3	; select bank3
  7420  0B98  01B2               	clrf	(_outPipes^(0+384)+2)	;volatile
  7421  0B99                     i1l4435:
  7422                           
  7423                           ;mcc_generated_files/usb/usb_device.c: 335:         outPipes[0].wCount.Val = 0;
  7424  0B99  01B3               	clrf	(_outPipes^(0+384)+3)	;volatile
  7425  0B9A  01B4               	clrf	((_outPipes+1)^(0+384)+3)	;volatile
  7426  0B9B                     i1l4437:
  7427                           
  7428                           ;mcc_generated_files/usb/usb_device.c: 336:     }while(UIRbits.TRNIF == 1);
  7429  0B9B  003D               	movlb	29	; select bank29
  7430  0B9C  1990               	btfsc	16,3	;volatile
  7431  0B9D  2B9F               	goto	u318_21
  7432  0B9E  2BA0               	goto	u318_20
  7433  0B9F                     u318_21:
  7434  0B9F  2B91               	goto	i1l4429
  7435  0BA0                     u318_20:
  7436  0BA0                     i1l4439:
  7437                           
  7438                           ;mcc_generated_files/usb/usb_device.c: 340:     USBStatusStageEnabledFlag1 = 1;
  7439  0BA0  3001               	movlw	1
  7440  0BA1  00F0               	movwf	??i1_USBDeviceInit
  7441  0BA2  0870               	movf	??i1_USBDeviceInit,w
  7442  0BA3  0023               	movlb	3	; select bank3
  7443  0BA4  00E5               	movwf	_USBStatusStageEnabledFlag1^(0+384)	;volatile
  7444                           
  7445                           ;mcc_generated_files/usb/usb_device.c: 341:     USBStatusStageEnabledFlag2 = 1;
  7446  0BA5  3001               	movlw	1
  7447  0BA6  00F0               	movwf	??i1_USBDeviceInit
  7448  0BA7  0870               	movf	??i1_USBDeviceInit,w
  7449  0BA8  00E4               	movwf	_USBStatusStageEnabledFlag2^(0+384)	;volatile
  7450  0BA9                     i1l4441:
  7451                           
  7452                           ;mcc_generated_files/usb/usb_device.c: 343:     USBDeferINDataStagePackets = 0;
  7453  0BA9  01E3               	clrf	_USBDeferINDataStagePackets^(0+384)	;volatile
  7454  0BAA                     i1l4443:
  7455                           
  7456                           ;mcc_generated_files/usb/usb_device.c: 344:     USBDeferOUTDataStagePackets = 0;
  7457  0BAA  01E2               	clrf	_USBDeferOUTDataStagePackets^(0+384)	;volatile
  7458  0BAB                     i1l4445:
  7459                           
  7460                           ;mcc_generated_files/usb/usb_device.c: 345:     USBBusIsSuspended = 0;
  7461  0BAB  01EA               	clrf	_USBBusIsSuspended^(0+384)	;volatile
  7462  0BAC                     i1l4447:
  7463                           
  7464                           ;mcc_generated_files/usb/usb_device.c: 349:     for(i = 0; i < (uint8_t)(2 +1u); i++)
  7465  0BAC  01F4               	clrf	i1USBDeviceInit@i
  7466  0BAD                     i1l4451:
  7467                           
  7468                           ;mcc_generated_files/usb/usb_device.c: 350:     {;mcc_generated_files/usb/usb_device.c: 
      +                          351:         pBDTEntryIn[i] = 0u;
  7469  0BAD  3574               	lslf	i1USBDeviceInit@i,w
  7470  0BAE  3EA0               	addlw	(low (_pBDTEntryIn| 0))& (0+255)
  7471  0BAF  0086               	movwf	6
  7472  0BB0  0187               	clrf	7
  7473  0BB1  3000               	movlw	0
  7474  0BB2  3FC0               	movwi [0]fsr1
  7475  0BB3  3FC1               	movwi [1]fsr1
  7476                           
  7477                           ;mcc_generated_files/usb/usb_device.c: 352:         pBDTEntryOut[i] = 0u;
  7478  0BB4  3574               	lslf	i1USBDeviceInit@i,w
  7479  0BB5  3EB7               	addlw	(low (_pBDTEntryOut| (0+256)))& (0+255)
  7480  0BB6  0086               	movwf	6
  7481  0BB7  3001               	movlw	1	; select bank3/4
  7482  0BB8  0087               	movwf	7
  7483  0BB9  3000               	movlw	0
  7484  0BBA  3FC0               	movwi [0]fsr1
  7485  0BBB  3FC1               	movwi [1]fsr1
  7486                           
  7487                           ;mcc_generated_files/usb/usb_device.c: 353:         ep_data_in[i].Val = 0u;
  7488  0BBC  0874               	movf	i1USBDeviceInit@i,w
  7489  0BBD  3EC4               	addlw	(low (_ep_data_in| (0+256)))& (0+255)
  7490  0BBE  0086               	movwf	6
  7491  0BBF  3001               	movlw	1	; select bank3/4
  7492  0BC0  0087               	movwf	7
  7493  0BC1  0181               	clrf	1
  7494                           
  7495                           ;mcc_generated_files/usb/usb_device.c: 354:         ep_data_out[i].Val = 0u;
  7496  0BC2  0874               	movf	i1USBDeviceInit@i,w
  7497  0BC3  3EC1               	addlw	(low (_ep_data_out| (0+256)))& (0+255)
  7498  0BC4  0086               	movwf	6
  7499  0BC5  3001               	movlw	1	; select bank3/4
  7500  0BC6  0087               	movwf	7
  7501  0BC7  0181               	clrf	1
  7502  0BC8                     i1l4453:
  7503                           
  7504                           ;mcc_generated_files/usb/usb_device.c: 355:     }
  7505  0BC8  3001               	movlw	1
  7506  0BC9  00F0               	movwf	??i1_USBDeviceInit
  7507  0BCA  0870               	movf	??i1_USBDeviceInit,w
  7508  0BCB  07F4               	addwf	i1USBDeviceInit@i,f
  7509  0BCC                     i1l4455:
  7510  0BCC  3003               	movlw	3
  7511  0BCD  0274               	subwf	i1USBDeviceInit@i,w
  7512  0BCE  1C03               	skipc
  7513  0BCF  2BD1               	goto	u319_21
  7514  0BD0  2BD2               	goto	u319_20
  7515  0BD1                     u319_21:
  7516  0BD1  2BAD               	goto	i1l4451
  7517  0BD2                     u319_20:
  7518  0BD2                     i1l4457:
  7519                           
  7520                           ;mcc_generated_files/usb/usb_device.c: 358:     pBDTEntryIn[0] = (volatile BDT_ENTRY*)&B
      +                          DT[2];
  7521  0BD2  3028               	movlw	40
  7522  0BD3  0021               	movlb	1	; select bank1
  7523  0BD4  00A0               	movwf	_pBDTEntryIn^(0+128)
  7524  0BD5  3000               	movlw	0
  7525  0BD6  00A1               	movwf	(_pBDTEntryIn+1)^(0+128)
  7526  0BD7                     i1l4459:
  7527                           
  7528                           ;mcc_generated_files/usb/usb_device.c: 360:     UEP0 = 0x06|0x10;
  7529  0BD7  3016               	movlw	22
  7530  0BD8  003D               	movlb	29	; select bank29
  7531  0BD9  0098               	movwf	24	;volatile
  7532  0BDA                     i1l4461:
  7533                           
  7534                           ;mcc_generated_files/usb/usb_device.c: 362:     BDT[0].ADR = (((uint16_t)(&SetupPkt)) & 
      +                          0x7FFF);
  7535  0BDA  3000               	movlw	0
  7536  0BDB  0020               	movlb	0	; select bank0
  7537  0BDC  00A3               	movwf	35	;volatile
  7538  0BDD  3050               	movlw	80
  7539  0BDE  00A2               	movwf	34	;volatile
  7540  0BDF                     i1l4463:
  7541                           
  7542                           ;mcc_generated_files/usb/usb_device.c: 363:     BDT[0].CNT = 8;
  7543  0BDF  3008               	movlw	8
  7544  0BE0  00A1               	movwf	33	;volatile
  7545  0BE1                     i1l4465:
  7546                           
  7547                           ;mcc_generated_files/usb/usb_device.c: 364:     BDT[0].STAT.Val = 0x00|0x04;
  7548  0BE1  3004               	movlw	4
  7549  0BE2  00F0               	movwf	??i1_USBDeviceInit
  7550  0BE3  0870               	movf	??i1_USBDeviceInit,w
  7551  0BE4  00A0               	movwf	32	;volatile
  7552  0BE5                     i1l4467:
  7553                           
  7554                           ;mcc_generated_files/usb/usb_device.c: 365:     BDT[0].STAT.Val |= 0x80;
  7555  0BE5  17A0               	bsf	32,7	;volatile
  7556  0BE6                     i1l4469:
  7557                           
  7558                           ;mcc_generated_files/usb/usb_device.c: 368:     USBActiveConfiguration = 0;
  7559  0BE6  0021               	movlb	1	; select bank1
  7560  0BE7  01B5               	clrf	_USBActiveConfiguration^(0+128)	;volatile
  7561  0BE8                     i1l4471:
  7562                           
  7563                           ;mcc_generated_files/usb/usb_device.c: 370:     USB1msTickCount = 0;
  7564  0BE8  3000               	movlw	0
  7565  0BE9  0023               	movlb	3	; select bank3
  7566  0BEA  00C0               	movwf	(_USB1msTickCount+3)^(0+384)	;volatile
  7567  0BEB  3000               	movlw	0
  7568  0BEC  00BF               	movwf	(_USB1msTickCount+2)^(0+384)	;volatile
  7569  0BED  3000               	movlw	0
  7570  0BEE  00BE               	movwf	(_USB1msTickCount+1)^(0+384)	;volatile
  7571  0BEF  3000               	movlw	0
  7572  0BF0  00BD               	movwf	_USB1msTickCount^(0+384)	;volatile
  7573  0BF1                     i1l4473:
  7574                           
  7575                           ;mcc_generated_files/usb/usb_device.c: 371:     USBTicksSinceSuspendEnd = 0;
  7576  0BF1  01E1               	clrf	_USBTicksSinceSuspendEnd^(0+384)	;volatile
  7577  0BF2                     i1l4475:
  7578                           
  7579                           ;mcc_generated_files/usb/usb_device.c: 374:     USBDeviceState = DETACHED_STATE;
  7580  0BF2  0021               	movlb	1	; select bank1
  7581  0BF3  01B3               	clrf	_USBDeviceState^(0+128)	;volatile
  7582  0BF4                     i1l141:
  7583  0BF4  0008               	return
  7584  0BF5                     __end_ofi1_USBDeviceInit:
  7585                           
  7586                           	psect	text23
  7587  12B0                     __ptext23:	
  7588 ;; *************** function _USBWakeFromSuspend *****************
  7589 ;; Defined at:
  7590 ;;		line 2307 in file "mcc_generated_files/usb/usb_device.c"
  7591 ;; Parameters:    Size  Location     Type
  7592 ;;		None
  7593 ;; Auto vars:     Size  Location     Type
  7594 ;;		None
  7595 ;; Return value:  Size  Location     Type
  7596 ;;                  1    wreg      void 
  7597 ;; Registers used:
  7598 ;;		wreg, fsr0l, fsr0h, fsr1l, fsr1h, status,2, status,0, pclath, cstack
  7599 ;; Tracked objects:
  7600 ;;		On entry : 0/0
  7601 ;;		On exit  : 0/0
  7602 ;;		Unchanged: 0/0
  7603 ;; Data sizes:     COMMON   BANK0   BANK1   BANK2   BANK3   BANK4   BANK5   BANK6   BANK7   BANK8   BANK9  BANK10  BANK1
      +1  BANK12
  7604 ;;      Params:         0       0       0       0       0       0       0       0       0       0       0       0       
      +0       0
  7605 ;;      Locals:         0       0       0       0       0       0       0       0       0       0       0       0       
      +0       0
  7606 ;;      Temps:          0       1       0       0       0       0       0       0       0       0       0       0       
      +0       0
  7607 ;;      Totals:         0       1       0       0       0       0       0       0       0       0       0       0       
      +0       0
  7608 ;;Total ram usage:        1 bytes
  7609 ;; Hardware stack levels used:    1
  7610 ;; Hardware stack levels required when called:    4
  7611 ;; This function calls:
  7612 ;;		_USER_USB_CALLBACK_EVENT_HANDLER
  7613 ;; This function is called by:
  7614 ;;		_USBDeviceTasks
  7615 ;; This function uses a non-reentrant model
  7616 ;;
  7617                           
  7618                           
  7619                           ;psect for function _USBWakeFromSuspend
  7620  12B0                     _USBWakeFromSuspend:
  7621  12B0                     i1l4243:	
  7622                           ;incstack = 0
  7623                           ; Regs used in _USBWakeFromSuspend: [wreg-fsr1h+status,2+status,0+pclath+cstack]
  7624                           
  7625                           
  7626                           ;mcc_generated_files/usb/usb_device.c: 2309:     USBBusIsSuspended = 0;
  7627  12B0  0023               	movlb	3	; select bank3
  7628  12B1  01EA               	clrf	_USBBusIsSuspended^(0+384)	;volatile
  7629  12B2                     i1l4245:
  7630                           
  7631                           ;mcc_generated_files/usb/usb_device.c: 2315:     USER_USB_CALLBACK_EVENT_HANDLER((USB_EV
      +                          ENT)EVENT_RESUME,0,0);
  7632  12B2  3074               	movlw	116
  7633  12B3  0020               	movlb	0	; select bank0
  7634  12B4  00E0               	movwf	USER_USB_CALLBACK_EVENT_HANDLER@event
  7635  12B5  3000               	movlw	0
  7636  12B6  00E1               	movwf	USER_USB_CALLBACK_EVENT_HANDLER@event+1
  7637  12B7  3000               	movlw	0
  7638  12B8  00E2               	movwf	USER_USB_CALLBACK_EVENT_HANDLER@pdata
  7639  12B9  3000               	movlw	0
  7640  12BA  00E3               	movwf	USER_USB_CALLBACK_EVENT_HANDLER@pdata+1
  7641  12BB  3000               	movlw	0
  7642  12BC  00E4               	movwf	USER_USB_CALLBACK_EVENT_HANDLER@size
  7643  12BD  00E5               	movwf	USER_USB_CALLBACK_EVENT_HANDLER@size+1
  7644  12BE  3193  2374  3192   	fcall	_USER_USB_CALLBACK_EVENT_HANDLER
  7645  12C1                     i1l4247:
  7646                           
  7647                           ;mcc_generated_files/usb/usb_device.c: 2322:         UCONbits.SUSPND = 0;
  7648  12C1  003D               	movlb	29	; select bank29
  7649  12C2  108E               	bcf	14,1	;volatile
  7650  12C3                     i1l4249:
  7651                           
  7652                           ;mcc_generated_files/usb/usb_device.c: 2327:     UIEbits.ACTVIE = 0;
  7653  12C3  1112               	bcf	18,2	;volatile
  7654                           
  7655                           ;mcc_generated_files/usb/usb_device.c: 2345:     while(UIRbits.ACTVIF)
  7656  12C4  2ACB               	goto	i1l4253
  7657  12C5                     i1l4251:
  7658                           
  7659                           ;mcc_generated_files/usb/usb_device.c: 2347:     {;mcc_generated_files/usb/usb_device.c:
      +                           2348:         (UIR &= 0xFB);
  7660  12C5  30FB               	movlw	251
  7661  12C6  0020               	movlb	0	; select bank0
  7662  12C7  00E6               	movwf	??_USBWakeFromSuspend
  7663  12C8  0866               	movf	??_USBWakeFromSuspend,w
  7664  12C9  003D               	movlb	29	; select bank29
  7665  12CA  0590               	andwf	16,f	;volatile
  7666  12CB                     i1l4253:
  7667                           
  7668                           ;mcc_generated_files/usb/usb_device.c: 2345:     while(UIRbits.ACTVIF)
  7669  12CB  1910               	btfsc	16,2	;volatile
  7670  12CC  2ACE               	goto	u300_21
  7671  12CD  2ACF               	goto	u300_20
  7672  12CE                     u300_21:
  7673  12CE  2AC5               	goto	i1l4251
  7674  12CF                     u300_20:
  7675  12CF                     i1l4255:
  7676                           
  7677                           ;mcc_generated_files/usb/usb_device.c: 2351:     USBTicksSinceSuspendEnd = 0;
  7678  12CF  0023               	movlb	3	; select bank3
  7679  12D0  01E1               	clrf	_USBTicksSinceSuspendEnd^(0+384)	;volatile
  7680  12D1                     i1l310:
  7681  12D1  0008               	return
  7682  12D2                     __end_of_USBWakeFromSuspend:
  7683                           
  7684                           	psect	text24
  7685  1290                     __ptext24:	
  7686 ;; *************** function _USBSuspend *****************
  7687 ;; Defined at:
  7688 ;;		line 2249 in file "mcc_generated_files/usb/usb_device.c"
  7689 ;; Parameters:    Size  Location     Type
  7690 ;;		None
  7691 ;; Auto vars:     Size  Location     Type
  7692 ;;		None
  7693 ;; Return value:  Size  Location     Type
  7694 ;;                  1    wreg      void 
  7695 ;; Registers used:
  7696 ;;		wreg, fsr0l, fsr0h, fsr1l, fsr1h, status,2, status,0, pclath, cstack
  7697 ;; Tracked objects:
  7698 ;;		On entry : 0/0
  7699 ;;		On exit  : 0/0
  7700 ;;		Unchanged: 0/0
  7701 ;; Data sizes:     COMMON   BANK0   BANK1   BANK2   BANK3   BANK4   BANK5   BANK6   BANK7   BANK8   BANK9  BANK10  BANK1
      +1  BANK12
  7702 ;;      Params:         0       0       0       0       0       0       0       0       0       0       0       0       
      +0       0
  7703 ;;      Locals:         0       0       0       0       0       0       0       0       0       0       0       0       
      +0       0
  7704 ;;      Temps:          0       1       0       0       0       0       0       0       0       0       0       0       
      +0       0
  7705 ;;      Totals:         0       1       0       0       0       0       0       0       0       0       0       0       
      +0       0
  7706 ;;Total ram usage:        1 bytes
  7707 ;; Hardware stack levels used:    1
  7708 ;; Hardware stack levels required when called:    4
  7709 ;; This function calls:
  7710 ;;		_USER_USB_CALLBACK_EVENT_HANDLER
  7711 ;; This function is called by:
  7712 ;;		_USBDeviceTasks
  7713 ;; This function uses a non-reentrant model
  7714 ;;
  7715                           
  7716                           
  7717                           ;psect for function _USBSuspend
  7718  1290                     _USBSuspend:
  7719  1290                     i1l4257:	
  7720                           ;incstack = 0
  7721                           ; Regs used in _USBSuspend: [wreg-fsr1h+status,2+status,0+pclath+cstack]
  7722                           
  7723                           
  7724                           ;mcc_generated_files/usb/usb_device.c: 2274:     UIEbits.ACTVIE = 1;
  7725  1290  003D               	movlb	29	; select bank29
  7726  1291  1512               	bsf	18,2	;volatile
  7727  1292                     i1l4259:
  7728                           
  7729                           ;mcc_generated_files/usb/usb_device.c: 2275:     (UIR &= 0xEF);
  7730  1292  30EF               	movlw	239
  7731  1293  0020               	movlb	0	; select bank0
  7732  1294  00E6               	movwf	??_USBSuspend
  7733  1295  0866               	movf	??_USBSuspend,w
  7734  1296  003D               	movlb	29	; select bank29
  7735  1297  0590               	andwf	16,f	;volatile
  7736  1298                     i1l4261:
  7737                           
  7738                           ;mcc_generated_files/usb/usb_device.c: 2278:         UCONbits.SUSPND = 1;
  7739  1298  148E               	bsf	14,1	;volatile
  7740  1299                     i1l4263:
  7741                           
  7742                           ;mcc_generated_files/usb/usb_device.c: 2281:     USBBusIsSuspended = 1;
  7743  1299  3001               	movlw	1
  7744  129A  0020               	movlb	0	; select bank0
  7745  129B  00E6               	movwf	??_USBSuspend
  7746  129C  0866               	movf	??_USBSuspend,w
  7747  129D  0023               	movlb	3	; select bank3
  7748  129E  00EA               	movwf	_USBBusIsSuspended^(0+384)	;volatile
  7749  129F                     i1l4265:
  7750                           
  7751                           ;mcc_generated_files/usb/usb_device.c: 2282:     USBTicksSinceSuspendEnd = 0;
  7752  129F  01E1               	clrf	_USBTicksSinceSuspendEnd^(0+384)	;volatile
  7753  12A0                     i1l4267:
  7754                           
  7755                           ;mcc_generated_files/usb/usb_device.c: 2289:     USER_USB_CALLBACK_EVENT_HANDLER((USB_EV
      +                          ENT)EVENT_SUSPEND,0,0);
  7756  12A0  3075               	movlw	117
  7757  12A1  0020               	movlb	0	; select bank0
  7758  12A2  00E0               	movwf	USER_USB_CALLBACK_EVENT_HANDLER@event
  7759  12A3  3000               	movlw	0
  7760  12A4  00E1               	movwf	USER_USB_CALLBACK_EVENT_HANDLER@event+1
  7761  12A5  3000               	movlw	0
  7762  12A6  00E2               	movwf	USER_USB_CALLBACK_EVENT_HANDLER@pdata
  7763  12A7  3000               	movlw	0
  7764  12A8  00E3               	movwf	USER_USB_CALLBACK_EVENT_HANDLER@pdata+1
  7765  12A9  3000               	movlw	0
  7766  12AA  00E4               	movwf	USER_USB_CALLBACK_EVENT_HANDLER@size
  7767  12AB  00E5               	movwf	USER_USB_CALLBACK_EVENT_HANDLER@size+1
  7768  12AC  3193  2374  3192   	fcall	_USER_USB_CALLBACK_EVENT_HANDLER
  7769  12AF                     i1l304:
  7770  12AF  0008               	return
  7771  12B0                     __end_of_USBSuspend:
  7772                           
  7773                           	psect	text25
  7774  131B                     __ptext25:	
  7775 ;; *************** function _USBStallHandler *****************
  7776 ;; Defined at:
  7777 ;;		line 2206 in file "mcc_generated_files/usb/usb_device.c"
  7778 ;; Parameters:    Size  Location     Type
  7779 ;;		None
  7780 ;; Auto vars:     Size  Location     Type
  7781 ;;		None
  7782 ;; Return value:  Size  Location     Type
  7783 ;;                  1    wreg      void 
  7784 ;; Registers used:
  7785 ;;		wreg, fsr1l, fsr1h, status,2, status,0
  7786 ;; Tracked objects:
  7787 ;;		On entry : 0/0
  7788 ;;		On exit  : 0/0
  7789 ;;		Unchanged: 0/0
  7790 ;; Data sizes:     COMMON   BANK0   BANK1   BANK2   BANK3   BANK4   BANK5   BANK6   BANK7   BANK8   BANK9  BANK10  BANK1
      +1  BANK12
  7791 ;;      Params:         0       0       0       0       0       0       0       0       0       0       0       0       
      +0       0
  7792 ;;      Locals:         0       0       0       0       0       0       0       0       0       0       0       0       
      +0       0
  7793 ;;      Temps:          1       0       0       0       0       0       0       0       0       0       0       0       
      +0       0
  7794 ;;      Totals:         1       0       0       0       0       0       0       0       0       0       0       0       
      +0       0
  7795 ;;Total ram usage:        1 bytes
  7796 ;; Hardware stack levels used:    1
  7797 ;; This function calls:
  7798 ;;		Nothing
  7799 ;; This function is called by:
  7800 ;;		_USBDeviceTasks
  7801 ;; This function uses a non-reentrant model
  7802 ;;
  7803                           
  7804                           
  7805                           ;psect for function _USBStallHandler
  7806  131B                     _USBStallHandler:
  7807  131B                     i1l4277:	
  7808                           ;incstack = 0
  7809                           ; Regs used in _USBStallHandler: [wreg+fsr1l+fsr1h+status,2+status,0]
  7810                           
  7811                           
  7812                           ;mcc_generated_files/usb/usb_device.c: 2218:     if(UEP0bits.EPSTALL == 1)
  7813  131B  003D               	movlb	29	; select bank29
  7814  131C  1C18               	btfss	24,0	;volatile
  7815  131D  2B1F               	goto	u303_21
  7816  131E  2B20               	goto	u303_20
  7817  131F                     u303_21:
  7818  131F  2B41               	goto	i1l4287
  7819  1320                     u303_20:
  7820  1320                     i1l4279:
  7821                           
  7822                           ;mcc_generated_files/usb/usb_device.c: 2219:     {;mcc_generated_files/usb/usb_device.c:
      +                           2221:         if((pBDTEntryEP0OutCurrent->STAT.Val == 0x80) && (pBDTEntryIn[0]->STAT.Va
      +                          l == (0x80|0x04)))
  7823  1320  0021               	movlb	1	; select bank1
  7824  1321  0832               	movf	_pBDTEntryEP0OutCurrent^(0+128),w
  7825  1322  0086               	movwf	6
  7826  1323  0187               	clrf	7
  7827  1324  3080               	movlw	128
  7828  1325  0601               	xorwf	1,w
  7829  1326  1D03               	btfss	3,2
  7830  1327  2B29               	goto	u304_21
  7831  1328  2B2A               	goto	u304_20
  7832  1329                     u304_21:
  7833  1329  2B3F               	goto	i1l4285
  7834  132A                     u304_20:
  7835  132A                     i1l4281:
  7836  132A  0820               	movf	_pBDTEntryIn^(0+128),w
  7837  132B  0086               	movwf	6
  7838  132C  0821               	movf	(_pBDTEntryIn+1)^(0+128),w
  7839  132D  0087               	movwf	7
  7840  132E  3084               	movlw	132
  7841  132F  0601               	xorwf	1,w
  7842  1330  1D03               	btfss	3,2
  7843  1331  2B33               	goto	u305_21
  7844  1332  2B34               	goto	u305_20
  7845  1333                     u305_21:
  7846  1333  2B3F               	goto	i1l4285
  7847  1334                     u305_20:
  7848  1334                     i1l4283:
  7849                           
  7850                           ;mcc_generated_files/usb/usb_device.c: 2222:         {;mcc_generated_files/usb/usb_devic
      +                          e.c: 2224:             pBDTEntryEP0OutCurrent->STAT.Val = 0x00|(0x08 & 0x08)|0x04;
  7851  1334  300C               	movlw	12
  7852  1335  00F0               	movwf	??_USBStallHandler
  7853  1336  0832               	movf	_pBDTEntryEP0OutCurrent^(0+128),w
  7854  1337  0086               	movwf	6
  7855  1338  0187               	clrf	7
  7856  1339  0870               	movf	??_USBStallHandler,w
  7857  133A  0081               	movwf	1
  7858                           
  7859                           ;mcc_generated_files/usb/usb_device.c: 2225:             pBDTEntryEP0OutCurrent->STAT.Va
      +                          l |= 0x80;
  7860  133B  0832               	movf	_pBDTEntryEP0OutCurrent^(0+128),w
  7861  133C  0086               	movwf	6
  7862  133D  0187               	clrf	7
  7863  133E  1781               	bsf	1,7
  7864  133F                     i1l4285:
  7865                           
  7866                           ;mcc_generated_files/usb/usb_device.c: 2227:         UEP0bits.EPSTALL = 0;
  7867  133F  003D               	movlb	29	; select bank29
  7868  1340  1018               	bcf	24,0	;volatile
  7869  1341                     i1l4287:
  7870                           
  7871                           ;mcc_generated_files/usb/usb_device.c: 2230:     (UIR &= 0xDF);
  7872  1341  30DF               	movlw	223
  7873  1342  00F0               	movwf	??_USBStallHandler
  7874  1343  0870               	movf	??_USBStallHandler,w
  7875  1344  0590               	andwf	16,f	;volatile
  7876  1345                     i1l301:
  7877  1345  0008               	return
  7878  1346                     __end_of_USBStallHandler:
  7879                           
  7880                           	psect	text26
  7881  1256                     __ptext26:	
  7882 ;; *************** function _USBIncrement1msInternalTimers *****************
  7883 ;; Defined at:
  7884 ;;		line 3029 in file "mcc_generated_files/usb/usb_device.c"
  7885 ;; Parameters:    Size  Location     Type
  7886 ;;		None
  7887 ;; Auto vars:     Size  Location     Type
  7888 ;;		None
  7889 ;; Return value:  Size  Location     Type
  7890 ;;                  1    wreg      void 
  7891 ;; Registers used:
  7892 ;;		wreg, status,2, status,0
  7893 ;; Tracked objects:
  7894 ;;		On entry : 0/0
  7895 ;;		On exit  : 0/0
  7896 ;;		Unchanged: 0/0
  7897 ;; Data sizes:     COMMON   BANK0   BANK1   BANK2   BANK3   BANK4   BANK5   BANK6   BANK7   BANK8   BANK9  BANK10  BANK1
      +1  BANK12
  7898 ;;      Params:         0       0       0       0       0       0       0       0       0       0       0       0       
      +0       0
  7899 ;;      Locals:         0       0       0       0       0       0       0       0       0       0       0       0       
      +0       0
  7900 ;;      Temps:          1       0       0       0       0       0       0       0       0       0       0       0       
      +0       0
  7901 ;;      Totals:         1       0       0       0       0       0       0       0       0       0       0       0       
      +0       0
  7902 ;;Total ram usage:        1 bytes
  7903 ;; Hardware stack levels used:    1
  7904 ;; This function calls:
  7905 ;;		Nothing
  7906 ;; This function is called by:
  7907 ;;		_USBDeviceTasks
  7908 ;; This function uses a non-reentrant model
  7909 ;;
  7910                           
  7911                           
  7912                           ;psect for function _USBIncrement1msInternalTimers
  7913  1256                     _USBIncrement1msInternalTimers:
  7914  1256                     i1l4269:	
  7915                           ;incstack = 0
  7916                           ; Regs used in _USBIncrement1msInternalTimers: [wreg+status,2+status,0]
  7917                           
  7918                           
  7919                           ;mcc_generated_files/usb/usb_device.c: 3037:     USB1msTickCount++;
  7920  1256  3001               	movlw	1
  7921  1257  0023               	movlb	3	; select bank3
  7922  1258  07BD               	addwf	_USB1msTickCount^(0+384),f	;volatile
  7923  1259  3000               	movlw	0
  7924  125A  3DBE               	addwfc	(_USB1msTickCount+1)^(0+384),f	;volatile
  7925  125B  3000               	movlw	0
  7926  125C  3DBF               	addwfc	(_USB1msTickCount+2)^(0+384),f	;volatile
  7927  125D  3000               	movlw	0
  7928  125E  3DC0               	addwfc	(_USB1msTickCount+3)^(0+384),f	;volatile
  7929  125F                     i1l4271:
  7930                           
  7931                           ;mcc_generated_files/usb/usb_device.c: 3038:     if(USBBusIsSuspended == 0)
  7932  125F  086A               	movf	_USBBusIsSuspended^(0+384),w	;volatile
  7933  1260  1D03               	btfss	3,2
  7934  1261  2A63               	goto	u301_21
  7935  1262  2A64               	goto	u301_20
  7936  1263                     u301_21:
  7937  1263  2A71               	goto	i1l391
  7938  1264                     u301_20:
  7939  1264                     i1l4273:
  7940                           
  7941                           ;mcc_generated_files/usb/usb_device.c: 3039:     {;mcc_generated_files/usb/usb_device.c:
      +                           3040:         USBTicksSinceSuspendEnd++;
  7942  1264  3001               	movlw	1
  7943  1265  00F0               	movwf	??_USBIncrement1msInternalTimers
  7944  1266  0870               	movf	??_USBIncrement1msInternalTimers,w
  7945  1267  07E1               	addwf	_USBTicksSinceSuspendEnd^(0+384),f	;volatile
  7946                           
  7947                           ;mcc_generated_files/usb/usb_device.c: 3042:         if(USBTicksSinceSuspendEnd == 0)
  7948  1268  0861               	movf	_USBTicksSinceSuspendEnd^(0+384),w	;volatile
  7949  1269  1D03               	btfss	3,2
  7950  126A  2A6C               	goto	u302_21
  7951  126B  2A6D               	goto	u302_20
  7952  126C                     u302_21:
  7953  126C  2A71               	goto	i1l391
  7954  126D                     u302_20:
  7955  126D                     i1l4275:
  7956                           
  7957                           ;mcc_generated_files/usb/usb_device.c: 3043:         {;mcc_generated_files/usb/usb_devic
      +                          e.c: 3044:             USBTicksSinceSuspendEnd = 255;
  7958  126D  30FF               	movlw	255
  7959  126E  00F0               	movwf	??_USBIncrement1msInternalTimers
  7960  126F  0870               	movf	??_USBIncrement1msInternalTimers,w
  7961  1270  00E1               	movwf	_USBTicksSinceSuspendEnd^(0+384)	;volatile
  7962  1271                     i1l391:
  7963  1271  0008               	return
  7964  1272                     __end_of_USBIncrement1msInternalTimers:
  7965                           
  7966                           	psect	text27
  7967  14B1                     __ptext27:	
  7968 ;; *************** function _USBCtrlEPService *****************
  7969 ;; Defined at:
  7970 ;;		line 2376 in file "mcc_generated_files/usb/usb_device.c"
  7971 ;; Parameters:    Size  Location     Type
  7972 ;;		None
  7973 ;; Auto vars:     Size  Location     Type
  7974 ;;		None
  7975 ;; Return value:  Size  Location     Type
  7976 ;;                  1    wreg      void 
  7977 ;; Registers used:
  7978 ;;		wreg, fsr0l, fsr0h, fsr1l, fsr1h, status,2, status,0, pclath, cstack
  7979 ;; Tracked objects:
  7980 ;;		On entry : 0/0
  7981 ;;		On exit  : 0/0
  7982 ;;		Unchanged: 0/0
  7983 ;; Data sizes:     COMMON   BANK0   BANK1   BANK2   BANK3   BANK4   BANK5   BANK6   BANK7   BANK8   BANK9  BANK10  BANK1
      +1  BANK12
  7984 ;;      Params:         0       0       0       0       0       0       0       0       0       0       0       0       
      +0       0
  7985 ;;      Locals:         0       0       0       0       0       0       0       0       0       0       0       0       
      +0       0
  7986 ;;      Temps:          0       0       2       0       0       0       0       0       0       0       0       0       
      +0       0
  7987 ;;      Totals:         0       0       2       0       0       0       0       0       0       0       0       0       
      +0       0
  7988 ;;Total ram usage:        2 bytes
  7989 ;; Hardware stack levels used:    1
  7990 ;; Hardware stack levels required when called:    7
  7991 ;; This function calls:
  7992 ;;		_USBCtrlTrfInHandler
  7993 ;;		_USBCtrlTrfOutHandler
  7994 ;;		_USBCtrlTrfSetupHandler
  7995 ;;		_memcpy
  7996 ;; This function is called by:
  7997 ;;		_USBDeviceTasks
  7998 ;; This function uses a non-reentrant model
  7999 ;;
  8000                           
  8001                           
  8002                           ;psect for function _USBCtrlEPService
  8003  14B1                     _USBCtrlEPService:
  8004  14B1                     i1l5501:	
  8005                           ;incstack = 0
  8006                           ; Regs used in _USBCtrlEPService: [wreg-fsr1h+status,2+status,0+pclath+cstack]
  8007                           
  8008                           
  8009                           ;mcc_generated_files/usb/usb_device.c: 2382:         USBStatusStageTimeoutCounter = (uin
      +                          t8_t)45;
  8010  14B1  302D               	movlw	45
  8011  14B2  0021               	movlb	1	; select bank1
  8012  14B3  00B6               	movwf	??_USBCtrlEPService^(0+128)
  8013  14B4  0836               	movf	??_USBCtrlEPService^(0+128),w
  8014  14B5  0023               	movlb	3	; select bank3
  8015  14B6  00E7               	movwf	_USBStatusStageTimeoutCounter^(0+384)	;volatile
  8016  14B7                     i1l5503:
  8017                           
  8018                           ;mcc_generated_files/usb/usb_device.c: 2386:     if((USTATcopy.Val & ~0x02) == 0x00)
  8019  14B7  0021               	movlb	1	; select bank1
  8020  14B8  0834               	movf	_USTATcopy^(0+128),w	;volatile
  8021  14B9  39FD               	andlw	253
  8022  14BA  1D03               	btfss	3,2
  8023  14BB  2CBD               	goto	u435_21
  8024  14BC  2CBE               	goto	u435_20
  8025  14BD                     u435_21:
  8026  14BD  2CFA               	goto	i1l5519
  8027  14BE                     u435_20:
  8028  14BE                     i1l5505:
  8029                           
  8030                           ;mcc_generated_files/usb/usb_device.c: 2387:     {;mcc_generated_files/usb/usb_device.c:
      +                           2390:             pBDTEntryEP0OutCurrent = (volatile BDT_ENTRY*)&BDT[(USTATcopy.Val & 0
      +                          x7E)>>1];
  8031  14BE  3634               	lsrf	_USTATcopy^(0+128),w	;volatile
  8032  14BF  393F               	andlw	63
  8033  14C0  00B6               	movwf	??_USBCtrlEPService^(0+128)
  8034  14C1  3001               	movlw	1
  8035  14C2                     u436_25:
  8036  14C2  35B6               	lslf	??_USBCtrlEPService^(0+128),f
  8037  14C3  3EFF               	addlw	-1
  8038  14C4  1D03               	skipz
  8039  14C5  2CC2               	goto	u436_25
  8040  14C6  3536               	lslf	??_USBCtrlEPService^(0+128),w
  8041  14C7  3E20               	addlw	32
  8042  14C8  00B7               	movwf	(??_USBCtrlEPService+1)^(0+128)
  8043  14C9  0837               	movf	(??_USBCtrlEPService+1)^(0+128),w
  8044  14CA  00B2               	movwf	_pBDTEntryEP0OutCurrent^(0+128)
  8045  14CB                     i1l5507:
  8046                           
  8047                           ;mcc_generated_files/usb/usb_device.c: 2398:         pBDTEntryEP0OutNext = pBDTEntryEP0O
      +                          utCurrent;
  8048  14CB  0832               	movf	_pBDTEntryEP0OutCurrent^(0+128),w
  8049  14CC  00AB               	movwf	_pBDTEntryEP0OutNext^(0+128)
  8050  14CD  39FF               	andlw	255
  8051  14CE  1D03               	skipz
  8052  14CF  3000               	movlw	0
  8053  14D0  00AC               	movwf	(_pBDTEntryEP0OutNext+1)^(0+128)
  8054  14D1                     i1l5509:
  8055                           
  8056                           ;mcc_generated_files/usb/usb_device.c: 2400:         pBDTEntryEP0OutNext = (volatile BDT
      +                          _ENTRY*)(((uint16_t)pBDTEntryEP0OutNext) ^ 0x0004);
  8057  14D1  3004               	movlw	4
  8058  14D2  062B               	xorwf	_pBDTEntryEP0OutNext^(0+128),w
  8059  14D3  00AB               	movwf	_pBDTEntryEP0OutNext^(0+128)
  8060  14D4  3000               	movlw	0
  8061  14D5  062C               	xorwf	(_pBDTEntryEP0OutNext+1)^(0+128),w
  8062  14D6  00AC               	movwf	(_pBDTEntryEP0OutNext+1)^(0+128)
  8063  14D7                     i1l5511:
  8064                           
  8065                           ;mcc_generated_files/usb/usb_device.c: 2403:         if(pBDTEntryEP0OutCurrent->STAT.PID
      +                           == 0xD)
  8066  14D7  0832               	movf	_pBDTEntryEP0OutCurrent^(0+128),w
  8067  14D8  0086               	movwf	6
  8068  14D9  0187               	clrf	7
  8069  14DA  0C01               	rrf	1,w
  8070  14DB  0C89               	rrf	9,f
  8071  14DC  390F               	andlw	15
  8072  14DD  3A0D               	xorlw	13
  8073  14DE  1D03               	skipz
  8074  14DF  2CE1               	goto	u437_21
  8075  14E0  2CE2               	goto	u437_20
  8076  14E1                     u437_21:
  8077  14E1  2CF6               	goto	i1l5517
  8078  14E2                     u437_20:
  8079  14E2                     i1l5513:
  8080                           
  8081                           ;mcc_generated_files/usb/usb_device.c: 2404:         {;mcc_generated_files/usb/usb_devic
      +                          e.c: 2409:             memcpy((uint8_t*)&SetupPkt, (uint8_t*)((void *)(pBDTEntryEP0OutCu
      +                          rrent->ADR)), 8);
  8082  14E2  0832               	movf	_pBDTEntryEP0OutCurrent^(0+128),w
  8083  14E3  3E02               	addlw	2
  8084  14E4  0086               	movwf	6
  8085  14E5  0187               	clrf	7
  8086  14E6  3F40               	moviw [0]fsr1
  8087  14E7  00F0               	movwf	memcpy@s1
  8088  14E8  3F41               	moviw [1]fsr1
  8089  14E9  00F1               	movwf	memcpy@s1+1
  8090  14EA  3008               	movlw	8
  8091  14EB  00F2               	movwf	memcpy@n
  8092  14EC  3000               	movlw	0
  8093  14ED  00F3               	movwf	memcpy@n+1
  8094  14EE  3050               	movlw	80
  8095  14EF  3193  2346  3194   	fcall	_memcpy
  8096  14F2                     i1l5515:
  8097                           
  8098                           ;mcc_generated_files/usb/usb_device.c: 2412:             USBCtrlTrfSetupHandler();
  8099  14F2  3194  245B  3194   	fcall	_USBCtrlTrfSetupHandler
  8100                           
  8101                           ;mcc_generated_files/usb/usb_device.c: 2413:         }
  8102  14F5  2D06               	goto	i1l318
  8103  14F6                     i1l5517:
  8104                           
  8105                           ;mcc_generated_files/usb/usb_device.c: 2415:         {;mcc_generated_files/usb/usb_devic
      +                          e.c: 2417:             USBCtrlTrfOutHandler();
  8106  14F6  3193  23DE  3194   	fcall	_USBCtrlTrfOutHandler
  8107  14F9  2D06               	goto	i1l318
  8108  14FA                     i1l5519:
  8109  14FA  30FD               	movlw	253
  8110  14FB  0534               	andwf	_USTATcopy^(0+128),w	;volatile
  8111  14FC  00B6               	movwf	??_USBCtrlEPService^(0+128)
  8112  14FD  3004               	movlw	4
  8113  14FE  0636               	xorwf	??_USBCtrlEPService^(0+128),w
  8114  14FF  1D03               	btfss	3,2
  8115  1500  2D02               	goto	u438_21
  8116  1501  2D03               	goto	u438_20
  8117  1502                     u438_21:
  8118  1502  2D06               	goto	i1l318
  8119  1503                     u438_20:
  8120  1503                     i1l5521:
  8121                           
  8122                           ;mcc_generated_files/usb/usb_device.c: 2421:     {;mcc_generated_files/usb/usb_device.c:
      +                           2424:         USBCtrlTrfInHandler();
  8123  1503  3197  2786  3194   	fcall	_USBCtrlTrfInHandler
  8124  1506                     i1l318:
  8125  1506  0008               	return
  8126  1507                     __end_of_USBCtrlEPService:
  8127                           
  8128                           	psect	text28
  8129  1346                     __ptext28:	
  8130 ;; *************** function _memcpy *****************
  8131 ;; Defined at:
  8132 ;;		line 4 in file "C:\Program Files\Microchip\xc8\v2.31\pic\sources\c99\common\memcpy.c"
  8133 ;; Parameters:    Size  Location     Type
  8134 ;;  d1              1    wreg     PTR void 
  8135 ;;		 -> SetupPkt(8), 
  8136 ;;  s1              2    0[COMMON] PTR const void 
  8137 ;;		 -> CtrlTrfData(8), RAM(4096), SetupPkt(8), 
  8138 ;;  n               2    2[COMMON] unsigned int 
  8139 ;; Auto vars:     Size  Location     Type
  8140 ;;  d1              1    8[COMMON] PTR void 
  8141 ;;		 -> SetupPkt(8), 
  8142 ;;  s               2    5[COMMON] PTR const unsigned char 
  8143 ;;		 -> CtrlTrfData(8), RAM(4096), SetupPkt(8), 
  8144 ;;  d               1    9[COMMON] PTR unsigned char 
  8145 ;;		 -> SetupPkt(8), 
  8146 ;;  tmp             1    7[COMMON] unsigned char 
  8147 ;; Return value:  Size  Location     Type
  8148 ;;                  1    wreg      PTR void 
  8149 ;; Registers used:
  8150 ;;		wreg, fsr1l, fsr1h, status,2, status,0
  8151 ;; Tracked objects:
  8152 ;;		On entry : 0/0
  8153 ;;		On exit  : 0/0
  8154 ;;		Unchanged: 0/0
  8155 ;; Data sizes:     COMMON   BANK0   BANK1   BANK2   BANK3   BANK4   BANK5   BANK6   BANK7   BANK8   BANK9  BANK10  BANK1
      +1  BANK12
  8156 ;;      Params:         4       0       0       0       0       0       0       0       0       0       0       0       
      +0       0
  8157 ;;      Locals:         5       0       0       0       0       0       0       0       0       0       0       0       
      +0       0
  8158 ;;      Temps:          1       0       0       0       0       0       0       0       0       0       0       0       
      +0       0
  8159 ;;      Totals:        10       0       0       0       0       0       0       0       0       0       0       0       
      +0       0
  8160 ;;Total ram usage:       10 bytes
  8161 ;; Hardware stack levels used:    1
  8162 ;; This function calls:
  8163 ;;		Nothing
  8164 ;; This function is called by:
  8165 ;;		_USBCtrlEPService
  8166 ;; This function uses a non-reentrant model
  8167 ;;
  8168                           
  8169                           
  8170                           ;psect for function _memcpy
  8171  1346                     _memcpy:
  8172                           
  8173                           ;incstack = 0
  8174                           ; Regs used in _memcpy: [wreg+fsr1l+fsr1h+status,2+status,0]
  8175                           ;memcpy@d1 stored from wreg
  8176  1346  00F8               	movwf	memcpy@d1
  8177  1347                     i1l4051:
  8178  1347  0871               	movf	memcpy@s1+1,w
  8179  1348  00F6               	movwf	memcpy@s+1
  8180  1349  0870               	movf	memcpy@s1,w
  8181  134A  00F5               	movwf	memcpy@s
  8182  134B  0878               	movf	memcpy@d1,w
  8183  134C  00F4               	movwf	??_memcpy
  8184  134D  0874               	movf	??_memcpy,w
  8185  134E  00F9               	movwf	memcpy@d
  8186  134F  2B67               	goto	i1l4061
  8187  1350                     i1l4053:
  8188  1350  0875               	movf	memcpy@s,w
  8189  1351  0086               	movwf	6
  8190  1352  0876               	movf	memcpy@s+1,w
  8191  1353  0087               	movwf	7
  8192  1354  0801               	movf	1,w
  8193  1355  00F4               	movwf	??_memcpy
  8194  1356  0874               	movf	??_memcpy,w
  8195  1357  00F7               	movwf	memcpy@tmp
  8196  1358                     i1l4055:
  8197  1358  3001               	movlw	1
  8198  1359  07F5               	addwf	memcpy@s,f
  8199  135A  3000               	movlw	0
  8200  135B  3DF6               	addwfc	memcpy@s+1,f
  8201  135C                     i1l4057:
  8202  135C  0877               	movf	memcpy@tmp,w
  8203  135D  00F4               	movwf	??_memcpy
  8204  135E  0879               	movf	memcpy@d,w
  8205  135F  0086               	movwf	6
  8206  1360  0187               	clrf	7
  8207  1361  0874               	movf	??_memcpy,w
  8208  1362  0081               	movwf	1
  8209  1363                     i1l4059:
  8210  1363  3001               	movlw	1
  8211  1364  00F4               	movwf	??_memcpy
  8212  1365  0874               	movf	??_memcpy,w
  8213  1366  07F9               	addwf	memcpy@d,f
  8214  1367                     i1l4061:
  8215  1367  3001               	movlw	1
  8216  1368  02F2               	subwf	memcpy@n,f
  8217  1369  3000               	movlw	0
  8218  136A  3BF3               	subwfb	memcpy@n+1,f
  8219  136B  0A72               	incf	memcpy@n,w
  8220  136C  1D03               	skipz
  8221  136D  2B72               	goto	u286_21
  8222  136E  0A73               	incf	memcpy@n+1,w
  8223  136F  1D03               	btfss	3,2
  8224  1370  2B72               	goto	u286_21
  8225  1371  2B73               	goto	u286_20
  8226  1372                     u286_21:
  8227  1372  2B50               	goto	i1l4053
  8228  1373                     u286_20:
  8229  1373                     i1l1447:
  8230  1373  0008               	return
  8231  1374                     __end_of_memcpy:
  8232                           
  8233                           	psect	text29
  8234  145B                     __ptext29:	
  8235 ;; *************** function _USBCtrlTrfSetupHandler *****************
  8236 ;; Defined at:
  8237 ;;		line 2469 in file "mcc_generated_files/usb/usb_device.c"
  8238 ;; Parameters:    Size  Location     Type
  8239 ;;		None
  8240 ;; Auto vars:     Size  Location     Type
  8241 ;;		None
  8242 ;; Return value:  Size  Location     Type
  8243 ;;                  1    wreg      void 
  8244 ;; Registers used:
  8245 ;;		wreg, fsr0l, fsr0h, fsr1l, fsr1h, status,2, status,0, pclath, cstack
  8246 ;; Tracked objects:
  8247 ;;		On entry : 0/0
  8248 ;;		On exit  : 0/0
  8249 ;;		Unchanged: 0/0
  8250 ;; Data sizes:     COMMON   BANK0   BANK1   BANK2   BANK3   BANK4   BANK5   BANK6   BANK7   BANK8   BANK9  BANK10  BANK1
      +1  BANK12
  8251 ;;      Params:         0       0       0       0       0       0       0       0       0       0       0       0       
      +0       0
  8252 ;;      Locals:         0       0       0       0       0       0       0       0       0       0       0       0       
      +0       0
  8253 ;;      Temps:          0       1       0       0       0       0       0       0       0       0       0       0       
      +0       0
  8254 ;;      Totals:         0       1       0       0       0       0       0       0       0       0       0       0       
      +0       0
  8255 ;;Total ram usage:        1 bytes
  8256 ;; Hardware stack levels used:    1
  8257 ;; Hardware stack levels required when called:    6
  8258 ;; This function calls:
  8259 ;;		_USBCheckStdRequest
  8260 ;;		_USBCtrlEPServiceComplete
  8261 ;;		_USER_USB_CALLBACK_EVENT_HANDLER
  8262 ;; This function is called by:
  8263 ;;		_USBCtrlEPService
  8264 ;; This function uses a non-reentrant model
  8265 ;;
  8266                           
  8267                           
  8268                           ;psect for function _USBCtrlTrfSetupHandler
  8269  145B                     _USBCtrlTrfSetupHandler:
  8270  145B                     i1l5463:	
  8271                           ;incstack = 0
  8272                           ; Regs used in _USBCtrlTrfSetupHandler: [wreg-fsr1h+status,2+status,0+pclath+cstack]
  8273                           
  8274                           
  8275                           ;mcc_generated_files/usb/usb_device.c: 2474:     shortPacketStatus = 0;
  8276  145B  0021               	movlb	1	; select bank1
  8277  145C  01B1               	clrf	_shortPacketStatus^(0+128)	;volatile
  8278                           
  8279                           ;mcc_generated_files/usb/usb_device.c: 2475:     USBDeferStatusStagePacket = 0;
  8280  145D  0023               	movlb	3	; select bank3
  8281  145E  01E6               	clrf	_USBDeferStatusStagePacket^(0+384)	;volatile
  8282                           
  8283                           ;mcc_generated_files/usb/usb_device.c: 2476:     USBDeferINDataStagePackets = 0;
  8284  145F  01E3               	clrf	_USBDeferINDataStagePackets^(0+384)	;volatile
  8285                           
  8286                           ;mcc_generated_files/usb/usb_device.c: 2477:     USBDeferOUTDataStagePackets = 0;
  8287  1460  01E2               	clrf	_USBDeferOUTDataStagePackets^(0+384)	;volatile
  8288                           
  8289                           ;mcc_generated_files/usb/usb_device.c: 2478:     BothEP0OutUOWNsSet = 0;
  8290  1461  01E8               	clrf	_BothEP0OutUOWNsSet^(0+384)	;volatile
  8291                           
  8292                           ;mcc_generated_files/usb/usb_device.c: 2479:     controlTransferState = 0;
  8293  1462  0021               	movlb	1	; select bank1
  8294  1463  01B0               	clrf	_controlTransferState^(0+128)	;volatile
  8295  1464                     i1l5465:
  8296                           
  8297                           ;mcc_generated_files/usb/usb_device.c: 2488:     pBDTEntryIn[0]->STAT.Val &= ~(0x80);
  8298  1464  307F               	movlw	127
  8299  1465  0020               	movlb	0	; select bank0
  8300  1466  00EF               	movwf	??_USBCtrlTrfSetupHandler
  8301  1467  0021               	movlb	1	; select bank1
  8302  1468  0820               	movf	_pBDTEntryIn^(0+128),w
  8303  1469  0086               	movwf	6
  8304  146A  0821               	movf	(_pBDTEntryIn+1)^(0+128),w
  8305  146B  0087               	movwf	7
  8306  146C  0020               	movlb	0	; select bank0
  8307  146D  086F               	movf	??_USBCtrlTrfSetupHandler,w
  8308  146E  0581               	andwf	1,f
  8309  146F                     i1l5467:
  8310                           
  8311                           ;mcc_generated_files/usb/usb_device.c: 2490:     pBDTEntryIn[0] = (volatile BDT_ENTRY*)(
      +                          ((uint16_t)pBDTEntryIn[0]) ^ 0x0004);
  8312  146F  3004               	movlw	4
  8313  1470  0021               	movlb	1	; select bank1
  8314  1471  0620               	xorwf	_pBDTEntryIn^(0+128),w
  8315  1472  00A0               	movwf	_pBDTEntryIn^(0+128)
  8316  1473  3000               	movlw	0
  8317  1474  0621               	xorwf	(_pBDTEntryIn+1)^(0+128),w
  8318  1475  00A1               	movwf	(_pBDTEntryIn+1)^(0+128)
  8319  1476                     i1l5469:
  8320                           
  8321                           ;mcc_generated_files/usb/usb_device.c: 2491:     pBDTEntryIn[0]->STAT.Val &= ~(0x80);
  8322  1476  307F               	movlw	127
  8323  1477  0020               	movlb	0	; select bank0
  8324  1478  00EF               	movwf	??_USBCtrlTrfSetupHandler
  8325  1479  0021               	movlb	1	; select bank1
  8326  147A  0820               	movf	_pBDTEntryIn^(0+128),w
  8327  147B  0086               	movwf	6
  8328  147C  0821               	movf	(_pBDTEntryIn+1)^(0+128),w
  8329  147D  0087               	movwf	7
  8330  147E  0020               	movlb	0	; select bank0
  8331  147F  086F               	movf	??_USBCtrlTrfSetupHandler,w
  8332  1480  0581               	andwf	1,f
  8333  1481                     i1l5471:
  8334                           
  8335                           ;mcc_generated_files/usb/usb_device.c: 2492:     pBDTEntryIn[0] = (volatile BDT_ENTRY*)(
      +                          ((uint16_t)pBDTEntryIn[0]) ^ 0x0004);
  8336  1481  3004               	movlw	4
  8337  1482  0021               	movlb	1	; select bank1
  8338  1483  0620               	xorwf	_pBDTEntryIn^(0+128),w
  8339  1484  00A0               	movwf	_pBDTEntryIn^(0+128)
  8340  1485  3000               	movlw	0
  8341  1486  0621               	xorwf	(_pBDTEntryIn+1)^(0+128),w
  8342  1487  00A1               	movwf	(_pBDTEntryIn+1)^(0+128)
  8343  1488                     i1l5473:
  8344                           
  8345                           ;mcc_generated_files/usb/usb_device.c: 2493:     pBDTEntryEP0OutNext->STAT.Val &= ~(0x80
      +                          );
  8346  1488  307F               	movlw	127
  8347  1489  0020               	movlb	0	; select bank0
  8348  148A  00EF               	movwf	??_USBCtrlTrfSetupHandler
  8349  148B  0021               	movlb	1	; select bank1
  8350  148C  082B               	movf	_pBDTEntryEP0OutNext^(0+128),w
  8351  148D  0086               	movwf	6
  8352  148E  082C               	movf	(_pBDTEntryEP0OutNext+1)^(0+128),w
  8353  148F  0087               	movwf	7
  8354  1490  0020               	movlb	0	; select bank0
  8355  1491  086F               	movf	??_USBCtrlTrfSetupHandler,w
  8356  1492  0581               	andwf	1,f
  8357  1493                     i1l5475:
  8358                           
  8359                           ;mcc_generated_files/usb/usb_device.c: 2495:     inPipes[0].info.Val = 0;
  8360  1493  0021               	movlb	1	; select bank1
  8361  1494  01A8               	clrf	(_inPipes^(0+128)+2)	;volatile
  8362  1495                     i1l5477:
  8363                           
  8364                           ;mcc_generated_files/usb/usb_device.c: 2496:     inPipes[0].wCount.Val = 0;
  8365  1495  01A9               	clrf	(_inPipes^(0+128)+3)	;volatile
  8366  1496  01AA               	clrf	((_inPipes+1)^(0+128)+3)	;volatile
  8367  1497                     i1l5479:
  8368                           
  8369                           ;mcc_generated_files/usb/usb_device.c: 2497:     outPipes[0].info.Val = 0;
  8370  1497  0023               	movlb	3	; select bank3
  8371  1498  01B2               	clrf	(_outPipes^(0+384)+2)	;volatile
  8372  1499                     i1l5481:
  8373                           
  8374                           ;mcc_generated_files/usb/usb_device.c: 2498:     outPipes[0].wCount.Val = 0;
  8375  1499  01B3               	clrf	(_outPipes^(0+384)+3)	;volatile
  8376  149A  01B4               	clrf	((_outPipes+1)^(0+384)+3)	;volatile
  8377  149B                     i1l5483:
  8378                           
  8379                           ;mcc_generated_files/usb/usb_device.c: 2504:     USBCheckStdRequest();
  8380  149B  3189  210A  3194   	fcall	_USBCheckStdRequest
  8381  149E                     i1l5485:
  8382                           
  8383                           ;mcc_generated_files/usb/usb_device.c: 2505:     USER_USB_CALLBACK_EVENT_HANDLER((USB_EV
      +                          ENT)EVENT_EP0_REQUEST,0,0);
  8384  149E  3003               	movlw	3
  8385  149F  0020               	movlb	0	; select bank0
  8386  14A0  00E0               	movwf	USER_USB_CALLBACK_EVENT_HANDLER@event
  8387  14A1  3000               	movlw	0
  8388  14A2  00E1               	movwf	USER_USB_CALLBACK_EVENT_HANDLER@event+1
  8389  14A3  3000               	movlw	0
  8390  14A4  00E2               	movwf	USER_USB_CALLBACK_EVENT_HANDLER@pdata
  8391  14A5  3000               	movlw	0
  8392  14A6  00E3               	movwf	USER_USB_CALLBACK_EVENT_HANDLER@pdata+1
  8393  14A7  3000               	movlw	0
  8394  14A8  00E4               	movwf	USER_USB_CALLBACK_EVENT_HANDLER@size
  8395  14A9  00E5               	movwf	USER_USB_CALLBACK_EVENT_HANDLER@size+1
  8396  14AA  3193  2374  3194   	fcall	_USER_USB_CALLBACK_EVENT_HANDLER
  8397  14AD                     i1l5487:
  8398                           
  8399                           ;mcc_generated_files/usb/usb_device.c: 2518:     USBCtrlEPServiceComplete();
  8400  14AD  318A  22AA  3194   	fcall	_USBCtrlEPServiceComplete
  8401  14B0                     i1l321:
  8402  14B0  0008               	return
  8403  14B1                     __end_of_USBCtrlTrfSetupHandler:
  8404                           
  8405                           	psect	text30
  8406  0AAA                     __ptext30:	
  8407 ;; *************** function _USBCtrlEPServiceComplete *****************
  8408 ;; Defined at:
  8409 ;;		line 1620 in file "mcc_generated_files/usb/usb_device.c"
  8410 ;; Parameters:    Size  Location     Type
  8411 ;;		None
  8412 ;; Auto vars:     Size  Location     Type
  8413 ;;		None
  8414 ;; Return value:  Size  Location     Type
  8415 ;;                  1    wreg      void 
  8416 ;; Registers used:
  8417 ;;		wreg, fsr0l, fsr0h, fsr1l, fsr1h, status,2, status,0, pclath, cstack
  8418 ;; Tracked objects:
  8419 ;;		On entry : 0/0
  8420 ;;		On exit  : 0/0
  8421 ;;		Unchanged: 0/0
  8422 ;; Data sizes:     COMMON   BANK0   BANK1   BANK2   BANK3   BANK4   BANK5   BANK6   BANK7   BANK8   BANK9  BANK10  BANK1
      +1  BANK12
  8423 ;;      Params:         0       0       0       0       0       0       0       0       0       0       0       0       
      +0       0
  8424 ;;      Locals:         0       0       0       0       0       0       0       0       0       0       0       0       
      +0       0
  8425 ;;      Temps:          2       0       0       0       0       0       0       0       0       0       0       0       
      +0       0
  8426 ;;      Totals:         2       0       0       0       0       0       0       0       0       0       0       0       
      +0       0
  8427 ;;Total ram usage:        2 bytes
  8428 ;; Hardware stack levels used:    1
  8429 ;; Hardware stack levels required when called:    2
  8430 ;; This function calls:
  8431 ;;		_USBCtrlEPAllowDataStage
  8432 ;;		_USBCtrlEPAllowStatusStage
  8433 ;; This function is called by:
  8434 ;;		_USBCtrlTrfSetupHandler
  8435 ;; This function uses a non-reentrant model
  8436 ;;
  8437                           
  8438                           
  8439                           ;psect for function _USBCtrlEPServiceComplete
  8440  0AAA                     _USBCtrlEPServiceComplete:
  8441  0AAA                     i1l3909:	
  8442                           ;incstack = 0
  8443                           ; Regs used in _USBCtrlEPServiceComplete: [wreg-fsr1h+status,2+status,0+pclath+cstack]
  8444                           
  8445                           
  8446                           ;mcc_generated_files/usb/usb_device.c: 1626:     UCONbits.PKTDIS = 0;
  8447  0AAA  003D               	movlb	29	; select bank29
  8448  0AAB  120E               	bcf	14,4	;volatile
  8449                           
  8450                           ;mcc_generated_files/usb/usb_device.c: 1632:     if(inPipes[0].info.bits.busy == 0)
  8451  0AAC  0021               	movlb	1	; select bank1
  8452  0AAD  1BA8               	btfsc	(_inPipes^(0+128)+2),7	;volatile
  8453  0AAE  2AB0               	goto	u272_21
  8454  0AAF  2AB1               	goto	u272_20
  8455  0AB0                     u272_21:
  8456  0AB0  2AF9               	goto	i1l221
  8457  0AB1                     u272_20:
  8458  0AB1                     i1l3911:
  8459                           
  8460                           ;mcc_generated_files/usb/usb_device.c: 1633:     {;mcc_generated_files/usb/usb_device.c:
      +                           1634:         if(outPipes[0].info.bits.busy == 1)
  8461  0AB1  0023               	movlb	3	; select bank3
  8462  0AB2  1FB2               	btfss	(_outPipes^(0+384)+2),7	;volatile
  8463  0AB3  2AB5               	goto	u273_21
  8464  0AB4  2AB6               	goto	u273_20
  8465  0AB5                     u273_21:
  8466  0AB5  2AC8               	goto	i1l3923
  8467  0AB6                     u273_20:
  8468  0AB6                     i1l3913:
  8469                           
  8470                           ;mcc_generated_files/usb/usb_device.c: 1635:         {;mcc_generated_files/usb/usb_devic
      +                          e.c: 1636:             controlTransferState = 2;
  8471  0AB6  3002               	movlw	2
  8472  0AB7  00F5               	movwf	??_USBCtrlEPServiceComplete
  8473  0AB8  0875               	movf	??_USBCtrlEPServiceComplete,w
  8474  0AB9  0021               	movlb	1	; select bank1
  8475  0ABA  00B0               	movwf	_controlTransferState^(0+128)	;volatile
  8476  0ABB                     i1l3915:
  8477                           
  8478                           ;mcc_generated_files/usb/usb_device.c: 1647:             if(USBDeferOUTDataStagePackets 
      +                          == 0)
  8479  0ABB  0023               	movlb	3	; select bank3
  8480  0ABC  0862               	movf	_USBDeferOUTDataStagePackets^(0+384),w	;volatile
  8481  0ABD  1D03               	btfss	3,2
  8482  0ABE  2AC0               	goto	u274_21
  8483  0ABF  2AC1               	goto	u274_20
  8484  0AC0                     u274_21:
  8485  0AC0  2AC4               	goto	i1l3919
  8486  0AC1                     u274_20:
  8487  0AC1                     i1l3917:
  8488                           
  8489                           ;mcc_generated_files/usb/usb_device.c: 1648:             {;mcc_generated_files/usb/usb_d
      +                          evice.c: 1649:                 USBCtrlEPAllowDataStage();
  8490  0AC1  3195  255F  318A   	fcall	_USBCtrlEPAllowDataStage
  8491  0AC4                     i1l3919:
  8492                           
  8493                           ;mcc_generated_files/usb/usb_device.c: 1654:             USBStatusStageEnabledFlag2 = 0;
  8494  0AC4  0023               	movlb	3	; select bank3
  8495  0AC5  01E4               	clrf	_USBStatusStageEnabledFlag2^(0+384)	;volatile
  8496  0AC6                     i1l3921:
  8497                           
  8498                           ;mcc_generated_files/usb/usb_device.c: 1655:             USBStatusStageEnabledFlag1 = 0;
  8499  0AC6  01E5               	clrf	_USBStatusStageEnabledFlag1^(0+384)	;volatile
  8500                           
  8501                           ;mcc_generated_files/usb/usb_device.c: 1656:         }
  8502  0AC7  2B4A               	goto	i1l231
  8503  0AC8                     i1l3923:
  8504                           
  8505                           ;mcc_generated_files/usb/usb_device.c: 1658:         {;mcc_generated_files/usb/usb_devic
      +                          e.c: 1663:             pBDTEntryEP0OutNext->CNT = 8;
  8506  0AC8  0021               	movlb	1	; select bank1
  8507  0AC9  082B               	movf	_pBDTEntryEP0OutNext^(0+128),w
  8508  0ACA  3E01               	addlw	1
  8509  0ACB  00F5               	movwf	??_USBCtrlEPServiceComplete
  8510  0ACC  3000               	movlw	0
  8511  0ACD  3D2C               	addwfc	(_pBDTEntryEP0OutNext+1)^(0+128),w
  8512  0ACE  00F6               	movwf	??_USBCtrlEPServiceComplete+1
  8513  0ACF  0875               	movf	??_USBCtrlEPServiceComplete,w
  8514  0AD0  0086               	movwf	6
  8515  0AD1  0876               	movf	??_USBCtrlEPServiceComplete+1,w
  8516  0AD2  0087               	movwf	7
  8517  0AD3  3008               	movlw	8
  8518  0AD4  0081               	movwf	1
  8519  0AD5                     i1l3925:
  8520                           
  8521                           ;mcc_generated_files/usb/usb_device.c: 1664:             pBDTEntryEP0OutNext->ADR = (((u
      +                          int16_t)(&SetupPkt)) & 0x7FFF);
  8522  0AD5  3050               	movlw	80
  8523  0AD6  00F5               	movwf	??_USBCtrlEPServiceComplete
  8524  0AD7  3000               	movlw	0
  8525  0AD8  00F6               	movwf	??_USBCtrlEPServiceComplete+1
  8526  0AD9  082B               	movf	_pBDTEntryEP0OutNext^(0+128),w
  8527  0ADA  0086               	movwf	6
  8528  0ADB  082C               	movf	(_pBDTEntryEP0OutNext+1)^(0+128),w
  8529  0ADC  0087               	movwf	7
  8530  0ADD  3142               	addfsr 1,2
  8531  0ADE  0875               	movf	??_USBCtrlEPServiceComplete,w
  8532  0ADF  3FC0               	movwi [0]fsr1
  8533  0AE0  0876               	movf	??_USBCtrlEPServiceComplete+1,w
  8534  0AE1  3FC1               	movwi [1]fsr1
  8535  0AE2                     i1l3927:
  8536                           
  8537                           ;mcc_generated_files/usb/usb_device.c: 1665:             pBDTEntryEP0OutNext->STAT.Val =
      +                           0x00|(0x08 & 0x08)|0x04;
  8538  0AE2  082B               	movf	_pBDTEntryEP0OutNext^(0+128),w
  8539  0AE3  0086               	movwf	6
  8540  0AE4  082C               	movf	(_pBDTEntryEP0OutNext+1)^(0+128),w
  8541  0AE5  0087               	movwf	7
  8542  0AE6  300C               	movlw	12
  8543  0AE7  0081               	movwf	1
  8544  0AE8                     i1l3929:
  8545                           
  8546                           ;mcc_generated_files/usb/usb_device.c: 1666:             pBDTEntryEP0OutNext->STAT.Val |
      +                          = 0x80;
  8547  0AE8  082B               	movf	_pBDTEntryEP0OutNext^(0+128),w
  8548  0AE9  0086               	movwf	6
  8549  0AEA  082C               	movf	(_pBDTEntryEP0OutNext+1)^(0+128),w
  8550  0AEB  0087               	movwf	7
  8551  0AEC  1781               	bsf	1,7
  8552  0AED                     i1l3931:
  8553                           
  8554                           ;mcc_generated_files/usb/usb_device.c: 1667:             pBDTEntryIn[0]->STAT.Val = 0x04
      +                          ;
  8555  0AED  0820               	movf	_pBDTEntryIn^(0+128),w
  8556  0AEE  0086               	movwf	6
  8557  0AEF  0821               	movf	(_pBDTEntryIn+1)^(0+128),w
  8558  0AF0  0087               	movwf	7
  8559  0AF1  3004               	movlw	4
  8560  0AF2  0081               	movwf	1
  8561  0AF3                     i1l3933:
  8562                           
  8563                           ;mcc_generated_files/usb/usb_device.c: 1668:             pBDTEntryIn[0]->STAT.Val |= 0x8
      +                          0;
  8564  0AF3  0820               	movf	_pBDTEntryIn^(0+128),w
  8565  0AF4  0086               	movwf	6
  8566  0AF5  0821               	movf	(_pBDTEntryIn+1)^(0+128),w
  8567  0AF6  0087               	movwf	7
  8568  0AF7  1781               	bsf	1,7
  8569  0AF8  2B4A               	goto	i1l231
  8570  0AF9                     i1l221:	
  8571                           ;mcc_generated_files/usb/usb_device.c: 1671:     else
  8572                           
  8573                           
  8574                           ;mcc_generated_files/usb/usb_device.c: 1672:     {;mcc_generated_files/usb/usb_device.c:
      +                           1673:   if(SetupPkt.DataDir == (0x80>>7))
  8575  0AF9  0020               	movlb	0	; select bank0
  8576  0AFA  1FD0               	btfss	80,7	;volatile
  8577  0AFB  2AFD               	goto	u275_21
  8578  0AFC  2AFE               	goto	u275_20
  8579  0AFD                     u275_21:
  8580  0AFD  2B18               	goto	i1l3949
  8581  0AFE                     u275_20:
  8582  0AFE                     i1l3935:
  8583                           
  8584                           ;mcc_generated_files/usb/usb_device.c: 1674:   {;mcc_generated_files/usb/usb_device.c: 1
      +                          675:    controlTransferState = 1;
  8585  0AFE  3001               	movlw	1
  8586  0AFF  00F5               	movwf	??_USBCtrlEPServiceComplete
  8587  0B00  0875               	movf	??_USBCtrlEPServiceComplete,w
  8588  0B01  0021               	movlb	1	; select bank1
  8589  0B02  00B0               	movwf	_controlTransferState^(0+128)	;volatile
  8590  0B03                     i1l3937:
  8591                           
  8592                           ;mcc_generated_files/usb/usb_device.c: 1689:    if(USBDeferINDataStagePackets == 0)
  8593  0B03  0023               	movlb	3	; select bank3
  8594  0B04  0863               	movf	_USBDeferINDataStagePackets^(0+384),w	;volatile
  8595  0B05  1D03               	btfss	3,2
  8596  0B06  2B08               	goto	u276_21
  8597  0B07  2B09               	goto	u276_20
  8598  0B08                     u276_21:
  8599  0B08  2B0C               	goto	i1l3941
  8600  0B09                     u276_20:
  8601  0B09                     i1l3939:
  8602                           
  8603                           ;mcc_generated_files/usb/usb_device.c: 1690:             {;mcc_generated_files/usb/usb_d
      +                          evice.c: 1691:                 USBCtrlEPAllowDataStage();
  8604  0B09  3195  255F  318A   	fcall	_USBCtrlEPAllowDataStage
  8605  0B0C                     i1l3941:
  8606                           
  8607                           ;mcc_generated_files/usb/usb_device.c: 1714:             USBStatusStageEnabledFlag2 = 0;
  8608  0B0C  0023               	movlb	3	; select bank3
  8609  0B0D  01E4               	clrf	_USBStatusStageEnabledFlag2^(0+384)	;volatile
  8610  0B0E                     i1l3943:
  8611                           
  8612                           ;mcc_generated_files/usb/usb_device.c: 1715:             USBStatusStageEnabledFlag1 = 0;
  8613  0B0E  01E5               	clrf	_USBStatusStageEnabledFlag1^(0+384)	;volatile
  8614  0B0F                     i1l3945:
  8615                           
  8616                           ;mcc_generated_files/usb/usb_device.c: 1716:             if(USBDeferStatusStagePacket ==
      +                           0)
  8617  0B0F  0866               	movf	_USBDeferStatusStagePacket^(0+384),w	;volatile
  8618  0B10  1D03               	btfss	3,2
  8619  0B11  2B13               	goto	u277_21
  8620  0B12  2B14               	goto	u277_20
  8621  0B13                     u277_21:
  8622  0B13  2B4A               	goto	i1l231
  8623  0B14                     u277_20:
  8624  0B14                     i1l3947:
  8625                           
  8626                           ;mcc_generated_files/usb/usb_device.c: 1717:             {;mcc_generated_files/usb/usb_d
      +                          evice.c: 1718:                 USBCtrlEPAllowStatusStage();
  8627  0B14  3197  270D  318A   	fcall	_USBCtrlEPAllowStatusStage
  8628  0B17  2B4A               	goto	i1l231
  8629  0B18                     i1l3949:
  8630                           
  8631                           ;mcc_generated_files/usb/usb_device.c: 1722:   {;mcc_generated_files/usb/usb_device.c: 1
      +                          733:    controlTransferState = 2;
  8632  0B18  3002               	movlw	2
  8633  0B19  00F5               	movwf	??_USBCtrlEPServiceComplete
  8634  0B1A  0875               	movf	??_USBCtrlEPServiceComplete,w
  8635  0B1B  0021               	movlb	1	; select bank1
  8636  0B1C  00B0               	movwf	_controlTransferState^(0+128)	;volatile
  8637  0B1D                     i1l3951:
  8638                           
  8639                           ;mcc_generated_files/usb/usb_device.c: 1736:    pBDTEntryEP0OutNext->CNT = 8;
  8640  0B1D  082B               	movf	_pBDTEntryEP0OutNext^(0+128),w
  8641  0B1E  3E01               	addlw	1
  8642  0B1F  00F5               	movwf	??_USBCtrlEPServiceComplete
  8643  0B20  3000               	movlw	0
  8644  0B21  3D2C               	addwfc	(_pBDTEntryEP0OutNext+1)^(0+128),w
  8645  0B22  00F6               	movwf	??_USBCtrlEPServiceComplete+1
  8646  0B23  0875               	movf	??_USBCtrlEPServiceComplete,w
  8647  0B24  0086               	movwf	6
  8648  0B25  0876               	movf	??_USBCtrlEPServiceComplete+1,w
  8649  0B26  0087               	movwf	7
  8650  0B27  3008               	movlw	8
  8651  0B28  0081               	movwf	1
  8652  0B29                     i1l3953:
  8653                           
  8654                           ;mcc_generated_files/usb/usb_device.c: 1737:    pBDTEntryEP0OutNext->ADR = (((uint16_t)(
      +                          &SetupPkt)) & 0x7FFF);
  8655  0B29  3050               	movlw	80
  8656  0B2A  00F5               	movwf	??_USBCtrlEPServiceComplete
  8657  0B2B  3000               	movlw	0
  8658  0B2C  00F6               	movwf	??_USBCtrlEPServiceComplete+1
  8659  0B2D  082B               	movf	_pBDTEntryEP0OutNext^(0+128),w
  8660  0B2E  0086               	movwf	6
  8661  0B2F  082C               	movf	(_pBDTEntryEP0OutNext+1)^(0+128),w
  8662  0B30  0087               	movwf	7
  8663  0B31  3142               	addfsr 1,2
  8664  0B32  0875               	movf	??_USBCtrlEPServiceComplete,w
  8665  0B33  3FC0               	movwi [0]fsr1
  8666  0B34  0876               	movf	??_USBCtrlEPServiceComplete+1,w
  8667  0B35  3FC1               	movwi [1]fsr1
  8668  0B36                     i1l3955:
  8669                           
  8670                           ;mcc_generated_files/usb/usb_device.c: 1738:    pBDTEntryEP0OutNext->STAT.Val = 0x04;
  8671  0B36  082B               	movf	_pBDTEntryEP0OutNext^(0+128),w
  8672  0B37  0086               	movwf	6
  8673  0B38  082C               	movf	(_pBDTEntryEP0OutNext+1)^(0+128),w
  8674  0B39  0087               	movwf	7
  8675  0B3A  3004               	movlw	4
  8676  0B3B  0081               	movwf	1
  8677  0B3C                     i1l3957:
  8678                           
  8679                           ;mcc_generated_files/usb/usb_device.c: 1739:             pBDTEntryEP0OutNext->STAT.Val |
      +                          = 0x80;
  8680  0B3C  082B               	movf	_pBDTEntryEP0OutNext^(0+128),w
  8681  0B3D  0086               	movwf	6
  8682  0B3E  082C               	movf	(_pBDTEntryEP0OutNext+1)^(0+128),w
  8683  0B3F  0087               	movwf	7
  8684  0B40  1781               	bsf	1,7
  8685  0B41                     i1l3959:
  8686                           
  8687                           ;mcc_generated_files/usb/usb_device.c: 1742:             USBStatusStageEnabledFlag2 = 0;
  8688  0B41  0023               	movlb	3	; select bank3
  8689  0B42  01E4               	clrf	_USBStatusStageEnabledFlag2^(0+384)	;volatile
  8690  0B43                     i1l3961:
  8691                           
  8692                           ;mcc_generated_files/usb/usb_device.c: 1743:             USBStatusStageEnabledFlag1 = 0;
  8693  0B43  01E5               	clrf	_USBStatusStageEnabledFlag1^(0+384)	;volatile
  8694                           
  8695                           ;mcc_generated_files/usb/usb_device.c: 1744:    if(USBDeferStatusStagePacket == 0)
  8696  0B44  0866               	movf	_USBDeferStatusStagePacket^(0+384),w	;volatile
  8697  0B45  1D03               	btfss	3,2
  8698  0B46  2B48               	goto	u278_21
  8699  0B47  2B49               	goto	u278_20
  8700  0B48                     u278_21:
  8701  0B48  2B4A               	goto	i1l231
  8702  0B49                     u278_20:
  8703  0B49  2B14               	goto	i1l3947
  8704  0B4A                     i1l231:
  8705  0B4A  0008               	return
  8706  0B4B                     __end_of_USBCtrlEPServiceComplete:
  8707                           
  8708                           	psect	text31
  8709  155F                     __ptext31:	
  8710 ;; *************** function _USBCtrlEPAllowDataStage *****************
  8711 ;; Defined at:
  8712 ;;		line 1492 in file "mcc_generated_files/usb/usb_device.c"
  8713 ;; Parameters:    Size  Location     Type
  8714 ;;		None
  8715 ;; Auto vars:     Size  Location     Type
  8716 ;;		None
  8717 ;; Return value:  Size  Location     Type
  8718 ;;                  1    wreg      void 
  8719 ;; Registers used:
  8720 ;;		wreg, fsr0l, fsr0h, fsr1l, fsr1h, status,2, status,0, pclath, cstack
  8721 ;; Tracked objects:
  8722 ;;		On entry : 0/0
  8723 ;;		On exit  : 0/0
  8724 ;;		Unchanged: 0/0
  8725 ;; Data sizes:     COMMON   BANK0   BANK1   BANK2   BANK3   BANK4   BANK5   BANK6   BANK7   BANK8   BANK9  BANK10  BANK1
      +1  BANK12
  8726 ;;      Params:         0       0       0       0       0       0       0       0       0       0       0       0       
      +0       0
  8727 ;;      Locals:         0       0       0       0       0       0       0       0       0       0       0       0       
      +0       0
  8728 ;;      Temps:          2       0       0       0       0       0       0       0       0       0       0       0       
      +0       0
  8729 ;;      Totals:         2       0       0       0       0       0       0       0       0       0       0       0       
      +0       0
  8730 ;;Total ram usage:        2 bytes
  8731 ;; Hardware stack levels used:    1
  8732 ;; Hardware stack levels required when called:    1
  8733 ;; This function calls:
  8734 ;;		_USBCtrlTrfTxService
  8735 ;; This function is called by:
  8736 ;;		_USBCtrlEPServiceComplete
  8737 ;; This function uses a non-reentrant model
  8738 ;;
  8739                           
  8740                           
  8741                           ;psect for function _USBCtrlEPAllowDataStage
  8742  155F                     _USBCtrlEPAllowDataStage:
  8743  155F                     i1l3681:	
  8744                           ;incstack = 0
  8745                           ; Regs used in _USBCtrlEPAllowDataStage: [wreg-fsr1h+status,2+status,0+pclath+cstack]
  8746                           
  8747                           
  8748                           ;mcc_generated_files/usb/usb_device.c: 1494:     USBDeferINDataStagePackets = 0;
  8749  155F  0023               	movlb	3	; select bank3
  8750  1560  01E3               	clrf	_USBDeferINDataStagePackets^(0+384)	;volatile
  8751                           
  8752                           ;mcc_generated_files/usb/usb_device.c: 1495:     USBDeferOUTDataStagePackets = 0;
  8753  1561  01E2               	clrf	_USBDeferOUTDataStagePackets^(0+384)	;volatile
  8754  1562                     i1l3683:
  8755                           
  8756                           ;mcc_generated_files/usb/usb_device.c: 1497:     if(controlTransferState == 2)
  8757  1562  3002               	movlw	2
  8758  1563  0021               	movlb	1	; select bank1
  8759  1564  0630               	xorwf	_controlTransferState^(0+128),w	;volatile
  8760  1565  1D03               	btfss	3,2
  8761  1566  2D68               	goto	u241_21
  8762  1567  2D69               	goto	u241_20
  8763  1568                     u241_21:
  8764  1568  2D8E               	goto	i1l3693
  8765  1569                     u241_20:
  8766  1569                     i1l3685:
  8767                           
  8768                           ;mcc_generated_files/usb/usb_device.c: 1498:     {;mcc_generated_files/usb/usb_device.c:
      +                           1500:         pBDTEntryEP0OutNext->CNT = 8;
  8769  1569  082B               	movf	_pBDTEntryEP0OutNext^(0+128),w
  8770  156A  3E01               	addlw	1
  8771  156B  00F3               	movwf	??_USBCtrlEPAllowDataStage
  8772  156C  3000               	movlw	0
  8773  156D  3D2C               	addwfc	(_pBDTEntryEP0OutNext+1)^(0+128),w
  8774  156E  00F4               	movwf	??_USBCtrlEPAllowDataStage+1
  8775  156F  0873               	movf	??_USBCtrlEPAllowDataStage,w
  8776  1570  0086               	movwf	6
  8777  1571  0874               	movf	??_USBCtrlEPAllowDataStage+1,w
  8778  1572  0087               	movwf	7
  8779  1573  3008               	movlw	8
  8780  1574  0081               	movwf	1
  8781  1575                     i1l3687:
  8782                           
  8783                           ;mcc_generated_files/usb/usb_device.c: 1501:         pBDTEntryEP0OutNext->ADR = (((uint1
      +                          6_t)(&CtrlTrfData)) & 0x7FFF);
  8784  1575  3058               	movlw	88
  8785  1576  00F3               	movwf	??_USBCtrlEPAllowDataStage
  8786  1577  3000               	movlw	0
  8787  1578  00F4               	movwf	??_USBCtrlEPAllowDataStage+1
  8788  1579  082B               	movf	_pBDTEntryEP0OutNext^(0+128),w
  8789  157A  0086               	movwf	6
  8790  157B  082C               	movf	(_pBDTEntryEP0OutNext+1)^(0+128),w
  8791  157C  0087               	movwf	7
  8792  157D  3142               	addfsr 1,2
  8793  157E  0873               	movf	??_USBCtrlEPAllowDataStage,w
  8794  157F  3FC0               	movwi [0]fsr1
  8795  1580  0874               	movf	??_USBCtrlEPAllowDataStage+1,w
  8796  1581  3FC1               	movwi [1]fsr1
  8797  1582                     i1l3689:
  8798                           
  8799                           ;mcc_generated_files/usb/usb_device.c: 1502:         pBDTEntryEP0OutNext->STAT.Val = 0x4
      +                          0|(0x08 & 0x08);
  8800  1582  082B               	movf	_pBDTEntryEP0OutNext^(0+128),w
  8801  1583  0086               	movwf	6
  8802  1584  082C               	movf	(_pBDTEntryEP0OutNext+1)^(0+128),w
  8803  1585  0087               	movwf	7
  8804  1586  3048               	movlw	72
  8805  1587  0081               	movwf	1
  8806  1588                     i1l3691:
  8807                           
  8808                           ;mcc_generated_files/usb/usb_device.c: 1503:         pBDTEntryEP0OutNext->STAT.Val |= 0x
      +                          80;
  8809  1588  082B               	movf	_pBDTEntryEP0OutNext^(0+128),w
  8810  1589  0086               	movwf	6
  8811  158A  082C               	movf	(_pBDTEntryEP0OutNext+1)^(0+128),w
  8812  158B  0087               	movwf	7
  8813  158C  1781               	bsf	1,7
  8814                           
  8815                           ;mcc_generated_files/usb/usb_device.c: 1504:     }
  8816  158D  2DBE               	goto	i1l213
  8817  158E                     i1l3693:
  8818                           
  8819                           ;mcc_generated_files/usb/usb_device.c: 1506:     {;mcc_generated_files/usb/usb_device.c:
      +                           1509:   if(SetupPkt.wLength < inPipes[0].wCount.Val)
  8820  158E  082A               	movf	((_inPipes+1)^(0+128)+3),w	;volatile
  8821  158F  0020               	movlb	0	; select bank0
  8822  1590  0257               	subwf	87,w	;volatile
  8823  1591  1D03               	skipz
  8824  1592  2D97               	goto	u242_25
  8825  1593  0021               	movlb	1	; select bank1
  8826  1594  0829               	movf	(_inPipes^(0+128)+3),w	;volatile
  8827  1595  0020               	movlb	0	; select bank0
  8828  1596  0256               	subwf	86,w	;volatile
  8829  1597                     u242_25:
  8830  1597  1803               	skipnc
  8831  1598  2D9A               	goto	u242_21
  8832  1599  2D9B               	goto	u242_20
  8833  159A                     u242_21:
  8834  159A  2DA2               	goto	i1l3697
  8835  159B                     u242_20:
  8836  159B                     i1l3695:
  8837                           
  8838                           ;mcc_generated_files/usb/usb_device.c: 1510:   {;mcc_generated_files/usb/usb_device.c: 1
      +                          511:    inPipes[0].wCount.Val = SetupPkt.wLength;
  8839  159B  0857               	movf	87,w	;volatile
  8840  159C  0021               	movlb	1	; select bank1
  8841  159D  00AA               	movwf	((_inPipes+1)^(0+128)+3)	;volatile
  8842  159E  0020               	movlb	0	; select bank0
  8843  159F  0856               	movf	86,w	;volatile
  8844  15A0  0021               	movlb	1	; select bank1
  8845  15A1  00A9               	movwf	(_inPipes^(0+128)+3)	;volatile
  8846  15A2                     i1l3697:
  8847                           
  8848                           ;mcc_generated_files/usb/usb_device.c: 1513:   USBCtrlTrfTxService();
  8849  15A2  3188  2002  3195   	fcall	_USBCtrlTrfTxService
  8850  15A5                     i1l3699:
  8851                           
  8852                           ;mcc_generated_files/usb/usb_device.c: 1518:   pBDTEntryIn[0]->ADR = (((uint16_t)(&CtrlT
      +                          rfData)) & 0x7FFF);
  8853  15A5  3058               	movlw	88
  8854  15A6  00F3               	movwf	??_USBCtrlEPAllowDataStage
  8855  15A7  3000               	movlw	0
  8856  15A8  00F4               	movwf	??_USBCtrlEPAllowDataStage+1
  8857  15A9  0021               	movlb	1	; select bank1
  8858  15AA  0820               	movf	_pBDTEntryIn^(0+128),w
  8859  15AB  0086               	movwf	6
  8860  15AC  0821               	movf	(_pBDTEntryIn+1)^(0+128),w
  8861  15AD  0087               	movwf	7
  8862  15AE  3142               	addfsr 1,2
  8863  15AF  0873               	movf	??_USBCtrlEPAllowDataStage,w
  8864  15B0  3FC0               	movwi [0]fsr1
  8865  15B1  0874               	movf	??_USBCtrlEPAllowDataStage+1,w
  8866  15B2  3FC1               	movwi [1]fsr1
  8867  15B3                     i1l3701:
  8868                           
  8869                           ;mcc_generated_files/usb/usb_device.c: 1519:   pBDTEntryIn[0]->STAT.Val = 0x40|(0x08 & 0
      +                          x08);
  8870  15B3  0820               	movf	_pBDTEntryIn^(0+128),w
  8871  15B4  0086               	movwf	6
  8872  15B5  0821               	movf	(_pBDTEntryIn+1)^(0+128),w
  8873  15B6  0087               	movwf	7
  8874  15B7  3048               	movlw	72
  8875  15B8  0081               	movwf	1
  8876  15B9                     i1l3703:
  8877                           
  8878                           ;mcc_generated_files/usb/usb_device.c: 1520:         pBDTEntryIn[0]->STAT.Val |= 0x80;
  8879  15B9  0820               	movf	_pBDTEntryIn^(0+128),w
  8880  15BA  0086               	movwf	6
  8881  15BB  0821               	movf	(_pBDTEntryIn+1)^(0+128),w
  8882  15BC  0087               	movwf	7
  8883  15BD  1781               	bsf	1,7
  8884  15BE                     i1l213:
  8885  15BE  0008               	return
  8886  15BF                     __end_of_USBCtrlEPAllowDataStage:
  8887                           
  8888                           	psect	text32
  8889  090A                     __ptext32:	
  8890 ;; *************** function _USBCheckStdRequest *****************
  8891 ;; Defined at:
  8892 ;;		line 2690 in file "mcc_generated_files/usb/usb_device.c"
  8893 ;; Parameters:    Size  Location     Type
  8894 ;;		None
  8895 ;; Auto vars:     Size  Location     Type
  8896 ;;		None
  8897 ;; Return value:  Size  Location     Type
  8898 ;;                  1    wreg      void 
  8899 ;; Registers used:
  8900 ;;		wreg, fsr0l, fsr0h, fsr1l, fsr1h, status,2, status,0, pclath, cstack
  8901 ;; Tracked objects:
  8902 ;;		On entry : 0/0
  8903 ;;		On exit  : 0/0
  8904 ;;		Unchanged: 0/0
  8905 ;; Data sizes:     COMMON   BANK0   BANK1   BANK2   BANK3   BANK4   BANK5   BANK6   BANK7   BANK8   BANK9  BANK10  BANK1
      +1  BANK12
  8906 ;;      Params:         0       0       0       0       0       0       0       0       0       0       0       0       
      +0       0
  8907 ;;      Locals:         0       0       0       0       0       0       0       0       0       0       0       0       
      +0       0
  8908 ;;      Temps:          0       2       0       0       0       0       0       0       0       0       0       0       
      +0       0
  8909 ;;      Totals:         0       2       0       0       0       0       0       0       0       0       0       0       
      +0       0
  8910 ;;Total ram usage:        2 bytes
  8911 ;; Hardware stack levels used:    1
  8912 ;; Hardware stack levels required when called:    5
  8913 ;; This function calls:
  8914 ;;		_USBStdFeatureReqHandler
  8915 ;;		_USBStdGetDscHandler
  8916 ;;		_USBStdGetStatusHandler
  8917 ;;		_USBStdSetCfgHandler
  8918 ;;		_USER_USB_CALLBACK_EVENT_HANDLER
  8919 ;; This function is called by:
  8920 ;;		_USBCtrlTrfSetupHandler
  8921 ;; This function uses a non-reentrant model
  8922 ;;
  8923                           
  8924                           
  8925                           ;psect for function _USBCheckStdRequest
  8926  090A                     _USBCheckStdRequest:
  8927  090A                     i1l5419:	
  8928                           ;incstack = 0
  8929                           ; Regs used in _USBCheckStdRequest: [wreg-fsr1h+status,2+status,0+pclath+cstack]
  8930                           
  8931                           
  8932                           ;mcc_generated_files/usb/usb_device.c: 2692:     if(SetupPkt.RequestType != (0x00>>5)) r
      +                          eturn;
  8933  090A  0020               	movlb	0	; select bank0
  8934  090B  0E50               	swapf	80,w	;volatile
  8935  090C  0C89               	rrf	9,f
  8936  090D  3903               	andlw	3
  8937  090E  3A00               	xorlw	0
  8938  090F  1903               	skipnz
  8939  0910  2912               	goto	u433_21
  8940  0911  2913               	goto	u433_20
  8941  0912                     u433_21:
  8942  0912  2966               	goto	i1l5455
  8943  0913                     u433_20:
  8944  0913  2991               	goto	i1l346
  8945  0914                     i1l348:	
  8946                           ;mcc_generated_files/usb/usb_device.c: 2695:     {;mcc_generated_files/usb/usb_device.c:
      +                           2696:         case 5:
  8947                           
  8948                           
  8949                           ;mcc_generated_files/usb/usb_device.c: 2697:             inPipes[0].info.bits.busy = 1;
  8950  0914  0021               	movlb	1	; select bank1
  8951  0915  17A8               	bsf	(_inPipes^(0+128)+2),7	;volatile
  8952  0916                     i1l5423:
  8953                           
  8954                           ;mcc_generated_files/usb/usb_device.c: 2698:             USBDeviceState = ADR_PENDING_ST
      +                          ATE;
  8955  0916  3008               	movlw	8
  8956  0917  0020               	movlb	0	; select bank0
  8957  0918  00ED               	movwf	??_USBCheckStdRequest
  8958  0919  086D               	movf	??_USBCheckStdRequest,w
  8959  091A  0021               	movlb	1	; select bank1
  8960  091B  00B3               	movwf	_USBDeviceState^(0+128)	;volatile
  8961                           
  8962                           ;mcc_generated_files/usb/usb_device.c: 2700:             break;
  8963  091C  2991               	goto	i1l346
  8964  091D                     i1l5425:
  8965                           
  8966                           ;mcc_generated_files/usb/usb_device.c: 2702:             USBStdGetDscHandler();
  8967  091D  3189  2192  3189   	fcall	_USBStdGetDscHandler
  8968                           
  8969                           ;mcc_generated_files/usb/usb_device.c: 2703:             break;
  8970  0920  2991               	goto	i1l346
  8971  0921                     i1l5427:
  8972                           
  8973                           ;mcc_generated_files/usb/usb_device.c: 2705:             USBStdSetCfgHandler();
  8974  0921  318A  221D  3189   	fcall	_USBStdSetCfgHandler
  8975                           
  8976                           ;mcc_generated_files/usb/usb_device.c: 2706:             break;
  8977  0924  2991               	goto	i1l346
  8978  0925                     i1l5429:
  8979                           
  8980                           ;mcc_generated_files/usb/usb_device.c: 2708:             inPipes[0].pSrc.bRam = (uint8_t
      +                          *)&USBActiveConfiguration;
  8981  0925  30B5               	movlw	low _USBActiveConfiguration
  8982  0926  0021               	movlb	1	; select bank1
  8983  0927  00A6               	movwf	_inPipes^(0+128)	;volatile
  8984  0928  3000               	movlw	high _USBActiveConfiguration
  8985  0929  00A7               	movwf	(_inPipes+1)^(0+128)	;volatile
  8986  092A                     i1l5431:
  8987                           
  8988                           ;mcc_generated_files/usb/usb_device.c: 2709:             inPipes[0].info.bits.ctrl_trf_m
      +                          em = 0x01;
  8989  092A  1428               	bsf	(_inPipes^(0+128)+2),0	;volatile
  8990  092B                     i1l5433:
  8991                           
  8992                           ;mcc_generated_files/usb/usb_device.c: 2710:             inPipes[0].wCount.v[0] = 1;
  8993  092B  3001               	movlw	1
  8994  092C  0020               	movlb	0	; select bank0
  8995  092D  00ED               	movwf	??_USBCheckStdRequest
  8996  092E  086D               	movf	??_USBCheckStdRequest,w
  8997  092F  0021               	movlb	1	; select bank1
  8998  0930  00A9               	movwf	(_inPipes^(0+128)+3)	;volatile
  8999  0931                     i1l5435:
  9000                           
  9001                           ;mcc_generated_files/usb/usb_device.c: 2711:             inPipes[0].info.bits.busy = 1;
  9002  0931  17A8               	bsf	(_inPipes^(0+128)+2),7	;volatile
  9003                           
  9004                           ;mcc_generated_files/usb/usb_device.c: 2712:             break;
  9005  0932  2991               	goto	i1l346
  9006  0933                     i1l5437:
  9007                           
  9008                           ;mcc_generated_files/usb/usb_device.c: 2714:             USBStdGetStatusHandler();
  9009  0933  3195  25BF  3189   	fcall	_USBStdGetStatusHandler
  9010                           
  9011                           ;mcc_generated_files/usb/usb_device.c: 2715:             break;
  9012  0936  2991               	goto	i1l346
  9013  0937                     i1l5439:
  9014                           
  9015                           ;mcc_generated_files/usb/usb_device.c: 2718:             USBStdFeatureReqHandler();
  9016  0937  3186  26A2  3189   	fcall	_USBStdFeatureReqHandler
  9017                           
  9018                           ;mcc_generated_files/usb/usb_device.c: 2719:             break;
  9019  093A  2991               	goto	i1l346
  9020  093B                     i1l5441:
  9021                           
  9022                           ;mcc_generated_files/usb/usb_device.c: 2721:             inPipes[0].pSrc.bRam = (uint8_t
      +                          *)&USBAlternateInterface[SetupPkt.bIntfID];
  9023  093B  0854               	movf	84,w	;volatile
  9024  093C  3EED               	addlw	(low (_USBAlternateInterface| (0+256)))& (0+255)
  9025  093D  0021               	movlb	1	; select bank1
  9026  093E  00A6               	movwf	_inPipes^(0+128)	;volatile
  9027  093F  3001               	movlw	1
  9028  0940  00A7               	movwf	(_inPipes+1)^(0+128)	;volatile
  9029  0941                     i1l5443:
  9030                           
  9031                           ;mcc_generated_files/usb/usb_device.c: 2722:             inPipes[0].info.bits.ctrl_trf_m
      +                          em = 0x01;
  9032  0941  1428               	bsf	(_inPipes^(0+128)+2),0	;volatile
  9033  0942                     i1l5445:
  9034                           
  9035                           ;mcc_generated_files/usb/usb_device.c: 2723:             inPipes[0].wCount.v[0] = 1;
  9036  0942  3001               	movlw	1
  9037  0943  0020               	movlb	0	; select bank0
  9038  0944  00ED               	movwf	??_USBCheckStdRequest
  9039  0945  086D               	movf	??_USBCheckStdRequest,w
  9040  0946  0021               	movlb	1	; select bank1
  9041  0947  00A9               	movwf	(_inPipes^(0+128)+3)	;volatile
  9042  0948                     i1l5447:
  9043                           
  9044                           ;mcc_generated_files/usb/usb_device.c: 2724:             inPipes[0].info.bits.busy = 1;
  9045  0948  17A8               	bsf	(_inPipes^(0+128)+2),7	;volatile
  9046                           
  9047                           ;mcc_generated_files/usb/usb_device.c: 2725:             break;
  9048  0949  2991               	goto	i1l346
  9049  094A                     i1l357:	
  9050                           ;mcc_generated_files/usb/usb_device.c: 2726:         case 11:
  9051                           
  9052                           
  9053                           ;mcc_generated_files/usb/usb_device.c: 2727:             inPipes[0].info.bits.busy = 1;
  9054  094A  0021               	movlb	1	; select bank1
  9055  094B  17A8               	bsf	(_inPipes^(0+128)+2),7	;volatile
  9056  094C                     i1l5449:
  9057                           
  9058                           ;mcc_generated_files/usb/usb_device.c: 2728:             USBAlternateInterface[SetupPkt.
      +                          bIntfID] = SetupPkt.bAltID;
  9059  094C  0020               	movlb	0	; select bank0
  9060  094D  0852               	movf	82,w	;volatile
  9061  094E  00ED               	movwf	??_USBCheckStdRequest
  9062  094F  0854               	movf	84,w	;volatile
  9063  0950  3EED               	addlw	(low (_USBAlternateInterface| (0+256)))& (0+255)
  9064  0951  0086               	movwf	6
  9065  0952  3001               	movlw	1	; select bank3/4
  9066  0953  0087               	movwf	7
  9067  0954  086D               	movf	??_USBCheckStdRequest,w
  9068  0955  0081               	movwf	1
  9069                           
  9070                           ;mcc_generated_files/usb/usb_device.c: 2729:             break;
  9071  0956  2991               	goto	i1l346
  9072  0957                     i1l5451:
  9073                           
  9074                           ;mcc_generated_files/usb/usb_device.c: 2731:             USER_USB_CALLBACK_EVENT_HANDLER
      +                          ((USB_EVENT)EVENT_SET_DESCRIPTOR,0,0);
  9075  0957  3002               	movlw	2
  9076  0958  00E0               	movwf	USER_USB_CALLBACK_EVENT_HANDLER@event
  9077  0959  3000               	movlw	0
  9078  095A  00E1               	movwf	USER_USB_CALLBACK_EVENT_HANDLER@event+1
  9079  095B  3000               	movlw	0
  9080  095C  00E2               	movwf	USER_USB_CALLBACK_EVENT_HANDLER@pdata
  9081  095D  3000               	movlw	0
  9082  095E  00E3               	movwf	USER_USB_CALLBACK_EVENT_HANDLER@pdata+1
  9083  095F  3000               	movlw	0
  9084  0960  00E4               	movwf	USER_USB_CALLBACK_EVENT_HANDLER@size
  9085  0961  00E5               	movwf	USER_USB_CALLBACK_EVENT_HANDLER@size+1
  9086  0962  3193  2374  3189   	fcall	_USER_USB_CALLBACK_EVENT_HANDLER
  9087                           
  9088                           ;mcc_generated_files/usb/usb_device.c: 2732:             break;
  9089  0965  2991               	goto	i1l346
  9090  0966                     i1l5455:
  9091  0966  0851               	movf	81,w	;volatile
  9092  0967  00ED               	movwf	??_USBCheckStdRequest
  9093  0968  01EE               	clrf	??_USBCheckStdRequest+1
  9094                           
  9095                           ; Switch on 2 bytes has been partitioned into a top level switch of size 1, and 1 sub-sw
      +                          itches
  9096                           ; Switch size 1, requested type "simple"
  9097                           ; Number of cases is 1, Range of values is 0 to 0
  9098                           ; switch strategies available:
  9099                           ; Name         Instructions Cycles
  9100                           ; simple_byte            4     3 (average)
  9101                           ; direct_byte            8     6 (fixed)
  9102                           ; jumptable            260     6 (fixed)
  9103                           ;	Chosen strategy is simple_byte
  9104  0969  086E               	movf	??_USBCheckStdRequest+1,w
  9105  096A  3A00               	xorlw	0	; case 0
  9106  096B  1903               	skipnz
  9107  096C  296E               	goto	i1l6081
  9108  096D  2991               	goto	i1l346
  9109  096E                     i1l6081:
  9110                           
  9111                           ; Switch size 1, requested type "simple"
  9112                           ; Number of cases is 11, Range of values is 0 to 12
  9113                           ; switch strategies available:
  9114                           ; Name         Instructions Cycles
  9115                           ; direct_byte           32     6 (fixed)
  9116                           ; simple_byte           34    18 (average)
  9117                           ; jumptable            260     6 (fixed)
  9118                           ;	Chosen strategy is simple_byte
  9119  096E  086D               	movf	??_USBCheckStdRequest,w
  9120  096F  3A00               	xorlw	0	; case 0
  9121  0970  1903               	skipnz
  9122  0971  2933               	goto	i1l5437
  9123  0972  3A01               	xorlw	1	; case 1
  9124  0973  1903               	skipnz
  9125  0974  2937               	goto	i1l5439
  9126  0975  3A02               	xorlw	2	; case 3
  9127  0976  1903               	skipnz
  9128  0977  2937               	goto	i1l5439
  9129  0978  3A06               	xorlw	6	; case 5
  9130  0979  1903               	skipnz
  9131  097A  2914               	goto	i1l348
  9132  097B  3A03               	xorlw	3	; case 6
  9133  097C  1903               	skipnz
  9134  097D  291D               	goto	i1l5425
  9135  097E  3A01               	xorlw	1	; case 7
  9136  097F  1903               	skipnz
  9137  0980  2957               	goto	i1l5451
  9138  0981  3A0F               	xorlw	15	; case 8
  9139  0982  1903               	skipnz
  9140  0983  2925               	goto	i1l5429
  9141  0984  3A01               	xorlw	1	; case 9
  9142  0985  1903               	skipnz
  9143  0986  2921               	goto	i1l5427
  9144  0987  3A03               	xorlw	3	; case 10
  9145  0988  1903               	skipnz
  9146  0989  293B               	goto	i1l5441
  9147  098A  3A01               	xorlw	1	; case 11
  9148  098B  1903               	skipnz
  9149  098C  294A               	goto	i1l357
  9150  098D  3A07               	xorlw	7	; case 12
  9151  098E  1903               	skipnz
  9152  098F  2991               	goto	i1l346
  9153  0990  2991               	goto	i1l346
  9154  0991                     i1l346:
  9155  0991  0008               	return
  9156  0992                     __end_of_USBCheckStdRequest:
  9157                           
  9158                           	psect	text33
  9159  0A1D                     __ptext33:	
  9160 ;; *************** function _USBStdSetCfgHandler *****************
  9161 ;; Defined at:
  9162 ;;		line 1972 in file "mcc_generated_files/usb/usb_device.c"
  9163 ;; Parameters:    Size  Location     Type
  9164 ;;		None
  9165 ;; Auto vars:     Size  Location     Type
  9166 ;;  p               2    7[BANK0 ] PTR unsigned char 
  9167 ;;		 -> UEP1(1), 
  9168 ;;  i               1    9[BANK0 ] unsigned char 
  9169 ;;  i               1   10[BANK0 ] unsigned char 
  9170 ;; Return value:  Size  Location     Type
  9171 ;;                  1    wreg      void 
  9172 ;; Registers used:
  9173 ;;		wreg, fsr0l, fsr0h, fsr1l, fsr1h, status,2, status,0, pclath, cstack
  9174 ;; Tracked objects:
  9175 ;;		On entry : 0/0
  9176 ;;		On exit  : 0/0
  9177 ;;		Unchanged: 0/0
  9178 ;; Data sizes:     COMMON   BANK0   BANK1   BANK2   BANK3   BANK4   BANK5   BANK6   BANK7   BANK8   BANK9  BANK10  BANK1
      +1  BANK12
  9179 ;;      Params:         0       0       0       0       0       0       0       0       0       0       0       0       
      +0       0
  9180 ;;      Locals:         0       4       0       0       0       0       0       0       0       0       0       0       
      +0       0
  9181 ;;      Temps:          0       1       0       0       0       0       0       0       0       0       0       0       
      +0       0
  9182 ;;      Totals:         0       5       0       0       0       0       0       0       0       0       0       0       
      +0       0
  9183 ;;Total ram usage:        5 bytes
  9184 ;; Hardware stack levels used:    1
  9185 ;; Hardware stack levels required when called:    4
  9186 ;; This function calls:
  9187 ;;		_USER_USB_CALLBACK_EVENT_HANDLER
  9188 ;;		_memset
  9189 ;; This function is called by:
  9190 ;;		_USBCheckStdRequest
  9191 ;; This function uses a non-reentrant model
  9192 ;;
  9193                           
  9194                           
  9195                           ;psect for function _USBStdSetCfgHandler
  9196  0A1D                     _USBStdSetCfgHandler:
  9197  0A1D                     i1l5367:	
  9198                           ;incstack = 0
  9199                           ; Regs used in _USBStdSetCfgHandler: [wreg-fsr1h+status,2+status,0+pclath+cstack]
  9200                           
  9201                           
  9202                           ;mcc_generated_files/usb/usb_device.c: 1974:     uint8_t i;;mcc_generated_files/usb/usb_
      +                          device.c: 1977:     inPipes[0].info.bits.busy = 1;
  9203  0A1D  0021               	movlb	1	; select bank1
  9204  0A1E  17A8               	bsf	(_inPipes^(0+128)+2),7	;volatile
  9205                           
  9206                           ;mcc_generated_files/usb/usb_device.c: 1980:     { uint8_t i; uint8_t* p = (uint8_t*)&UE
      +                          P1; for(i=0;i<2;i++) *p++ = 0; };
  9207  0A1F  300E               	movlw	14
  9208  0A20  0020               	movlb	0	; select bank0
  9209  0A21  00E8               	movwf	USBStdSetCfgHandler@p+1
  9210  0A22  3099               	movlw	153
  9211  0A23  00E7               	movwf	USBStdSetCfgHandler@p
  9212  0A24                     i1l5369:
  9213  0A24  01E9               	clrf	USBStdSetCfgHandler@i_1402
  9214  0A25                     i1l5375:
  9215  0A25  0867               	movf	USBStdSetCfgHandler@p,w
  9216  0A26  0086               	movwf	6
  9217  0A27  0868               	movf	USBStdSetCfgHandler@p+1,w
  9218  0A28  0087               	movwf	7
  9219  0A29  0181               	clrf	1
  9220  0A2A                     i1l5377:
  9221  0A2A  3001               	movlw	1
  9222  0A2B  07E7               	addwf	USBStdSetCfgHandler@p,f
  9223  0A2C  3000               	movlw	0
  9224  0A2D  3DE8               	addwfc	USBStdSetCfgHandler@p+1,f
  9225  0A2E                     i1l5379:
  9226  0A2E  3001               	movlw	1
  9227  0A2F  00E6               	movwf	??_USBStdSetCfgHandler
  9228  0A30  0866               	movf	??_USBStdSetCfgHandler,w
  9229  0A31  07E9               	addwf	USBStdSetCfgHandler@i_1402,f
  9230  0A32                     i1l5381:
  9231  0A32  3002               	movlw	2
  9232  0A33  0269               	subwf	USBStdSetCfgHandler@i_1402,w
  9233  0A34  1C03               	skipc
  9234  0A35  2A37               	goto	u430_21
  9235  0A36  2A38               	goto	u430_20
  9236  0A37                     u430_21:
  9237  0A37  2A25               	goto	i1l5375
  9238  0A38                     u430_20:
  9239  0A38                     i1l5383:
  9240                           
  9241                           ;mcc_generated_files/usb/usb_device.c: 1983:     memset((void*)&BDT[0], 0x00, sizeof(BDT
      +                          ));
  9242  0A38  3020               	movlw	32
  9243  0A39  00F0               	movwf	memset@dest
  9244  0A3A  3000               	movlw	0
  9245  0A3B  00F1               	movwf	memset@dest+1
  9246  0A3C  3000               	movlw	0
  9247  0A3D  00F2               	movwf	memset@c
  9248  0A3E  00F3               	movwf	memset@c+1
  9249  0A3F  3030               	movlw	48
  9250  0A40  00F4               	movwf	memset@n
  9251  0A41  3000               	movlw	0
  9252  0A42  00F5               	movwf	memset@n+1
  9253  0A43  318E  2616  318A   	fcall	_memset
  9254  0A46                     i1l5385:
  9255                           
  9256                           ;mcc_generated_files/usb/usb_device.c: 1986:     UCONbits.PPBRST = 1;
  9257  0A46  003D               	movlb	29	; select bank29
  9258  0A47  170E               	bsf	14,6	;volatile
  9259  0A48                     i1l5387:
  9260                           
  9261                           ;mcc_generated_files/usb/usb_device.c: 1991:  for(i = 0; i < (uint8_t)(2 +1u); i++)
  9262  0A48  0020               	movlb	0	; select bank0
  9263  0A49  01EA               	clrf	USBStdSetCfgHandler@i
  9264  0A4A                     i1l5393:
  9265                           
  9266                           ;mcc_generated_files/usb/usb_device.c: 1992:  {;mcc_generated_files/usb/usb_device.c: 19
      +                          93:   ep_data_in[i].Val = 0u;
  9267  0A4A  086A               	movf	USBStdSetCfgHandler@i,w
  9268  0A4B  3EC4               	addlw	(low (_ep_data_in| (0+256)))& (0+255)
  9269  0A4C  0086               	movwf	6
  9270  0A4D  3001               	movlw	1	; select bank3/4
  9271  0A4E  0087               	movwf	7
  9272  0A4F  0181               	clrf	1
  9273                           
  9274                           ;mcc_generated_files/usb/usb_device.c: 1994:         ep_data_out[i].Val = 0u;
  9275  0A50  086A               	movf	USBStdSetCfgHandler@i,w
  9276  0A51  3EC1               	addlw	(low (_ep_data_out| (0+256)))& (0+255)
  9277  0A52  0086               	movwf	6
  9278  0A53  3001               	movlw	1	; select bank3/4
  9279  0A54  0087               	movwf	7
  9280  0A55  0181               	clrf	1
  9281  0A56                     i1l5395:
  9282                           
  9283                           ;mcc_generated_files/usb/usb_device.c: 1995:  }
  9284  0A56  3001               	movlw	1
  9285  0A57  00E6               	movwf	??_USBStdSetCfgHandler
  9286  0A58  0866               	movf	??_USBStdSetCfgHandler,w
  9287  0A59  07EA               	addwf	USBStdSetCfgHandler@i,f
  9288  0A5A                     i1l5397:
  9289  0A5A  3003               	movlw	3
  9290  0A5B  026A               	subwf	USBStdSetCfgHandler@i,w
  9291  0A5C  1C03               	skipc
  9292  0A5D  2A5F               	goto	u431_21
  9293  0A5E  2A60               	goto	u431_20
  9294  0A5F                     u431_21:
  9295  0A5F  2A4A               	goto	i1l5393
  9296  0A60                     u431_20:
  9297  0A60                     i1l5399:
  9298                           
  9299                           ;mcc_generated_files/usb/usb_device.c: 1998:     memset((void*)&USBAlternateInterface,0x
      +                          00,2);
  9300  0A60  30ED               	movlw	low _USBAlternateInterface
  9301  0A61  00F0               	movwf	memset@dest
  9302  0A62  3001               	movlw	high _USBAlternateInterface
  9303  0A63  00F1               	movwf	memset@dest+1
  9304  0A64  3000               	movlw	0
  9305  0A65  00F2               	movwf	memset@c
  9306  0A66  00F3               	movwf	memset@c+1
  9307  0A67  3002               	movlw	2
  9308  0A68  00F4               	movwf	memset@n
  9309  0A69  3000               	movlw	0
  9310  0A6A  00F5               	movwf	memset@n+1
  9311  0A6B  318E  2616  318A   	fcall	_memset
  9312  0A6E                     i1l5401:
  9313                           
  9314                           ;mcc_generated_files/usb/usb_device.c: 2001:     UCONbits.PPBRST = 0;
  9315  0A6E  003D               	movlb	29	; select bank29
  9316  0A6F  130E               	bcf	14,6	;volatile
  9317  0A70                     i1l5403:
  9318                           
  9319                           ;mcc_generated_files/usb/usb_device.c: 2003:     pBDTEntryIn[0] = (volatile BDT_ENTRY*)&
      +                          BDT[2];
  9320  0A70  3028               	movlw	40
  9321  0A71  0021               	movlb	1	; select bank1
  9322  0A72  00A0               	movwf	_pBDTEntryIn^(0+128)
  9323  0A73  3000               	movlw	0
  9324  0A74  00A1               	movwf	(_pBDTEntryIn+1)^(0+128)
  9325  0A75                     i1l5405:
  9326                           
  9327                           ;mcc_generated_files/usb/usb_device.c: 2006:     pBDTEntryEP0OutCurrent = (volatile BDT_
      +                          ENTRY*)&BDT[0];
  9328  0A75  3020               	movlw	32
  9329  0A76  0020               	movlb	0	; select bank0
  9330  0A77  00E6               	movwf	??_USBStdSetCfgHandler
  9331  0A78  0866               	movf	??_USBStdSetCfgHandler,w
  9332  0A79  0021               	movlb	1	; select bank1
  9333  0A7A  00B2               	movwf	_pBDTEntryEP0OutCurrent^(0+128)
  9334  0A7B                     i1l5407:
  9335                           
  9336                           ;mcc_generated_files/usb/usb_device.c: 2007:     pBDTEntryEP0OutNext = pBDTEntryEP0OutCu
      +                          rrent;
  9337  0A7B  0832               	movf	_pBDTEntryEP0OutCurrent^(0+128),w
  9338  0A7C  00AB               	movwf	_pBDTEntryEP0OutNext^(0+128)
  9339  0A7D  39FF               	andlw	255
  9340  0A7E  1D03               	skipz
  9341  0A7F  3000               	movlw	0
  9342  0A80  00AC               	movwf	(_pBDTEntryEP0OutNext+1)^(0+128)
  9343  0A81                     i1l5409:
  9344                           
  9345                           ;mcc_generated_files/usb/usb_device.c: 2010:     USBActiveConfiguration = SetupPkt.bConf
      +                          igurationValue;
  9346  0A81  0020               	movlb	0	; select bank0
  9347  0A82  0852               	movf	82,w	;volatile
  9348  0A83  00E6               	movwf	??_USBStdSetCfgHandler
  9349  0A84  0866               	movf	??_USBStdSetCfgHandler,w
  9350  0A85  0021               	movlb	1	; select bank1
  9351  0A86  00B5               	movwf	_USBActiveConfiguration^(0+128)	;volatile
  9352  0A87                     i1l5411:
  9353                           
  9354                           ;mcc_generated_files/usb/usb_device.c: 2013:     if(USBActiveConfiguration == 0)
  9355  0A87  0835               	movf	_USBActiveConfiguration^(0+128),w	;volatile
  9356  0A88  1D03               	btfss	3,2
  9357  0A89  2A8B               	goto	u432_21
  9358  0A8A  2A8C               	goto	u432_20
  9359  0A8B                     u432_21:
  9360  0A8B  2A93               	goto	i1l5415
  9361  0A8C                     u432_20:
  9362  0A8C                     i1l5413:
  9363                           
  9364                           ;mcc_generated_files/usb/usb_device.c: 2014:     {;mcc_generated_files/usb/usb_device.c:
      +                           2016:         USBDeviceState = ADDRESS_STATE;
  9365  0A8C  3010               	movlw	16
  9366  0A8D  0020               	movlb	0	; select bank0
  9367  0A8E  00E6               	movwf	??_USBStdSetCfgHandler
  9368  0A8F  0866               	movf	??_USBStdSetCfgHandler,w
  9369  0A90  0021               	movlb	1	; select bank1
  9370  0A91  00B3               	movwf	_USBDeviceState^(0+128)	;volatile
  9371                           
  9372                           ;mcc_generated_files/usb/usb_device.c: 2017:     }
  9373  0A92  2AA9               	goto	i1l268
  9374  0A93                     i1l5415:
  9375                           
  9376                           ;mcc_generated_files/usb/usb_device.c: 2019:     {;mcc_generated_files/usb/usb_device.c:
      +                           2021:         USER_USB_CALLBACK_EVENT_HANDLER((USB_EVENT)EVENT_CONFIGURED,(void*)&USBAc
      +                          tiveConfiguration,1);
  9377  0A93  3001               	movlw	1
  9378  0A94  0020               	movlb	0	; select bank0
  9379  0A95  00E0               	movwf	USER_USB_CALLBACK_EVENT_HANDLER@event
  9380  0A96  3000               	movlw	0
  9381  0A97  00E1               	movwf	USER_USB_CALLBACK_EVENT_HANDLER@event+1
  9382  0A98  30B5               	movlw	low _USBActiveConfiguration
  9383  0A99  00E2               	movwf	USER_USB_CALLBACK_EVENT_HANDLER@pdata
  9384  0A9A  3000               	movlw	high _USBActiveConfiguration
  9385  0A9B  00E3               	movwf	USER_USB_CALLBACK_EVENT_HANDLER@pdata+1
  9386  0A9C  3001               	movlw	1
  9387  0A9D  00E4               	movwf	USER_USB_CALLBACK_EVENT_HANDLER@size
  9388  0A9E  3000               	movlw	0
  9389  0A9F  00E5               	movwf	USER_USB_CALLBACK_EVENT_HANDLER@size+1
  9390  0AA0  3193  2374  318A   	fcall	_USER_USB_CALLBACK_EVENT_HANDLER
  9391  0AA3                     i1l5417:
  9392                           
  9393                           ;mcc_generated_files/usb/usb_device.c: 2026:         USBDeviceState = CONFIGURED_STATE;
  9394  0AA3  3020               	movlw	32
  9395  0AA4  0020               	movlb	0	; select bank0
  9396  0AA5  00E6               	movwf	??_USBStdSetCfgHandler
  9397  0AA6  0866               	movf	??_USBStdSetCfgHandler,w
  9398  0AA7  0021               	movlb	1	; select bank1
  9399  0AA8  00B3               	movwf	_USBDeviceState^(0+128)	;volatile
  9400  0AA9                     i1l268:
  9401  0AA9  0008               	return
  9402  0AAA                     __end_of_USBStdSetCfgHandler:
  9403                           
  9404                           	psect	text34
  9405  0E16                     __ptext34:	
  9406 ;; *************** function _memset *****************
  9407 ;; Defined at:
  9408 ;;		line 4 in file "C:\Program Files\Microchip\xc8\v2.31\pic\sources\c99\common\memset.c"
  9409 ;; Parameters:    Size  Location     Type
  9410 ;;  dest            2    0[COMMON] PTR void 
  9411 ;;		 -> USBAlternateInterface(2), BDT(48), 
  9412 ;;  c               2    2[COMMON] int 
  9413 ;;  n               2    4[COMMON] unsigned int 
  9414 ;; Auto vars:     Size  Location     Type
  9415 ;;  s               2   12[COMMON] PTR unsigned char 
  9416 ;;		 -> USBAlternateInterface(2), BDT(48), 
  9417 ;;  k               2   10[COMMON] unsigned int 
  9418 ;; Return value:  Size  Location     Type
  9419 ;;                  2    0[COMMON] PTR void 
  9420 ;; Registers used:
  9421 ;;		wreg, fsr1l, fsr1h, status,2, status,0
  9422 ;; Tracked objects:
  9423 ;;		On entry : 0/0
  9424 ;;		On exit  : 0/0
  9425 ;;		Unchanged: 0/0
  9426 ;; Data sizes:     COMMON   BANK0   BANK1   BANK2   BANK3   BANK4   BANK5   BANK6   BANK7   BANK8   BANK9  BANK10  BANK1
      +1  BANK12
  9427 ;;      Params:         6       0       0       0       0       0       0       0       0       0       0       0       
      +0       0
  9428 ;;      Locals:         4       0       0       0       0       0       0       0       0       0       0       0       
      +0       0
  9429 ;;      Temps:          4       0       0       0       0       0       0       0       0       0       0       0       
      +0       0
  9430 ;;      Totals:        14       0       0       0       0       0       0       0       0       0       0       0       
      +0       0
  9431 ;;Total ram usage:       14 bytes
  9432 ;; Hardware stack levels used:    1
  9433 ;; This function calls:
  9434 ;;		Nothing
  9435 ;; This function is called by:
  9436 ;;		_USBStdSetCfgHandler
  9437 ;; This function uses a non-reentrant model
  9438 ;;
  9439                           
  9440                           
  9441                           ;psect for function _memset
  9442  0E16                     _memset:
  9443  0E16                     i1l5325:	
  9444                           ;incstack = 0
  9445                           ; Regs used in _memset: [wreg+fsr1l+fsr1h+status,2+status,0]
  9446                           
  9447  0E16  0871               	movf	memset@dest+1,w
  9448  0E17  00FD               	movwf	memset@s+1
  9449  0E18  0870               	movf	memset@dest,w
  9450  0E19  00FC               	movwf	memset@s
  9451  0E1A                     i1l5327:
  9452  0E1A  0874               	movf	memset@n,w
  9453  0E1B  0475               	iorwf	memset@n+1,w
  9454  0E1C  1D03               	btfss	3,2
  9455  0E1D  2E1F               	goto	u425_21
  9456  0E1E  2E20               	goto	u425_20
  9457  0E1F                     u425_21:
  9458  0E1F  2E21               	goto	i1l5331
  9459  0E20                     u425_20:
  9460  0E20  2EDF               	goto	i1l1451
  9461  0E21                     i1l5331:
  9462  0E21  087C               	movf	memset@s,w
  9463  0E22  0086               	movwf	6
  9464  0E23  087D               	movf	memset@s+1,w
  9465  0E24  0087               	movwf	7
  9466  0E25  0872               	movf	memset@c,w
  9467  0E26  0081               	movwf	1
  9468  0E27                     i1l5333:
  9469  0E27  0874               	movf	memset@n,w
  9470  0E28  077C               	addwf	memset@s,w
  9471  0E29  00F6               	movwf	??_memset
  9472  0E2A  0875               	movf	memset@n+1,w
  9473  0E2B  3D7D               	addwfc	memset@s+1,w
  9474  0E2C  00F7               	movwf	??_memset+1
  9475  0E2D  0876               	movf	??_memset,w
  9476  0E2E  3EFF               	addlw	255
  9477  0E2F  00F8               	movwf	??_memset+2
  9478  0E30  30FF               	movlw	255
  9479  0E31  3D77               	addwfc	??_memset+1,w
  9480  0E32  00F9               	movwf	??_memset+3
  9481  0E33  0878               	movf	??_memset+2,w
  9482  0E34  0086               	movwf	6
  9483  0E35  0879               	movf	??_memset+3,w
  9484  0E36  0087               	movwf	7
  9485  0E37  0872               	movf	memset@c,w
  9486  0E38  0081               	movwf	1
  9487  0E39                     i1l5335:
  9488  0E39  3000               	movlw	0
  9489  0E3A  0275               	subwf	memset@n+1,w
  9490  0E3B  3003               	movlw	3
  9491  0E3C  1903               	skipnz
  9492  0E3D  0274               	subwf	memset@n,w
  9493  0E3E  1803               	skipnc
  9494  0E3F  2E41               	goto	u426_21
  9495  0E40  2E42               	goto	u426_20
  9496  0E41                     u426_21:
  9497  0E41  2E43               	goto	i1l5339
  9498  0E42                     u426_20:
  9499  0E42  2EDF               	goto	i1l1451
  9500  0E43                     i1l5339:
  9501  0E43  087C               	movf	memset@s,w
  9502  0E44  3E01               	addlw	1
  9503  0E45  00F6               	movwf	??_memset
  9504  0E46  3000               	movlw	0
  9505  0E47  3D7D               	addwfc	memset@s+1,w
  9506  0E48  00F7               	movwf	??_memset+1
  9507  0E49  0876               	movf	??_memset,w
  9508  0E4A  0086               	movwf	6
  9509  0E4B  0877               	movf	??_memset+1,w
  9510  0E4C  0087               	movwf	7
  9511  0E4D  0872               	movf	memset@c,w
  9512  0E4E  0081               	movwf	1
  9513  0E4F  087C               	movf	memset@s,w
  9514  0E50  3E02               	addlw	2
  9515  0E51  00F6               	movwf	??_memset
  9516  0E52  3000               	movlw	0
  9517  0E53  3D7D               	addwfc	memset@s+1,w
  9518  0E54  00F7               	movwf	??_memset+1
  9519  0E55  0876               	movf	??_memset,w
  9520  0E56  0086               	movwf	6
  9521  0E57  0877               	movf	??_memset+1,w
  9522  0E58  0087               	movwf	7
  9523  0E59  0872               	movf	memset@c,w
  9524  0E5A  0081               	movwf	1
  9525  0E5B  0874               	movf	memset@n,w
  9526  0E5C  077C               	addwf	memset@s,w
  9527  0E5D  00F6               	movwf	??_memset
  9528  0E5E  0875               	movf	memset@n+1,w
  9529  0E5F  3D7D               	addwfc	memset@s+1,w
  9530  0E60  00F7               	movwf	??_memset+1
  9531  0E61  0876               	movf	??_memset,w
  9532  0E62  3EFE               	addlw	254
  9533  0E63  00F8               	movwf	??_memset+2
  9534  0E64  30FF               	movlw	255
  9535  0E65  3D77               	addwfc	??_memset+1,w
  9536  0E66  00F9               	movwf	??_memset+3
  9537  0E67  0878               	movf	??_memset+2,w
  9538  0E68  0086               	movwf	6
  9539  0E69  0879               	movf	??_memset+3,w
  9540  0E6A  0087               	movwf	7
  9541  0E6B  0872               	movf	memset@c,w
  9542  0E6C  0081               	movwf	1
  9543  0E6D  0874               	movf	memset@n,w
  9544  0E6E  077C               	addwf	memset@s,w
  9545  0E6F  00F6               	movwf	??_memset
  9546  0E70  0875               	movf	memset@n+1,w
  9547  0E71  3D7D               	addwfc	memset@s+1,w
  9548  0E72  00F7               	movwf	??_memset+1
  9549  0E73  0876               	movf	??_memset,w
  9550  0E74  3EFD               	addlw	253
  9551  0E75  00F8               	movwf	??_memset+2
  9552  0E76  30FF               	movlw	255
  9553  0E77  3D77               	addwfc	??_memset+1,w
  9554  0E78  00F9               	movwf	??_memset+3
  9555  0E79  0878               	movf	??_memset+2,w
  9556  0E7A  0086               	movwf	6
  9557  0E7B  0879               	movf	??_memset+3,w
  9558  0E7C  0087               	movwf	7
  9559  0E7D  0872               	movf	memset@c,w
  9560  0E7E  0081               	movwf	1
  9561  0E7F                     i1l5341:
  9562  0E7F  3000               	movlw	0
  9563  0E80  0275               	subwf	memset@n+1,w
  9564  0E81  3007               	movlw	7
  9565  0E82  1903               	skipnz
  9566  0E83  0274               	subwf	memset@n,w
  9567  0E84  1803               	skipnc
  9568  0E85  2E87               	goto	u427_21
  9569  0E86  2E88               	goto	u427_20
  9570  0E87                     u427_21:
  9571  0E87  2E89               	goto	i1l5345
  9572  0E88                     u427_20:
  9573  0E88  2EDF               	goto	i1l1451
  9574  0E89                     i1l5345:
  9575  0E89  087C               	movf	memset@s,w
  9576  0E8A  3E03               	addlw	3
  9577  0E8B  00F6               	movwf	??_memset
  9578  0E8C  3000               	movlw	0
  9579  0E8D  3D7D               	addwfc	memset@s+1,w
  9580  0E8E  00F7               	movwf	??_memset+1
  9581  0E8F  0876               	movf	??_memset,w
  9582  0E90  0086               	movwf	6
  9583  0E91  0877               	movf	??_memset+1,w
  9584  0E92  0087               	movwf	7
  9585  0E93  0872               	movf	memset@c,w
  9586  0E94  0081               	movwf	1
  9587  0E95  0874               	movf	memset@n,w
  9588  0E96  077C               	addwf	memset@s,w
  9589  0E97  00F6               	movwf	??_memset
  9590  0E98  0875               	movf	memset@n+1,w
  9591  0E99  3D7D               	addwfc	memset@s+1,w
  9592  0E9A  00F7               	movwf	??_memset+1
  9593  0E9B  0876               	movf	??_memset,w
  9594  0E9C  3EFC               	addlw	252
  9595  0E9D  00F8               	movwf	??_memset+2
  9596  0E9E  30FF               	movlw	255
  9597  0E9F  3D77               	addwfc	??_memset+1,w
  9598  0EA0  00F9               	movwf	??_memset+3
  9599  0EA1  0878               	movf	??_memset+2,w
  9600  0EA2  0086               	movwf	6
  9601  0EA3  0879               	movf	??_memset+3,w
  9602  0EA4  0087               	movwf	7
  9603  0EA5  0872               	movf	memset@c,w
  9604  0EA6  0081               	movwf	1
  9605  0EA7                     i1l5347:
  9606  0EA7  3000               	movlw	0
  9607  0EA8  0275               	subwf	memset@n+1,w
  9608  0EA9  3009               	movlw	9
  9609  0EAA  1903               	skipnz
  9610  0EAB  0274               	subwf	memset@n,w
  9611  0EAC  1803               	skipnc
  9612  0EAD  2EAF               	goto	u428_21
  9613  0EAE  2EB0               	goto	u428_20
  9614  0EAF                     u428_21:
  9615  0EAF  2EB1               	goto	i1l5351
  9616  0EB0                     u428_20:
  9617  0EB0  2EDF               	goto	i1l1451
  9618  0EB1                     i1l5351:
  9619  0EB1  097C               	comf	memset@s,w
  9620  0EB2  00F6               	movwf	??_memset
  9621  0EB3  097D               	comf	memset@s+1,w
  9622  0EB4  00F7               	movwf	??_memset+1
  9623  0EB5  0AF6               	incf	??_memset,f
  9624  0EB6  1903               	skipnz
  9625  0EB7  0AF7               	incf	??_memset+1,f
  9626  0EB8  3003               	movlw	3
  9627  0EB9  0576               	andwf	??_memset,w
  9628  0EBA  00FA               	movwf	memset@k
  9629  0EBB  3000               	movlw	0
  9630  0EBC  0577               	andwf	??_memset+1,w
  9631  0EBD  00FB               	movwf	memset@k+1
  9632  0EBE                     i1l5353:
  9633  0EBE  087A               	movf	memset@k,w
  9634  0EBF  07FC               	addwf	memset@s,f
  9635  0EC0  087B               	movf	memset@k+1,w
  9636  0EC1  3DFD               	addwfc	memset@s+1,f
  9637  0EC2                     i1l5355:
  9638  0EC2  087A               	movf	memset@k,w
  9639  0EC3  02F4               	subwf	memset@n,f
  9640  0EC4  087B               	movf	memset@k+1,w
  9641  0EC5  3BF5               	subwfb	memset@n+1,f
  9642  0EC6                     i1l5357:
  9643  0EC6  30FC               	movlw	252
  9644  0EC7  05F4               	andwf	memset@n,f
  9645  0EC8  30FF               	movlw	255
  9646  0EC9  05F5               	andwf	memset@n+1,f
  9647  0ECA  2ED9               	goto	i1l5365
  9648  0ECB                     i1l5359:
  9649  0ECB  087C               	movf	memset@s,w
  9650  0ECC  0086               	movwf	6
  9651  0ECD  087D               	movf	memset@s+1,w
  9652  0ECE  0087               	movwf	7
  9653  0ECF  0872               	movf	memset@c,w
  9654  0ED0  0081               	movwf	1
  9655  0ED1                     i1l5361:
  9656  0ED1  3001               	movlw	1
  9657  0ED2  02F4               	subwf	memset@n,f
  9658  0ED3  3000               	movlw	0
  9659  0ED4  3BF5               	subwfb	memset@n+1,f
  9660  0ED5                     i1l5363:
  9661  0ED5  3001               	movlw	1
  9662  0ED6  07FC               	addwf	memset@s,f
  9663  0ED7  3000               	movlw	0
  9664  0ED8  3DFD               	addwfc	memset@s+1,f
  9665  0ED9                     i1l5365:
  9666  0ED9  0874               	movf	memset@n,w
  9667  0EDA  0475               	iorwf	memset@n+1,w
  9668  0EDB  1D03               	btfss	3,2
  9669  0EDC  2EDE               	goto	u429_21
  9670  0EDD  2EDF               	goto	u429_20
  9671  0EDE                     u429_21:
  9672  0EDE  2ECB               	goto	i1l5359
  9673  0EDF                     u429_20:
  9674  0EDF                     i1l1451:
  9675  0EDF  0008               	return
  9676  0EE0                     __end_of_memset:
  9677                           
  9678                           	psect	text35
  9679  15BF                     __ptext35:	
  9680 ;; *************** function _USBStdGetStatusHandler *****************
  9681 ;; Defined at:
  9682 ;;		line 2133 in file "mcc_generated_files/usb/usb_device.c"
  9683 ;; Parameters:    Size  Location     Type
  9684 ;;		None
  9685 ;; Auto vars:     Size  Location     Type
  9686 ;;  p               2    2[COMMON] PTR struct __BDT
  9687 ;;		 -> RAM(4096), NULL(0), BDT(48), 
  9688 ;; Return value:  Size  Location     Type
  9689 ;;                  1    wreg      void 
  9690 ;; Registers used:
  9691 ;;		wreg, fsr0l, fsr0h, fsr1l, fsr1h, status,2, status,0
  9692 ;; Tracked objects:
  9693 ;;		On entry : 0/0
  9694 ;;		On exit  : 0/0
  9695 ;;		Unchanged: 0/0
  9696 ;; Data sizes:     COMMON   BANK0   BANK1   BANK2   BANK3   BANK4   BANK5   BANK6   BANK7   BANK8   BANK9  BANK10  BANK1
      +1  BANK12
  9697 ;;      Params:         0       0       0       0       0       0       0       0       0       0       0       0       
      +0       0
  9698 ;;      Locals:         2       0       0       0       0       0       0       0       0       0       0       0       
      +0       0
  9699 ;;      Temps:          2       0       0       0       0       0       0       0       0       0       0       0       
      +0       0
  9700 ;;      Totals:         4       0       0       0       0       0       0       0       0       0       0       0       
      +0       0
  9701 ;;Total ram usage:        4 bytes
  9702 ;; Hardware stack levels used:    1
  9703 ;; This function calls:
  9704 ;;		Nothing
  9705 ;; This function is called by:
  9706 ;;		_USBCheckStdRequest
  9707 ;; This function uses a non-reentrant model
  9708 ;;
  9709                           
  9710                           
  9711                           ;psect for function _USBStdGetStatusHandler
  9712  15BF                     _USBStdGetStatusHandler:
  9713  15BF                     i1l3793:	
  9714                           ;incstack = 0
  9715                           ; Regs used in _USBStdGetStatusHandler: [wreg-fsr1h+status,2+status,0]
  9716                           
  9717                           
  9718                           ;mcc_generated_files/usb/usb_device.c: 2135:     CtrlTrfData[0] = 0;
  9719  15BF  0020               	movlb	0	; select bank0
  9720  15C0  01D8               	clrf	88	;volatile
  9721                           
  9722                           ;mcc_generated_files/usb/usb_device.c: 2136:     CtrlTrfData[1] = 0;
  9723  15C1  01D9               	clrf	89	;volatile
  9724                           
  9725                           ;mcc_generated_files/usb/usb_device.c: 2138:     switch(SetupPkt.Recipient)
  9726  15C2  2E03               	goto	i1l3813
  9727  15C3                     i1l286:	
  9728                           ;mcc_generated_files/usb/usb_device.c: 2139:     {;mcc_generated_files/usb/usb_device.c:
      +                           2140:         case (0x00):
  9729                           
  9730                           
  9731                           ;mcc_generated_files/usb/usb_device.c: 2141:             inPipes[0].info.bits.busy = 1;
  9732  15C3  0021               	movlb	1	; select bank1
  9733  15C4  17A8               	bsf	(_inPipes^(0+128)+2),7	;volatile
  9734  15C5                     i1l3797:	
  9735                           ;mcc_generated_files/usb/usb_device.c: 2146:             if(0 == 1)
  9736                           
  9737                           
  9738                           ;mcc_generated_files/usb/usb_device.c: 2151:             if(RemoteWakeup == 1)
  9739  15C5  0023               	movlb	3	; select bank3
  9740  15C6  036B               	decf	_RemoteWakeup^(0+384),w	;volatile
  9741  15C7  1D03               	btfss	3,2
  9742  15C8  2DCA               	goto	u249_21
  9743  15C9  2DCB               	goto	u249_20
  9744  15CA                     u249_21:
  9745  15CA  2E17               	goto	i1l289
  9746  15CB                     u249_20:
  9747  15CB                     i1l3799:
  9748                           
  9749                           ;mcc_generated_files/usb/usb_device.c: 2152:             {;mcc_generated_files/usb/usb_d
      +                          evice.c: 2153:                 CtrlTrfData[0]|=0x02;
  9750  15CB  0020               	movlb	0	; select bank0
  9751  15CC  14D8               	bsf	88,1	;volatile
  9752  15CD  2E17               	goto	i1l289
  9753  15CE                     i1l290:	
  9754                           ;mcc_generated_files/usb/usb_device.c: 2156:         case (0x01):
  9755                           
  9756                           
  9757                           ;mcc_generated_files/usb/usb_device.c: 2157:             inPipes[0].info.bits.busy = 1;
  9758  15CE  0021               	movlb	1	; select bank1
  9759  15CF  17A8               	bsf	(_inPipes^(0+128)+2),7	;volatile
  9760                           
  9761                           ;mcc_generated_files/usb/usb_device.c: 2158:             break;
  9762  15D0  2E17               	goto	i1l289
  9763  15D1                     i1l291:	
  9764                           ;mcc_generated_files/usb/usb_device.c: 2159:         case (0x02):
  9765                           
  9766                           
  9767                           ;mcc_generated_files/usb/usb_device.c: 2160:             inPipes[0].info.bits.busy = 1;
  9768  15D1  0021               	movlb	1	; select bank1
  9769  15D2  17A8               	bsf	(_inPipes^(0+128)+2),7	;volatile
  9770                           
  9771                           ;mcc_generated_files/usb/usb_device.c: 2164:             {;mcc_generated_files/usb/usb_d
      +                          evice.c: 2165:                 BDT_ENTRY *p;;mcc_generated_files/usb/usb_device.c: 2167:
      +                                           if(SetupPkt.EPDir == 0)
  9772  15D3  0020               	movlb	0	; select bank0
  9773  15D4  1BD4               	btfsc	84,7	;volatile
  9774  15D5  2DD7               	goto	u250_21
  9775  15D6  2DD8               	goto	u250_20
  9776  15D7                     u250_21:
  9777  15D7  2DE4               	goto	i1l3803
  9778  15D8                     u250_20:
  9779  15D8                     i1l3801:
  9780                           
  9781                           ;mcc_generated_files/usb/usb_device.c: 2168:                 {;mcc_generated_files/usb/u
      +                          sb_device.c: 2169:                     p = (BDT_ENTRY*)pBDTEntryOut[SetupPkt.EPNum];
  9782  15D8  0854               	movf	84,w	;volatile
  9783  15D9  390F               	andlw	15
  9784  15DA  0709               	addwf	9,w
  9785  15DB  3EB7               	addlw	(low (_pBDTEntryOut| (0+256)))& (0+255)
  9786  15DC  0086               	movwf	6
  9787  15DD  3001               	movlw	1	; select bank3/4
  9788  15DE  0087               	movwf	7
  9789  15DF  3F40               	moviw [0]fsr1
  9790  15E0  00F2               	movwf	USBStdGetStatusHandler@p
  9791  15E1  3F41               	moviw [1]fsr1
  9792  15E2  00F3               	movwf	USBStdGetStatusHandler@p+1
  9793                           
  9794                           ;mcc_generated_files/usb/usb_device.c: 2170:                 }
  9795  15E3  2DEE               	goto	i1l3805
  9796  15E4                     i1l3803:
  9797                           
  9798                           ;mcc_generated_files/usb/usb_device.c: 2172:                 {;mcc_generated_files/usb/u
      +                          sb_device.c: 2173:                     p = (BDT_ENTRY*)pBDTEntryIn[SetupPkt.EPNum];
  9799  15E4  0854               	movf	84,w	;volatile
  9800  15E5  390F               	andlw	15
  9801  15E6  0709               	addwf	9,w
  9802  15E7  3EA0               	addlw	(low (_pBDTEntryIn| 0))& (0+255)
  9803  15E8  0086               	movwf	6
  9804  15E9  0187               	clrf	7
  9805  15EA  3F40               	moviw [0]fsr1
  9806  15EB  00F2               	movwf	USBStdGetStatusHandler@p
  9807  15EC  3F41               	moviw [1]fsr1
  9808  15ED  00F3               	movwf	USBStdGetStatusHandler@p+1
  9809  15EE                     i1l3805:
  9810                           
  9811                           ;mcc_generated_files/usb/usb_device.c: 2176:                 if((p->STAT.UOWN == 1) && (
      +                          p->STAT.BSTALL == 1))
  9812  15EE  0872               	movf	USBStdGetStatusHandler@p,w
  9813  15EF  0086               	movwf	6
  9814  15F0  0873               	movf	USBStdGetStatusHandler@p+1,w
  9815  15F1  0087               	movwf	7
  9816  15F2  1F81               	btfss	1,7
  9817  15F3  2DF5               	goto	u251_21
  9818  15F4  2DF6               	goto	u251_20
  9819  15F5                     u251_21:
  9820  15F5  2E17               	goto	i1l289
  9821  15F6                     u251_20:
  9822  15F6                     i1l3807:
  9823  15F6  0872               	movf	USBStdGetStatusHandler@p,w
  9824  15F7  0086               	movwf	6
  9825  15F8  0873               	movf	USBStdGetStatusHandler@p+1,w
  9826  15F9  0087               	movwf	7
  9827  15FA  1D01               	btfss	1,2
  9828  15FB  2DFD               	goto	u252_21
  9829  15FC  2DFE               	goto	u252_20
  9830  15FD                     u252_21:
  9831  15FD  2E17               	goto	i1l289
  9832  15FE                     u252_20:
  9833  15FE                     i1l3809:
  9834                           
  9835                           ;mcc_generated_files/usb/usb_device.c: 2177:                     CtrlTrfData[0]=0x01;
  9836  15FE  3001               	movlw	1
  9837  15FF  00F0               	movwf	??_USBStdGetStatusHandler
  9838  1600  0870               	movf	??_USBStdGetStatusHandler,w
  9839  1601  00D8               	movwf	88	;volatile
  9840  1602  2E17               	goto	i1l289
  9841  1603                     i1l3813:
  9842  1603  0850               	movf	80,w	;volatile
  9843  1604  391F               	andlw	31
  9844  1605  00F0               	movwf	??_USBStdGetStatusHandler
  9845  1606  01F1               	clrf	??_USBStdGetStatusHandler+1
  9846                           
  9847                           ; Switch on 2 bytes has been partitioned into a top level switch of size 1, and 1 sub-sw
      +                          itches
  9848                           ; Switch size 1, requested type "simple"
  9849                           ; Number of cases is 1, Range of values is 0 to 0
  9850                           ; switch strategies available:
  9851                           ; Name         Instructions Cycles
  9852                           ; simple_byte            4     3 (average)
  9853                           ; direct_byte            8     6 (fixed)
  9854                           ; jumptable            260     6 (fixed)
  9855                           ;	Chosen strategy is simple_byte
  9856  1607  0871               	movf	??_USBStdGetStatusHandler+1,w
  9857  1608  3A00               	xorlw	0	; case 0
  9858  1609  1903               	skipnz
  9859  160A  2E0C               	goto	i1l6083
  9860  160B  2E17               	goto	i1l289
  9861  160C                     i1l6083:
  9862                           
  9863                           ; Switch size 1, requested type "simple"
  9864                           ; Number of cases is 3, Range of values is 0 to 2
  9865                           ; switch strategies available:
  9866                           ; Name         Instructions Cycles
  9867                           ; simple_byte           10     6 (average)
  9868                           ; direct_byte           12     6 (fixed)
  9869                           ; jumptable            260     6 (fixed)
  9870                           ;	Chosen strategy is simple_byte
  9871  160C  0870               	movf	??_USBStdGetStatusHandler,w
  9872  160D  3A00               	xorlw	0	; case 0
  9873  160E  1903               	skipnz
  9874  160F  2DC3               	goto	i1l286
  9875  1610  3A01               	xorlw	1	; case 1
  9876  1611  1903               	skipnz
  9877  1612  2DCE               	goto	i1l290
  9878  1613  3A03               	xorlw	3	; case 2
  9879  1614  1903               	skipnz
  9880  1615  2DD1               	goto	i1l291
  9881  1616  2E17               	goto	i1l289
  9882  1617                     i1l289:
  9883                           
  9884                           ;mcc_generated_files/usb/usb_device.c: 2182:     if(inPipes[0].info.bits.busy == 1)
  9885  1617  0021               	movlb	1	; select bank1
  9886  1618  1FA8               	btfss	(_inPipes^(0+128)+2),7	;volatile
  9887  1619  2E1B               	goto	u253_21
  9888  161A  2E1C               	goto	u253_20
  9889  161B                     u253_21:
  9890  161B  2E25               	goto	i1l296
  9891  161C                     u253_20:
  9892  161C                     i1l3815:
  9893                           
  9894                           ;mcc_generated_files/usb/usb_device.c: 2183:     {;mcc_generated_files/usb/usb_device.c:
      +                           2184:         inPipes[0].pSrc.bRam = (uint8_t*)&CtrlTrfData;
  9895  161C  3058               	movlw	88
  9896  161D  00A6               	movwf	_inPipes^(0+128)	;volatile
  9897  161E  3000               	movlw	0
  9898  161F  00A7               	movwf	(_inPipes+1)^(0+128)	;volatile
  9899  1620                     i1l3817:
  9900                           
  9901                           ;mcc_generated_files/usb/usb_device.c: 2185:         inPipes[0].info.bits.ctrl_trf_mem =
      +                           0x01;
  9902  1620  1428               	bsf	(_inPipes^(0+128)+2),0	;volatile
  9903  1621                     i1l3819:
  9904                           
  9905                           ;mcc_generated_files/usb/usb_device.c: 2186:         inPipes[0].wCount.v[0] = 2;
  9906  1621  3002               	movlw	2
  9907  1622  00F0               	movwf	??_USBStdGetStatusHandler
  9908  1623  0870               	movf	??_USBStdGetStatusHandler,w
  9909  1624  00A9               	movwf	(_inPipes^(0+128)+3)	;volatile
  9910  1625                     i1l296:
  9911  1625  0008               	return
  9912  1626                     __end_of_USBStdGetStatusHandler:
  9913                           
  9914                           	psect	text36
  9915  0992                     __ptext36:	
  9916 ;; *************** function _USBStdGetDscHandler *****************
  9917 ;; Defined at:
  9918 ;;		line 2047 in file "mcc_generated_files/usb/usb_device.c"
  9919 ;; Parameters:    Size  Location     Type
  9920 ;;		None
  9921 ;; Auto vars:     Size  Location     Type
  9922 ;;		None
  9923 ;; Return value:  Size  Location     Type
  9924 ;;                  1    wreg      void 
  9925 ;; Registers used:
  9926 ;;		wreg, fsr0l, fsr0h, status,2, status,0, pclath
  9927 ;; Tracked objects:
  9928 ;;		On entry : 0/0
  9929 ;;		On exit  : 0/0
  9930 ;;		Unchanged: 0/0
  9931 ;; Data sizes:     COMMON   BANK0   BANK1   BANK2   BANK3   BANK4   BANK5   BANK6   BANK7   BANK8   BANK9  BANK10  BANK1
      +1  BANK12
  9932 ;;      Params:         0       0       0       0       0       0       0       0       0       0       0       0       
      +0       0
  9933 ;;      Locals:         0       0       0       0       0       0       0       0       0       0       0       0       
      +0       0
  9934 ;;      Temps:          3       0       0       0       0       0       0       0       0       0       0       0       
      +0       0
  9935 ;;      Totals:         3       0       0       0       0       0       0       0       0       0       0       0       
      +0       0
  9936 ;;Total ram usage:        3 bytes
  9937 ;; Hardware stack levels used:    1
  9938 ;; This function calls:
  9939 ;;		Nothing
  9940 ;; This function is called by:
  9941 ;;		_USBCheckStdRequest
  9942 ;; This function uses a non-reentrant model
  9943 ;;
  9944                           
  9945                           
  9946                           ;psect for function _USBStdGetDscHandler
  9947  0992                     _USBStdGetDscHandler:
  9948  0992                     i1l3757:	
  9949                           ;incstack = 0
  9950                           ; Regs used in _USBStdGetDscHandler: [wreg-fsr0h+status,2+status,0+pclath]
  9951                           
  9952                           
  9953                           ;mcc_generated_files/usb/usb_device.c: 2049:     if(SetupPkt.bmRequestType == 0x80)
  9954  0992  3080               	movlw	128
  9955  0993  0020               	movlb	0	; select bank0
  9956  0994  0650               	xorwf	80,w	;volatile
  9957  0995  1D03               	btfss	3,2
  9958  0996  2998               	goto	u246_21
  9959  0997  2999               	goto	u246_20
  9960  0998                     u246_21:
  9961  0998  2A1C               	goto	i1l282
  9962  0999                     u246_20:
  9963  0999                     i1l3759:
  9964                           
  9965                           ;mcc_generated_files/usb/usb_device.c: 2050:     {;mcc_generated_files/usb/usb_device.c:
      +                           2051:         inPipes[0].info.Val = 0x00 | 0x80 | 0x40;
  9966  0999  30C0               	movlw	192
  9967  099A  00F0               	movwf	??_USBStdGetDscHandler
  9968  099B  0870               	movf	??_USBStdGetDscHandler,w
  9969  099C  0021               	movlb	1	; select bank1
  9970  099D  00A8               	movwf	(_inPipes^(0+128)+2)	;volatile
  9971                           
  9972                           ;mcc_generated_files/usb/usb_device.c: 2053:         switch(SetupPkt.bDescriptorType)
  9973  099E  2A08               	goto	i1l3787
  9974  099F                     i1l3761:
  9975                           
  9976                           ;mcc_generated_files/usb/usb_device.c: 2059:                     inPipes[0].pSrc.bRom = 
      +                          (const uint8_t*)&device_dsc;
  9977  099F  308D               	movlw	low (_device_dsc| (0+32768))
  9978  09A0  0021               	movlb	1	; select bank1
  9979  09A1  00A6               	movwf	_inPipes^(0+128)	;volatile
  9980  09A2  3098               	movlw	high (_device_dsc| (0+32768))
  9981  09A3  00A7               	movwf	(_inPipes^(0+128)+1)	;volatile
  9982  09A4                     i1l3763:
  9983                           
  9984                           ;mcc_generated_files/usb/usb_device.c: 2061:                 inPipes[0].wCount.Val = siz
      +                          eof(device_dsc);
  9985  09A4  3000               	movlw	0
  9986  09A5  00AA               	movwf	((_inPipes+1)^(0+128)+3)	;volatile
  9987  09A6  3012               	movlw	18
  9988  09A7  00A9               	movwf	(_inPipes^(0+128)+3)	;volatile
  9989                           
  9990                           ;mcc_generated_files/usb/usb_device.c: 2062:                 break;
  9991  09A8  2A1C               	goto	i1l282
  9992  09A9                     i1l3765:
  9993                           
  9994                           ;mcc_generated_files/usb/usb_device.c: 2067:                 if(SetupPkt.bDscIndex < 1)
  9995  09A9  0852               	movf	82,w	;volatile
  9996  09AA  1D03               	btfss	3,2
  9997  09AB  29AD               	goto	u247_21
  9998  09AC  29AE               	goto	u247_20
  9999  09AD                     u247_21:
 10000  09AD  29DD               	goto	i1l3773
 10001  09AE                     u247_20:
 10002  09AE                     i1l3767:
 10003                           
 10004                           ;mcc_generated_files/usb/usb_device.c: 2068:                 {;mcc_generated_files/usb/u
      +                          sb_device.c: 2072:                         inPipes[0].pSrc.bRom = *(USB_CD_Ptr+SetupPkt.
      +                          bDscIndex);
 10005  09AE  0852               	movf	82,w	;volatile
 10006  09AF  00F0               	movwf	??_USBStdGetDscHandler
 10007  09B0  01F1               	clrf	??_USBStdGetDscHandler+1
 10008  09B1  35F0               	lslf	??_USBStdGetDscHandler,f
 10009  09B2  0DF1               	rlf	??_USBStdGetDscHandler+1,f
 10010  09B3  30B3               	movlw	low (_USB_CD_Ptr| (0+32768))
 10011  09B4  0770               	addwf	??_USBStdGetDscHandler,w
 10012  09B5  0084               	movwf	4
 10013  09B6  3098               	movlw	high (_USB_CD_Ptr| (0+32768))
 10014  09B7  3D71               	addwfc	??_USBStdGetDscHandler+1,w
 10015  09B8  0085               	movwf	5
 10016  09B9  3F00               	moviw [0]fsr0
 10017  09BA  0021               	movlb	1	; select bank1
 10018  09BB  00A6               	movwf	_inPipes^(0+128)	;volatile
 10019  09BC  3F01               	moviw [1]fsr0
 10020  09BD  00A7               	movwf	(_inPipes+1)^(0+128)	;volatile
 10021  09BE                     i1l3769:
 10022                           
 10023                           ;mcc_generated_files/usb/usb_device.c: 2078:                     inPipes[0].wCount.byte.
      +                          LB = *(inPipes[0].pSrc.bRom+2);
 10024  09BE  0827               	movf	(_inPipes+1)^(0+128),w	;volatile
 10025  09BF  00F1               	movwf	??_USBStdGetDscHandler+1
 10026  09C0  0826               	movf	_inPipes^(0+128),w	;volatile
 10027  09C1  00F0               	movwf	??_USBStdGetDscHandler
 10028  09C2  3002               	movlw	2
 10029  09C3  0770               	addwf	??_USBStdGetDscHandler,w
 10030  09C4  0084               	movwf	4
 10031  09C5  0871               	movf	??_USBStdGetDscHandler+1,w
 10032  09C6  1803               	skipnc
 10033  09C7  0A71               	incf	??_USBStdGetDscHandler+1,w
 10034  09C8  0085               	movwf	5
 10035  09C9  0800               	movf	0,w	;code access
 10036  09CA  00F2               	movwf	??_USBStdGetDscHandler+2
 10037  09CB  0872               	movf	??_USBStdGetDscHandler+2,w
 10038  09CC  00A9               	movwf	(_inPipes^(0+128)+3)	;volatile
 10039  09CD                     i1l3771:
 10040                           
 10041                           ;mcc_generated_files/usb/usb_device.c: 2079:                     inPipes[0].wCount.byte.
      +                          HB = *(inPipes[0].pSrc.bRom+3);
 10042  09CD  0827               	movf	(_inPipes+1)^(0+128),w	;volatile
 10043  09CE  00F1               	movwf	??_USBStdGetDscHandler+1
 10044  09CF  0826               	movf	_inPipes^(0+128),w	;volatile
 10045  09D0  00F0               	movwf	??_USBStdGetDscHandler
 10046  09D1  3003               	movlw	3
 10047  09D2  0770               	addwf	??_USBStdGetDscHandler,w
 10048  09D3  0084               	movwf	4
 10049  09D4  0871               	movf	??_USBStdGetDscHandler+1,w
 10050  09D5  1803               	skipnc
 10051  09D6  0A71               	incf	??_USBStdGetDscHandler+1,w
 10052  09D7  0085               	movwf	5
 10053  09D8  0800               	movf	0,w	;code access
 10054  09D9  00F2               	movwf	??_USBStdGetDscHandler+2
 10055  09DA  0872               	movf	??_USBStdGetDscHandler+2,w
 10056  09DB  00AA               	movwf	(_inPipes^(0+128)+4)	;volatile
 10057                           
 10058                           ;mcc_generated_files/usb/usb_device.c: 2080:                 }
 10059  09DC  2A1C               	goto	i1l282
 10060  09DD                     i1l3773:
 10061                           
 10062                           ;mcc_generated_files/usb/usb_device.c: 2082:     {;mcc_generated_files/usb/usb_device.c:
      +                           2083:      inPipes[0].info.Val = 0;
 10063  09DD  0021               	movlb	1	; select bank1
 10064  09DE  01A8               	clrf	(_inPipes^(0+128)+2)	;volatile
 10065  09DF  2A1C               	goto	i1l282
 10066  09E0                     i1l3775:
 10067                           
 10068                           ;mcc_generated_files/usb/usb_device.c: 2090:                 if(SetupPkt.bDscIndex<4)
 10069  09E0  3004               	movlw	4
 10070  09E1  0252               	subwf	82,w	;volatile
 10071  09E2  1803               	skipnc
 10072  09E3  29E5               	goto	u248_21
 10073  09E4  29E6               	goto	u248_20
 10074  09E5                     u248_21:
 10075  09E5  2A02               	goto	i1l3781
 10076  09E6                     u248_20:
 10077  09E6                     i1l3777:
 10078                           
 10079                           ;mcc_generated_files/usb/usb_device.c: 2091:                 {;mcc_generated_files/usb/u
      +                          sb_device.c: 2093:                     inPipes[0].pSrc.bRom = *(USB_SD_Ptr+SetupPkt.bDsc
      +                          Index);
 10080  09E6  0852               	movf	82,w	;volatile
 10081  09E7  00F0               	movwf	??_USBStdGetDscHandler
 10082  09E8  01F1               	clrf	??_USBStdGetDscHandler+1
 10083  09E9  35F0               	lslf	??_USBStdGetDscHandler,f
 10084  09EA  0DF1               	rlf	??_USBStdGetDscHandler+1,f
 10085  09EB  309F               	movlw	low (_USB_SD_Ptr| (0+32768))
 10086  09EC  0770               	addwf	??_USBStdGetDscHandler,w
 10087  09ED  0084               	movwf	4
 10088  09EE  3098               	movlw	high (_USB_SD_Ptr| (0+32768))
 10089  09EF  3D71               	addwfc	??_USBStdGetDscHandler+1,w
 10090  09F0  0085               	movwf	5
 10091  09F1  3F00               	moviw [0]fsr0
 10092  09F2  0021               	movlb	1	; select bank1
 10093  09F3  00A6               	movwf	_inPipes^(0+128)	;volatile
 10094  09F4  3F01               	moviw [1]fsr0
 10095  09F5  00A7               	movwf	(_inPipes+1)^(0+128)	;volatile
 10096  09F6                     i1l3779:
 10097                           
 10098                           ;mcc_generated_files/usb/usb_device.c: 2095:                     inPipes[0].wCount.Val =
      +                           *inPipes[0].pSrc.bRom;
 10099  09F6  0826               	movf	_inPipes^(0+128),w	;volatile
 10100  09F7  0084               	movwf	4
 10101  09F8  0827               	movf	(_inPipes+1)^(0+128),w	;volatile
 10102  09F9  0085               	movwf	5
 10103  09FA  0800               	movf	0,w	;code access
 10104  09FB  00F0               	movwf	??_USBStdGetDscHandler
 10105  09FC  01F1               	clrf	??_USBStdGetDscHandler+1
 10106  09FD  0870               	movf	??_USBStdGetDscHandler,w
 10107  09FE  00A9               	movwf	(_inPipes^(0+128)+3)	;volatile
 10108  09FF  0871               	movf	??_USBStdGetDscHandler+1,w
 10109  0A00  00AA               	movwf	((_inPipes+1)^(0+128)+3)	;volatile
 10110                           
 10111                           ;mcc_generated_files/usb/usb_device.c: 2096:                 }
 10112  0A01  2A1C               	goto	i1l282
 10113  0A02                     i1l3781:
 10114                           
 10115                           ;mcc_generated_files/usb/usb_device.c: 2107:                 {;mcc_generated_files/usb/u
      +                          sb_device.c: 2108:                     inPipes[0].info.Val = 0;
 10116  0A02  0021               	movlb	1	; select bank1
 10117  0A03  01A8               	clrf	(_inPipes^(0+128)+2)	;volatile
 10118  0A04  2A1C               	goto	i1l282
 10119  0A05                     i1l3783:
 10120                           
 10121                           ;mcc_generated_files/usb/usb_device.c: 2112:                 inPipes[0].info.Val = 0;
 10122  0A05  0021               	movlb	1	; select bank1
 10123  0A06  01A8               	clrf	(_inPipes^(0+128)+2)	;volatile
 10124                           
 10125                           ;mcc_generated_files/usb/usb_device.c: 2113:                 break;
 10126  0A07  2A1C               	goto	i1l282
 10127  0A08                     i1l3787:
 10128  0A08  0020               	movlb	0	; select bank0
 10129  0A09  0853               	movf	83,w	;volatile
 10130  0A0A  00F0               	movwf	??_USBStdGetDscHandler
 10131  0A0B  01F1               	clrf	??_USBStdGetDscHandler+1
 10132                           
 10133                           ; Switch on 2 bytes has been partitioned into a top level switch of size 1, and 1 sub-sw
      +                          itches
 10134                           ; Switch size 1, requested type "simple"
 10135                           ; Number of cases is 1, Range of values is 0 to 0
 10136                           ; switch strategies available:
 10137                           ; Name         Instructions Cycles
 10138                           ; simple_byte            4     3 (average)
 10139                           ; direct_byte            8     6 (fixed)
 10140                           ; jumptable            260     6 (fixed)
 10141                           ;	Chosen strategy is simple_byte
 10142  0A0C  0871               	movf	??_USBStdGetDscHandler+1,w
 10143  0A0D  3A00               	xorlw	0	; case 0
 10144  0A0E  1903               	skipnz
 10145  0A0F  2A11               	goto	i1l6085
 10146  0A10  2A05               	goto	i1l3783
 10147  0A11                     i1l6085:
 10148                           
 10149                           ; Switch size 1, requested type "simple"
 10150                           ; Number of cases is 3, Range of values is 1 to 3
 10151                           ; switch strategies available:
 10152                           ; Name         Instructions Cycles
 10153                           ; simple_byte           10     6 (average)
 10154                           ; direct_byte           15     9 (fixed)
 10155                           ; jumptable            263     9 (fixed)
 10156                           ;	Chosen strategy is simple_byte
 10157  0A11  0870               	movf	??_USBStdGetDscHandler,w
 10158  0A12  3A01               	xorlw	1	; case 1
 10159  0A13  1903               	skipnz
 10160  0A14  299F               	goto	i1l3761
 10161  0A15  3A03               	xorlw	3	; case 2
 10162  0A16  1903               	skipnz
 10163  0A17  29A9               	goto	i1l3765
 10164  0A18  3A01               	xorlw	1	; case 3
 10165  0A19  1903               	skipnz
 10166  0A1A  29E0               	goto	i1l3775
 10167  0A1B  2A05               	goto	i1l3783
 10168  0A1C                     i1l282:
 10169  0A1C  0008               	return
 10170  0A1D                     __end_of_USBStdGetDscHandler:
 10171                           
 10172                           	psect	text37
 10173  06A2                     __ptext37:	
 10174 ;; *************** function _USBStdFeatureReqHandler *****************
 10175 ;; Defined at:
 10176 ;;		line 2758 in file "mcc_generated_files/usb/usb_device.c"
 10177 ;; Parameters:    Size  Location     Type
 10178 ;;		None
 10179 ;; Auto vars:     Size  Location     Type
 10180 ;;  p               2   11[BANK0 ] PTR struct __BDT
 10181 ;;		 -> RAM(4096), NULL(0), BDT(48), 
 10182 ;;  pUEP            2    8[BANK0 ] PTR unsigned char 
 10183 ;;		 -> UEP0(1), 
 10184 ;;  current_ep_d    1   10[BANK0 ] struct .
 10185 ;; Return value:  Size  Location     Type
 10186 ;;                  1    wreg      void 
 10187 ;; Registers used:
 10188 ;;		wreg, fsr0l, fsr0h, fsr1l, fsr1h, status,2, status,0, pclath, cstack
 10189 ;; Tracked objects:
 10190 ;;		On entry : 0/0
 10191 ;;		On exit  : 0/0
 10192 ;;		Unchanged: 0/0
 10193 ;; Data sizes:     COMMON   BANK0   BANK1   BANK2   BANK3   BANK4   BANK5   BANK6   BANK7   BANK8   BANK9  BANK10  BANK1
      +1  BANK12
 10194 ;;      Params:         0       0       0       0       0       0       0       0       0       0       0       0       
      +0       0
 10195 ;;      Locals:         0       5       0       0       0       0       0       0       0       0       0       0       
      +0       0
 10196 ;;      Temps:          0       2       0       0       0       0       0       0       0       0       0       0       
      +0       0
 10197 ;;      Totals:         0       7       0       0       0       0       0       0       0       0       0       0       
      +0       0
 10198 ;;Total ram usage:        7 bytes
 10199 ;; Hardware stack levels used:    1
 10200 ;; Hardware stack levels required when called:    4
 10201 ;; This function calls:
 10202 ;;		_USER_USB_CALLBACK_EVENT_HANDLER
 10203 ;; This function is called by:
 10204 ;;		_USBCheckStdRequest
 10205 ;; This function uses a non-reentrant model
 10206 ;;
 10207                           
 10208                           
 10209                           ;psect for function _USBStdFeatureReqHandler
 10210  06A2                     _USBStdFeatureReqHandler:
 10211  06A2                     i1l3825:	
 10212                           ;incstack = 0
 10213                           ; Regs used in _USBStdFeatureReqHandler: [wreg-fsr1h+status,2+status,0+pclath+cstack]
 10214                           
 10215                           
 10216                           ;mcc_generated_files/usb/usb_device.c: 2760:     BDT_ENTRY *p;;mcc_generated_files/usb/u
      +                          sb_device.c: 2761:     EP_STATUS current_ep_data;;mcc_generated_files/usb/usb_device.c: 
      +                          2765:         unsigned char* pUEP;;mcc_generated_files/usb/usb_device.c: 2803:     if((S
      +                          etupPkt.bFeature == 1)&&
 10217  06A2  0020               	movlb	0	; select bank0
 10218  06A3  0352               	decf	82,w	;volatile
 10219  06A4  1D03               	btfss	3,2
 10220  06A5  2EA7               	goto	u254_21
 10221  06A6  2EA8               	goto	u254_20
 10222  06A7                     u254_21:
 10223  06A7  2EC0               	goto	i1l3837
 10224  06A8                     u254_20:
 10225  06A8                     i1l3827:
 10226  06A8  0850               	movf	80,w	;volatile
 10227  06A9  391F               	andlw	31
 10228  06AA  3A00               	xorlw	0
 10229  06AB  1D03               	skipz
 10230  06AC  2EAE               	goto	u255_21
 10231  06AD  2EAF               	goto	u255_20
 10232  06AE                     u255_21:
 10233  06AE  2EC0               	goto	i1l3837
 10234  06AF                     u255_20:
 10235  06AF                     i1l3829:
 10236                           
 10237                           ;mcc_generated_files/usb/usb_device.c: 2805:     {;mcc_generated_files/usb/usb_device.c:
      +                           2806:         inPipes[0].info.bits.busy = 1;
 10238  06AF  0021               	movlb	1	; select bank1
 10239  06B0  17A8               	bsf	(_inPipes^(0+128)+2),7	;volatile
 10240  06B1                     i1l3831:
 10241                           
 10242                           ;mcc_generated_files/usb/usb_device.c: 2807:         if(SetupPkt.bRequest == 3)
 10243  06B1  3003               	movlw	3
 10244  06B2  0020               	movlb	0	; select bank0
 10245  06B3  0651               	xorwf	81,w	;volatile
 10246  06B4  1D03               	btfss	3,2
 10247  06B5  2EB7               	goto	u256_21
 10248  06B6  2EB8               	goto	u256_20
 10249  06B7                     u256_21:
 10250  06B7  2EBE               	goto	i1l3835
 10251  06B8                     u256_20:
 10252  06B8                     i1l3833:
 10253                           
 10254                           ;mcc_generated_files/usb/usb_device.c: 2808:             RemoteWakeup = 1;
 10255  06B8  3001               	movlw	1
 10256  06B9  00E6               	movwf	??_USBStdFeatureReqHandler
 10257  06BA  0866               	movf	??_USBStdFeatureReqHandler,w
 10258  06BB  0023               	movlb	3	; select bank3
 10259  06BC  00EB               	movwf	_RemoteWakeup^(0+384)	;volatile
 10260  06BD  2EC0               	goto	i1l3837
 10261  06BE                     i1l3835:
 10262                           
 10263                           ;mcc_generated_files/usb/usb_device.c: 2810:             RemoteWakeup = 0;
 10264  06BE  0023               	movlb	3	; select bank3
 10265  06BF  01EB               	clrf	_RemoteWakeup^(0+384)	;volatile
 10266  06C0                     i1l3837:
 10267                           
 10268                           ;mcc_generated_files/usb/usb_device.c: 2814:     if((SetupPkt.bFeature == 0)&&
 10269  06C0  0020               	movlb	0	; select bank0
 10270  06C1  0852               	movf	82,w	;volatile
 10271  06C2  1D03               	btfss	3,2
 10272  06C3  2EC5               	goto	u257_21
 10273  06C4  2EC6               	goto	u257_20
 10274  06C5                     u257_21:
 10275  06C5  2FF9               	goto	i1l386
 10276  06C6                     u257_20:
 10277  06C6                     i1l3839:
 10278  06C6  0850               	movf	80,w	;volatile
 10279  06C7  391F               	andlw	31
 10280  06C8  3A02               	xorlw	2
 10281  06C9  1D03               	skipz
 10282  06CA  2ECC               	goto	u258_21
 10283  06CB  2ECD               	goto	u258_20
 10284  06CC                     u258_21:
 10285  06CC  2FF9               	goto	i1l386
 10286  06CD                     u258_20:
 10287  06CD                     i1l3841:
 10288  06CD  0854               	movf	84,w	;volatile
 10289  06CE  390F               	andlw	15
 10290  06CF  3A00               	xorlw	0
 10291  06D0  1903               	skipnz
 10292  06D1  2ED3               	goto	u259_21
 10293  06D2  2ED4               	goto	u259_20
 10294  06D3                     u259_21:
 10295  06D3  2FF9               	goto	i1l386
 10296  06D4                     u259_20:
 10297  06D4                     i1l3843:
 10298  06D4  0854               	movf	84,w	;volatile
 10299  06D5  390F               	andlw	15
 10300  06D6  00E6               	movwf	??_USBStdFeatureReqHandler
 10301  06D7  3003               	movlw	3
 10302  06D8  0266               	subwf	??_USBStdFeatureReqHandler,w
 10303  06D9  1803               	skipnc
 10304  06DA  2EDC               	goto	u260_21
 10305  06DB  2EDD               	goto	u260_20
 10306  06DC                     u260_21:
 10307  06DC  2FF9               	goto	i1l386
 10308  06DD                     u260_20:
 10309  06DD                     i1l3845:
 10310  06DD  3020               	movlw	32
 10311  06DE  0021               	movlb	1	; select bank1
 10312  06DF  0633               	xorwf	_USBDeviceState^(0+128),w	;volatile
 10313  06E0  1D03               	btfss	3,2
 10314  06E1  2EE3               	goto	u261_21
 10315  06E2  2EE4               	goto	u261_20
 10316  06E3                     u261_21:
 10317  06E3  2FF9               	goto	i1l386
 10318  06E4                     u261_20:
 10319  06E4                     i1l3847:
 10320                           
 10321                           ;mcc_generated_files/usb/usb_device.c: 2818:     {;mcc_generated_files/usb/usb_device.c:
      +                           2821:   inPipes[0].info.bits.busy = 1;
 10322  06E4  17A8               	bsf	(_inPipes^(0+128)+2),7	;volatile
 10323                           
 10324                           ;mcc_generated_files/usb/usb_device.c: 2824:         if(SetupPkt.EPDir == 0)
 10325  06E5  0020               	movlb	0	; select bank0
 10326  06E6  1BD4               	btfsc	84,7	;volatile
 10327  06E7  2EE9               	goto	u262_21
 10328  06E8  2EEA               	goto	u262_20
 10329  06E9                     u262_21:
 10330  06E9  2F00               	goto	i1l3851
 10331  06EA                     u262_20:
 10332  06EA                     i1l3849:
 10333                           
 10334                           ;mcc_generated_files/usb/usb_device.c: 2825:         {;mcc_generated_files/usb/usb_devic
      +                          e.c: 2826:             p = (BDT_ENTRY*)pBDTEntryOut[SetupPkt.EPNum];
 10335  06EA  0854               	movf	84,w	;volatile
 10336  06EB  390F               	andlw	15
 10337  06EC  0709               	addwf	9,w
 10338  06ED  3EB7               	addlw	(low (_pBDTEntryOut| (0+256)))& (0+255)
 10339  06EE  0086               	movwf	6
 10340  06EF  3001               	movlw	1	; select bank3/4
 10341  06F0  0087               	movwf	7
 10342  06F1  3F40               	moviw [0]fsr1
 10343  06F2  00EB               	movwf	USBStdFeatureReqHandler@p
 10344  06F3  3F41               	moviw [1]fsr1
 10345  06F4  00EC               	movwf	USBStdFeatureReqHandler@p+1
 10346                           
 10347                           ;mcc_generated_files/usb/usb_device.c: 2827:             current_ep_data.Val = ep_data_o
      +                          ut[SetupPkt.EPNum].Val;
 10348  06F5  0854               	movf	84,w	;volatile
 10349  06F6  390F               	andlw	15
 10350  06F7  3EC1               	addlw	(low (_ep_data_out| (0+256)))& (0+255)
 10351  06F8  0086               	movwf	6
 10352  06F9  3001               	movlw	1	; select bank3/4
 10353  06FA  0087               	movwf	7
 10354  06FB  0801               	movf	1,w
 10355  06FC  00E6               	movwf	??_USBStdFeatureReqHandler
 10356  06FD  0866               	movf	??_USBStdFeatureReqHandler,w
 10357  06FE  00EA               	movwf	USBStdFeatureReqHandler@current_ep_data
 10358                           
 10359                           ;mcc_generated_files/usb/usb_device.c: 2828:         }
 10360  06FF  2F14               	goto	i1l3853
 10361  0700                     i1l3851:
 10362                           
 10363                           ;mcc_generated_files/usb/usb_device.c: 2830:         {;mcc_generated_files/usb/usb_devic
      +                          e.c: 2831:             p = (BDT_ENTRY*)pBDTEntryIn[SetupPkt.EPNum];
 10364  0700  0854               	movf	84,w	;volatile
 10365  0701  390F               	andlw	15
 10366  0702  0709               	addwf	9,w
 10367  0703  3EA0               	addlw	(low (_pBDTEntryIn| 0))& (0+255)
 10368  0704  0086               	movwf	6
 10369  0705  0187               	clrf	7
 10370  0706  3F40               	moviw [0]fsr1
 10371  0707  00EB               	movwf	USBStdFeatureReqHandler@p
 10372  0708  3F41               	moviw [1]fsr1
 10373  0709  00EC               	movwf	USBStdFeatureReqHandler@p+1
 10374                           
 10375                           ;mcc_generated_files/usb/usb_device.c: 2832:             current_ep_data.Val = ep_data_i
      +                          n[SetupPkt.EPNum].Val;
 10376  070A  0854               	movf	84,w	;volatile
 10377  070B  390F               	andlw	15
 10378  070C  3EC4               	addlw	(low (_ep_data_in| (0+256)))& (0+255)
 10379  070D  0086               	movwf	6
 10380  070E  3001               	movlw	1	; select bank3/4
 10381  070F  0087               	movwf	7
 10382  0710  0801               	movf	1,w
 10383  0711  00E6               	movwf	??_USBStdFeatureReqHandler
 10384  0712  0866               	movf	??_USBStdFeatureReqHandler,w
 10385  0713  00EA               	movwf	USBStdFeatureReqHandler@current_ep_data
 10386  0714                     i1l3853:
 10387                           
 10388                           ;mcc_generated_files/usb/usb_device.c: 2839:             if(current_ep_data.bits.ping_po
      +                          ng_state == 0)
 10389  0714  186A               	btfsc	USBStdFeatureReqHandler@current_ep_data,0
 10390  0715  2F17               	goto	u263_21
 10391  0716  2F18               	goto	u263_20
 10392  0717                     u263_21:
 10393  0717  2F23               	goto	i1l3857
 10394  0718                     u263_20:
 10395  0718                     i1l3855:
 10396                           
 10397                           ;mcc_generated_files/usb/usb_device.c: 2840:             {;mcc_generated_files/usb/usb_d
      +                          evice.c: 2841:                 p = (BDT_ENTRY*)(((uint16_t)p) & (~0x0004));
 10398  0718  30FB               	movlw	251
 10399  0719  00E6               	movwf	??_USBStdFeatureReqHandler
 10400  071A  30FF               	movlw	255
 10401  071B  00E7               	movwf	??_USBStdFeatureReqHandler+1
 10402  071C  086B               	movf	USBStdFeatureReqHandler@p,w
 10403  071D  0566               	andwf	??_USBStdFeatureReqHandler,w
 10404  071E  00EB               	movwf	USBStdFeatureReqHandler@p
 10405  071F  086C               	movf	USBStdFeatureReqHandler@p+1,w
 10406  0720  0567               	andwf	??_USBStdFeatureReqHandler+1,w
 10407  0721  00EC               	movwf	USBStdFeatureReqHandler@p+1
 10408                           
 10409                           ;mcc_generated_files/usb/usb_device.c: 2842:             }
 10410  0722  2F29               	goto	i1l3859
 10411  0723                     i1l3857:
 10412                           
 10413                           ;mcc_generated_files/usb/usb_device.c: 2844:             {;mcc_generated_files/usb/usb_d
      +                          evice.c: 2845:                 p = (BDT_ENTRY*)(((uint16_t)p) | 0x0004);
 10414  0723  3004               	movlw	4
 10415  0724  046B               	iorwf	USBStdFeatureReqHandler@p,w
 10416  0725  00EB               	movwf	USBStdFeatureReqHandler@p
 10417  0726  3000               	movlw	0
 10418  0727  046C               	iorwf	USBStdFeatureReqHandler@p+1,w
 10419  0728  00EC               	movwf	USBStdFeatureReqHandler@p+1
 10420  0729                     i1l3859:
 10421                           
 10422                           ;mcc_generated_files/usb/usb_device.c: 2851:         if(SetupPkt.EPDir == 0)
 10423  0729  1BD4               	btfsc	84,7	;volatile
 10424  072A  2F2C               	goto	u264_21
 10425  072B  2F2D               	goto	u264_20
 10426  072C                     u264_21:
 10427  072C  2F39               	goto	i1l3863
 10428  072D                     u264_20:
 10429  072D                     i1l3861:
 10430                           
 10431                           ;mcc_generated_files/usb/usb_device.c: 2852:         {;mcc_generated_files/usb/usb_devic
      +                          e.c: 2853:             pBDTEntryOut[SetupPkt.EPNum] = (volatile BDT_ENTRY *)p;
 10432  072D  0854               	movf	84,w	;volatile
 10433  072E  390F               	andlw	15
 10434  072F  0709               	addwf	9,w
 10435  0730  3EB7               	addlw	(low (_pBDTEntryOut| (0+256)))& (0+255)
 10436  0731  0086               	movwf	6
 10437  0732  3001               	movlw	1	; select bank3/4
 10438  0733  0087               	movwf	7
 10439  0734  086B               	movf	USBStdFeatureReqHandler@p,w
 10440  0735  3FC0               	movwi [0]fsr1
 10441  0736  086C               	movf	USBStdFeatureReqHandler@p+1,w
 10442  0737  3FC1               	movwi [1]fsr1
 10443                           
 10444                           ;mcc_generated_files/usb/usb_device.c: 2854:         }
 10445  0738  2F43               	goto	i1l3865
 10446  0739                     i1l3863:
 10447                           
 10448                           ;mcc_generated_files/usb/usb_device.c: 2856:         {;mcc_generated_files/usb/usb_devic
      +                          e.c: 2857:             pBDTEntryIn[SetupPkt.EPNum] = (volatile BDT_ENTRY *)p;
 10449  0739  0854               	movf	84,w	;volatile
 10450  073A  390F               	andlw	15
 10451  073B  0709               	addwf	9,w
 10452  073C  3EA0               	addlw	(low (_pBDTEntryIn| 0))& (0+255)
 10453  073D  0086               	movwf	6
 10454  073E  0187               	clrf	7
 10455  073F  086B               	movf	USBStdFeatureReqHandler@p,w
 10456  0740  3FC0               	movwi [0]fsr1
 10457  0741  086C               	movf	USBStdFeatureReqHandler@p+1,w
 10458  0742  3FC1               	movwi [1]fsr1
 10459  0743                     i1l3865:
 10460                           
 10461                           ;mcc_generated_files/usb/usb_device.c: 2861:         if(SetupPkt.bRequest == 3)
 10462  0743  3003               	movlw	3
 10463  0744  0651               	xorwf	81,w	;volatile
 10464  0745  1D03               	btfss	3,2
 10465  0746  2F48               	goto	u265_21
 10466  0747  2F49               	goto	u265_20
 10467  0748                     u265_21:
 10468  0748  2F6F               	goto	i1l3879
 10469  0749                     u265_20:
 10470  0749                     i1l3867:
 10471                           
 10472                           ;mcc_generated_files/usb/usb_device.c: 2862:         {;mcc_generated_files/usb/usb_devic
      +                          e.c: 2863:             if(p->STAT.UOWN == 1)
 10473  0749  086B               	movf	USBStdFeatureReqHandler@p,w
 10474  074A  0086               	movwf	6
 10475  074B  086C               	movf	USBStdFeatureReqHandler@p+1,w
 10476  074C  0087               	movwf	7
 10477  074D  1F81               	btfss	1,7
 10478  074E  2F50               	goto	u266_21
 10479  074F  2F51               	goto	u266_20
 10480  0750                     u266_21:
 10481  0750  2F64               	goto	i1l3875
 10482  0751                     u266_20:
 10483  0751                     i1l3869:
 10484                           
 10485                           ;mcc_generated_files/usb/usb_device.c: 2864:             {;mcc_generated_files/usb/usb_d
      +                          evice.c: 2867:                 if(SetupPkt.EPDir == 0)
 10486  0751  1BD4               	btfsc	84,7	;volatile
 10487  0752  2F54               	goto	u267_21
 10488  0753  2F55               	goto	u267_20
 10489  0754                     u267_21:
 10490  0754  2F5D               	goto	i1l3873
 10491  0755                     u267_20:
 10492  0755                     i1l3871:
 10493                           
 10494                           ;mcc_generated_files/usb/usb_device.c: 2868:                 {;mcc_generated_files/usb/u
      +                          sb_device.c: 2869:                     ep_data_out[SetupPkt.EPNum].bits.transfer_termina
      +                          ted = 1;
 10495  0755  0854               	movf	84,w	;volatile
 10496  0756  390F               	andlw	15
 10497  0757  3EC1               	addlw	(low (_ep_data_out| (0+256)))& (0+255)
 10498  0758  0086               	movwf	6
 10499  0759  3001               	movlw	1	; select bank3/4
 10500  075A  0087               	movwf	7
 10501  075B  1481               	bsf	1,1
 10502                           
 10503                           ;mcc_generated_files/usb/usb_device.c: 2870:                 }
 10504  075C  2F64               	goto	i1l3875
 10505  075D                     i1l3873:
 10506                           
 10507                           ;mcc_generated_files/usb/usb_device.c: 2872:                 {;mcc_generated_files/usb/u
      +                          sb_device.c: 2873:                     ep_data_in[SetupPkt.EPNum].bits.transfer_terminat
      +                          ed = 1;
 10508  075D  0854               	movf	84,w	;volatile
 10509  075E  390F               	andlw	15
 10510  075F  3EC4               	addlw	(low (_ep_data_in| (0+256)))& (0+255)
 10511  0760  0086               	movwf	6
 10512  0761  3001               	movlw	1	; select bank3/4
 10513  0762  0087               	movwf	7
 10514  0763  1481               	bsf	1,1
 10515  0764                     i1l3875:
 10516                           
 10517                           ;mcc_generated_files/usb/usb_device.c: 2878:             p->STAT.Val |= 0x04;
 10518  0764  086B               	movf	USBStdFeatureReqHandler@p,w
 10519  0765  0086               	movwf	6
 10520  0766  086C               	movf	USBStdFeatureReqHandler@p+1,w
 10521  0767  0087               	movwf	7
 10522  0768  1501               	bsf	1,2
 10523  0769                     i1l3877:
 10524                           
 10525                           ;mcc_generated_files/usb/usb_device.c: 2879:             p->STAT.Val |= 0x80;
 10526  0769  086B               	movf	USBStdFeatureReqHandler@p,w
 10527  076A  0086               	movwf	6
 10528  076B  086C               	movf	USBStdFeatureReqHandler@p+1,w
 10529  076C  0087               	movwf	7
 10530  076D  1781               	bsf	1,7
 10531                           
 10532                           ;mcc_generated_files/usb/usb_device.c: 2880:         }
 10533  076E  2FF9               	goto	i1l386
 10534  076F                     i1l3879:
 10535                           
 10536                           ;mcc_generated_files/usb/usb_device.c: 2882:         {;mcc_generated_files/usb/usb_devic
      +                          e.c: 2886:                 p = (BDT_ENTRY*)(((uint16_t)p) ^ 0x0004);
 10537  076F  3004               	movlw	4
 10538  0770  066B               	xorwf	USBStdFeatureReqHandler@p,w
 10539  0771  00EB               	movwf	USBStdFeatureReqHandler@p
 10540  0772  3000               	movlw	0
 10541  0773  066C               	xorwf	USBStdFeatureReqHandler@p+1,w
 10542  0774  00EC               	movwf	USBStdFeatureReqHandler@p+1
 10543  0775                     i1l3881:
 10544                           
 10545                           ;mcc_generated_files/usb/usb_device.c: 2888:                 if(p->STAT.UOWN == 1)
 10546  0775  086B               	movf	USBStdFeatureReqHandler@p,w
 10547  0776  0086               	movwf	6
 10548  0777  086C               	movf	USBStdFeatureReqHandler@p+1,w
 10549  0778  0087               	movwf	7
 10550  0779  1F81               	btfss	1,7
 10551  077A  2F7C               	goto	u268_21
 10552  077B  2F7D               	goto	u268_20
 10553  077C                     u268_21:
 10554  077C  2F9A               	goto	i1l3889
 10555  077D                     u268_20:
 10556  077D                     i1l3883:
 10557                           
 10558                           ;mcc_generated_files/usb/usb_device.c: 2889:                 {;mcc_generated_files/usb/u
      +                          sb_device.c: 2892:                     p->STAT.Val &= (~0x80);
 10559  077D  307F               	movlw	127
 10560  077E  00E6               	movwf	??_USBStdFeatureReqHandler
 10561  077F  086B               	movf	USBStdFeatureReqHandler@p,w
 10562  0780  0086               	movwf	6
 10563  0781  086C               	movf	USBStdFeatureReqHandler@p+1,w
 10564  0782  0087               	movwf	7
 10565  0783  0866               	movf	??_USBStdFeatureReqHandler,w
 10566  0784  0581               	andwf	1,f
 10567  0785                     i1l3885:
 10568                           
 10569                           ;mcc_generated_files/usb/usb_device.c: 2893:                     p->STAT.Val |= 0x40;
 10570  0785  086B               	movf	USBStdFeatureReqHandler@p,w
 10571  0786  0086               	movwf	6
 10572  0787  086C               	movf	USBStdFeatureReqHandler@p+1,w
 10573  0788  0087               	movwf	7
 10574  0789  1701               	bsf	1,6
 10575  078A                     i1l3887:
 10576                           
 10577                           ;mcc_generated_files/usb/usb_device.c: 2894:                     USER_USB_CALLBACK_EVENT
      +                          _HANDLER((USB_EVENT)EVENT_TRANSFER_TERMINATED,p,sizeof(p));
 10578  078A  3005               	movlw	5
 10579  078B  00E0               	movwf	USER_USB_CALLBACK_EVENT_HANDLER@event
 10580  078C  3000               	movlw	0
 10581  078D  00E1               	movwf	USER_USB_CALLBACK_EVENT_HANDLER@event+1
 10582  078E  086C               	movf	USBStdFeatureReqHandler@p+1,w
 10583  078F  00E3               	movwf	USER_USB_CALLBACK_EVENT_HANDLER@pdata+1
 10584  0790  086B               	movf	USBStdFeatureReqHandler@p,w
 10585  0791  00E2               	movwf	USER_USB_CALLBACK_EVENT_HANDLER@pdata
 10586  0792  3002               	movlw	2
 10587  0793  00E4               	movwf	USER_USB_CALLBACK_EVENT_HANDLER@size
 10588  0794  3000               	movlw	0
 10589  0795  00E5               	movwf	USER_USB_CALLBACK_EVENT_HANDLER@size+1
 10590  0796  3193  2374  3186   	fcall	_USER_USB_CALLBACK_EVENT_HANDLER
 10591                           
 10592                           ;mcc_generated_files/usb/usb_device.c: 2895:                 }
 10593  0799  2F9F               	goto	i1l3891
 10594  079A                     i1l3889:
 10595                           
 10596                           ;mcc_generated_files/usb/usb_device.c: 2897:                 {;mcc_generated_files/usb/u
      +                          sb_device.c: 2899:      p->STAT.Val |= 0x40;
 10597  079A  086B               	movf	USBStdFeatureReqHandler@p,w
 10598  079B  0086               	movwf	6
 10599  079C  086C               	movf	USBStdFeatureReqHandler@p+1,w
 10600  079D  0087               	movwf	7
 10601  079E  1701               	bsf	1,6
 10602  079F                     i1l3891:
 10603                           
 10604                           ;mcc_generated_files/usb/usb_device.c: 2904:                 p = (BDT_ENTRY*)(((uint16_t
      +                          )p) ^ 0x0004);
 10605  079F  3004               	movlw	4
 10606  07A0  0020               	movlb	0	; select bank0
 10607  07A1  066B               	xorwf	USBStdFeatureReqHandler@p,w
 10608  07A2  00EB               	movwf	USBStdFeatureReqHandler@p
 10609  07A3  3000               	movlw	0
 10610  07A4  066C               	xorwf	USBStdFeatureReqHandler@p+1,w
 10611  07A5  00EC               	movwf	USBStdFeatureReqHandler@p+1
 10612  07A6                     i1l3893:
 10613                           
 10614                           ;mcc_generated_files/usb/usb_device.c: 2910:                 if((current_ep_data.bits.tr
      +                          ansfer_terminated != 0) || (p->STAT.UOWN == 1))
 10615  07A6  18EA               	btfsc	USBStdFeatureReqHandler@current_ep_data,1
 10616  07A7  2FA9               	goto	u269_21
 10617  07A8  2FAA               	goto	u269_20
 10618  07A9                     u269_21:
 10619  07A9  2FB2               	goto	i1l382
 10620  07AA                     u269_20:
 10621  07AA                     i1l3895:
 10622  07AA  086B               	movf	USBStdFeatureReqHandler@p,w
 10623  07AB  0086               	movwf	6
 10624  07AC  086C               	movf	USBStdFeatureReqHandler@p+1,w
 10625  07AD  0087               	movwf	7
 10626  07AE  1F81               	btfss	1,7
 10627  07AF  2FB1               	goto	u270_21
 10628  07B0  2FB2               	goto	u270_20
 10629  07B1                     u270_21:
 10630  07B1  2FDD               	goto	i1l3903
 10631  07B2                     u270_20:
 10632  07B2                     i1l382:
 10633                           
 10634                           ;mcc_generated_files/usb/usb_device.c: 2911:                 {;mcc_generated_files/usb/u
      +                          sb_device.c: 2912:                     if(SetupPkt.EPDir == 0)
 10635  07B2  1BD4               	btfsc	84,7	;volatile
 10636  07B3  2FB5               	goto	u271_21
 10637  07B4  2FB6               	goto	u271_20
 10638  07B5                     u271_21:
 10639  07B5  2FBE               	goto	i1l3899
 10640  07B6                     u271_20:
 10641  07B6                     i1l3897:
 10642                           
 10643                           ;mcc_generated_files/usb/usb_device.c: 2913:                     {;mcc_generated_files/u
      +                          sb/usb_device.c: 2914:                         ep_data_out[SetupPkt.EPNum].bits.transfer
      +                          _terminated = 0;
 10644  07B6  0854               	movf	84,w	;volatile
 10645  07B7  390F               	andlw	15
 10646  07B8  3EC1               	addlw	(low (_ep_data_out| (0+256)))& (0+255)
 10647  07B9  0086               	movwf	6
 10648  07BA  3001               	movlw	1	; select bank3/4
 10649  07BB  0087               	movwf	7
 10650  07BC  1081               	bcf	1,1
 10651                           
 10652                           ;mcc_generated_files/usb/usb_device.c: 2915:                     }
 10653  07BD  2FC5               	goto	i1l384
 10654  07BE                     i1l3899:
 10655                           
 10656                           ;mcc_generated_files/usb/usb_device.c: 2917:                     {;mcc_generated_files/u
      +                          sb/usb_device.c: 2918:                         ep_data_in[SetupPkt.EPNum].bits.transfer_
      +                          terminated = 0;
 10657  07BE  0854               	movf	84,w	;volatile
 10658  07BF  390F               	andlw	15
 10659  07C0  3EC4               	addlw	(low (_ep_data_in| (0+256)))& (0+255)
 10660  07C1  0086               	movwf	6
 10661  07C2  3001               	movlw	1	; select bank3/4
 10662  07C3  0087               	movwf	7
 10663  07C4  1081               	bcf	1,1
 10664  07C5                     i1l384:	
 10665                           ;mcc_generated_files/usb/usb_device.c: 2919:                     }
 10666                           
 10667                           
 10668                           ;mcc_generated_files/usb/usb_device.c: 2921:                     p->STAT.Val &= ~(0x80 |
      +                           0x40 | 0x04);
 10669  07C5  303B               	movlw	59
 10670  07C6  00E6               	movwf	??_USBStdFeatureReqHandler
 10671  07C7  086B               	movf	USBStdFeatureReqHandler@p,w
 10672  07C8  0086               	movwf	6
 10673  07C9  086C               	movf	USBStdFeatureReqHandler@p+1,w
 10674  07CA  0087               	movwf	7
 10675  07CB  0866               	movf	??_USBStdFeatureReqHandler,w
 10676  07CC  0581               	andwf	1,f
 10677  07CD                     i1l3901:
 10678                           
 10679                           ;mcc_generated_files/usb/usb_device.c: 2924:                     USER_USB_CALLBACK_EVENT
      +                          _HANDLER((USB_EVENT)EVENT_TRANSFER_TERMINATED,p,sizeof(p));
 10680  07CD  3005               	movlw	5
 10681  07CE  00E0               	movwf	USER_USB_CALLBACK_EVENT_HANDLER@event
 10682  07CF  3000               	movlw	0
 10683  07D0  00E1               	movwf	USER_USB_CALLBACK_EVENT_HANDLER@event+1
 10684  07D1  086C               	movf	USBStdFeatureReqHandler@p+1,w
 10685  07D2  00E3               	movwf	USER_USB_CALLBACK_EVENT_HANDLER@pdata+1
 10686  07D3  086B               	movf	USBStdFeatureReqHandler@p,w
 10687  07D4  00E2               	movwf	USER_USB_CALLBACK_EVENT_HANDLER@pdata
 10688  07D5  3002               	movlw	2
 10689  07D6  00E4               	movwf	USER_USB_CALLBACK_EVENT_HANDLER@size
 10690  07D7  3000               	movlw	0
 10691  07D8  00E5               	movwf	USER_USB_CALLBACK_EVENT_HANDLER@size+1
 10692  07D9  3193  2374  3186   	fcall	_USER_USB_CALLBACK_EVENT_HANDLER
 10693                           
 10694                           ;mcc_generated_files/usb/usb_device.c: 2925:                 }
 10695  07DC  2FE5               	goto	i1l3905
 10696  07DD                     i1l3903:
 10697                           
 10698                           ;mcc_generated_files/usb/usb_device.c: 2927:                 {;mcc_generated_files/usb/u
      +                          sb_device.c: 2929:                     p->STAT.Val &= ~(0x80 | 0x40 | 0x04);
 10699  07DD  303B               	movlw	59
 10700  07DE  00E6               	movwf	??_USBStdFeatureReqHandler
 10701  07DF  086B               	movf	USBStdFeatureReqHandler@p,w
 10702  07E0  0086               	movwf	6
 10703  07E1  086C               	movf	USBStdFeatureReqHandler@p+1,w
 10704  07E2  0087               	movwf	7
 10705  07E3  0866               	movf	??_USBStdFeatureReqHandler,w
 10706  07E4  0581               	andwf	1,f
 10707  07E5                     i1l3905:
 10708                           
 10709                           ;mcc_generated_files/usb/usb_device.c: 2977:                 pUEP = (unsigned char*)(&UE
      +                          P0+SetupPkt.EPNum);
 10710  07E5  0020               	movlb	0	; select bank0
 10711  07E6  0854               	movf	84,w	;volatile
 10712  07E7  390F               	andlw	15
 10713  07E8  3E98               	addlw	152
 10714  07E9  00E6               	movwf	??_USBStdFeatureReqHandler
 10715  07EA  01E7               	clrf	??_USBStdFeatureReqHandler+1
 10716  07EB  300E               	movlw	14
 10717  07EC  3DE7               	addwfc	??_USBStdFeatureReqHandler+1,f
 10718  07ED  0866               	movf	??_USBStdFeatureReqHandler,w
 10719  07EE  00E8               	movwf	USBStdFeatureReqHandler@pUEP
 10720  07EF  0867               	movf	??_USBStdFeatureReqHandler+1,w
 10721  07F0  00E9               	movwf	USBStdFeatureReqHandler@pUEP+1
 10722  07F1                     i1l3907:
 10723                           
 10724                           ;mcc_generated_files/usb/usb_device.c: 2981:             *pUEP &= ~0x0001;
 10725  07F1  30FE               	movlw	254
 10726  07F2  00E6               	movwf	??_USBStdFeatureReqHandler
 10727  07F3  0868               	movf	USBStdFeatureReqHandler@pUEP,w
 10728  07F4  0086               	movwf	6
 10729  07F5  0869               	movf	USBStdFeatureReqHandler@pUEP+1,w
 10730  07F6  0087               	movwf	7
 10731  07F7  0866               	movf	??_USBStdFeatureReqHandler,w
 10732  07F8  0581               	andwf	1,f
 10733  07F9                     i1l386:
 10734  07F9  0008               	return
 10735  07FA                     __end_of_USBStdFeatureReqHandler:
 10736                           
 10737                           	psect	text38
 10738  1374                     __ptext38:	
 10739 ;; *************** function _USER_USB_CALLBACK_EVENT_HANDLER *****************
 10740 ;; Defined at:
 10741 ;;		line 49 in file "mcc_generated_files/usb/usb_device_events.c"
 10742 ;; Parameters:    Size  Location     Type
 10743 ;;  event           2    0[BANK0 ] enum E46
 10744 ;;  pdata           2    2[BANK0 ] PTR void 
 10745 ;;		 -> RAM(4096), USTATcopy(1), USBActiveConfiguration(1), NULL(0), 
 10746 ;;		 -> BDT(48), 
 10747 ;;  size            2    4[BANK0 ] unsigned short 
 10748 ;; Auto vars:     Size  Location     Type
 10749 ;;		None
 10750 ;; Return value:  Size  Location     Type
 10751 ;;                  1    wreg      _Bool 
 10752 ;; Registers used:
 10753 ;;		wreg, fsr0l, fsr0h, fsr1l, fsr1h, status,2, status,0, pclath, cstack
 10754 ;; Tracked objects:
 10755 ;;		On entry : 0/0
 10756 ;;		On exit  : 0/0
 10757 ;;		Unchanged: 0/0
 10758 ;; Data sizes:     COMMON   BANK0   BANK1   BANK2   BANK3   BANK4   BANK5   BANK6   BANK7   BANK8   BANK9  BANK10  BANK1
      +1  BANK12
 10759 ;;      Params:         0       6       0       0       0       0       0       0       0       0       0       0       
      +0       0
 10760 ;;      Locals:         0       0       0       0       0       0       0       0       0       0       0       0       
      +0       0
 10761 ;;      Temps:          0       0       0       0       0       0       0       0       0       0       0       0       
      +0       0
 10762 ;;      Totals:         0       6       0       0       0       0       0       0       0       0       0       0       
      +0       0
 10763 ;;Total ram usage:        6 bytes
 10764 ;; Hardware stack levels used:    1
 10765 ;; Hardware stack levels required when called:    3
 10766 ;; This function calls:
 10767 ;;		_CDCInitEP
 10768 ;;		_USBCheckCDCRequest
 10769 ;; This function is called by:
 10770 ;;		_USBDeviceTasks
 10771 ;;		_USBStdSetCfgHandler
 10772 ;;		_USBSuspend
 10773 ;;		_USBWakeFromSuspend
 10774 ;;		_USBCtrlTrfSetupHandler
 10775 ;;		_USBCheckStdRequest
 10776 ;;		_USBStdFeatureReqHandler
 10777 ;; This function uses a non-reentrant model
 10778 ;;
 10779                           
 10780                           
 10781                           ;psect for function _USER_USB_CALLBACK_EVENT_HANDLER
 10782  1374                     _USER_USB_CALLBACK_EVENT_HANDLER:
 10783  1374                     i1l3545:	
 10784                           ;incstack = 0
 10785                           ; Regs used in _USER_USB_CALLBACK_EVENT_HANDLER: [wreg-fsr1h+status,2+status,0+pclath+cs
      +                          tack]
 10786                           
 10787                           
 10788                           ;mcc_generated_files/usb/usb_device_events.c: 49: _Bool USER_USB_CALLBACK_EVENT_HANDLER(
      +                          USB_EVENT event, void *pdata, uint16_t size);mcc_generated_files/usb/usb_device_events.c
      +                          : 50: {;mcc_generated_files/usb/usb_device_events.c: 51:     switch( (int) event )
 10789  1374  2B7D               	goto	i1l3553
 10790  1375                     i1l3547:
 10791                           
 10792                           ;mcc_generated_files/usb/usb_device_events.c: 76:             CDCInitEP();
 10793  1375  3193  23A6  3193   	fcall	_CDCInitEP
 10794                           
 10795                           ;mcc_generated_files/usb/usb_device_events.c: 77:             break;
 10796  1378  2BA5               	goto	i1l549
 10797  1379                     i1l3549:
 10798                           
 10799                           ;mcc_generated_files/usb/usb_device_events.c: 85:             USBCheckCDCRequest();
 10800  1379  3196  2626  3193   	fcall	_USBCheckCDCRequest
 10801                           
 10802                           ;mcc_generated_files/usb/usb_device_events.c: 86:             break;
 10803  137C  2BA5               	goto	i1l549
 10804  137D                     i1l3553:
 10805                           
 10806                           ; Switch on 2 bytes has been partitioned into a top level switch of size 1, and 2 sub-sw
      +                          itches
 10807                           ; Switch size 1, requested type "simple"
 10808                           ; Number of cases is 2, Range of values is 0 to 127
 10809                           ; switch strategies available:
 10810                           ; Name         Instructions Cycles
 10811                           ; simple_byte            7     4 (average)
 10812                           ; direct_byte          262     6 (fixed)
 10813                           ; jumptable            260     6 (fixed)
 10814                           ;	Chosen strategy is simple_byte
 10815  137D  0020               	movlb	0	; select bank0
 10816  137E  0861               	movf	USER_USB_CALLBACK_EVENT_HANDLER@event+1,w
 10817  137F  3A00               	xorlw	0	; case 0
 10818  1380  1903               	skipnz
 10819  1381  2B86               	goto	i1l6087
 10820  1382  3A7F               	xorlw	127	; case 127
 10821  1383  1903               	skipnz
 10822  1384  2BA0               	goto	i1l6089
 10823  1385  2BA5               	goto	i1l549
 10824  1386                     i1l6087:
 10825                           
 10826                           ; Switch size 1, requested type "simple"
 10827                           ; Number of cases is 8, Range of values is 1 to 117
 10828                           ; switch strategies available:
 10829                           ; Name         Instructions Cycles
 10830                           ; simple_byte           25    13 (average)
 10831                           ; direct_byte          243     9 (fixed)
 10832                           ; jumptable            263     9 (fixed)
 10833                           ;	Chosen strategy is simple_byte
 10834  1386  0860               	movf	USER_USB_CALLBACK_EVENT_HANDLER@event,w
 10835  1387  3A01               	xorlw	1	; case 1
 10836  1388  1903               	skipnz
 10837  1389  2B75               	goto	i1l3547
 10838  138A  3A03               	xorlw	3	; case 2
 10839  138B  1903               	skipnz
 10840  138C  2BA5               	goto	i1l549
 10841  138D  3A01               	xorlw	1	; case 3
 10842  138E  1903               	skipnz
 10843  138F  2B79               	goto	i1l3549
 10844  1390  3A06               	xorlw	6	; case 5
 10845  1391  1903               	skipnz
 10846  1392  2BA5               	goto	i1l549
 10847  1393  3A77               	xorlw	119	; case 114
 10848  1394  1903               	skipnz
 10849  1395  2BA5               	goto	i1l549
 10850  1396  3A01               	xorlw	1	; case 115
 10851  1397  1903               	skipnz
 10852  1398  2BA5               	goto	i1l549
 10853  1399  3A07               	xorlw	7	; case 116
 10854  139A  1903               	skipnz
 10855  139B  2BA5               	goto	i1l549
 10856  139C  3A01               	xorlw	1	; case 117
 10857  139D  1903               	skipnz
 10858  139E  2BA5               	goto	i1l549
 10859  139F  2BA5               	goto	i1l549
 10860  13A0                     i1l6089:
 10861                           
 10862                           ; Switch size 1, requested type "simple"
 10863                           ; Number of cases is 1, Range of values is 255 to 255
 10864                           ; switch strategies available:
 10865                           ; Name         Instructions Cycles
 10866                           ; simple_byte            4     3 (average)
 10867                           ; direct_byte            7     5 (fixed)
 10868                           ; jumptable            263     9 (fixed)
 10869                           ;	Chosen strategy is simple_byte
 10870  13A0  0860               	movf	USER_USB_CALLBACK_EVENT_HANDLER@event,w
 10871  13A1  3AFF               	xorlw	255	; case 255
 10872  13A2  1903               	skipnz
 10873  13A3  2BA5               	goto	i1l549
 10874  13A4  2BA5               	goto	i1l549
 10875  13A5                     i1l549:
 10876  13A5  0008               	return
 10877  13A6                     __end_of_USER_USB_CALLBACK_EVENT_HANDLER:
 10878                           
 10879                           	psect	text39
 10880  1626                     __ptext39:	
 10881 ;; *************** function _USBCheckCDCRequest *****************
 10882 ;; Defined at:
 10883 ;;		line 147 in file "mcc_generated_files/usb/usb_device_cdc.c"
 10884 ;; Parameters:    Size  Location     Type
 10885 ;;		None
 10886 ;; Auto vars:     Size  Location     Type
 10887 ;;		None
 10888 ;; Return value:  Size  Location     Type
 10889 ;;                  1    wreg      void 
 10890 ;; Registers used:
 10891 ;;		wreg, fsr0l, fsr0h, status,2, status,0
 10892 ;; Tracked objects:
 10893 ;;		On entry : 0/0
 10894 ;;		On exit  : 0/0
 10895 ;;		Unchanged: 0/0
 10896 ;; Data sizes:     COMMON   BANK0   BANK1   BANK2   BANK3   BANK4   BANK5   BANK6   BANK7   BANK8   BANK9  BANK10  BANK1
      +1  BANK12
 10897 ;;      Params:         0       0       0       0       0       0       0       0       0       0       0       0       
      +0       0
 10898 ;;      Locals:         0       0       0       0       0       0       0       0       0       0       0       0       
      +0       0
 10899 ;;      Temps:          2       0       0       0       0       0       0       0       0       0       0       0       
      +0       0
 10900 ;;      Totals:         2       0       0       0       0       0       0       0       0       0       0       0       
      +0       0
 10901 ;;Total ram usage:        2 bytes
 10902 ;; Hardware stack levels used:    1
 10903 ;; This function calls:
 10904 ;;		Nothing
 10905 ;; This function is called by:
 10906 ;;		_USER_USB_CALLBACK_EVENT_HANDLER
 10907 ;; This function uses a non-reentrant model
 10908 ;;
 10909                           
 10910                           
 10911                           ;psect for function _USBCheckCDCRequest
 10912  1626                     _USBCheckCDCRequest:
 10913  1626                     i1l3477:	
 10914                           ;incstack = 0
 10915                           ; Regs used in _USBCheckCDCRequest: [wreg-fsr0h+status,2+status,0]
 10916                           
 10917                           
 10918                           ;mcc_generated_files/usb/usb_device_cdc.c: 152:     if(SetupPkt.Recipient != (0x01)) ret
      +                          urn;
 10919  1626  0020               	movlb	0	; select bank0
 10920  1627  0850               	movf	80,w	;volatile
 10921  1628  391F               	andlw	31
 10922  1629  3A01               	xorlw	1
 10923  162A  1903               	skipnz
 10924  162B  2E2D               	goto	u222_21
 10925  162C  2E2E               	goto	u222_20
 10926  162D                     u222_21:
 10927  162D  2E2F               	goto	i1l3481
 10928  162E                     u222_20:
 10929  162E  2E94               	goto	i1l442
 10930  162F                     i1l3481:
 10931                           
 10932                           ;mcc_generated_files/usb/usb_device_cdc.c: 157:     if(SetupPkt.RequestType != (0x20>>5)
      +                          ) return;
 10933  162F  0E50               	swapf	80,w	;volatile
 10934  1630  0C89               	rrf	9,f
 10935  1631  3903               	andlw	3
 10936  1632  3A01               	xorlw	1
 10937  1633  1903               	skipnz
 10938  1634  2E36               	goto	u223_21
 10939  1635  2E37               	goto	u223_20
 10940  1636                     u223_21:
 10941  1636  2E38               	goto	i1l3485
 10942  1637                     u223_20:
 10943  1637  2E94               	goto	i1l442
 10944  1638                     i1l3485:
 10945                           
 10946                           ;mcc_generated_files/usb/usb_device_cdc.c: 163:     if((SetupPkt.bIntfID != 0x0)&&
 10947  1638  0854               	movf	84,w	;volatile
 10948  1639  1903               	btfsc	3,2
 10949  163A  2E3C               	goto	u224_21
 10950  163B  2E3D               	goto	u224_20
 10951  163C                     u224_21:
 10952  163C  2E7B               	goto	i1l3521
 10953  163D                     u224_20:
 10954  163D                     i1l3487:
 10955  163D  0354               	decf	84,w	;volatile
 10956  163E  1903               	btfsc	3,2
 10957  163F  2E41               	goto	u225_21
 10958  1640  2E42               	goto	u225_20
 10959  1641                     u225_21:
 10960  1641  2E7B               	goto	i1l3521
 10961  1642                     u225_20:
 10962  1642  2E94               	goto	i1l442
 10963  1643                     i1l3491:
 10964                           
 10965                           ;mcc_generated_files/usb/usb_device_cdc.c: 171:             inPipes[0].pSrc.bRam = (uint
      +                          8_t*)&dummy_encapsulated_cmd_response;
 10966  1643  3034               	movlw	low _dummy_encapsulated_cmd_response
 10967  1644  0021               	movlb	1	; select bank1
 10968  1645  00A6               	movwf	_inPipes^(0+128)	;volatile
 10969  1646  3002               	movlw	high _dummy_encapsulated_cmd_response
 10970  1647  00A7               	movwf	(_inPipes+1)^(0+128)	;volatile
 10971  1648                     i1l3493:
 10972                           
 10973                           ;mcc_generated_files/usb/usb_device_cdc.c: 172:             inPipes[0].wCount.Val = 0x08
      +                          ;
 10974  1648  3000               	movlw	0
 10975  1649  00AA               	movwf	((_inPipes+1)^(0+128)+3)	;volatile
 10976  164A  3008               	movlw	8
 10977  164B  00A9               	movwf	(_inPipes^(0+128)+3)	;volatile
 10978  164C                     i1l3495:
 10979                           
 10980                           ;mcc_generated_files/usb/usb_device_cdc.c: 173:             inPipes[0].info.bits.ctrl_tr
      +                          f_mem = 0x01;
 10981  164C  1428               	bsf	(_inPipes^(0+128)+2),0	;volatile
 10982  164D                     i1l3497:
 10983                           
 10984                           ;mcc_generated_files/usb/usb_device_cdc.c: 174:             inPipes[0].info.bits.busy = 
      +                          1;
 10985  164D  17A8               	bsf	(_inPipes^(0+128)+2),7	;volatile
 10986                           
 10987                           ;mcc_generated_files/usb/usb_device_cdc.c: 175:             break;
 10988  164E  2E94               	goto	i1l442
 10989  164F                     i1l3499:
 10990                           
 10991                           ;mcc_generated_files/usb/usb_device_cdc.c: 178:             inPipes[0].pSrc.bRam = (uint
      +                          8_t*)&dummy_encapsulated_cmd_response;
 10992  164F  3034               	movlw	low _dummy_encapsulated_cmd_response
 10993  1650  0021               	movlb	1	; select bank1
 10994  1651  00A6               	movwf	_inPipes^(0+128)	;volatile
 10995  1652  3002               	movlw	high _dummy_encapsulated_cmd_response
 10996  1653  00A7               	movwf	(_inPipes+1)^(0+128)	;volatile
 10997  1654                     i1l3501:
 10998                           
 10999                           ;mcc_generated_files/usb/usb_device_cdc.c: 179:             inPipes[0].info.bits.busy = 
      +                          1;
 11000  1654  17A8               	bsf	(_inPipes^(0+128)+2),7	;volatile
 11001                           
 11002                           ;mcc_generated_files/usb/usb_device_cdc.c: 180:             break;
 11003  1655  2E94               	goto	i1l442
 11004  1656                     i1l3503:
 11005                           
 11006                           ;mcc_generated_files/usb/usb_device_cdc.c: 185:             outPipes[0].wCount.Val = Set
      +                          upPkt.wLength;
 11007  1656  0857               	movf	87,w	;volatile
 11008  1657  0023               	movlb	3	; select bank3
 11009  1658  00B4               	movwf	((_outPipes+1)^(0+384)+3)	;volatile
 11010  1659  0020               	movlb	0	; select bank0
 11011  165A  0856               	movf	86,w	;volatile
 11012  165B  0023               	movlb	3	; select bank3
 11013  165C  00B3               	movwf	(_outPipes^(0+384)+3)	;volatile
 11014                           
 11015                           ;mcc_generated_files/usb/usb_device_cdc.c: 186:             outPipes[0].pDst.bRam = (uin
      +                          t8_t*)&line_coding._byte[0];
 11016  165D  303C               	movlw	(low (_line_coding| (0+512)))& (0+255)
 11017  165E  00F0               	movwf	??_USBCheckCDCRequest
 11018  165F  0870               	movf	??_USBCheckCDCRequest,w
 11019  1660  00B0               	movwf	_outPipes^(0+384)	;volatile
 11020  1661                     i1l3505:
 11021                           
 11022                           ;mcc_generated_files/usb/usb_device_cdc.c: 187:             outPipes[0].pFunc = ((void*)
      +                          0);
 11023  1661  01B5               	clrf	(low ((_outPipes| (0+256)+5)))^(0+128)	;volatile
 11024  1662  01B6               	clrf	((low ((_outPipes| (0+256)+5))+1))^(0+128)	;volatile
 11025  1663                     i1l3507:
 11026                           
 11027                           ;mcc_generated_files/usb/usb_device_cdc.c: 188:             outPipes[0].info.bits.busy =
      +                           1;
 11028  1663  17B2               	bsf	(_outPipes^(0+384)+2),7	;volatile
 11029                           
 11030                           ;mcc_generated_files/usb/usb_device_cdc.c: 189:             break;
 11031  1664  2E94               	goto	i1l442
 11032  1665                     i1l3509:
 11033                           
 11034                           ;mcc_generated_files/usb/usb_device_cdc.c: 192:             { inPipes[0].pSrc.bRam = (ui
      +                          nt8_t*)&line_coding; inPipes[0].wCount.Val = 0x07; inPipes[0].info.Val = 0x40 | 0x80 | 0
      +                          x01; };
 11035  1665  303C               	movlw	low _line_coding
 11036  1666  0021               	movlb	1	; select bank1
 11037  1667  00A6               	movwf	_inPipes^(0+128)	;volatile
 11038  1668  3002               	movlw	high _line_coding
 11039  1669  00A7               	movwf	(_inPipes+1)^(0+128)	;volatile
 11040  166A                     i1l3511:
 11041  166A  3000               	movlw	0
 11042  166B  00AA               	movwf	((_inPipes+1)^(0+128)+3)	;volatile
 11043  166C  3007               	movlw	7
 11044  166D  00A9               	movwf	(_inPipes^(0+128)+3)	;volatile
 11045  166E                     i1l3513:
 11046  166E  30C1               	movlw	193
 11047  166F  00F0               	movwf	??_USBCheckCDCRequest
 11048  1670  0870               	movf	??_USBCheckCDCRequest,w
 11049  1671  00A8               	movwf	(_inPipes^(0+128)+2)	;volatile
 11050                           
 11051                           ;mcc_generated_files/usb/usb_device_cdc.c: 196:             break;
 11052  1672  2E94               	goto	i1l442
 11053  1673                     i1l3515:
 11054                           
 11055                           ;mcc_generated_files/usb/usb_device_cdc.c: 199:             control_signal_bitmap._byte 
      +                          = (uint8_t)SetupPkt.wValue;
 11056  1673  0852               	movf	82,w	;volatile
 11057  1674  00F0               	movwf	??_USBCheckCDCRequest
 11058  1675  0870               	movf	??_USBCheckCDCRequest,w
 11059  1676  0023               	movlb	3	; select bank3
 11060  1677  00DD               	movwf	_control_signal_bitmap^(0+384)
 11061  1678                     i1l3517:
 11062                           
 11063                           ;mcc_generated_files/usb/usb_device_cdc.c: 231:             inPipes[0].info.bits.busy = 
      +                          1;
 11064  1678  0021               	movlb	1	; select bank1
 11065  1679  17A8               	bsf	(_inPipes^(0+128)+2),7	;volatile
 11066                           
 11067                           ;mcc_generated_files/usb/usb_device_cdc.c: 232:             break;
 11068  167A  2E94               	goto	i1l442
 11069  167B                     i1l3521:
 11070  167B  0851               	movf	81,w	;volatile
 11071  167C  00F0               	movwf	??_USBCheckCDCRequest
 11072  167D  01F1               	clrf	??_USBCheckCDCRequest+1
 11073                           
 11074                           ; Switch on 2 bytes has been partitioned into a top level switch of size 1, and 1 sub-sw
      +                          itches
 11075                           ; Switch size 1, requested type "simple"
 11076                           ; Number of cases is 1, Range of values is 0 to 0
 11077                           ; switch strategies available:
 11078                           ; Name         Instructions Cycles
 11079                           ; simple_byte            4     3 (average)
 11080                           ; direct_byte            8     6 (fixed)
 11081                           ; jumptable            260     6 (fixed)
 11082                           ;	Chosen strategy is simple_byte
 11083  167E  0871               	movf	??_USBCheckCDCRequest+1,w
 11084  167F  3A00               	xorlw	0	; case 0
 11085  1680  1903               	skipnz
 11086  1681  2E83               	goto	i1l6091
 11087  1682  2E94               	goto	i1l442
 11088  1683                     i1l6091:
 11089                           
 11090                           ; Switch size 1, requested type "simple"
 11091                           ; Number of cases is 5, Range of values is 0 to 34
 11092                           ; switch strategies available:
 11093                           ; Name         Instructions Cycles
 11094                           ; simple_byte           16     9 (average)
 11095                           ; direct_byte           76     6 (fixed)
 11096                           ; jumptable            260     6 (fixed)
 11097                           ;	Chosen strategy is simple_byte
 11098  1683  0870               	movf	??_USBCheckCDCRequest,w
 11099  1684  3A00               	xorlw	0	; case 0
 11100  1685  1903               	skipnz
 11101  1686  2E43               	goto	i1l3491
 11102  1687  3A01               	xorlw	1	; case 1
 11103  1688  1903               	skipnz
 11104  1689  2E4F               	goto	i1l3499
 11105  168A  3A21               	xorlw	33	; case 32
 11106  168B  1903               	skipnz
 11107  168C  2E56               	goto	i1l3503
 11108  168D  3A01               	xorlw	1	; case 33
 11109  168E  1903               	skipnz
 11110  168F  2E65               	goto	i1l3509
 11111  1690  3A03               	xorlw	3	; case 34
 11112  1691  1903               	skipnz
 11113  1692  2E73               	goto	i1l3515
 11114  1693  2E94               	goto	i1l442
 11115  1694                     i1l442:
 11116  1694  0008               	return
 11117  1695                     __end_of_USBCheckCDCRequest:
 11118                           
 11119                           	psect	text40
 11120  13A6                     __ptext40:	
 11121 ;; *************** function _CDCInitEP *****************
 11122 ;; Defined at:
 11123 ;;		line 294 in file "mcc_generated_files/usb/usb_device_cdc.c"
 11124 ;; Parameters:    Size  Location     Type
 11125 ;;		None
 11126 ;; Auto vars:     Size  Location     Type
 11127 ;;		None
 11128 ;; Return value:  Size  Location     Type
 11129 ;;                  1    wreg      void 
 11130 ;; Registers used:
 11131 ;;		wreg, fsr1l, fsr1h, status,2, status,0, pclath, cstack
 11132 ;; Tracked objects:
 11133 ;;		On entry : 0/0
 11134 ;;		On exit  : 0/0
 11135 ;;		Unchanged: 0/0
 11136 ;; Data sizes:     COMMON   BANK0   BANK1   BANK2   BANK3   BANK4   BANK5   BANK6   BANK7   BANK8   BANK9  BANK10  BANK1
      +1  BANK12
 11137 ;;      Params:         0       0       0       0       0       0       0       0       0       0       0       0       
      +0       0
 11138 ;;      Locals:         0       0       0       0       0       0       0       0       0       0       0       0       
      +0       0
 11139 ;;      Temps:          1       0       0       0       0       0       0       0       0       0       0       0       
      +0       0
 11140 ;;      Totals:         1       0       0       0       0       0       0       0       0       0       0       0       
      +0       0
 11141 ;;Total ram usage:        1 bytes
 11142 ;; Hardware stack levels used:    1
 11143 ;; Hardware stack levels required when called:    2
 11144 ;; This function calls:
 11145 ;;		_USBEnableEndpoint
 11146 ;;		_USBTransferOnePacket
 11147 ;; This function is called by:
 11148 ;;		_USER_USB_CALLBACK_EVENT_HANDLER
 11149 ;; This function uses a non-reentrant model
 11150 ;;
 11151                           
 11152                           
 11153                           ;psect for function _CDCInitEP
 11154  13A6                     _CDCInitEP:
 11155  13A6                     i1l3527:	
 11156                           ;incstack = 0
 11157                           ; Regs used in _CDCInitEP: [wreg+fsr1l+fsr1h+status,2+status,0+pclath+cstack]
 11158                           
 11159                           
 11160                           ;mcc_generated_files/usb/usb_device_cdc.c: 297:     line_coding.dwDTERate = 19200;
 11161  13A6  3000               	movlw	0
 11162  13A7  0024               	movlb	4	; select bank4
 11163  13A8  00BF               	movwf	(_line_coding+3)^(0+512)
 11164  13A9  3000               	movlw	0
 11165  13AA  00BE               	movwf	(_line_coding+2)^(0+512)
 11166  13AB  304B               	movlw	75
 11167  13AC  00BD               	movwf	(_line_coding+1)^(0+512)
 11168  13AD  3000               	movlw	0
 11169  13AE  00BC               	movwf	_line_coding^(0+512)
 11170  13AF                     i1l3529:
 11171                           
 11172                           ;mcc_generated_files/usb/usb_device_cdc.c: 298:     line_coding.bCharFormat = 0x00;
 11173  13AF  01C0               	clrf	(_line_coding^(0+512)+4)
 11174  13B0                     i1l3531:
 11175                           
 11176                           ;mcc_generated_files/usb/usb_device_cdc.c: 299:     line_coding.bParityType = 0x00;
 11177  13B0  01C1               	clrf	(_line_coding^(0+512)+5)
 11178                           
 11179                           ;mcc_generated_files/usb/usb_device_cdc.c: 300:     line_coding.bDataBits = 0x08;
 11180  13B1  3008               	movlw	8
 11181  13B2  00FD               	movwf	??_CDCInitEP
 11182  13B3  087D               	movf	??_CDCInitEP,w
 11183  13B4  00C2               	movwf	(_line_coding^(0+512)+6)
 11184  13B5                     i1l3533:
 11185                           
 11186                           ;mcc_generated_files/usb/usb_device_cdc.c: 302:     cdc_rx_len = 0;
 11187  13B5  0023               	movlb	3	; select bank3
 11188  13B6  01E0               	clrf	_cdc_rx_len^(0+384)
 11189  13B7                     i1l3535:
 11190                           
 11191                           ;mcc_generated_files/usb/usb_device_cdc.c: 315:     USBEnableEndpoint(1,0x02|0x10|0x08);
 11192  13B7  301A               	movlw	26
 11193  13B8  00FD               	movwf	??_CDCInitEP
 11194  13B9  087D               	movf	??_CDCInitEP,w
 11195  13BA  00F7               	movwf	USBEnableEndpoint@options
 11196  13BB  3001               	movlw	1
 11197  13BC  3192  22F6  3193   	fcall	_USBEnableEndpoint
 11198  13BF                     i1l3537:
 11199                           
 11200                           ;mcc_generated_files/usb/usb_device_cdc.c: 316:     USBEnableEndpoint(2,0x02|0x04|0x10|0
      +                          x08);
 11201  13BF  301E               	movlw	30
 11202  13C0  00FD               	movwf	??_CDCInitEP
 11203  13C1  087D               	movf	??_CDCInitEP,w
 11204  13C2  00F7               	movwf	USBEnableEndpoint@options
 11205  13C3  3002               	movlw	2
 11206  13C4  3192  22F6  3193   	fcall	_USBEnableEndpoint
 11207  13C7                     i1l3539:
 11208                           
 11209                           ;mcc_generated_files/usb/usb_device_cdc.c: 318:     CDCDataOutHandle = USBTransferOnePac
      +                          ket(2,0,(uint8_t*)&cdc_data_rx,sizeof(cdc_data_rx));
 11210  13C7  01F0               	clrf	USBTransferOnePacket@dir
 11211  13C8  30C0               	movlw	192
 11212  13C9  00F1               	movwf	USBTransferOnePacket@data
 11213  13CA  3020               	movlw	32
 11214  13CB  00F2               	movwf	USBTransferOnePacket@data+1
 11215  13CC  3040               	movlw	64
 11216  13CD  00FD               	movwf	??_CDCInitEP
 11217  13CE  087D               	movf	??_CDCInitEP,w
 11218  13CF  00F3               	movwf	USBTransferOnePacket@len
 11219  13D0  3002               	movlw	2
 11220  13D1  3188  2083  3193   	fcall	_USBTransferOnePacket
 11221  13D4  0871               	movf	?_USBTransferOnePacket+1,w
 11222  13D5  0023               	movlb	3	; select bank3
 11223  13D6  00D0               	movwf	(_CDCDataOutHandle+1)^(0+384)
 11224  13D7  0870               	movf	?_USBTransferOnePacket,w
 11225  13D8  00CF               	movwf	_CDCDataOutHandle^(0+384)
 11226  13D9                     i1l3541:
 11227                           
 11228                           ;mcc_generated_files/usb/usb_device_cdc.c: 319:     CDCDataInHandle = ((void*)0);
 11229  13D9  01CD               	clrf	_CDCDataInHandle^(0+384)
 11230  13DA  01CE               	clrf	(_CDCDataInHandle+1)^(0+384)
 11231  13DB                     i1l3543:
 11232                           
 11233                           ;mcc_generated_files/usb/usb_device_cdc.c: 346:     cdc_trf_state = 0;
 11234  13DB  0021               	movlb	1	; select bank1
 11235  13DC  01AF               	clrf	_cdc_trf_state^(0+128)
 11236  13DD                     i1l455:
 11237  13DD  0008               	return
 11238  13DE                     __end_of_CDCInitEP:
 11239                           
 11240                           	psect	text41
 11241  0883                     __ptext41:	
 11242 ;; *************** function _USBTransferOnePacket *****************
 11243 ;; Defined at:
 11244 ;;		line 999 in file "mcc_generated_files/usb/usb_device.c"
 11245 ;; Parameters:    Size  Location     Type
 11246 ;;  ep              1    wreg     unsigned char 
 11247 ;;  dir             1    0[COMMON] unsigned char 
 11248 ;;  data            2    1[COMMON] PTR unsigned char 
 11249 ;;		 -> cdc_data_tx(64), cdc_data_rx(64), NULL(0), 
 11250 ;;  len             1    3[COMMON] unsigned char 
 11251 ;; Auto vars:     Size  Location     Type
 11252 ;;  ep              1    8[COMMON] unsigned char 
 11253 ;;  handle          2    9[COMMON] PTR volatile struct __BD
 11254 ;;		 -> RAM(4096), NULL(0), BDT(48), 
 11255 ;; Return value:  Size  Location     Type
 11256 ;;                  2    0[COMMON] PTR void 
 11257 ;; Registers used:
 11258 ;;		wreg, fsr1l, fsr1h, status,2, status,0
 11259 ;; Tracked objects:
 11260 ;;		On entry : 0/0
 11261 ;;		On exit  : 0/0
 11262 ;;		Unchanged: 0/0
 11263 ;; Data sizes:     COMMON   BANK0   BANK1   BANK2   BANK3   BANK4   BANK5   BANK6   BANK7   BANK8   BANK9  BANK10  BANK1
      +1  BANK12
 11264 ;;      Params:         4       0       0       0       0       0       0       0       0       0       0       0       
      +0       0
 11265 ;;      Locals:         3       0       0       0       0       0       0       0       0       0       0       0       
      +0       0
 11266 ;;      Temps:          4       0       0       0       0       0       0       0       0       0       0       0       
      +0       0
 11267 ;;      Totals:        11       0       0       0       0       0       0       0       0       0       0       0       
      +0       0
 11268 ;;Total ram usage:       11 bytes
 11269 ;; Hardware stack levels used:    1
 11270 ;; This function calls:
 11271 ;;		Nothing
 11272 ;; This function is called by:
 11273 ;;		_CDCInitEP
 11274 ;;		_USBCDCEventHandler
 11275 ;;		_getsUSBUSART
 11276 ;;		_CDCTxService
 11277 ;; This function uses a non-reentrant model
 11278 ;;
 11279                           
 11280                           
 11281                           ;psect for function _USBTransferOnePacket
 11282  0883                     _USBTransferOnePacket:
 11283                           
 11284                           ;incstack = 0
 11285                           ; Regs used in _USBTransferOnePacket: [wreg+fsr1l+fsr1h+status,2+status,0]
 11286                           ;USBTransferOnePacket@ep stored from wreg
 11287  0883  00F8               	movwf	USBTransferOnePacket@ep
 11288  0884                     i1l3449:
 11289                           
 11290                           ;mcc_generated_files/usb/usb_device.c: 999: void* USBTransferOnePacket(uint8_t ep,uint8_
      +                          t dir,uint8_t* data,uint8_t len);mcc_generated_files/usb/usb_device.c: 1000: {;mcc_gener
      +                          ated_files/usb/usb_device.c: 1001:     volatile BDT_ENTRY* handle;;mcc_generated_files/u
      +                          sb/usb_device.c: 1004:     if(dir != 0)
 11291  0884  0870               	movf	USBTransferOnePacket@dir,w
 11292  0885  1903               	btfsc	3,2
 11293  0886  2888               	goto	u219_21
 11294  0887  2889               	goto	u219_20
 11295  0888                     u219_21:
 11296  0888  2892               	goto	i1l3453
 11297  0889                     u219_20:
 11298  0889                     i1l3451:
 11299                           
 11300                           ;mcc_generated_files/usb/usb_device.c: 1005:     {;mcc_generated_files/usb/usb_device.c:
      +                           1007:         handle = pBDTEntryIn[ep];
 11301  0889  3578               	lslf	USBTransferOnePacket@ep,w
 11302  088A  3EA0               	addlw	(low (_pBDTEntryIn| 0))& (0+255)
 11303  088B  0086               	movwf	6
 11304  088C  0187               	clrf	7
 11305  088D  3F40               	moviw [0]fsr1
 11306  088E  00F9               	movwf	USBTransferOnePacket@handle
 11307  088F  3F41               	moviw [1]fsr1
 11308  0890  00FA               	movwf	USBTransferOnePacket@handle+1
 11309                           
 11310                           ;mcc_generated_files/usb/usb_device.c: 1008:     }
 11311  0891  289B               	goto	i1l3455
 11312  0892                     i1l3453:
 11313                           
 11314                           ;mcc_generated_files/usb/usb_device.c: 1010:     {;mcc_generated_files/usb/usb_device.c:
      +                           1012:         handle = pBDTEntryOut[ep];
 11315  0892  3578               	lslf	USBTransferOnePacket@ep,w
 11316  0893  3EB7               	addlw	(low (_pBDTEntryOut| (0+256)))& (0+255)
 11317  0894  0086               	movwf	6
 11318  0895  3001               	movlw	1	; select bank3/4
 11319  0896  0087               	movwf	7
 11320  0897  3F40               	moviw [0]fsr1
 11321  0898  00F9               	movwf	USBTransferOnePacket@handle
 11322  0899  3F41               	moviw [1]fsr1
 11323  089A  00FA               	movwf	USBTransferOnePacket@handle+1
 11324  089B                     i1l3455:
 11325                           
 11326                           ;mcc_generated_files/usb/usb_device.c: 1017:     if(handle == 0)
 11327  089B  0879               	movf	USBTransferOnePacket@handle,w
 11328  089C  047A               	iorwf	USBTransferOnePacket@handle+1,w
 11329  089D  1D03               	btfss	3,2
 11330  089E  28A0               	goto	u220_21
 11331  089F  28A1               	goto	u220_20
 11332  08A0                     u220_21:
 11333  08A0  28A4               	goto	i1l3461
 11334  08A1                     u220_20:
 11335  08A1                     i1l3457:
 11336                           
 11337                           ;mcc_generated_files/usb/usb_device.c: 1018:     {;mcc_generated_files/usb/usb_device.c:
      +                           1019:         return 0;
 11338  08A1  01F0               	clrf	?_USBTransferOnePacket
 11339  08A2  01F1               	clrf	?_USBTransferOnePacket+1
 11340  08A3  2909               	goto	i1l177
 11341  08A4                     i1l3461:
 11342                           
 11343                           ;mcc_generated_files/usb/usb_device.c: 1033:     handle->ADR = (((uint16_t)(data)) & 0x7
      +                          FFF);
 11344  08A4  30FF               	movlw	255
 11345  08A5  0571               	andwf	USBTransferOnePacket@data,w
 11346  08A6  00F4               	movwf	??_USBTransferOnePacket
 11347  08A7  307F               	movlw	127
 11348  08A8  0572               	andwf	USBTransferOnePacket@data+1,w
 11349  08A9  00F5               	movwf	??_USBTransferOnePacket+1
 11350  08AA  0879               	movf	USBTransferOnePacket@handle,w
 11351  08AB  0086               	movwf	6
 11352  08AC  087A               	movf	USBTransferOnePacket@handle+1,w
 11353  08AD  0087               	movwf	7
 11354  08AE  3142               	addfsr 1,2
 11355  08AF  0874               	movf	??_USBTransferOnePacket,w
 11356  08B0  3FC0               	movwi [0]fsr1
 11357  08B1  0875               	movf	??_USBTransferOnePacket+1,w
 11358  08B2  3FC1               	movwi [1]fsr1
 11359  08B3                     i1l3463:
 11360                           
 11361                           ;mcc_generated_files/usb/usb_device.c: 1034:     handle->CNT = len;
 11362  08B3  0879               	movf	USBTransferOnePacket@handle,w
 11363  08B4  3E01               	addlw	1
 11364  08B5  00F4               	movwf	??_USBTransferOnePacket
 11365  08B6  3000               	movlw	0
 11366  08B7  3D7A               	addwfc	USBTransferOnePacket@handle+1,w
 11367  08B8  00F5               	movwf	??_USBTransferOnePacket+1
 11368  08B9  0874               	movf	??_USBTransferOnePacket,w
 11369  08BA  0086               	movwf	6
 11370  08BB  0875               	movf	??_USBTransferOnePacket+1,w
 11371  08BC  0087               	movwf	7
 11372  08BD  0873               	movf	USBTransferOnePacket@len,w
 11373  08BE  0081               	movwf	1
 11374  08BF                     i1l3465:
 11375                           
 11376                           ;mcc_generated_files/usb/usb_device.c: 1035:     handle->STAT.Val &= 0x40;
 11377  08BF  3040               	movlw	64
 11378  08C0  00F4               	movwf	??_USBTransferOnePacket
 11379  08C1  0879               	movf	USBTransferOnePacket@handle,w
 11380  08C2  0086               	movwf	6
 11381  08C3  087A               	movf	USBTransferOnePacket@handle+1,w
 11382  08C4  0087               	movwf	7
 11383  08C5  0874               	movf	??_USBTransferOnePacket,w
 11384  08C6  0581               	andwf	1,f
 11385                           
 11386                           ;mcc_generated_files/usb/usb_device.c: 1036:     handle->STAT.Val |= (0x08 & 0x08);
 11387  08C7  0879               	movf	USBTransferOnePacket@handle,w
 11388  08C8  0086               	movwf	6
 11389  08C9  087A               	movf	USBTransferOnePacket@handle+1,w
 11390  08CA  0087               	movwf	7
 11391  08CB  1581               	bsf	1,3
 11392                           
 11393                           ;mcc_generated_files/usb/usb_device.c: 1037:     handle->STAT.Val |= 0x80;
 11394  08CC  0879               	movf	USBTransferOnePacket@handle,w
 11395  08CD  0086               	movwf	6
 11396  08CE  087A               	movf	USBTransferOnePacket@handle+1,w
 11397  08CF  0087               	movwf	7
 11398  08D0  1781               	bsf	1,7
 11399  08D1                     i1l3467:
 11400                           
 11401                           ;mcc_generated_files/usb/usb_device.c: 1040:     if(dir != 0)
 11402  08D1  0870               	movf	USBTransferOnePacket@dir,w
 11403  08D2  1903               	btfsc	3,2
 11404  08D3  28D5               	goto	u221_21
 11405  08D4  28D6               	goto	u221_20
 11406  08D5                     u221_21:
 11407  08D5  28ED               	goto	i1l3471
 11408  08D6                     u221_20:
 11409  08D6                     i1l3469:
 11410                           
 11411                           ;mcc_generated_files/usb/usb_device.c: 1041:     {;mcc_generated_files/usb/usb_device.c:
      +                           1043:         pBDTEntryIn[ep] = (BDT_ENTRY*)(((uint16_t)pBDTEntryIn[ep]) ^ 0x0004);
 11412  08D6  3578               	lslf	USBTransferOnePacket@ep,w
 11413  08D7  3EA0               	addlw	(low (_pBDTEntryIn| 0))& (0+255)
 11414  08D8  0086               	movwf	6
 11415  08D9  0187               	clrf	7
 11416  08DA  3F40               	moviw [0]fsr1
 11417  08DB  00F4               	movwf	??_USBTransferOnePacket
 11418  08DC  3F41               	moviw [1]fsr1
 11419  08DD  00F5               	movwf	??_USBTransferOnePacket+1
 11420  08DE  3004               	movlw	4
 11421  08DF  0674               	xorwf	??_USBTransferOnePacket,w
 11422  08E0  00F6               	movwf	??_USBTransferOnePacket+2
 11423  08E1  3000               	movlw	0
 11424  08E2  0675               	xorwf	??_USBTransferOnePacket+1,w
 11425  08E3  00F7               	movwf	??_USBTransferOnePacket+3
 11426  08E4  3578               	lslf	USBTransferOnePacket@ep,w
 11427  08E5  3EA0               	addlw	(low (_pBDTEntryIn| 0))& (0+255)
 11428  08E6  0086               	movwf	6
 11429  08E7  0187               	clrf	7
 11430  08E8  0876               	movf	??_USBTransferOnePacket+2,w
 11431  08E9  3FC0               	movwi [0]fsr1
 11432  08EA  0877               	movf	??_USBTransferOnePacket+3,w
 11433  08EB  3FC1               	movwi [1]fsr1
 11434                           
 11435                           ;mcc_generated_files/usb/usb_device.c: 1044:     }
 11436  08EC  2905               	goto	i1l3473
 11437  08ED                     i1l3471:
 11438                           
 11439                           ;mcc_generated_files/usb/usb_device.c: 1046:     {;mcc_generated_files/usb/usb_device.c:
      +                           1048:         pBDTEntryOut[ep] = (BDT_ENTRY*)(((uint16_t)pBDTEntryOut[ep]) ^ 0x0004);
 11440  08ED  3578               	lslf	USBTransferOnePacket@ep,w
 11441  08EE  3EB7               	addlw	(low (_pBDTEntryOut| (0+256)))& (0+255)
 11442  08EF  0086               	movwf	6
 11443  08F0  3001               	movlw	1	; select bank3/4
 11444  08F1  0087               	movwf	7
 11445  08F2  3F40               	moviw [0]fsr1
 11446  08F3  00F4               	movwf	??_USBTransferOnePacket
 11447  08F4  3F41               	moviw [1]fsr1
 11448  08F5  00F5               	movwf	??_USBTransferOnePacket+1
 11449  08F6  3004               	movlw	4
 11450  08F7  0674               	xorwf	??_USBTransferOnePacket,w
 11451  08F8  00F6               	movwf	??_USBTransferOnePacket+2
 11452  08F9  3000               	movlw	0
 11453  08FA  0675               	xorwf	??_USBTransferOnePacket+1,w
 11454  08FB  00F7               	movwf	??_USBTransferOnePacket+3
 11455  08FC  3578               	lslf	USBTransferOnePacket@ep,w
 11456  08FD  3EB7               	addlw	(low (_pBDTEntryOut| (0+256)))& (0+255)
 11457  08FE  0086               	movwf	6
 11458  08FF  3001               	movlw	1	; select bank3/4
 11459  0900  0087               	movwf	7
 11460  0901  0876               	movf	??_USBTransferOnePacket+2,w
 11461  0902  3FC0               	movwi [0]fsr1
 11462  0903  0877               	movf	??_USBTransferOnePacket+3,w
 11463  0904  3FC1               	movwi [1]fsr1
 11464  0905                     i1l3473:
 11465                           
 11466                           ;mcc_generated_files/usb/usb_device.c: 1050:     return (void*)handle;
 11467  0905  087A               	movf	USBTransferOnePacket@handle+1,w
 11468  0906  00F1               	movwf	?_USBTransferOnePacket+1
 11469  0907  0879               	movf	USBTransferOnePacket@handle,w
 11470  0908  00F0               	movwf	?_USBTransferOnePacket
 11471  0909                     i1l177:
 11472  0909  0008               	return
 11473  090A                     __end_of_USBTransferOnePacket:
 11474                           
 11475                           	psect	text42
 11476  12F6                     __ptext42:	
 11477 ;; *************** function _USBEnableEndpoint *****************
 11478 ;; Defined at:
 11479 ;;		line 882 in file "mcc_generated_files/usb/usb_device.c"
 11480 ;; Parameters:    Size  Location     Type
 11481 ;;  ep              1    wreg     unsigned char 
 11482 ;;  options         1    7[COMMON] unsigned char 
 11483 ;; Auto vars:     Size  Location     Type
 11484 ;;  ep              1   12[COMMON] unsigned char 
 11485 ;;  p               2   10[COMMON] PTR unsigned char 
 11486 ;;		 -> UEP0(1), 
 11487 ;; Return value:  Size  Location     Type
 11488 ;;                  1    wreg      void 
 11489 ;; Registers used:
 11490 ;;		wreg, fsr1l, fsr1h, status,2, status,0, pclath, cstack
 11491 ;; Tracked objects:
 11492 ;;		On entry : 0/0
 11493 ;;		On exit  : 0/0
 11494 ;;		Unchanged: 0/0
 11495 ;; Data sizes:     COMMON   BANK0   BANK1   BANK2   BANK3   BANK4   BANK5   BANK6   BANK7   BANK8   BANK9  BANK10  BANK1
      +1  BANK12
 11496 ;;      Params:         1       0       0       0       0       0       0       0       0       0       0       0       
      +0       0
 11497 ;;      Locals:         3       0       0       0       0       0       0       0       0       0       0       0       
      +0       0
 11498 ;;      Temps:          2       0       0       0       0       0       0       0       0       0       0       0       
      +0       0
 11499 ;;      Totals:         6       0       0       0       0       0       0       0       0       0       0       0       
      +0       0
 11500 ;;Total ram usage:        6 bytes
 11501 ;; Hardware stack levels used:    1
 11502 ;; Hardware stack levels required when called:    1
 11503 ;; This function calls:
 11504 ;;		_USBConfigureEndpoint
 11505 ;; This function is called by:
 11506 ;;		_CDCInitEP
 11507 ;; This function uses a non-reentrant model
 11508 ;;
 11509                           
 11510                           
 11511                           ;psect for function _USBEnableEndpoint
 11512  12F6                     _USBEnableEndpoint:
 11513                           
 11514                           ;incstack = 0
 11515                           ; Regs used in _USBEnableEndpoint: [wreg+fsr1l+fsr1h+status,2+status,0+pclath+cstack]
 11516                           ;USBEnableEndpoint@ep stored from wreg
 11517  12F6  00FC               	movwf	USBEnableEndpoint@ep
 11518  12F7                     i1l3437:
 11519                           
 11520                           ;mcc_generated_files/usb/usb_device.c: 882: void USBEnableEndpoint(uint8_t ep, uint8_t o
      +                          ptions);mcc_generated_files/usb/usb_device.c: 883: {;mcc_generated_files/usb/usb_device.
      +                          c: 884:     unsigned char* p;;mcc_generated_files/usb/usb_device.c: 888:     if(options 
      +                          & 0x04)
 11521  12F7  1D77               	btfss	USBEnableEndpoint@options,2
 11522  12F8  2AFA               	goto	u217_21
 11523  12F9  2AFB               	goto	u217_20
 11524  12FA                     u217_21:
 11525  12FA  2B00               	goto	i1l3441
 11526  12FB                     u217_20:
 11527  12FB                     i1l3439:
 11528                           
 11529                           ;mcc_generated_files/usb/usb_device.c: 889:     {;mcc_generated_files/usb/usb_device.c: 
      +                          890:         USBConfigureEndpoint(ep, 0);
 11530  12FB  01F0               	clrf	USBConfigureEndpoint@direction
 11531  12FC  087C               	movf	USBEnableEndpoint@ep,w
 11532  12FD  3194  2418  3192   	fcall	_USBConfigureEndpoint
 11533  1300                     i1l3441:
 11534                           
 11535                           ;mcc_generated_files/usb/usb_device.c: 892:     if(options & 0x02)
 11536  1300  1CF7               	btfss	USBEnableEndpoint@options,1
 11537  1301  2B03               	goto	u218_21
 11538  1302  2B04               	goto	u218_20
 11539  1303                     u218_21:
 11540  1303  2B0A               	goto	i1l3445
 11541  1304                     u218_20:
 11542  1304                     i1l3443:
 11543                           
 11544                           ;mcc_generated_files/usb/usb_device.c: 893:     {;mcc_generated_files/usb/usb_device.c: 
      +                          894:         USBConfigureEndpoint(ep, 1);
 11545  1304  01F0               	clrf	USBConfigureEndpoint@direction
 11546  1305  0AF0               	incf	USBConfigureEndpoint@direction,f
 11547  1306  087C               	movf	USBEnableEndpoint@ep,w
 11548  1307  3194  2418  3192   	fcall	_USBConfigureEndpoint
 11549  130A                     i1l3445:
 11550                           
 11551                           ;mcc_generated_files/usb/usb_device.c: 903:         p = (unsigned char*)(&UEP0+ep);
 11552  130A  087C               	movf	USBEnableEndpoint@ep,w
 11553  130B  3E98               	addlw	152
 11554  130C  00F8               	movwf	??_USBEnableEndpoint
 11555  130D  01F9               	clrf	??_USBEnableEndpoint+1
 11556  130E  300E               	movlw	14
 11557  130F  3DF9               	addwfc	??_USBEnableEndpoint+1,f
 11558  1310  0878               	movf	??_USBEnableEndpoint,w
 11559  1311  00FA               	movwf	USBEnableEndpoint@p
 11560  1312  0879               	movf	??_USBEnableEndpoint+1,w
 11561  1313  00FB               	movwf	USBEnableEndpoint@p+1
 11562  1314                     i1l3447:
 11563                           
 11564                           ;mcc_generated_files/usb/usb_device.c: 905:     *p = options;
 11565  1314  087A               	movf	USBEnableEndpoint@p,w
 11566  1315  0086               	movwf	6
 11567  1316  087B               	movf	USBEnableEndpoint@p+1,w
 11568  1317  0087               	movwf	7
 11569  1318  0877               	movf	USBEnableEndpoint@options,w
 11570  1319  0081               	movwf	1
 11571  131A                     i1l171:
 11572  131A  0008               	return
 11573  131B                     __end_of_USBEnableEndpoint:
 11574                           
 11575                           	psect	text43
 11576  1418                     __ptext43:	
 11577 ;; *************** function _USBConfigureEndpoint *****************
 11578 ;; Defined at:
 11579 ;;		line 1547 in file "mcc_generated_files/usb/usb_device.c"
 11580 ;; Parameters:    Size  Location     Type
 11581 ;;  EPNum           1    wreg     unsigned char 
 11582 ;;  direction       1    0[COMMON] unsigned char 
 11583 ;; Auto vars:     Size  Location     Type
 11584 ;;  EPNum           1    5[COMMON] unsigned char 
 11585 ;;  handle          1    6[COMMON] PTR volatile struct __BD
 11586 ;;		 -> BDT(48), 
 11587 ;; Return value:  Size  Location     Type
 11588 ;;                  1    wreg      void 
 11589 ;; Registers used:
 11590 ;;		wreg, fsr1l, fsr1h, status,2, status,0
 11591 ;; Tracked objects:
 11592 ;;		On entry : 0/0
 11593 ;;		On exit  : 0/0
 11594 ;;		Unchanged: 0/0
 11595 ;; Data sizes:     COMMON   BANK0   BANK1   BANK2   BANK3   BANK4   BANK5   BANK6   BANK7   BANK8   BANK9  BANK10  BANK1
      +1  BANK12
 11596 ;;      Params:         1       0       0       0       0       0       0       0       0       0       0       0       
      +0       0
 11597 ;;      Locals:         2       0       0       0       0       0       0       0       0       0       0       0       
      +0       0
 11598 ;;      Temps:          4       0       0       0       0       0       0       0       0       0       0       0       
      +0       0
 11599 ;;      Totals:         7       0       0       0       0       0       0       0       0       0       0       0       
      +0       0
 11600 ;;Total ram usage:        7 bytes
 11601 ;; Hardware stack levels used:    1
 11602 ;; This function calls:
 11603 ;;		Nothing
 11604 ;; This function is called by:
 11605 ;;		_USBEnableEndpoint
 11606 ;; This function uses a non-reentrant model
 11607 ;;
 11608                           
 11609                           
 11610                           ;psect for function _USBConfigureEndpoint
 11611  1418                     _USBConfigureEndpoint:
 11612                           
 11613                           ;incstack = 0
 11614                           ; Regs used in _USBConfigureEndpoint: [wreg+fsr1l+fsr1h+status,2+status,0]
 11615                           ;USBConfigureEndpoint@EPNum stored from wreg
 11616  1418  00F5               	movwf	USBConfigureEndpoint@EPNum
 11617  1419                     i1l3421:
 11618                           
 11619                           ;mcc_generated_files/usb/usb_device.c: 1547: static void USBConfigureEndpoint(uint8_t EP
      +                          Num, uint8_t direction);mcc_generated_files/usb/usb_device.c: 1548: {;mcc_generated_file
      +                          s/usb/usb_device.c: 1549:     volatile BDT_ENTRY* handle;;mcc_generated_files/usb/usb_de
      +                          vice.c: 1553:     handle = (volatile BDT_ENTRY*)&BDT[0];
 11620  1419  3020               	movlw	32
 11621  141A  00F1               	movwf	??_USBConfigureEndpoint
 11622  141B  0871               	movf	??_USBConfigureEndpoint,w
 11623  141C  00F6               	movwf	USBConfigureEndpoint@handle
 11624  141D                     i1l3423:
 11625                           
 11626                           ;mcc_generated_files/usb/usb_device.c: 1554:     handle += (4*EPNum+2*direction+0u);
 11627  141D  0870               	movf	USBConfigureEndpoint@direction,w
 11628  141E  00F1               	movwf	??_USBConfigureEndpoint
 11629  141F  3001               	movlw	1
 11630  1420                     u213_25:
 11631  1420  35F1               	lslf	??_USBConfigureEndpoint,f
 11632  1421  0B89               	decfsz	9,f
 11633  1422  2C20               	goto	u213_25
 11634  1423  0875               	movf	USBConfigureEndpoint@EPNum,w
 11635  1424  00F2               	movwf	??_USBConfigureEndpoint+1
 11636  1425  3001               	movlw	1
 11637  1426                     u214_25:
 11638  1426  35F2               	lslf	??_USBConfigureEndpoint+1,f
 11639  1427  3EFF               	addlw	-1
 11640  1428  1D03               	skipz
 11641  1429  2C26               	goto	u214_25
 11642  142A  3572               	lslf	??_USBConfigureEndpoint+1,w
 11643  142B  0771               	addwf	??_USBConfigureEndpoint,w
 11644  142C  00F3               	movwf	??_USBConfigureEndpoint+2
 11645  142D  3001               	movlw	1
 11646  142E                     u215_25:
 11647  142E  35F3               	lslf	??_USBConfigureEndpoint+2,f
 11648  142F  3EFF               	addlw	-1
 11649  1430  1D03               	skipz
 11650  1431  2C2E               	goto	u215_25
 11651  1432  3573               	lslf	??_USBConfigureEndpoint+2,w
 11652  1433  00F4               	movwf	??_USBConfigureEndpoint+3
 11653  1434  0874               	movf	??_USBConfigureEndpoint+3,w
 11654  1435  07F6               	addwf	USBConfigureEndpoint@handle,f
 11655  1436                     i1l3425:
 11656                           
 11657                           ;mcc_generated_files/usb/usb_device.c: 1556:     handle->STAT.UOWN = 0;
 11658  1436  0876               	movf	USBConfigureEndpoint@handle,w
 11659  1437  0086               	movwf	6
 11660  1438  0187               	clrf	7
 11661  1439  1381               	bcf	1,7
 11662  143A                     i1l3427:
 11663                           
 11664                           ;mcc_generated_files/usb/usb_device.c: 1561:     if(direction == 0)
 11665  143A  0870               	movf	USBConfigureEndpoint@direction,w
 11666  143B  1D03               	btfss	3,2
 11667  143C  2C3E               	goto	u216_21
 11668  143D  2C3F               	goto	u216_20
 11669  143E                     u216_21:
 11670  143E  2C49               	goto	i1l3431
 11671  143F                     u216_20:
 11672  143F                     i1l3429:
 11673                           
 11674                           ;mcc_generated_files/usb/usb_device.c: 1562:     {;mcc_generated_files/usb/usb_device.c:
      +                           1563:         pBDTEntryOut[EPNum] = handle;
 11675  143F  3575               	lslf	USBConfigureEndpoint@EPNum,w
 11676  1440  3EB7               	addlw	(low (_pBDTEntryOut| (0+256)))& (0+255)
 11677  1441  0086               	movwf	6
 11678  1442  3001               	movlw	1	; select bank3/4
 11679  1443  0087               	movwf	7
 11680  1444  0876               	movf	USBConfigureEndpoint@handle,w
 11681  1445  3FC0               	movwi [0]fsr1
 11682  1446  3000               	movlw	0
 11683  1447  3FC1               	movwi [1]fsr1
 11684                           
 11685                           ;mcc_generated_files/usb/usb_device.c: 1564:     }
 11686  1448  2C51               	goto	i1l3433
 11687  1449                     i1l3431:
 11688                           
 11689                           ;mcc_generated_files/usb/usb_device.c: 1566:     {;mcc_generated_files/usb/usb_device.c:
      +                           1567:         pBDTEntryIn[EPNum] = handle;
 11690  1449  3575               	lslf	USBConfigureEndpoint@EPNum,w
 11691  144A  3EA0               	addlw	(low (_pBDTEntryIn| 0))& (0+255)
 11692  144B  0086               	movwf	6
 11693  144C  0187               	clrf	7
 11694  144D  0876               	movf	USBConfigureEndpoint@handle,w
 11695  144E  3FC0               	movwi [0]fsr1
 11696  144F  3000               	movlw	0
 11697  1450  3FC1               	movwi [1]fsr1
 11698  1451                     i1l3433:
 11699                           
 11700                           ;mcc_generated_files/usb/usb_device.c: 1571:         handle->STAT.DTS = 0;
 11701  1451  0876               	movf	USBConfigureEndpoint@handle,w
 11702  1452  0086               	movwf	6
 11703  1453  0187               	clrf	7
 11704  1454  1301               	bcf	1,6
 11705  1455                     i1l3435:
 11706                           
 11707                           ;mcc_generated_files/usb/usb_device.c: 1572:         (handle+1)->STAT.DTS = 1;
 11708  1455  0876               	movf	USBConfigureEndpoint@handle,w
 11709  1456  3E04               	addlw	4
 11710  1457  0086               	movwf	6
 11711  1458  0187               	clrf	7
 11712  1459  1701               	bsf	1,6
 11713  145A                     i1l218:
 11714  145A  0008               	return
 11715  145B                     __end_of_USBConfigureEndpoint:
 11716                           
 11717                           	psect	text44
 11718  13DE                     __ptext44:	
 11719 ;; *************** function _USBCtrlTrfOutHandler *****************
 11720 ;; Defined at:
 11721 ;;		line 2542 in file "mcc_generated_files/usb/usb_device.c"
 11722 ;; Parameters:    Size  Location     Type
 11723 ;;		None
 11724 ;; Auto vars:     Size  Location     Type
 11725 ;;		None
 11726 ;; Return value:  Size  Location     Type
 11727 ;;                  1    wreg      void 
 11728 ;; Registers used:
 11729 ;;		wreg, fsr1l, fsr1h, status,2, status,0, pclath, cstack
 11730 ;; Tracked objects:
 11731 ;;		On entry : 0/0
 11732 ;;		On exit  : 0/0
 11733 ;;		Unchanged: 0/0
 11734 ;; Data sizes:     COMMON   BANK0   BANK1   BANK2   BANK3   BANK4   BANK5   BANK6   BANK7   BANK8   BANK9  BANK10  BANK1
      +1  BANK12
 11735 ;;      Params:         0       0       0       0       0       0       0       0       0       0       0       0       
      +0       0
 11736 ;;      Locals:         0       0       0       0       0       0       0       0       0       0       0       0       
      +0       0
 11737 ;;      Temps:          2       0       0       0       0       0       0       0       0       0       0       0       
      +0       0
 11738 ;;      Totals:         2       0       0       0       0       0       0       0       0       0       0       0       
      +0       0
 11739 ;;Total ram usage:        2 bytes
 11740 ;; Hardware stack levels used:    1
 11741 ;; Hardware stack levels required when called:    2
 11742 ;; This function calls:
 11743 ;;		_USBCtrlTrfRxService
 11744 ;; This function is called by:
 11745 ;;		_USBCtrlEPService
 11746 ;; This function uses a non-reentrant model
 11747 ;;
 11748                           
 11749                           
 11750                           ;psect for function _USBCtrlTrfOutHandler
 11751  13DE                     _USBCtrlTrfOutHandler:
 11752  13DE                     i1l4089:	
 11753                           ;incstack = 0
 11754                           ; Regs used in _USBCtrlTrfOutHandler: [wreg+fsr1l+fsr1h+status,2+status,0+pclath+cstack]
 11755                           
 11756                           
 11757                           ;mcc_generated_files/usb/usb_device.c: 2544:     if(controlTransferState == 2)
 11758  13DE  3002               	movlw	2
 11759  13DF  0021               	movlb	1	; select bank1
 11760  13E0  0630               	xorwf	_controlTransferState^(0+128),w	;volatile
 11761  13E1  1D03               	btfss	3,2
 11762  13E2  2BE4               	goto	u287_21
 11763  13E3  2BE5               	goto	u287_20
 11764  13E4                     u287_21:
 11765  13E4  2BE9               	goto	i1l4093
 11766  13E5                     u287_20:
 11767  13E5                     i1l4091:
 11768                           
 11769                           ;mcc_generated_files/usb/usb_device.c: 2545:     {;mcc_generated_files/usb/usb_device.c:
      +                           2546:         USBCtrlTrfRxService();
 11770  13E5  318B  23F5  3193   	fcall	_USBCtrlTrfRxService
 11771                           
 11772                           ;mcc_generated_files/usb/usb_device.c: 2547:     }
 11773  13E8  2C17               	goto	i1l328
 11774  13E9                     i1l4093:
 11775                           
 11776                           ;mcc_generated_files/usb/usb_device.c: 2549:     {;mcc_generated_files/usb/usb_device.c:
      +                           2552:         controlTransferState = 0;
 11777  13E9  01B0               	clrf	_controlTransferState^(0+128)	;volatile
 11778  13EA                     i1l4095:
 11779                           
 11780                           ;mcc_generated_files/usb/usb_device.c: 2559:         if(BothEP0OutUOWNsSet == 0)
 11781  13EA  0023               	movlb	3	; select bank3
 11782  13EB  0868               	movf	_BothEP0OutUOWNsSet^(0+384),w	;volatile
 11783  13EC  1D03               	btfss	3,2
 11784  13ED  2BEF               	goto	u288_21
 11785  13EE  2BF0               	goto	u288_20
 11786  13EF                     u288_21:
 11787  13EF  2C16               	goto	i1l4105
 11788  13F0                     u288_20:
 11789  13F0                     i1l4097:
 11790                           
 11791                           ;mcc_generated_files/usb/usb_device.c: 2560:         {;mcc_generated_files/usb/usb_devic
      +                          e.c: 2561:             pBDTEntryEP0OutNext->CNT = 8;
 11792  13F0  0021               	movlb	1	; select bank1
 11793  13F1  082B               	movf	_pBDTEntryEP0OutNext^(0+128),w
 11794  13F2  3E01               	addlw	1
 11795  13F3  00F6               	movwf	??_USBCtrlTrfOutHandler
 11796  13F4  3000               	movlw	0
 11797  13F5  3D2C               	addwfc	(_pBDTEntryEP0OutNext+1)^(0+128),w
 11798  13F6  00F7               	movwf	??_USBCtrlTrfOutHandler+1
 11799  13F7  0876               	movf	??_USBCtrlTrfOutHandler,w
 11800  13F8  0086               	movwf	6
 11801  13F9  0877               	movf	??_USBCtrlTrfOutHandler+1,w
 11802  13FA  0087               	movwf	7
 11803  13FB  3008               	movlw	8
 11804  13FC  0081               	movwf	1
 11805  13FD                     i1l4099:
 11806                           
 11807                           ;mcc_generated_files/usb/usb_device.c: 2562:             pBDTEntryEP0OutNext->ADR = (((u
      +                          int16_t)(&SetupPkt)) & 0x7FFF);
 11808  13FD  3050               	movlw	80
 11809  13FE  00F6               	movwf	??_USBCtrlTrfOutHandler
 11810  13FF  3000               	movlw	0
 11811  1400  00F7               	movwf	??_USBCtrlTrfOutHandler+1
 11812  1401  082B               	movf	_pBDTEntryEP0OutNext^(0+128),w
 11813  1402  0086               	movwf	6
 11814  1403  082C               	movf	(_pBDTEntryEP0OutNext+1)^(0+128),w
 11815  1404  0087               	movwf	7
 11816  1405  3142               	addfsr 1,2
 11817  1406  0876               	movf	??_USBCtrlTrfOutHandler,w
 11818  1407  3FC0               	movwi [0]fsr1
 11819  1408  0877               	movf	??_USBCtrlTrfOutHandler+1,w
 11820  1409  3FC1               	movwi [1]fsr1
 11821  140A                     i1l4101:
 11822                           
 11823                           ;mcc_generated_files/usb/usb_device.c: 2563:             pBDTEntryEP0OutNext->STAT.Val =
      +                           0x00|(0x08 & 0x08)|0x04;
 11824  140A  082B               	movf	_pBDTEntryEP0OutNext^(0+128),w
 11825  140B  0086               	movwf	6
 11826  140C  082C               	movf	(_pBDTEntryEP0OutNext+1)^(0+128),w
 11827  140D  0087               	movwf	7
 11828  140E  300C               	movlw	12
 11829  140F  0081               	movwf	1
 11830  1410                     i1l4103:
 11831                           
 11832                           ;mcc_generated_files/usb/usb_device.c: 2564:             pBDTEntryEP0OutNext->STAT.Val |
      +                          = 0x80;
 11833  1410  082B               	movf	_pBDTEntryEP0OutNext^(0+128),w
 11834  1411  0086               	movwf	6
 11835  1412  082C               	movf	(_pBDTEntryEP0OutNext+1)^(0+128),w
 11836  1413  0087               	movwf	7
 11837  1414  1781               	bsf	1,7
 11838                           
 11839                           ;mcc_generated_files/usb/usb_device.c: 2565:         }
 11840  1415  2C17               	goto	i1l328
 11841  1416                     i1l4105:
 11842                           
 11843                           ;mcc_generated_files/usb/usb_device.c: 2567:         {;mcc_generated_files/usb/usb_devic
      +                          e.c: 2568:                 BothEP0OutUOWNsSet = 0;
 11844  1416  01E8               	clrf	_BothEP0OutUOWNsSet^(0+384)	;volatile
 11845  1417                     i1l328:
 11846  1417  0008               	return
 11847  1418                     __end_of_USBCtrlTrfOutHandler:
 11848                           
 11849                           	psect	text45
 11850  0BF5                     __ptext45:	
 11851 ;; *************** function _USBCtrlTrfRxService *****************
 11852 ;; Defined at:
 11853 ;;		line 1856 in file "mcc_generated_files/usb/usb_device.c"
 11854 ;; Parameters:    Size  Location     Type
 11855 ;;		None
 11856 ;; Auto vars:     Size  Location     Type
 11857 ;;  byteToRead      1    5[COMMON] unsigned char 
 11858 ;;  i               1    4[COMMON] unsigned char 
 11859 ;; Return value:  Size  Location     Type
 11860 ;;                  1    wreg      void 
 11861 ;; Registers used:
 11862 ;;		wreg, fsr1l, fsr1h, status,2, status,0, pclath, cstack
 11863 ;; Tracked objects:
 11864 ;;		On entry : 0/0
 11865 ;;		On exit  : 0/0
 11866 ;;		Unchanged: 0/0
 11867 ;; Data sizes:     COMMON   BANK0   BANK1   BANK2   BANK3   BANK4   BANK5   BANK6   BANK7   BANK8   BANK9  BANK10  BANK1
      +1  BANK12
 11868 ;;      Params:         0       0       0       0       0       0       0       0       0       0       0       0       
      +0       0
 11869 ;;      Locals:         2       0       0       0       0       0       0       0       0       0       0       0       
      +0       0
 11870 ;;      Temps:          2       0       0       0       0       0       0       0       0       0       0       0       
      +0       0
 11871 ;;      Totals:         4       0       0       0       0       0       0       0       0       0       0       0       
      +0       0
 11872 ;;Total ram usage:        4 bytes
 11873 ;; Hardware stack levels used:    1
 11874 ;; Hardware stack levels required when called:    1
 11875 ;; This function calls:
 11876 ;;		_USBCtrlEPAllowStatusStage
 11877 ;; This function is called by:
 11878 ;;		_USBCtrlTrfOutHandler
 11879 ;; This function uses a non-reentrant model
 11880 ;;
 11881                           
 11882                           
 11883                           ;psect for function _USBCtrlTrfRxService
 11884  0BF5                     _USBCtrlTrfRxService:
 11885  0BF5                     i1l3965:	
 11886                           ;incstack = 0
 11887                           ; Regs used in _USBCtrlTrfRxService: [wreg+fsr1l+fsr1h+status,2+status,0+pclath+cstack]
 11888                           
 11889                           
 11890                           ;mcc_generated_files/usb/usb_device.c: 1858:     uint8_t byteToRead;;mcc_generated_files
      +                          /usb/usb_device.c: 1859:     uint8_t i;;mcc_generated_files/usb/usb_device.c: 1863:     
      +                          byteToRead = pBDTEntryEP0OutCurrent->CNT;
 11891  0BF5  0021               	movlb	1	; select bank1
 11892  0BF6  0832               	movf	_pBDTEntryEP0OutCurrent^(0+128),w
 11893  0BF7  0086               	movwf	6
 11894  0BF8  0187               	clrf	7
 11895  0BF9  3F41               	moviw [1]fsr1
 11896  0BFA  00F5               	movwf	USBCtrlTrfRxService@byteToRead
 11897  0BFB                     i1l3967:
 11898                           
 11899                           ;mcc_generated_files/usb/usb_device.c: 1869:     if(byteToRead > outPipes[0].wCount.Val)
 11900  0BFB  0875               	movf	USBCtrlTrfRxService@byteToRead,w
 11901  0BFC  00F2               	movwf	??_USBCtrlTrfRxService
 11902  0BFD  01F3               	clrf	??_USBCtrlTrfRxService+1
 11903  0BFE  0873               	movf	??_USBCtrlTrfRxService+1,w
 11904  0BFF  0023               	movlb	3	; select bank3
 11905  0C00  0234               	subwf	((_outPipes+1)^(0+384)+3),w	;volatile
 11906  0C01  1D03               	skipz
 11907  0C02  2C05               	goto	u279_25
 11908  0C03  0872               	movf	??_USBCtrlTrfRxService,w
 11909  0C04  0233               	subwf	(_outPipes^(0+384)+3),w	;volatile
 11910  0C05                     u279_25:
 11911  0C05  1803               	skipnc
 11912  0C06  2C08               	goto	u279_21
 11913  0C07  2C09               	goto	u279_20
 11914  0C08                     u279_21:
 11915  0C08  2C0D               	goto	i1l249
 11916  0C09                     u279_20:
 11917  0C09                     i1l3969:
 11918                           
 11919                           ;mcc_generated_files/usb/usb_device.c: 1870:     {;mcc_generated_files/usb/usb_device.c:
      +                           1871:         byteToRead = outPipes[0].wCount.Val;
 11920  0C09  0833               	movf	(_outPipes^(0+384)+3),w	;volatile
 11921  0C0A  00F2               	movwf	??_USBCtrlTrfRxService
 11922  0C0B  0872               	movf	??_USBCtrlTrfRxService,w
 11923  0C0C  00F5               	movwf	USBCtrlTrfRxService@byteToRead
 11924  0C0D                     i1l249:	
 11925                           ;mcc_generated_files/usb/usb_device.c: 1872:     }
 11926                           
 11927                           
 11928                           ;mcc_generated_files/usb/usb_device.c: 1874:     outPipes[0].wCount.Val -= byteToRead;
 11929  0C0D  0875               	movf	USBCtrlTrfRxService@byteToRead,w
 11930  0C0E  00F2               	movwf	??_USBCtrlTrfRxService
 11931  0C0F  01F3               	clrf	??_USBCtrlTrfRxService+1
 11932  0C10  0872               	movf	??_USBCtrlTrfRxService,w
 11933  0C11  02B3               	subwf	(_outPipes^(0+384)+3),f	;volatile
 11934  0C12  0873               	movf	??_USBCtrlTrfRxService+1,w
 11935  0C13  3BB4               	subwfb	((_outPipes+1)^(0+384)+3),f	;volatile
 11936  0C14                     i1l3971:
 11937                           
 11938                           ;mcc_generated_files/usb/usb_device.c: 1878:     for(i=0;i<byteToRead;i++)
 11939  0C14  01F4               	clrf	USBCtrlTrfRxService@i
 11940  0C15  2C2A               	goto	i1l3979
 11941  0C16                     i1l3973:
 11942                           
 11943                           ;mcc_generated_files/usb/usb_device.c: 1879:     {;mcc_generated_files/usb/usb_device.c:
      +                           1880:         *outPipes[0].pDst.bRam++ = CtrlTrfData[i];
 11944  0C16  0874               	movf	USBCtrlTrfRxService@i,w
 11945  0C17  3E58               	addlw	88
 11946  0C18  0086               	movwf	6
 11947  0C19  0187               	clrf	7
 11948  0C1A  0801               	movf	1,w
 11949  0C1B  00F2               	movwf	??_USBCtrlTrfRxService
 11950  0C1C  0830               	movf	_outPipes^(0+384),w	;volatile
 11951  0C1D  0086               	movwf	6
 11952  0C1E  3002               	movlw	2	; select bank4/5
 11953  0C1F  0087               	movwf	7
 11954  0C20  0872               	movf	??_USBCtrlTrfRxService,w
 11955  0C21  0081               	movwf	1
 11956  0C22                     i1l3975:
 11957  0C22  3001               	movlw	1
 11958  0C23  00F2               	movwf	??_USBCtrlTrfRxService
 11959  0C24  0872               	movf	??_USBCtrlTrfRxService,w
 11960  0C25  07B0               	addwf	_outPipes^(0+384),f	;volatile
 11961  0C26                     i1l3977:
 11962                           
 11963                           ;mcc_generated_files/usb/usb_device.c: 1881:     }
 11964  0C26  3001               	movlw	1
 11965  0C27  00F2               	movwf	??_USBCtrlTrfRxService
 11966  0C28  0872               	movf	??_USBCtrlTrfRxService,w
 11967  0C29  07F4               	addwf	USBCtrlTrfRxService@i,f
 11968  0C2A                     i1l3979:
 11969  0C2A  0875               	movf	USBCtrlTrfRxService@byteToRead,w
 11970  0C2B  0274               	subwf	USBCtrlTrfRxService@i,w
 11971  0C2C  1C03               	skipc
 11972  0C2D  2C2F               	goto	u280_21
 11973  0C2E  2C30               	goto	u280_20
 11974  0C2F                     u280_21:
 11975  0C2F  2C16               	goto	i1l3973
 11976  0C30                     u280_20:
 11977  0C30                     i1l3981:
 11978                           
 11979                           ;mcc_generated_files/usb/usb_device.c: 1885:     if(outPipes[0].wCount.Val > 0)
 11980  0C30  0833               	movf	(_outPipes^(0+384)+3),w	;volatile
 11981  0C31  0434               	iorwf	((_outPipes+1)^(0+384)+3),w	;volatile
 11982  0C32  1903               	btfsc	3,2
 11983  0C33  2C35               	goto	u281_21
 11984  0C34  2C36               	goto	u281_20
 11985  0C35                     u281_21:
 11986  0C35  2C6F               	goto	i1l3993
 11987  0C36                     u281_20:
 11988  0C36                     i1l3983:
 11989                           
 11990                           ;mcc_generated_files/usb/usb_device.c: 1886:     {;mcc_generated_files/usb/usb_device.c:
      +                           1887:         pBDTEntryEP0OutNext->CNT = 8;
 11991  0C36  0021               	movlb	1	; select bank1
 11992  0C37  082B               	movf	_pBDTEntryEP0OutNext^(0+128),w
 11993  0C38  3E01               	addlw	1
 11994  0C39  00F2               	movwf	??_USBCtrlTrfRxService
 11995  0C3A  3000               	movlw	0
 11996  0C3B  3D2C               	addwfc	(_pBDTEntryEP0OutNext+1)^(0+128),w
 11997  0C3C  00F3               	movwf	??_USBCtrlTrfRxService+1
 11998  0C3D  0872               	movf	??_USBCtrlTrfRxService,w
 11999  0C3E  0086               	movwf	6
 12000  0C3F  0873               	movf	??_USBCtrlTrfRxService+1,w
 12001  0C40  0087               	movwf	7
 12002  0C41  3008               	movlw	8
 12003  0C42  0081               	movwf	1
 12004  0C43                     i1l3985:
 12005                           
 12006                           ;mcc_generated_files/usb/usb_device.c: 1888:         pBDTEntryEP0OutNext->ADR = (((uint1
      +                          6_t)(&CtrlTrfData)) & 0x7FFF);
 12007  0C43  3058               	movlw	88
 12008  0C44  00F2               	movwf	??_USBCtrlTrfRxService
 12009  0C45  3000               	movlw	0
 12010  0C46  00F3               	movwf	??_USBCtrlTrfRxService+1
 12011  0C47  082B               	movf	_pBDTEntryEP0OutNext^(0+128),w
 12012  0C48  0086               	movwf	6
 12013  0C49  082C               	movf	(_pBDTEntryEP0OutNext+1)^(0+128),w
 12014  0C4A  0087               	movwf	7
 12015  0C4B  3142               	addfsr 1,2
 12016  0C4C  0872               	movf	??_USBCtrlTrfRxService,w
 12017  0C4D  3FC0               	movwi [0]fsr1
 12018  0C4E  0873               	movf	??_USBCtrlTrfRxService+1,w
 12019  0C4F  3FC1               	movwi [1]fsr1
 12020  0C50                     i1l3987:
 12021                           
 12022                           ;mcc_generated_files/usb/usb_device.c: 1889:         if(pBDTEntryEP0OutCurrent->STAT.DTS
      +                           == 0)
 12023  0C50  0832               	movf	_pBDTEntryEP0OutCurrent^(0+128),w
 12024  0C51  0086               	movwf	6
 12025  0C52  0187               	clrf	7
 12026  0C53  1B01               	btfsc	1,6
 12027  0C54  2C56               	goto	u282_21
 12028  0C55  2C57               	goto	u282_20
 12029  0C56                     u282_21:
 12030  0C56  2C63               	goto	i1l3991
 12031  0C57                     u282_20:
 12032  0C57                     i1l3989:
 12033                           
 12034                           ;mcc_generated_files/usb/usb_device.c: 1890:         {;mcc_generated_files/usb/usb_devic
      +                          e.c: 1891:             pBDTEntryEP0OutNext->STAT.Val = 0x40|(0x08 & 0x08);
 12035  0C57  082B               	movf	_pBDTEntryEP0OutNext^(0+128),w
 12036  0C58  0086               	movwf	6
 12037  0C59  082C               	movf	(_pBDTEntryEP0OutNext+1)^(0+128),w
 12038  0C5A  0087               	movwf	7
 12039  0C5B  3048               	movlw	72
 12040  0C5C  0081               	movwf	1
 12041                           
 12042                           ;mcc_generated_files/usb/usb_device.c: 1892:             pBDTEntryEP0OutNext->STAT.Val |
      +                          = 0x80;
 12043  0C5D  082B               	movf	_pBDTEntryEP0OutNext^(0+128),w
 12044  0C5E  0086               	movwf	6
 12045  0C5F  082C               	movf	(_pBDTEntryEP0OutNext+1)^(0+128),w
 12046  0C60  0087               	movwf	7
 12047  0C61  1781               	bsf	1,7
 12048                           
 12049                           ;mcc_generated_files/usb/usb_device.c: 1893:         }
 12050  0C62  2CA0               	goto	i1l259
 12051  0C63                     i1l3991:
 12052                           
 12053                           ;mcc_generated_files/usb/usb_device.c: 1895:         {;mcc_generated_files/usb/usb_devic
      +                          e.c: 1896:             pBDTEntryEP0OutNext->STAT.Val = 0x00|(0x08 & 0x08);
 12054  0C63  082B               	movf	_pBDTEntryEP0OutNext^(0+128),w
 12055  0C64  0086               	movwf	6
 12056  0C65  082C               	movf	(_pBDTEntryEP0OutNext+1)^(0+128),w
 12057  0C66  0087               	movwf	7
 12058  0C67  3008               	movlw	8
 12059  0C68  0081               	movwf	1
 12060                           
 12061                           ;mcc_generated_files/usb/usb_device.c: 1897:             pBDTEntryEP0OutNext->STAT.Val |
      +                          = 0x80;
 12062  0C69  082B               	movf	_pBDTEntryEP0OutNext^(0+128),w
 12063  0C6A  0086               	movwf	6
 12064  0C6B  082C               	movf	(_pBDTEntryEP0OutNext+1)^(0+128),w
 12065  0C6C  0087               	movwf	7
 12066  0C6D  1781               	bsf	1,7
 12067  0C6E  2CA0               	goto	i1l259
 12068  0C6F                     i1l3993:
 12069                           
 12070                           ;mcc_generated_files/usb/usb_device.c: 1901:     {;mcc_generated_files/usb/usb_device.c:
      +                           1905:         pBDTEntryEP0OutNext->CNT = 8;
 12071  0C6F  0021               	movlb	1	; select bank1
 12072  0C70  082B               	movf	_pBDTEntryEP0OutNext^(0+128),w
 12073  0C71  3E01               	addlw	1
 12074  0C72  00F2               	movwf	??_USBCtrlTrfRxService
 12075  0C73  3000               	movlw	0
 12076  0C74  3D2C               	addwfc	(_pBDTEntryEP0OutNext+1)^(0+128),w
 12077  0C75  00F3               	movwf	??_USBCtrlTrfRxService+1
 12078  0C76  0872               	movf	??_USBCtrlTrfRxService,w
 12079  0C77  0086               	movwf	6
 12080  0C78  0873               	movf	??_USBCtrlTrfRxService+1,w
 12081  0C79  0087               	movwf	7
 12082  0C7A  3008               	movlw	8
 12083  0C7B  0081               	movwf	1
 12084  0C7C                     i1l3995:
 12085                           
 12086                           ;mcc_generated_files/usb/usb_device.c: 1906:         pBDTEntryEP0OutNext->ADR = (((uint1
      +                          6_t)(&SetupPkt)) & 0x7FFF);
 12087  0C7C  3050               	movlw	80
 12088  0C7D  00F2               	movwf	??_USBCtrlTrfRxService
 12089  0C7E  3000               	movlw	0
 12090  0C7F  00F3               	movwf	??_USBCtrlTrfRxService+1
 12091  0C80  082B               	movf	_pBDTEntryEP0OutNext^(0+128),w
 12092  0C81  0086               	movwf	6
 12093  0C82  082C               	movf	(_pBDTEntryEP0OutNext+1)^(0+128),w
 12094  0C83  0087               	movwf	7
 12095  0C84  3142               	addfsr 1,2
 12096  0C85  0872               	movf	??_USBCtrlTrfRxService,w
 12097  0C86  3FC0               	movwi [0]fsr1
 12098  0C87  0873               	movf	??_USBCtrlTrfRxService+1,w
 12099  0C88  3FC1               	movwi [1]fsr1
 12100  0C89                     i1l3997:
 12101                           
 12102                           ;mcc_generated_files/usb/usb_device.c: 1910:         pBDTEntryEP0OutNext->STAT.Val = 0x0
      +                          4;
 12103  0C89  082B               	movf	_pBDTEntryEP0OutNext^(0+128),w
 12104  0C8A  0086               	movwf	6
 12105  0C8B  082C               	movf	(_pBDTEntryEP0OutNext+1)^(0+128),w
 12106  0C8C  0087               	movwf	7
 12107  0C8D  3004               	movlw	4
 12108  0C8E  0081               	movwf	1
 12109  0C8F                     i1l3999:
 12110                           
 12111                           ;mcc_generated_files/usb/usb_device.c: 1911:         pBDTEntryEP0OutNext->STAT.Val |= 0x
      +                          80;
 12112  0C8F  082B               	movf	_pBDTEntryEP0OutNext^(0+128),w
 12113  0C90  0086               	movwf	6
 12114  0C91  082C               	movf	(_pBDTEntryEP0OutNext+1)^(0+128),w
 12115  0C92  0087               	movwf	7
 12116  0C93  1781               	bsf	1,7
 12117  0C94                     i1l4001:
 12118                           
 12119                           ;mcc_generated_files/usb/usb_device.c: 1919:         {
 12120  0C94  0023               	movlb	3	; select bank3
 12121  0C95  0835               	movf	(low ((_outPipes| (0+256)+5)))^(0+128),w	;volatile
 12122  0C96  0836               	movf	((low ((_outPipes| (0+256)+5))+1))^(0+128),w	;volatile
 12123  0C97                     i1l257:
 12124  0C97  13B2               	bcf	(_outPipes^(0+384)+2),7	;volatile
 12125  0C98                     i1l4003:
 12126                           
 12127                           ;mcc_generated_files/usb/usb_device.c: 1945:         if(USBDeferStatusStagePacket == 0)
 12128  0C98  0866               	movf	_USBDeferStatusStagePacket^(0+384),w	;volatile
 12129  0C99  1D03               	btfss	3,2
 12130  0C9A  2C9C               	goto	u283_21
 12131  0C9B  2C9D               	goto	u283_20
 12132  0C9C                     u283_21:
 12133  0C9C  2CA0               	goto	i1l259
 12134  0C9D                     u283_20:
 12135  0C9D                     i1l4005:
 12136                           
 12137                           ;mcc_generated_files/usb/usb_device.c: 1946:         {;mcc_generated_files/usb/usb_devic
      +                          e.c: 1947:             USBCtrlEPAllowStatusStage();
 12138  0C9D  3197  270D  318B   	fcall	_USBCtrlEPAllowStatusStage
 12139  0CA0                     i1l259:
 12140  0CA0  0008               	return
 12141  0CA1                     __end_of_USBCtrlTrfRxService:
 12142                           
 12143                           	psect	text46
 12144  170D                     __ptext46:	
 12145 ;; *************** function _USBCtrlEPAllowStatusStage *****************
 12146 ;; Defined at:
 12147 ;;		line 1420 in file "mcc_generated_files/usb/usb_device.c"
 12148 ;; Parameters:    Size  Location     Type
 12149 ;;		None
 12150 ;; Auto vars:     Size  Location     Type
 12151 ;;		None
 12152 ;; Return value:  Size  Location     Type
 12153 ;;                  1    wreg      void 
 12154 ;; Registers used:
 12155 ;;		wreg, fsr1l, fsr1h, status,2, status,0
 12156 ;; Tracked objects:
 12157 ;;		On entry : 0/0
 12158 ;;		On exit  : 0/0
 12159 ;;		Unchanged: 0/0
 12160 ;; Data sizes:     COMMON   BANK0   BANK1   BANK2   BANK3   BANK4   BANK5   BANK6   BANK7   BANK8   BANK9  BANK10  BANK1
      +1  BANK12
 12161 ;;      Params:         0       0       0       0       0       0       0       0       0       0       0       0       
      +0       0
 12162 ;;      Locals:         0       0       0       0       0       0       0       0       0       0       0       0       
      +0       0
 12163 ;;      Temps:          2       0       0       0       0       0       0       0       0       0       0       0       
      +0       0
 12164 ;;      Totals:         2       0       0       0       0       0       0       0       0       0       0       0       
      +0       0
 12165 ;;Total ram usage:        2 bytes
 12166 ;; Hardware stack levels used:    1
 12167 ;; This function calls:
 12168 ;;		Nothing
 12169 ;; This function is called by:
 12170 ;;		_USBDeviceTasks
 12171 ;;		_USBCtrlEPServiceComplete
 12172 ;;		_USBCtrlTrfRxService
 12173 ;; This function uses a non-reentrant model
 12174 ;;
 12175                           
 12176                           
 12177                           ;psect for function _USBCtrlEPAllowStatusStage
 12178  170D                     _USBCtrlEPAllowStatusStage:
 12179  170D                     i1l3645:	
 12180                           ;incstack = 0
 12181                           ; Regs used in _USBCtrlEPAllowStatusStage: [wreg+fsr1l+fsr1h+status,2+status,0]
 12182                           
 12183                           
 12184                           ;mcc_generated_files/usb/usb_device.c: 1427:     if(USBStatusStageEnabledFlag1 == 0)
 12185  170D  0023               	movlb	3	; select bank3
 12186  170E  0865               	movf	_USBStatusStageEnabledFlag1^(0+384),w	;volatile
 12187  170F  1D03               	btfss	3,2
 12188  1710  2F12               	goto	u237_21
 12189  1711  2F13               	goto	u237_20
 12190  1712                     u237_21:
 12191  1712  2F85               	goto	i1l207
 12192  1713                     u237_20:
 12193  1713                     i1l3647:
 12194                           
 12195                           ;mcc_generated_files/usb/usb_device.c: 1428:     {;mcc_generated_files/usb/usb_device.c:
      +                           1429:         USBStatusStageEnabledFlag1 = 1;
 12196  1713  3001               	movlw	1
 12197  1714  00F0               	movwf	??_USBCtrlEPAllowStatusStage
 12198  1715  0870               	movf	??_USBCtrlEPAllowStatusStage,w
 12199  1716  00E5               	movwf	_USBStatusStageEnabledFlag1^(0+384)	;volatile
 12200  1717                     i1l3649:
 12201                           
 12202                           ;mcc_generated_files/usb/usb_device.c: 1430:         if(USBStatusStageEnabledFlag2 == 0)
 12203  1717  0864               	movf	_USBStatusStageEnabledFlag2^(0+384),w	;volatile
 12204  1718  1D03               	btfss	3,2
 12205  1719  2F1B               	goto	u238_21
 12206  171A  2F1C               	goto	u238_20
 12207  171B                     u238_21:
 12208  171B  2F85               	goto	i1l207
 12209  171C                     u238_20:
 12210  171C                     i1l3651:
 12211                           
 12212                           ;mcc_generated_files/usb/usb_device.c: 1431:         {;mcc_generated_files/usb/usb_devic
      +                          e.c: 1432:             USBStatusStageEnabledFlag2 = 1;
 12213  171C  3001               	movlw	1
 12214  171D  00F0               	movwf	??_USBCtrlEPAllowStatusStage
 12215  171E  0870               	movf	??_USBCtrlEPAllowStatusStage,w
 12216  171F  00E4               	movwf	_USBStatusStageEnabledFlag2^(0+384)	;volatile
 12217  1720                     i1l3653:
 12218                           
 12219                           ;mcc_generated_files/usb/usb_device.c: 1436:             if(controlTransferState == 2)
 12220  1720  3002               	movlw	2
 12221  1721  0021               	movlb	1	; select bank1
 12222  1722  0630               	xorwf	_controlTransferState^(0+128),w	;volatile
 12223  1723  1D03               	btfss	3,2
 12224  1724  2F26               	goto	u239_21
 12225  1725  2F27               	goto	u239_20
 12226  1726                     u239_21:
 12227  1726  2F39               	goto	i1l3661
 12228  1727                     u239_20:
 12229  1727                     i1l3655:
 12230                           
 12231                           ;mcc_generated_files/usb/usb_device.c: 1437:             {;mcc_generated_files/usb/usb_d
      +                          evice.c: 1438:                 pBDTEntryIn[0]->CNT = 0;
 12232  1727  0820               	movf	_pBDTEntryIn^(0+128),w
 12233  1728  0086               	movwf	6
 12234  1729  0821               	movf	(_pBDTEntryIn+1)^(0+128),w
 12235  172A  0087               	movwf	7
 12236  172B  3141               	addfsr 1,1
 12237  172C  0181               	clrf	1
 12238  172D                     i1l3657:
 12239                           
 12240                           ;mcc_generated_files/usb/usb_device.c: 1439:                 pBDTEntryIn[0]->STAT.Val = 
      +                          0x40|(0x08 & 0x08);
 12241  172D  0820               	movf	_pBDTEntryIn^(0+128),w
 12242  172E  0086               	movwf	6
 12243  172F  0821               	movf	(_pBDTEntryIn+1)^(0+128),w
 12244  1730  0087               	movwf	7
 12245  1731  3048               	movlw	72
 12246  1732  0081               	movwf	1
 12247  1733                     i1l3659:
 12248                           
 12249                           ;mcc_generated_files/usb/usb_device.c: 1440:                 pBDTEntryIn[0]->STAT.Val |=
      +                           0x80;
 12250  1733  0820               	movf	_pBDTEntryIn^(0+128),w
 12251  1734  0086               	movwf	6
 12252  1735  0821               	movf	(_pBDTEntryIn+1)^(0+128),w
 12253  1736  0087               	movwf	7
 12254  1737  1781               	bsf	1,7
 12255                           
 12256                           ;mcc_generated_files/usb/usb_device.c: 1441:             }
 12257  1738  2F85               	goto	i1l207
 12258  1739                     i1l3661:
 12259  1739  0330               	decf	_controlTransferState^(0+128),w	;volatile
 12260  173A  1D03               	btfss	3,2
 12261  173B  2F3D               	goto	u240_21
 12262  173C  2F3E               	goto	u240_20
 12263  173D                     u240_21:
 12264  173D  2F85               	goto	i1l203
 12265  173E                     u240_20:
 12266  173E                     i1l3663:
 12267                           
 12268                           ;mcc_generated_files/usb/usb_device.c: 1443:             {;mcc_generated_files/usb/usb_d
      +                          evice.c: 1444:                 BothEP0OutUOWNsSet = 0;
 12269  173E  0023               	movlb	3	; select bank3
 12270  173F  01E8               	clrf	_BothEP0OutUOWNsSet^(0+384)	;volatile
 12271  1740                     i1l3665:
 12272                           
 12273                           ;mcc_generated_files/usb/usb_device.c: 1449:                     pBDTEntryEP0OutCurrent-
      +                          >CNT = 8;
 12274  1740  3008               	movlw	8
 12275  1741  00F0               	movwf	??_USBCtrlEPAllowStatusStage
 12276  1742  0021               	movlb	1	; select bank1
 12277  1743  0A32               	incf	_pBDTEntryEP0OutCurrent^(0+128),w
 12278  1744  0086               	movwf	6
 12279  1745  0187               	clrf	7
 12280  1746  0870               	movf	??_USBCtrlEPAllowStatusStage,w
 12281  1747  0081               	movwf	1
 12282  1748                     i1l3667:
 12283                           
 12284                           ;mcc_generated_files/usb/usb_device.c: 1450:                     pBDTEntryEP0OutCurrent-
      +                          >ADR = (((uint16_t)(&SetupPkt)) & 0x7FFF);
 12285  1748  3050               	movlw	80
 12286  1749  00F0               	movwf	??_USBCtrlEPAllowStatusStage
 12287  174A  3000               	movlw	0
 12288  174B  00F1               	movwf	??_USBCtrlEPAllowStatusStage+1
 12289  174C  0832               	movf	_pBDTEntryEP0OutCurrent^(0+128),w
 12290  174D  3E02               	addlw	2
 12291  174E  0086               	movwf	6
 12292  174F  0187               	clrf	7
 12293  1750  0870               	movf	??_USBCtrlEPAllowStatusStage,w
 12294  1751  3FC0               	movwi [0]fsr1
 12295  1752  0871               	movf	??_USBCtrlEPAllowStatusStage+1,w
 12296  1753  3FC1               	movwi [1]fsr1
 12297  1754                     i1l3669:
 12298                           
 12299                           ;mcc_generated_files/usb/usb_device.c: 1451:                     pBDTEntryEP0OutCurrent-
      +                          >STAT.Val = 0x04;
 12300  1754  3004               	movlw	4
 12301  1755  00F0               	movwf	??_USBCtrlEPAllowStatusStage
 12302  1756  0832               	movf	_pBDTEntryEP0OutCurrent^(0+128),w
 12303  1757  0086               	movwf	6
 12304  1758  0187               	clrf	7
 12305  1759  0870               	movf	??_USBCtrlEPAllowStatusStage,w
 12306  175A  0081               	movwf	1
 12307  175B                     i1l3671:
 12308                           
 12309                           ;mcc_generated_files/usb/usb_device.c: 1452:                     pBDTEntryEP0OutCurrent-
      +                          >STAT.Val |= 0x80;
 12310  175B  0832               	movf	_pBDTEntryEP0OutCurrent^(0+128),w
 12311  175C  0086               	movwf	6
 12312  175D  0187               	clrf	7
 12313  175E  1781               	bsf	1,7
 12314  175F                     i1l3673:
 12315                           
 12316                           ;mcc_generated_files/usb/usb_device.c: 1453:                     BothEP0OutUOWNsSet = 1;
 12317  175F  3001               	movlw	1
 12318  1760  00F0               	movwf	??_USBCtrlEPAllowStatusStage
 12319  1761  0870               	movf	??_USBCtrlEPAllowStatusStage,w
 12320  1762  0023               	movlb	3	; select bank3
 12321  1763  00E8               	movwf	_BothEP0OutUOWNsSet^(0+384)	;volatile
 12322  1764                     i1l3675:
 12323                           
 12324                           ;mcc_generated_files/usb/usb_device.c: 1457:                 pBDTEntryEP0OutNext->CNT = 
      +                          8;
 12325  1764  0021               	movlb	1	; select bank1
 12326  1765  082B               	movf	_pBDTEntryEP0OutNext^(0+128),w
 12327  1766  3E01               	addlw	1
 12328  1767  00F0               	movwf	??_USBCtrlEPAllowStatusStage
 12329  1768  3000               	movlw	0
 12330  1769  3D2C               	addwfc	(_pBDTEntryEP0OutNext+1)^(0+128),w
 12331  176A  00F1               	movwf	??_USBCtrlEPAllowStatusStage+1
 12332  176B  0870               	movf	??_USBCtrlEPAllowStatusStage,w
 12333  176C  0086               	movwf	6
 12334  176D  0871               	movf	??_USBCtrlEPAllowStatusStage+1,w
 12335  176E  0087               	movwf	7
 12336  176F  3008               	movlw	8
 12337  1770  0081               	movwf	1
 12338  1771                     i1l3677:
 12339                           
 12340                           ;mcc_generated_files/usb/usb_device.c: 1458:                 pBDTEntryEP0OutNext->ADR = 
      +                          (((uint16_t)(&SetupPkt)) & 0x7FFF);
 12341  1771  3050               	movlw	80
 12342  1772  00F0               	movwf	??_USBCtrlEPAllowStatusStage
 12343  1773  3000               	movlw	0
 12344  1774  00F1               	movwf	??_USBCtrlEPAllowStatusStage+1
 12345  1775  082B               	movf	_pBDTEntryEP0OutNext^(0+128),w
 12346  1776  0086               	movwf	6
 12347  1777  082C               	movf	(_pBDTEntryEP0OutNext+1)^(0+128),w
 12348  1778  0087               	movwf	7
 12349  1779  3142               	addfsr 1,2
 12350  177A  0870               	movf	??_USBCtrlEPAllowStatusStage,w
 12351  177B  3FC0               	movwi [0]fsr1
 12352  177C  0871               	movf	??_USBCtrlEPAllowStatusStage+1,w
 12353  177D  3FC1               	movwi [1]fsr1
 12354  177E                     i1l3679:
 12355                           
 12356                           ;mcc_generated_files/usb/usb_device.c: 1459:                 pBDTEntryEP0OutNext->STAT.V
      +                          al = 0x80;
 12357  177E  082B               	movf	_pBDTEntryEP0OutNext^(0+128),w
 12358  177F  0086               	movwf	6
 12359  1780  082C               	movf	(_pBDTEntryEP0OutNext+1)^(0+128),w
 12360  1781  0087               	movwf	7
 12361  1782  3080               	movlw	128
 12362  1783  0081               	movwf	1
 12363  1784  2F85               	goto	i1l207
 12364  1785                     i1l203:	
 12365                           ;mcc_generated_files/usb/usb_device.c: 1461:         }
 12366                           
 12367  1785                     i1l207:
 12368  1785  0008               	return
 12369  1786                     __end_of_USBCtrlEPAllowStatusStage:
 12370                           
 12371                           	psect	text47
 12372  1786                     __ptext47:	
 12373 ;; *************** function _USBCtrlTrfInHandler *****************
 12374 ;; Defined at:
 12375 ;;		line 2596 in file "mcc_generated_files/usb/usb_device.c"
 12376 ;; Parameters:    Size  Location     Type
 12377 ;;		None
 12378 ;; Auto vars:     Size  Location     Type
 12379 ;;  lastDTS         1    5[COMMON] unsigned char 
 12380 ;; Return value:  Size  Location     Type
 12381 ;;                  1    wreg      void 
 12382 ;; Registers used:
 12383 ;;		wreg, fsr0l, fsr0h, fsr1l, fsr1h, status,2, status,0, pclath, cstack
 12384 ;; Tracked objects:
 12385 ;;		On entry : 0/0
 12386 ;;		On exit  : 0/0
 12387 ;;		Unchanged: 0/0
 12388 ;; Data sizes:     COMMON   BANK0   BANK1   BANK2   BANK3   BANK4   BANK5   BANK6   BANK7   BANK8   BANK9  BANK10  BANK1
      +1  BANK12
 12389 ;;      Params:         0       0       0       0       0       0       0       0       0       0       0       0       
      +0       0
 12390 ;;      Locals:         1       0       0       0       0       0       0       0       0       0       0       0       
      +0       0
 12391 ;;      Temps:          2       0       0       0       0       0       0       0       0       0       0       0       
      +0       0
 12392 ;;      Totals:         3       0       0       0       0       0       0       0       0       0       0       0       
      +0       0
 12393 ;;Total ram usage:        3 bytes
 12394 ;; Hardware stack levels used:    1
 12395 ;; Hardware stack levels required when called:    1
 12396 ;; This function calls:
 12397 ;;		_USBCtrlTrfTxService
 12398 ;; This function is called by:
 12399 ;;		_USBCtrlEPService
 12400 ;; This function uses a non-reentrant model
 12401 ;;
 12402                           
 12403                           
 12404                           ;psect for function _USBCtrlTrfInHandler
 12405  1786                     _USBCtrlTrfInHandler:
 12406  1786                     i1l4107:	
 12407                           ;incstack = 0
 12408                           ; Regs used in _USBCtrlTrfInHandler: [wreg-fsr1h+status,2+status,0+pclath+cstack]
 12409                           
 12410                           
 12411                           ;mcc_generated_files/usb/usb_device.c: 2598:     uint8_t lastDTS;;mcc_generated_files/us
      +                          b/usb_device.c: 2600:     lastDTS = pBDTEntryIn[0]->STAT.DTS;
 12412  1786  0021               	movlb	1	; select bank1
 12413  1787  0820               	movf	_pBDTEntryIn^(0+128),w
 12414  1788  0086               	movwf	6
 12415  1789  0821               	movf	(_pBDTEntryIn+1)^(0+128),w
 12416  178A  0087               	movwf	7
 12417  178B  3000               	movlw	0
 12418  178C  1B01               	btfsc	1,6
 12419  178D  3001               	movlw	1
 12420  178E  00F5               	movwf	USBCtrlTrfInHandler@lastDTS
 12421  178F                     i1l4109:
 12422                           
 12423                           ;mcc_generated_files/usb/usb_device.c: 2603:     pBDTEntryIn[0] = (volatile BDT_ENTRY*)(
      +                          ((uint16_t)pBDTEntryIn[0]) ^ 0x0004);
 12424  178F  3004               	movlw	4
 12425  1790  0620               	xorwf	_pBDTEntryIn^(0+128),w
 12426  1791  00A0               	movwf	_pBDTEntryIn^(0+128)
 12427  1792  3000               	movlw	0
 12428  1793  0621               	xorwf	(_pBDTEntryIn+1)^(0+128),w
 12429  1794  00A1               	movwf	(_pBDTEntryIn+1)^(0+128)
 12430  1795                     i1l4111:
 12431                           
 12432                           ;mcc_generated_files/usb/usb_device.c: 2608:     if(USBDeviceState == ADR_PENDING_STATE)
 12433  1795  3008               	movlw	8
 12434  1796  0633               	xorwf	_USBDeviceState^(0+128),w	;volatile
 12435  1797  1D03               	btfss	3,2
 12436  1798  2F9A               	goto	u289_21
 12437  1799  2F9B               	goto	u289_20
 12438  179A                     u289_21:
 12439  179A  2FB0               	goto	i1l4121
 12440  179B                     u289_20:
 12441  179B                     i1l4113:
 12442                           
 12443                           ;mcc_generated_files/usb/usb_device.c: 2609:     {;mcc_generated_files/usb/usb_device.c:
      +                           2610:         UADDR = (SetupPkt.bDevADR & 0x7F);
 12444  179B  0020               	movlb	0	; select bank0
 12445  179C  0852               	movf	82,w	;volatile
 12446  179D  397F               	andlw	127
 12447  179E  003D               	movlb	29	; select bank29
 12448  179F  0096               	movwf	22	;volatile
 12449  17A0                     i1l4115:
 12450                           
 12451                           ;mcc_generated_files/usb/usb_device.c: 2611:         if(UADDR != 0u)
 12452  17A0  0816               	movf	22,w	;volatile
 12453  17A1  1903               	btfsc	3,2
 12454  17A2  2FA4               	goto	u290_21
 12455  17A3  2FA5               	goto	u290_20
 12456  17A4                     u290_21:
 12457  17A4  2FAB               	goto	i1l4119
 12458  17A5                     u290_20:
 12459  17A5                     i1l4117:
 12460                           
 12461                           ;mcc_generated_files/usb/usb_device.c: 2612:         {;mcc_generated_files/usb/usb_devic
      +                          e.c: 2613:             USBDeviceState=ADDRESS_STATE;
 12462  17A5  3010               	movlw	16
 12463  17A6  00F3               	movwf	??_USBCtrlTrfInHandler
 12464  17A7  0873               	movf	??_USBCtrlTrfInHandler,w
 12465  17A8  0021               	movlb	1	; select bank1
 12466  17A9  00B3               	movwf	_USBDeviceState^(0+128)	;volatile
 12467                           
 12468                           ;mcc_generated_files/usb/usb_device.c: 2614:         }
 12469  17AA  2FB0               	goto	i1l4121
 12470  17AB                     i1l4119:
 12471                           
 12472                           ;mcc_generated_files/usb/usb_device.c: 2616:         {;mcc_generated_files/usb/usb_devic
      +                          e.c: 2617:             USBDeviceState=DEFAULT_STATE;
 12473  17AB  3004               	movlw	4
 12474  17AC  00F3               	movwf	??_USBCtrlTrfInHandler
 12475  17AD  0873               	movf	??_USBCtrlTrfInHandler,w
 12476  17AE  0021               	movlb	1	; select bank1
 12477  17AF  00B3               	movwf	_USBDeviceState^(0+128)	;volatile
 12478  17B0                     i1l4121:
 12479                           
 12480                           ;mcc_generated_files/usb/usb_device.c: 2622:     if(controlTransferState == 1)
 12481  17B0  0330               	decf	_controlTransferState^(0+128),w	;volatile
 12482  17B1  1D03               	btfss	3,2
 12483  17B2  2FB4               	goto	u291_21
 12484  17B3  2FB5               	goto	u291_20
 12485  17B4                     u291_21:
 12486  17B4  2FF5               	goto	i1l334
 12487  17B5                     u291_20:
 12488  17B5                     i1l4123:
 12489                           
 12490                           ;mcc_generated_files/usb/usb_device.c: 2623:     {;mcc_generated_files/usb/usb_device.c:
      +                           2624:         pBDTEntryIn[0]->ADR = (((uint16_t)(CtrlTrfData)) & 0x7FFF);
 12491  17B5  3058               	movlw	88
 12492  17B6  00F3               	movwf	??_USBCtrlTrfInHandler
 12493  17B7  3000               	movlw	0
 12494  17B8  00F4               	movwf	??_USBCtrlTrfInHandler+1
 12495  17B9  0820               	movf	_pBDTEntryIn^(0+128),w
 12496  17BA  0086               	movwf	6
 12497  17BB  0821               	movf	(_pBDTEntryIn+1)^(0+128),w
 12498  17BC  0087               	movwf	7
 12499  17BD  3142               	addfsr 1,2
 12500  17BE  0873               	movf	??_USBCtrlTrfInHandler,w
 12501  17BF  3FC0               	movwi [0]fsr1
 12502  17C0  0874               	movf	??_USBCtrlTrfInHandler+1,w
 12503  17C1  3FC1               	movwi [1]fsr1
 12504  17C2                     i1l4125:
 12505                           
 12506                           ;mcc_generated_files/usb/usb_device.c: 2625:         USBCtrlTrfTxService();
 12507  17C2  3188  2002  3197   	fcall	_USBCtrlTrfTxService
 12508  17C5                     i1l4127:
 12509                           
 12510                           ;mcc_generated_files/usb/usb_device.c: 2631:         if(shortPacketStatus == 2)
 12511  17C5  3002               	movlw	2
 12512  17C6  0021               	movlb	1	; select bank1
 12513  17C7  0631               	xorwf	_shortPacketStatus^(0+128),w	;volatile
 12514  17C8  1D03               	btfss	3,2
 12515  17C9  2FCB               	goto	u292_21
 12516  17CA  2FCC               	goto	u292_20
 12517  17CB                     u292_21:
 12518  17CB  2FD8               	goto	i1l4131
 12519  17CC                     u292_20:
 12520  17CC                     i1l4129:
 12521                           
 12522                           ;mcc_generated_files/usb/usb_device.c: 2632:         {;mcc_generated_files/usb/usb_devic
      +                          e.c: 2635:             pBDTEntryIn[0]->STAT.Val = 0x04;
 12523  17CC  0820               	movf	_pBDTEntryIn^(0+128),w
 12524  17CD  0086               	movwf	6
 12525  17CE  0821               	movf	(_pBDTEntryIn+1)^(0+128),w
 12526  17CF  0087               	movwf	7
 12527  17D0  3004               	movlw	4
 12528  17D1  0081               	movwf	1
 12529                           
 12530                           ;mcc_generated_files/usb/usb_device.c: 2636:             pBDTEntryIn[0]->STAT.Val |= 0x8
      +                          0;
 12531  17D2  0820               	movf	_pBDTEntryIn^(0+128),w
 12532  17D3  0086               	movwf	6
 12533  17D4  0821               	movf	(_pBDTEntryIn+1)^(0+128),w
 12534  17D5  0087               	movwf	7
 12535  17D6  1781               	bsf	1,7
 12536                           
 12537                           ;mcc_generated_files/usb/usb_device.c: 2637:         }
 12538  17D7  2FFF               	goto	i1l342
 12539  17D8                     i1l4131:
 12540                           
 12541                           ;mcc_generated_files/usb/usb_device.c: 2639:         {;mcc_generated_files/usb/usb_devic
      +                          e.c: 2640:             if(lastDTS == 0)
 12542  17D8  0875               	movf	USBCtrlTrfInHandler@lastDTS,w
 12543  17D9  1D03               	btfss	3,2
 12544  17DA  2FDC               	goto	u293_21
 12545  17DB  2FDD               	goto	u293_20
 12546  17DC                     u293_21:
 12547  17DC  2FE9               	goto	i1l4135
 12548  17DD                     u293_20:
 12549  17DD                     i1l4133:
 12550                           
 12551                           ;mcc_generated_files/usb/usb_device.c: 2641:             {;mcc_generated_files/usb/usb_d
      +                          evice.c: 2642:                 pBDTEntryIn[0]->STAT.Val = 0x40|(0x08 & 0x08);
 12552  17DD  0820               	movf	_pBDTEntryIn^(0+128),w
 12553  17DE  0086               	movwf	6
 12554  17DF  0821               	movf	(_pBDTEntryIn+1)^(0+128),w
 12555  17E0  0087               	movwf	7
 12556  17E1  3048               	movlw	72
 12557  17E2  0081               	movwf	1
 12558                           
 12559                           ;mcc_generated_files/usb/usb_device.c: 2643:                 pBDTEntryIn[0]->STAT.Val |=
      +                           0x80;
 12560  17E3  0820               	movf	_pBDTEntryIn^(0+128),w
 12561  17E4  0086               	movwf	6
 12562  17E5  0821               	movf	(_pBDTEntryIn+1)^(0+128),w
 12563  17E6  0087               	movwf	7
 12564  17E7  1781               	bsf	1,7
 12565                           
 12566                           ;mcc_generated_files/usb/usb_device.c: 2644:             }
 12567  17E8  2FFF               	goto	i1l342
 12568  17E9                     i1l4135:
 12569                           
 12570                           ;mcc_generated_files/usb/usb_device.c: 2646:             {;mcc_generated_files/usb/usb_d
      +                          evice.c: 2647:                 pBDTEntryIn[0]->STAT.Val = 0x00|(0x08 & 0x08);
 12571  17E9  0820               	movf	_pBDTEntryIn^(0+128),w
 12572  17EA  0086               	movwf	6
 12573  17EB  0821               	movf	(_pBDTEntryIn+1)^(0+128),w
 12574  17EC  0087               	movwf	7
 12575  17ED  3008               	movlw	8
 12576  17EE  0081               	movwf	1
 12577                           
 12578                           ;mcc_generated_files/usb/usb_device.c: 2648:                 pBDTEntryIn[0]->STAT.Val |=
      +                           0x80;
 12579  17EF  0820               	movf	_pBDTEntryIn^(0+128),w
 12580  17F0  0086               	movwf	6
 12581  17F1  0821               	movf	(_pBDTEntryIn+1)^(0+128),w
 12582  17F2  0087               	movwf	7
 12583  17F3  1781               	bsf	1,7
 12584  17F4  2FFF               	goto	i1l342
 12585  17F5                     i1l334:	
 12586                           ;mcc_generated_files/usb/usb_device.c: 2652:  else
 12587                           
 12588                           
 12589                           ;mcc_generated_files/usb/usb_device.c: 2653:  {;mcc_generated_files/usb/usb_device.c: 26
      +                          57:         if(outPipes[0].info.bits.busy == 1)
 12590  17F5  0023               	movlb	3	; select bank3
 12591  17F6  1FB2               	btfss	(_outPipes^(0+384)+2),7	;volatile
 12592  17F7  2FF9               	goto	u294_21
 12593  17F8  2FFA               	goto	u294_20
 12594  17F9                     u294_21:
 12595  17F9  2FFD               	goto	i1l4139
 12596  17FA                     u294_20:
 12597  17FA                     i1l4137:
 12598                           
 12599                           ;mcc_generated_files/usb/usb_device.c: 2660:             {;mcc_generated_files/usb/usb_d
      +                          evice.c: 2661:                 outPipes[0].pFunc();
 12600  17FA  0835               	movf	(low ((_outPipes| (0+256)+5)))^(0+128),w	;volatile
 12601  17FB  0836               	movf	((low ((_outPipes| (0+256)+5))+1))^(0+128),w	;volatile
 12602  17FC                     i1l341:	
 12603                           ;mcc_generated_files/usb/usb_device.c: 2662:             }
 12604                           
 12605                           
 12606                           ;mcc_generated_files/usb/usb_device.c: 2663:             outPipes[0].info.bits.busy = 0;
 12607  17FC  13B2               	bcf	(_outPipes^(0+384)+2),7	;volatile
 12608  17FD                     i1l4139:
 12609                           
 12610                           ;mcc_generated_files/usb/usb_device.c: 2666:         controlTransferState = 0;
 12611  17FD  0021               	movlb	1	; select bank1
 12612  17FE  01B0               	clrf	_controlTransferState^(0+128)	;volatile
 12613  17FF                     i1l342:
 12614  17FF  0008               	return
 12615  1800                     __end_of_USBCtrlTrfInHandler:
 12616                           
 12617                           	psect	text48
 12618  0802                     __ptext48:	
 12619 ;; *************** function _USBCtrlTrfTxService *****************
 12620 ;; Defined at:
 12621 ;;		line 1775 in file "mcc_generated_files/usb/usb_device.c"
 12622 ;; Parameters:    Size  Location     Type
 12623 ;;		None
 12624 ;; Auto vars:     Size  Location     Type
 12625 ;;  byteToSend      1    2[COMMON] unsigned char 
 12626 ;; Return value:  Size  Location     Type
 12627 ;;                  1    wreg      void 
 12628 ;; Registers used:
 12629 ;;		wreg, fsr0l, fsr0h, fsr1l, fsr1h, status,2, status,0, pclath
 12630 ;; Tracked objects:
 12631 ;;		On entry : 0/0
 12632 ;;		On exit  : 0/0
 12633 ;;		Unchanged: 0/0
 12634 ;; Data sizes:     COMMON   BANK0   BANK1   BANK2   BANK3   BANK4   BANK5   BANK6   BANK7   BANK8   BANK9  BANK10  BANK1
      +1  BANK12
 12635 ;;      Params:         0       0       0       0       0       0       0       0       0       0       0       0       
      +0       0
 12636 ;;      Locals:         1       0       0       0       0       0       0       0       0       0       0       0       
      +0       0
 12637 ;;      Temps:          2       0       0       0       0       0       0       0       0       0       0       0       
      +0       0
 12638 ;;      Totals:         3       0       0       0       0       0       0       0       0       0       0       0       
      +0       0
 12639 ;;Total ram usage:        3 bytes
 12640 ;; Hardware stack levels used:    1
 12641 ;; This function calls:
 12642 ;;		Nothing
 12643 ;; This function is called by:
 12644 ;;		_USBCtrlEPAllowDataStage
 12645 ;;		_USBCtrlTrfInHandler
 12646 ;; This function uses a non-reentrant model
 12647 ;;
 12648                           
 12649                           
 12650                           ;psect for function _USBCtrlTrfTxService
 12651  0802                     _USBCtrlTrfTxService:
 12652  0802                     i1l3563:	
 12653                           ;incstack = 0
 12654                           ; Regs used in _USBCtrlTrfTxService: [wreg-fsr1h+status,2+status,0+pclath]
 12655                           
 12656                           
 12657                           ;mcc_generated_files/usb/usb_device.c: 1777:     uint8_t byteToSend;;mcc_generated_files
      +                          /usb/usb_device.c: 1781:     byteToSend = 8;
 12658  0802  3008               	movlw	8
 12659  0803  00F0               	movwf	??_USBCtrlTrfTxService
 12660  0804  0870               	movf	??_USBCtrlTrfTxService,w
 12661  0805  00F2               	movwf	USBCtrlTrfTxService@byteToSend
 12662                           
 12663                           ;mcc_generated_files/usb/usb_device.c: 1782:     if(inPipes[0].wCount.Val < (uint8_t)8)
 12664  0806  3000               	movlw	0
 12665  0807  0021               	movlb	1	; select bank1
 12666  0808  022A               	subwf	((_inPipes+1)^(0+128)+3),w	;volatile
 12667  0809  3008               	movlw	8
 12668  080A  1903               	skipnz
 12669  080B  0229               	subwf	(_inPipes^(0+128)+3),w	;volatile
 12670  080C  1803               	skipnc
 12671  080D  280F               	goto	u226_21
 12672  080E  2810               	goto	u226_20
 12673  080F                     u226_21:
 12674  080F  2827               	goto	i1l234
 12675  0810                     u226_20:
 12676  0810                     i1l3565:
 12677                           
 12678                           ;mcc_generated_files/usb/usb_device.c: 1783:     {;mcc_generated_files/usb/usb_device.c:
      +                           1784:         byteToSend = inPipes[0].wCount.Val;
 12679  0810  0829               	movf	(_inPipes^(0+128)+3),w	;volatile
 12680  0811  00F0               	movwf	??_USBCtrlTrfTxService
 12681  0812  0870               	movf	??_USBCtrlTrfTxService,w
 12682  0813  00F2               	movwf	USBCtrlTrfTxService@byteToSend
 12683  0814                     i1l3567:
 12684                           
 12685                           ;mcc_generated_files/usb/usb_device.c: 1791:         if(shortPacketStatus == 0)
 12686  0814  0831               	movf	_shortPacketStatus^(0+128),w	;volatile
 12687  0815  1D03               	btfss	3,2
 12688  0816  2818               	goto	u227_21
 12689  0817  2819               	goto	u227_20
 12690  0818                     u227_21:
 12691  0818  281E               	goto	i1l3571
 12692  0819                     u227_20:
 12693  0819                     i1l3569:
 12694                           
 12695                           ;mcc_generated_files/usb/usb_device.c: 1792:         {;mcc_generated_files/usb/usb_devic
      +                          e.c: 1793:             shortPacketStatus = 1;
 12696  0819  3001               	movlw	1
 12697  081A  00F0               	movwf	??_USBCtrlTrfTxService
 12698  081B  0870               	movf	??_USBCtrlTrfTxService,w
 12699  081C  00B1               	movwf	_shortPacketStatus^(0+128)	;volatile
 12700                           
 12701                           ;mcc_generated_files/usb/usb_device.c: 1794:         }
 12702  081D  2827               	goto	i1l234
 12703  081E                     i1l3571:
 12704  081E  0331               	decf	_shortPacketStatus^(0+128),w	;volatile
 12705  081F  1D03               	btfss	3,2
 12706  0820  2822               	goto	u228_21
 12707  0821  2823               	goto	u228_20
 12708  0822                     u228_21:
 12709  0822  2827               	goto	i1l234
 12710  0823                     u228_20:
 12711  0823                     i1l3573:
 12712                           
 12713                           ;mcc_generated_files/usb/usb_device.c: 1796:         {;mcc_generated_files/usb/usb_devic
      +                          e.c: 1797:             shortPacketStatus = 2;
 12714  0823  3002               	movlw	2
 12715  0824  00F0               	movwf	??_USBCtrlTrfTxService
 12716  0825  0870               	movf	??_USBCtrlTrfTxService,w
 12717  0826  00B1               	movwf	_shortPacketStatus^(0+128)	;volatile
 12718  0827                     i1l234:	
 12719                           ;mcc_generated_files/usb/usb_device.c: 1799:     }
 12720                           
 12721                           
 12722                           ;mcc_generated_files/usb/usb_device.c: 1803:     inPipes[0].wCount.Val -= byteToSend;
 12723  0827  0872               	movf	USBCtrlTrfTxService@byteToSend,w
 12724  0828  00F0               	movwf	??_USBCtrlTrfTxService
 12725  0829  01F1               	clrf	??_USBCtrlTrfTxService+1
 12726  082A  0870               	movf	??_USBCtrlTrfTxService,w
 12727  082B  02A9               	subwf	(_inPipes^(0+128)+3),f	;volatile
 12728  082C  0871               	movf	??_USBCtrlTrfTxService+1,w
 12729  082D  3BAA               	subwfb	((_inPipes+1)^(0+128)+3),f	;volatile
 12730  082E                     i1l3575:
 12731                           
 12732                           ;mcc_generated_files/usb/usb_device.c: 1808:     pBDTEntryIn[0]->CNT = byteToSend;
 12733  082E  0820               	movf	_pBDTEntryIn^(0+128),w
 12734  082F  3E01               	addlw	1
 12735  0830  00F0               	movwf	??_USBCtrlTrfTxService
 12736  0831  3000               	movlw	0
 12737  0832  3D21               	addwfc	(_pBDTEntryIn+1)^(0+128),w
 12738  0833  00F1               	movwf	??_USBCtrlTrfTxService+1
 12739  0834  0870               	movf	??_USBCtrlTrfTxService,w
 12740  0835  0086               	movwf	6
 12741  0836  0871               	movf	??_USBCtrlTrfTxService+1,w
 12742  0837  0087               	movwf	7
 12743  0838  0872               	movf	USBCtrlTrfTxService@byteToSend,w
 12744  0839  0081               	movwf	1
 12745  083A                     i1l3577:
 12746                           
 12747                           ;mcc_generated_files/usb/usb_device.c: 1812:     pDst = (volatile uint8_t*)CtrlTrfData;
 12748  083A  3058               	movlw	88
 12749  083B  00F0               	movwf	??_USBCtrlTrfTxService
 12750  083C  0870               	movf	??_USBCtrlTrfTxService,w
 12751  083D  0023               	movlb	3	; select bank3
 12752  083E  00EC               	movwf	_pDst^(0+384)
 12753  083F                     i1l3579:
 12754                           
 12755                           ;mcc_generated_files/usb/usb_device.c: 1813:     if(inPipes[0].info.bits.ctrl_trf_mem ==
      +                           0x00)
 12756  083F  0021               	movlb	1	; select bank1
 12757  0840  1828               	btfsc	(_inPipes^(0+128)+2),0	;volatile
 12758  0841  2843               	goto	u229_21
 12759  0842  2844               	goto	u229_20
 12760  0843                     u229_21:
 12761  0843  287D               	goto	i1l3601
 12762  0844                     u229_20:
 12763  0844  285E               	goto	i1l3591
 12764  0845                     i1l3583:
 12765                           
 12766                           ;mcc_generated_files/usb/usb_device.c: 1816:         {;mcc_generated_files/usb/usb_devic
      +                          e.c: 1817:             *pDst++ = *inPipes[0].pSrc.bRom++;
 12767  0845  0021               	movlb	1	; select bank1
 12768  0846  0826               	movf	_inPipes^(0+128),w	;volatile
 12769  0847  0084               	movwf	4
 12770  0848  0827               	movf	(_inPipes+1)^(0+128),w	;volatile
 12771  0849  0085               	movwf	5
 12772  084A  0800               	movf	0,w	;code access
 12773  084B  00F0               	movwf	??_USBCtrlTrfTxService
 12774  084C  0023               	movlb	3	; select bank3
 12775  084D  086C               	movf	_pDst^(0+384),w
 12776  084E  0086               	movwf	6
 12777  084F  0187               	clrf	7
 12778  0850  0870               	movf	??_USBCtrlTrfTxService,w
 12779  0851  0081               	movwf	1
 12780  0852                     i1l3585:
 12781  0852  3001               	movlw	1
 12782  0853  0021               	movlb	1	; select bank1
 12783  0854  07A6               	addwf	_inPipes^(0+128),f	;volatile
 12784  0855  3000               	movlw	0
 12785  0856  3DA7               	addwfc	(_inPipes+1)^(0+128),f	;volatile
 12786  0857                     i1l3587:
 12787  0857  3001               	movlw	1
 12788  0858  00F0               	movwf	??_USBCtrlTrfTxService
 12789  0859  0870               	movf	??_USBCtrlTrfTxService,w
 12790  085A  0023               	movlb	3	; select bank3
 12791  085B  07EC               	addwf	_pDst^(0+384),f
 12792  085C                     i1l3589:
 12793                           
 12794                           ;mcc_generated_files/usb/usb_device.c: 1818:             byteToSend--;
 12795  085C  3001               	movlw	1
 12796  085D  02F2               	subwf	USBCtrlTrfTxService@byteToSend,f
 12797  085E                     i1l3591:
 12798                           
 12799                           ;mcc_generated_files/usb/usb_device.c: 1815:         while(byteToSend)
 12800  085E  0872               	movf	USBCtrlTrfTxService@byteToSend,w
 12801  085F  1D03               	btfss	3,2
 12802  0860  2862               	goto	u230_21
 12803  0861  2863               	goto	u230_20
 12804  0862                     u230_21:
 12805  0862  2845               	goto	i1l3583
 12806  0863                     u230_20:
 12807  0863  2882               	goto	i1l246
 12808  0864                     i1l3593:
 12809                           
 12810                           ;mcc_generated_files/usb/usb_device.c: 1824:         {;mcc_generated_files/usb/usb_devic
      +                          e.c: 1825:             *pDst++ = *inPipes[0].pSrc.bRam++;
 12811  0864  0021               	movlb	1	; select bank1
 12812  0865  0826               	movf	_inPipes^(0+128),w	;volatile
 12813  0866  0084               	movwf	4
 12814  0867  0827               	movf	(_inPipes+1)^(0+128),w	;volatile
 12815  0868  0085               	movwf	5
 12816  0869  0800               	movf	0,w	;code access
 12817  086A  00F0               	movwf	??_USBCtrlTrfTxService
 12818  086B  0023               	movlb	3	; select bank3
 12819  086C  086C               	movf	_pDst^(0+384),w
 12820  086D  0086               	movwf	6
 12821  086E  0187               	clrf	7
 12822  086F  0870               	movf	??_USBCtrlTrfTxService,w
 12823  0870  0081               	movwf	1
 12824  0871                     i1l3595:
 12825  0871  3001               	movlw	1
 12826  0872  0021               	movlb	1	; select bank1
 12827  0873  07A6               	addwf	_inPipes^(0+128),f	;volatile
 12828  0874  3000               	movlw	0
 12829  0875  3DA7               	addwfc	(_inPipes+1)^(0+128),f	;volatile
 12830  0876                     i1l3597:
 12831  0876  3001               	movlw	1
 12832  0877  00F0               	movwf	??_USBCtrlTrfTxService
 12833  0878  0870               	movf	??_USBCtrlTrfTxService,w
 12834  0879  0023               	movlb	3	; select bank3
 12835  087A  07EC               	addwf	_pDst^(0+384),f
 12836  087B                     i1l3599:
 12837                           
 12838                           ;mcc_generated_files/usb/usb_device.c: 1826:             byteToSend--;
 12839  087B  3001               	movlw	1
 12840  087C  02F2               	subwf	USBCtrlTrfTxService@byteToSend,f
 12841  087D                     i1l3601:
 12842                           
 12843                           ;mcc_generated_files/usb/usb_device.c: 1823:         while(byteToSend)
 12844  087D  0872               	movf	USBCtrlTrfTxService@byteToSend,w
 12845  087E  1D03               	btfss	3,2
 12846  087F  2881               	goto	u231_21
 12847  0880  2882               	goto	u231_20
 12848  0881                     u231_21:
 12849  0881  2864               	goto	i1l3593
 12850  0882                     u231_20:
 12851  0882                     i1l246:
 12852  0882  0008               	return
 12853  0883                     __end_of_USBCtrlTrfTxService:
 12854                           
 12855                           	psect	text49
 12856  1507                     __ptext49:	
 12857 ;; *************** function _TMR0_ISR *****************
 12858 ;; Defined at:
 12859 ;;		line 113 in file "mcc_generated_files/tmr0.c"
 12860 ;; Parameters:    Size  Location     Type
 12861 ;;		None
 12862 ;; Auto vars:     Size  Location     Type
 12863 ;;		None
 12864 ;; Return value:  Size  Location     Type
 12865 ;;                  1    wreg      void 
 12866 ;; Registers used:
 12867 ;;		wreg, status,2, status,0, pclath, cstack
 12868 ;; Tracked objects:
 12869 ;;		On entry : 0/0
 12870 ;;		On exit  : 0/0
 12871 ;;		Unchanged: 0/0
 12872 ;; Data sizes:     COMMON   BANK0   BANK1   BANK2   BANK3   BANK4   BANK5   BANK6   BANK7   BANK8   BANK9  BANK10  BANK1
      +1  BANK12
 12873 ;;      Params:         0       0       0       0       0       0       0       0       0       0       0       0       
      +0       0
 12874 ;;      Locals:         0       0       0       0       0       0       0       0       0       0       0       0       
      +0       0
 12875 ;;      Temps:          1       0       0       0       0       0       0       0       0       0       0       0       
      +0       0
 12876 ;;      Totals:         1       0       0       0       0       0       0       0       0       0       0       0       
      +0       0
 12877 ;;Total ram usage:        1 bytes
 12878 ;; Hardware stack levels used:    1
 12879 ;; Hardware stack levels required when called:    1
 12880 ;; This function calls:
 12881 ;;		Absolute function
 12882 ;;		_TMR0_DefaultInterruptHandler
 12883 ;; This function is called by:
 12884 ;;		_INTERRUPT_InterruptManager
 12885 ;; This function uses a non-reentrant model
 12886 ;;
 12887                           
 12888                           
 12889                           ;psect for function _TMR0_ISR
 12890  1507                     _TMR0_ISR:
 12891  1507                     i1l4695:	
 12892                           ;incstack = 0
 12893                           ; Regs used in _TMR0_ISR: [wreg+status,2+status,0+pclath+cstack]
 12894                           
 12895                           
 12896                           ;mcc_generated_files/tmr0.c: 117:     INTCONbits.TMR0IF = 0;
 12897  1507  110B               	bcf	11,2	;volatile
 12898  1508                     i1l4697:
 12899                           
 12900                           ;mcc_generated_files/tmr0.c: 119:     TMR0 = timer0ReloadVal;
 12901  1508  0023               	movlb	3	; select bank3
 12902  1509  0859               	movf	_timer0ReloadVal^(0+384),w	;volatile
 12903  150A  0020               	movlb	0	; select bank0
 12904  150B  0095               	movwf	21	;volatile
 12905  150C                     i1l4699:
 12906                           
 12907                           ;mcc_generated_files/tmr0.c: 121:     if(TMR0_InterruptHandler)
 12908  150C  0023               	movlb	3	; select bank3
 12909  150D  0849               	movf	_TMR0_InterruptHandler^(0+384),w
 12910  150E  044A               	iorwf	(_TMR0_InterruptHandler+1)^(0+384),w
 12911  150F  1903               	btfsc	3,2
 12912  1510  2D12               	goto	u360_21
 12913  1511  2D13               	goto	u360_20
 12914  1512                     u360_21:
 12915  1512  2D18               	goto	i1l4703
 12916  1513                     u360_20:
 12917  1513                     i1l4701:
 12918                           
 12919                           ;mcc_generated_files/tmr0.c: 122:     {;mcc_generated_files/tmr0.c: 123:         TMR0_In
      +                          terruptHandler();
 12920  1513  084A               	movf	(_TMR0_InterruptHandler+1)^(0+384),w
 12921  1514  008A               	movwf	10
 12922  1515  0849               	movf	_TMR0_InterruptHandler^(0+384),w
 12923  1516  000A               	callw
 12924  1517  3195               	pagesel	$
 12925  1518                     i1l4703:
 12926                           
 12927                           ;mcc_generated_files/tmr0.c: 125:     if(++waitforsleep_count >= 30000)
 12928  1518  3001               	movlw	1
 12929  1519  0024               	movlb	4	; select bank4
 12930  151A  07B0               	addwf	_waitforsleep_count^(0+512),f
 12931  151B  3000               	movlw	0
 12932  151C  3DB1               	addwfc	(_waitforsleep_count+1)^(0+512),f
 12933  151D  0831               	movf	(_waitforsleep_count+1)^(0+512),w
 12934  151E  3A80               	xorlw	128
 12935  151F  00F0               	movwf	??_TMR0_ISR
 12936  1520  30F5               	movlw	245
 12937  1521  0270               	subwf	??_TMR0_ISR,w
 12938  1522  1D03               	skipz
 12939  1523  2D26               	goto	u361_25
 12940  1524  3030               	movlw	48
 12941  1525  0230               	subwf	_waitforsleep_count^(0+512),w
 12942  1526                     u361_25:
 12943  1526  1C03               	skipc
 12944  1527  2D29               	goto	u361_21
 12945  1528  2D2A               	goto	u361_20
 12946  1529                     u361_21:
 12947  1529  2D30               	goto	i1l4709
 12948  152A                     u361_20:
 12949  152A                     i1l4705:
 12950                           
 12951                           ;mcc_generated_files/tmr0.c: 126:     {;mcc_generated_files/tmr0.c: 127:         waitfor
      +                          sleep_count = 0;
 12952  152A  0024               	movlb	4	; select bank4
 12953  152B  01B0               	clrf	_waitforsleep_count^(0+512)
 12954  152C  01B1               	clrf	(_waitforsleep_count+1)^(0+512)
 12955  152D                     i1l4707:
 12956                           
 12957                           ;mcc_generated_files/tmr0.c: 128:         sleep_flag = 1;
 12958  152D  0023               	movlb	3	; select bank3
 12959  152E  01DC               	clrf	_sleep_flag^(0+384)
 12960  152F  0ADC               	incf	_sleep_flag^(0+384),f
 12961  1530                     i1l4709:
 12962                           
 12963                           ;mcc_generated_files/tmr0.c: 130:     if(++counter >= 10)
 12964  1530  3001               	movlw	1
 12965  1531  0023               	movlb	3	; select bank3
 12966  1532  07CB               	addwf	_counter^(0+384),f
 12967  1533  3000               	movlw	0
 12968  1534  3DCC               	addwfc	(_counter+1)^(0+384),f
 12969  1535  084C               	movf	(_counter+1)^(0+384),w
 12970  1536  3A80               	xorlw	128
 12971  1537  00F0               	movwf	??_TMR0_ISR
 12972  1538  3080               	movlw	128
 12973  1539  0270               	subwf	??_TMR0_ISR,w
 12974  153A  1D03               	skipz
 12975  153B  2D3E               	goto	u362_25
 12976  153C  300A               	movlw	10
 12977  153D  024B               	subwf	_counter^(0+384),w
 12978  153E                     u362_25:
 12979  153E  1C03               	skipc
 12980  153F  2D41               	goto	u362_21
 12981  1540  2D42               	goto	u362_20
 12982  1541                     u362_21:
 12983  1541  2D5E               	goto	i1l736
 12984  1542                     u362_20:
 12985  1542                     i1l4711:
 12986                           
 12987                           ;mcc_generated_files/tmr0.c: 131:     {;mcc_generated_files/tmr0.c: 132:         if(meas
      +                          urementburst_count < 78)
 12988  1542  0024               	movlb	4	; select bank4
 12989  1543  082F               	movf	(_measurementburst_count+1)^(0+512),w
 12990  1544  3A80               	xorlw	128
 12991  1545  00F0               	movwf	??_TMR0_ISR
 12992  1546  3080               	movlw	128
 12993  1547  0270               	subwf	??_TMR0_ISR,w
 12994  1548  1D03               	skipz
 12995  1549  2D4C               	goto	u363_25
 12996  154A  304E               	movlw	78
 12997  154B  022E               	subwf	_measurementburst_count^(0+512),w
 12998  154C                     u363_25:
 12999  154C  1803               	skipnc
 13000  154D  2D4F               	goto	u363_21
 13001  154E  2D50               	goto	u363_20
 13002  154F                     u363_21:
 13003  154F  2D59               	goto	i1l734
 13004  1550                     u363_20:
 13005  1550                     i1l4713:
 13006                           
 13007                           ;mcc_generated_files/tmr0.c: 133:         {;mcc_generated_files/tmr0.c: 134:         mea
      +                          surementburst_count++;
 13008  1550  3001               	movlw	1
 13009  1551  0024               	movlb	4	; select bank4
 13010  1552  07AE               	addwf	_measurementburst_count^(0+512),f
 13011  1553  3000               	movlw	0
 13012  1554  3DAF               	addwfc	(_measurementburst_count+1)^(0+512),f
 13013  1555                     i1l4715:
 13014                           
 13015                           ;mcc_generated_files/tmr0.c: 135:         measurement_flag = 1;
 13016  1555  0023               	movlb	3	; select bank3
 13017  1556  01DA               	clrf	_measurement_flag^(0+384)
 13018  1557  0ADA               	incf	_measurement_flag^(0+384),f
 13019                           
 13020                           ;mcc_generated_files/tmr0.c: 136:         }
 13021  1558  2D5C               	goto	i1l4717
 13022  1559                     i1l734:	
 13023                           ;mcc_generated_files/tmr0.c: 137:         else
 13024                           
 13025                           
 13026                           ;mcc_generated_files/tmr0.c: 138:         {;mcc_generated_files/tmr0.c: 139:            
      +                           writeout_flag = 1;
 13027  1559  0023               	movlb	3	; select bank3
 13028  155A  01DB               	clrf	_writeout_flag^(0+384)
 13029  155B  0ADB               	incf	_writeout_flag^(0+384),f
 13030  155C                     i1l4717:
 13031                           
 13032                           ;mcc_generated_files/tmr0.c: 141:         counter = 0;
 13033  155C  01CB               	clrf	_counter^(0+384)
 13034  155D  01CC               	clrf	(_counter+1)^(0+384)
 13035  155E                     i1l736:
 13036  155E  0008               	return
 13037  155F                     __end_of_TMR0_ISR:
 13038                           
 13039                           	psect	text50
 13040  0003                     __ptext50:	
 13041 ;; *************** function _TMR0_DefaultInterruptHandler *****************
 13042 ;; Defined at:
 13043 ;;		line 152 in file "mcc_generated_files/tmr0.c"
 13044 ;; Parameters:    Size  Location     Type
 13045 ;;		None
 13046 ;; Auto vars:     Size  Location     Type
 13047 ;;		None
 13048 ;; Return value:  Size  Location     Type
 13049 ;;                  1    wreg      void 
 13050 ;; Registers used:
 13051 ;;		None
 13052 ;; Tracked objects:
 13053 ;;		On entry : 0/0
 13054 ;;		On exit  : 0/0
 13055 ;;		Unchanged: 0/0
 13056 ;; Data sizes:     COMMON   BANK0   BANK1   BANK2   BANK3   BANK4   BANK5   BANK6   BANK7   BANK8   BANK9  BANK10  BANK1
      +1  BANK12
 13057 ;;      Params:         0       0       0       0       0       0       0       0       0       0       0       0       
      +0       0
 13058 ;;      Locals:         0       0       0       0       0       0       0       0       0       0       0       0       
      +0       0
 13059 ;;      Temps:          0       0       0       0       0       0       0       0       0       0       0       0       
      +0       0
 13060 ;;      Totals:         0       0       0       0       0       0       0       0       0       0       0       0       
      +0       0
 13061 ;;Total ram usage:        0 bytes
 13062 ;; Hardware stack levels used:    1
 13063 ;; This function calls:
 13064 ;;		Nothing
 13065 ;; This function is called by:
 13066 ;;		_TMR0_Initialize
 13067 ;;		_TMR0_ISR
 13068 ;; This function uses a non-reentrant model
 13069 ;;
 13070                           
 13071                           
 13072                           ;psect for function _TMR0_DefaultInterruptHandler
 13073  0003                     _TMR0_DefaultInterruptHandler:
 13074  0003                     i1l742:	
 13075                           ;incstack = 0
 13076                           ; Regs used in _TMR0_DefaultInterruptHandler: []
 13077                           
 13078  0003  0008               	return
 13079  0004                     __end_of_TMR0_DefaultInterruptHandler:
 13080  007E                     btemp	set	126	;btemp
 13081  007E                     int$flags	set	126
 13082  007E                     wtemp0	set	126
 13083  2250                     
 13084                           	psect	config
 13085                           
 13086                           ;Config register CONFIG1 @ 0x8007
 13087                           ;	Oscillator Selection Bits
 13088                           ;	FOSC = INTOSC, INTOSC oscillator: I/O function on CLKIN pin
 13089                           ;	Watchdog Timer Enable
 13090                           ;	WDTE = OFF, WDT disabled
 13091                           ;	Power-up Timer Enable
 13092                           ;	PWRTE = OFF, PWRT disabled
 13093                           ;	MCLR Pin Function Select
 13094                           ;	MCLRE = ON, MCLR/VPP pin function is MCLR
 13095                           ;	Flash Program Memory Code Protection
 13096                           ;	CP = OFF, Program memory code protection is disabled
 13097                           ;	Brown-out Reset Enable
 13098                           ;	BOREN = ON, Brown-out Reset enabled
 13099                           ;	Clock Out Enable
 13100                           ;	CLKOUTEN = OFF, CLKOUT function is disabled. I/O or oscillator function on the CLKOUT 
      +                          pin
 13101                           ;	Internal/External Switchover Mode
 13102                           ;	IESO = ON, Internal/External Switchover Mode is enabled
 13103                           ;	Fail-Safe Clock Monitor Enable
 13104                           ;	FCMEN = ON, Fail-Safe Clock Monitor is enabled
 13105  8007                     	org	32775
 13106  8007  3FE4               	dw	16356
 13107                           
 13108                           ;Config register CONFIG2 @ 0x8008
 13109                           ;	Flash Memory Self-Write Protection
 13110                           ;	WRT = OFF, Write protection off
 13111                           ;	CPU System Clock Selection Bit
 13112                           ;	CPUDIV = CLKDIV6, CPU system clock divided by 6
 13113                           ;	USB Low SPeed Clock Selection bit
 13114                           ;	USBLSCLK = 48MHz, System clock expects 48 MHz, FS/LS USB CLKENs divide-by is set to 8.
 13115                           ;	PLL Multipler Selection Bit
 13116                           ;	PLLMULT = 3x, 3x Output Frequency Selected
 13117                           ;	PLL Enable Bit
 13118                           ;	PLLEN = ENABLED, 3x or 4x PLL Enabled
 13119                           ;	Stack Overflow/Underflow Reset Enable
 13120                           ;	STVREN = ON, Stack Overflow or Underflow will cause a Reset
 13121                           ;	Brown-out Reset Voltage Selection
 13122                           ;	BORV = LO, Brown-out Reset Voltage (Vbor), low trip point selected.
 13123                           ;	Low-Power Brown Out Reset
 13124                           ;	LPBOR = OFF, Low-Power BOR is disabled
 13125                           ;	Low-Voltage Programming Enable
 13126                           ;	LVP = ON, Low-voltage programming enabled
 13127  8008                     	org	32776
 13128  8008  3FFF               	dw	16383

Data Sizes:
    Strings     0
    Constant    181
    Data        416
    BSS         248
    Persistent  34
    Stack       0

Auto Spaces:
    Space          Size  Autos    Used
    COMMON           14     14      14
    BANK0            16     16      16
    BANK1            48     21      43
    BANK2             0      0       0
    BANK3            64      1      64
    BANK4            80      6      43
    BANK5            80      0      64
    BANK6            80      0      64
    BANK7            32      0       0
    BANK8             0      0       0
    BANK9             0      0       0
    BANK10            0      0       0
    BANK11            0      0       0
    BANK12            0      0       0

Pointer List with Targets:

    USER_USB_CALLBACK_EVENT_HANDLER@pdata	PTR void  size(2) Largest target is 4096
		 -> RAM(DATA[4096]), USTATcopy(BANK1[1]), USBActiveConfiguration(BANK1[1]), NULL(NULL[0]), 
		 -> BDT(BANK0[48]), 

    ADC_InterruptHandler	PTR FTN()void  size(2) Largest target is 1
		 -> Absolute function(), 

    memset@dest	PTR void  size(2) Largest target is 48
		 -> USBAlternateInterface(BANK3[2]), BDT(BANK0[48]), 

    memset@s	PTR unsigned char  size(2) Largest target is 48
		 -> USBAlternateInterface(BANK3[2]), BDT(BANK0[48]), 

    memcpy@d1	PTR void  size(1) Largest target is 8
		 -> SetupPkt(BANK0[8]), 

    memcpy@d	PTR unsigned char  size(1) Largest target is 8
		 -> SetupPkt(BANK0[8]), 

    memcpy@s1	PTR const void  size(2) Largest target is 4096
		 -> CtrlTrfData(BANK0[8]), RAM(DATA[4096]), SetupPkt(BANK0[8]), 

    memcpy@s	PTR const unsigned char  size(2) Largest target is 4096
		 -> CtrlTrfData(BANK0[8]), RAM(DATA[4096]), SetupPkt(BANK0[8]), 

    eeprom_storeBurstGroup@data	PTR unsigned short [8] size(2) Largest target is 416
		 -> measarray(BIGRAM[416]), 

    TMR0_SetInterruptHandler@InterruptHandler	PTR FTN()void  size(2) Largest target is 1
		 -> TMR0_DefaultInterruptHandler(), 

    TMR0_InterruptHandler	PTR FTN()void  size(2) Largest target is 1
		 -> TMR0_DefaultInterruptHandler(), Absolute function(), 

    IOCAF5_SetInterruptHandler@InterruptHandler	PTR FTN()void  size(2) Largest target is 1
		 -> IOCAF5_DefaultInterruptHandler(), 

    IOCAF5_InterruptHandler	PTR FTN()void  size(2) Largest target is 1
		 -> Absolute function(), IOCAF5_DefaultInterruptHandler(), 

    CDCDataInHandle	PTR void  size(2) Largest target is 4096
		 -> RAM(DATA[4096]), NULL(NULL[0]), BDT(BANK0[48]), 

    CDCDataOutHandle	PTR void  size(2) Largest target is 4096
		 -> RAM(DATA[4096]), NULL(NULL[0]), BDT(BANK0[48]), 

    pCDCDst.wRom	PTR const unsigned short  size(2) Largest target is 0

    pCDCDst.bRom	PTR const unsigned char  size(2) Largest target is 0

    pCDCDst.wRam	PTR unsigned short  size(2) Largest target is 0

    pCDCDst.bRam	PTR unsigned char  size(2) Largest target is 0

    S1607_POINTER$wRom	PTR const unsigned short  size(2) Largest target is 0

    pCDCSrc.wRom	PTR const unsigned short  size(2) Largest target is 0

    S1607_POINTER$bRom	PTR const unsigned char  size(2) Largest target is 0

    pCDCSrc.bRom	PTR const unsigned char  size(2) Largest target is 0

    S1607_POINTER$wRam	PTR unsigned short  size(2) Largest target is 0

    pCDCSrc.wRam	PTR unsigned short  size(2) Largest target is 0

    S1607_POINTER$bRam	PTR unsigned char  size(2) Largest target is 0

    pCDCSrc.bRam	PTR unsigned char  size(2) Largest target is 0

    USBStdFeatureReqHandler@pUEP	PTR unsigned char  size(2) Largest target is 1
		 -> UEP0(SFR29[1]), 

    USBStdFeatureReqHandler@p	PTR struct __BDT size(2) Largest target is 4096
		 -> RAM(DATA[4096]), NULL(NULL[0]), BDT(BANK0[48]), 

    sp__memcpy	PTR void  size(1) Largest target is 8
		 -> SetupPkt(BANK0[8]), 

    USBStdGetStatusHandler@p	PTR struct __BDT size(2) Largest target is 4096
		 -> RAM(DATA[4096]), NULL(NULL[0]), BDT(BANK0[48]), 

    USB_SD_Ptr	const PTR const unsigned char [4] size(2) Largest target is 52
		 -> sd003(CODE[8]), sd002(CODE[22]), sd001(CODE[52]), sd000(CODE[4]), 

    USB_CD_Ptr	const PTR const unsigned char [1] size(2) Largest target is 67
		 -> configDescriptor1(CODE[67]), 

    sp__memset	PTR void  size(2) Largest target is 48
		 -> USBAlternateInterface(BANK3[2]), BDT(BANK0[48]), 

    USBStdSetCfgHandler@p	PTR unsigned char  size(2) Largest target is 1
		 -> UEP1(SFR29[1]), 

    pDst	PTR volatile unsigned char  size(1) Largest target is 8
		 -> CtrlTrfData(BANK0[8]), NULL(NULL[0]), 

    USBConfigureEndpoint@handle	PTR volatile struct __BDT size(1) Largest target is 48
		 -> BDT(BANK0[48]), 

    pBDTEntryEP0OutCurrent	PTR volatile struct __BDT size(1) Largest target is 48
		 -> NULL(NULL[0]), BDT(BANK0[48]), 

    pBDTEntryEP0OutNext	PTR volatile struct __BDT size(2) Largest target is 4096
		 -> RAM(DATA[4096]), NULL(NULL[0]), BDT(BANK0[48]), 

    USBTransferOnePacket@data	PTR unsigned char  size(2) Largest target is 64
		 -> cdc_data_tx(BIGRAM[64]), cdc_data_rx(BIGRAM[64]), NULL(NULL[0]), 

    sp__USBTransferOnePacket	PTR void  size(2) Largest target is 4096
		 -> RAM(DATA[4096]), NULL(NULL[0]), BDT(BANK0[48]), 

    USBTransferOnePacket@handle	PTR volatile struct __BDT size(2) Largest target is 4096
		 -> RAM(DATA[4096]), NULL(NULL[0]), BDT(BANK0[48]), 

    USBEnableEndpoint@p	PTR unsigned char  size(2) Largest target is 1
		 -> UEP0(SFR29[1]), 

    pBDTEntryOut	PTR volatile struct __BDT[3] size(2) Largest target is 4096
		 -> RAM(DATA[4096]), NULL(NULL[0]), BDT(BANK0[48]), 

    pBDTEntryIn	PTR volatile struct __BDT[3] size(2) Largest target is 4096
		 -> RAM(DATA[4096]), NULL(NULL[0]), BDT(BANK0[48]), 

    S103$pFunc	PTR FTN()void  size(2) Largest target is 0
		 -> NULL(NULL[0]), 

    outPipes.pFunc	PTR FTN()void  size(2) Largest target is 0
		 -> NULL(NULL[0]), 

    S93$wRam	PTR unsigned short  size(1) Largest target is 0

    outPipes.pDst.wRam	PTR unsigned short  size(1) Largest target is 0

    S93$bRam	PTR unsigned char  size(1) Largest target is 0

    outPipes.pDst.bRam	PTR unsigned char  size(1) Largest target is 0

    S69$wRom	PTR const unsigned short  size(1) Largest target is 0

    inPipes.pSrc.wRom	PTR const unsigned short  size(1) Largest target is 0

    S69$wRam	PTR unsigned short  size(1) Largest target is 0

    inPipes.pSrc.wRam	PTR unsigned short  size(1) Largest target is 0

    S69$bRom	PTR const unsigned char  size(1) Largest target is 0

    inPipes.pSrc.bRom	PTR const unsigned char  size(1) Largest target is 0

    S69$bRam	PTR unsigned char  size(1) Largest target is 0

    inPipes.pSrc.bRam	PTR unsigned char  size(1) Largest target is 0

    USBDeviceInit@p	PTR unsigned char  size(2) Largest target is 1
		 -> UEP1(SFR29[1]), 


Critical Paths under _main in COMMON

    None.

Critical Paths under _INTERRUPT_InterruptManager in COMMON

    _USBCtrlEPServiceComplete->_USBCtrlEPAllowDataStage
    _USBCtrlEPAllowDataStage->_USBCtrlTrfTxService
    _USBStdSetCfgHandler->_memset
    _USER_USB_CALLBACK_EVENT_HANDLER->_CDCInitEP
    _CDCInitEP->_USBEnableEndpoint
    _USBEnableEndpoint->_USBConfigureEndpoint
    _USBCtrlTrfOutHandler->_USBCtrlTrfRxService
    _USBCtrlTrfRxService->_USBCtrlEPAllowStatusStage
    _USBCtrlTrfInHandler->_USBCtrlTrfTxService

Critical Paths under _main in BANK0

    None.

Critical Paths under _INTERRUPT_InterruptManager in BANK0

    _USBWakeFromSuspend->_USER_USB_CALLBACK_EVENT_HANDLER
    _USBSuspend->_USER_USB_CALLBACK_EVENT_HANDLER
    _USBCtrlEPService->_USBCtrlTrfSetupHandler
    _USBCtrlTrfSetupHandler->_USBCheckStdRequest
    _USBCheckStdRequest->_USBStdFeatureReqHandler
    _USBStdSetCfgHandler->_USER_USB_CALLBACK_EVENT_HANDLER
    _USBStdFeatureReqHandler->_USER_USB_CALLBACK_EVENT_HANDLER

Critical Paths under _main in BANK1

    _main->_measurementBurst
    _measurementBurst->_takeMeasurement
    _eeprom_storeBurstGroup->_I2C_MasterWrite
    _ACK_Poll->_I2C_MasterWrite
    _SYSTEM_Initialize->_USBDeviceInit
    _TMR0_Initialize->_TMR0_SetInterruptHandler
    _PIN_MANAGER_Initialize->_IOCAF5_SetInterruptHandler

Critical Paths under _INTERRUPT_InterruptManager in BANK1

    _INTERRUPT_InterruptManager->_USBDeviceTasks
    _USBDeviceTasks->_USBCtrlEPService

Critical Paths under _main in BANK2

    None.

Critical Paths under _INTERRUPT_InterruptManager in BANK2

    None.

Critical Paths under _main in BANK3

    _main->_measurementBurst

Critical Paths under _INTERRUPT_InterruptManager in BANK3

    None.

Critical Paths under _main in BANK4

    _main->_eeprom_storeBurstGroup

Critical Paths under _INTERRUPT_InterruptManager in BANK4

    None.

Critical Paths under _main in BANK5

    None.

Critical Paths under _INTERRUPT_InterruptManager in BANK5

    None.

Critical Paths under _main in BANK6

    None.

Critical Paths under _INTERRUPT_InterruptManager in BANK6

    None.

Critical Paths under _main in BANK7

    None.

Critical Paths under _INTERRUPT_InterruptManager in BANK7

    None.

Critical Paths under _main in BANK8

    None.

Critical Paths under _INTERRUPT_InterruptManager in BANK8

    None.

Critical Paths under _main in BANK9

    None.

Critical Paths under _INTERRUPT_InterruptManager in BANK9

    None.

Critical Paths under _main in BANK10

    None.

Critical Paths under _INTERRUPT_InterruptManager in BANK10

    None.

Critical Paths under _main in BANK11

    None.

Critical Paths under _INTERRUPT_InterruptManager in BANK11

    None.

Critical Paths under _main in BANK12

    None.

Critical Paths under _INTERRUPT_InterruptManager in BANK12

    None.

Call Graph Tables:

 ---------------------------------------------------------------------------------
 (Depth) Function   	        Calls       Base Space   Used Autos Params    Refs
 ---------------------------------------------------------------------------------
 (0) _main                                                 1     1      0    1504
                                              5 BANK4      1     1      0
                     _I2C_Initialize
                  _SYSTEM_Initialize
             _eeprom_storeBurstGroup
                   _measurementBurst
 ---------------------------------------------------------------------------------
 (1) _measurementBurst                                    15    15      0     124
                                              7 BANK1     14    14      0
                                              0 BANK3      1     1      0
                    _takeMeasurement
 ---------------------------------------------------------------------------------
 (2) _takeMeasurement                                      2     2      0      31
                                              5 BANK1      2     2      0
 ---------------------------------------------------------------------------------
 (1) _eeprom_storeBurstGroup                              19    15      4     886
                                              6 BANK1     14    10      4
                                              0 BANK4      5     5      0
                           _ACK_Poll
                    _I2C_MasterStart
                     _I2C_MasterStop
                    _I2C_MasterWrite
 ---------------------------------------------------------------------------------
 (2) _ACK_Poll                                             0     0      0      31
                    _I2C_MasterStart
                     _I2C_MasterStop
                    _I2C_MasterWrite
 ---------------------------------------------------------------------------------
 (2) _I2C_MasterWrite                                      1     1      0      31
                                              5 BANK1      1     1      0
              _I2C_WaitForCompletion
 ---------------------------------------------------------------------------------
 (2) _I2C_MasterStop                                       0     0      0       0
              _I2C_WaitForCompletion
 ---------------------------------------------------------------------------------
 (2) _I2C_MasterStart                                      0     0      0       0
              _I2C_WaitForCompletion
 ---------------------------------------------------------------------------------
 (3) _I2C_WaitForCompletion                                0     0      0       0
 ---------------------------------------------------------------------------------
 (1) _SYSTEM_Initialize                                    0     0      0     494
                     _ADC_Initialize
              _OSCILLATOR_Initialize
             _PIN_MANAGER_Initialize
                    _TMR0_Initialize
                    _USBDeviceAttach
                      _USBDeviceInit
                     _WDT_Initialize
 ---------------------------------------------------------------------------------
 (2) _WDT_Initialize                                       0     0      0       0
 ---------------------------------------------------------------------------------
 (2) _USBDeviceInit                                        5     5      0     272
                                              5 BANK1      5     5      0
 ---------------------------------------------------------------------------------
 (2) _USBDeviceAttach                                      1     1      0       0
                                              5 BANK1      1     1      0
 ---------------------------------------------------------------------------------
 (2) _TMR0_Initialize                                      1     1      0     111
                                              7 BANK1      1     1      0
           _TMR0_SetInterruptHandler
 ---------------------------------------------------------------------------------
 (3) _TMR0_SetInterruptHandler                             2     0      2     111
                                              5 BANK1      2     0      2
 ---------------------------------------------------------------------------------
 (2) _PIN_MANAGER_Initialize                               0     0      0     111
         _IOCAF5_SetInterruptHandler
 ---------------------------------------------------------------------------------
 (3) _IOCAF5_SetInterruptHandler                           2     0      2     111
                                              5 BANK1      2     0      2
 ---------------------------------------------------------------------------------
 (2) _OSCILLATOR_Initialize                                0     0      0       0
 ---------------------------------------------------------------------------------
 (2) _ADC_Initialize                                       0     0      0       0
 ---------------------------------------------------------------------------------
 (1) _I2C_Initialize                                       0     0      0       0
 ---------------------------------------------------------------------------------
 Estimated maximum stack depth 3
 ---------------------------------------------------------------------------------
 (Depth) Function   	        Calls       Base Space   Used Autos Params    Refs
 ---------------------------------------------------------------------------------
 (5) _INTERRUPT_InterruptManager                           0     0      0   39247
                           _TMR0_ISR
                     _USBDeviceTasks
 ---------------------------------------------------------------------------------
 (6) _USBDeviceTasks                                       3     3      0   39247
                                              2 BANK1      3     3      0
          _USBCtrlEPAllowStatusStage
                   _USBCtrlEPService
      _USBIncrement1msInternalTimers
                    _USBStallHandler
                         _USBSuspend
                 _USBWakeFromSuspend
    _USER_USB_CALLBACK_EVENT_HANDLER
                    i1_USBDeviceInit
 ---------------------------------------------------------------------------------
 (7) i1_USBDeviceInit                                      5     5      0     272
                                              0 COMMON     5     5      0
 ---------------------------------------------------------------------------------
 (7) _USBWakeFromSuspend                                   1     1      0    5136
                                              6 BANK0      1     1      0
    _USER_USB_CALLBACK_EVENT_HANDLER
 ---------------------------------------------------------------------------------
 (7) _USBSuspend                                           1     1      0    5136
                                              6 BANK0      1     1      0
    _USER_USB_CALLBACK_EVENT_HANDLER
 ---------------------------------------------------------------------------------
 (7) _USBStallHandler                                      1     1      0       0
                                              0 COMMON     1     1      0
 ---------------------------------------------------------------------------------
 (7) _USBIncrement1msInternalTimers                        1     1      0       0
                                              0 COMMON     1     1      0
 ---------------------------------------------------------------------------------
 (7) _USBCtrlEPService                                     2     2      0   23499
                                              0 BANK1      2     2      0
                _USBCtrlTrfInHandler
               _USBCtrlTrfOutHandler
             _USBCtrlTrfSetupHandler
                             _memcpy
 ---------------------------------------------------------------------------------
 (8) _memcpy                                              10     6      4     363
                                              0 COMMON    10     6      4
 ---------------------------------------------------------------------------------
 (8) _USBCtrlTrfSetupHandler                               1     1      0   22907
                                             15 BANK0      1     1      0
                 _USBCheckStdRequest
           _USBCtrlEPServiceComplete
    _USER_USB_CALLBACK_EVENT_HANDLER
 ---------------------------------------------------------------------------------
 (9) _USBCtrlEPServiceComplete                             2     2      0      92
                                              5 COMMON     2     2      0
            _USBCtrlEPAllowDataStage
          _USBCtrlEPAllowStatusStage
 ---------------------------------------------------------------------------------
 (10) _USBCtrlEPAllowDataStage                             2     2      0      92
                                              3 COMMON     2     2      0
                _USBCtrlTrfTxService
 ---------------------------------------------------------------------------------
 (9) _USBCheckStdRequest                                   2     2      0   17679
                                             13 BANK0      2     2      0
            _USBStdFeatureReqHandler
                _USBStdGetDscHandler
             _USBStdGetStatusHandler
                _USBStdSetCfgHandler
    _USER_USB_CALLBACK_EVENT_HANDLER
 ---------------------------------------------------------------------------------
 (10) _USBStdSetCfgHandler                                 5     5      0    6890
                                              6 BANK0      5     5      0
    _USER_USB_CALLBACK_EVENT_HANDLER
                             _memset
 ---------------------------------------------------------------------------------
 (11) _memset                                             14     8      6    1519
                                              0 COMMON    14     8      6
 ---------------------------------------------------------------------------------
 (10) _USBStdGetStatusHandler                              4     4      0      46
                                              0 COMMON     4     4      0
 ---------------------------------------------------------------------------------
 (10) _USBStdGetDscHandler                                 3     3      0       0
                                              0 COMMON     3     3      0
 ---------------------------------------------------------------------------------
 (10) _USBStdFeatureReqHandler                             7     7      0    5607
                                              6 BANK0      7     7      0
    _USER_USB_CALLBACK_EVENT_HANDLER
 ---------------------------------------------------------------------------------
 (7) _USER_USB_CALLBACK_EVENT_HANDLER                      6     0      6    5136
                                              0 BANK0      6     0      6
                          _CDCInitEP
                 _USBCheckCDCRequest
 ---------------------------------------------------------------------------------
 (8) _USBCheckCDCRequest                                   2     2      0       0
                                              0 COMMON     2     2      0
 ---------------------------------------------------------------------------------
 (8) _CDCInitEP                                            1     1      0    2444
                                             13 COMMON     1     1      0
                  _USBEnableEndpoint
               _USBTransferOnePacket
 ---------------------------------------------------------------------------------
 (9) _USBTransferOnePacket                                11     7      4    1711
                                              0 COMMON    11     7      4
 ---------------------------------------------------------------------------------
 (9) _USBEnableEndpoint                                    6     5      1     733
                                              7 COMMON     6     5      1
               _USBConfigureEndpoint
 ---------------------------------------------------------------------------------
 (10) _USBConfigureEndpoint                                7     6      1     400
                                              0 COMMON     7     6      1
 ---------------------------------------------------------------------------------
 (8) _USBCtrlTrfOutHandler                                 2     2      0     114
                                              6 COMMON     2     2      0
                _USBCtrlTrfRxService
 ---------------------------------------------------------------------------------
 (9) _USBCtrlTrfRxService                                  4     4      0     114
                                              2 COMMON     4     4      0
          _USBCtrlEPAllowStatusStage
 ---------------------------------------------------------------------------------
 (10) _USBCtrlEPAllowStatusStage                           2     2      0       0
                                              0 COMMON     2     2      0
 ---------------------------------------------------------------------------------
 (8) _USBCtrlTrfInHandler                                  3     3      0     115
                                              3 COMMON     3     3      0
                _USBCtrlTrfTxService
 ---------------------------------------------------------------------------------
 (11) _USBCtrlTrfTxService                                 3     3      0      92
                                              0 COMMON     3     3      0
 ---------------------------------------------------------------------------------
 (6) _TMR0_ISR                                             1     1      0       0
                                              0 COMMON     1     1      0
                   Absolute function *
       _TMR0_DefaultInterruptHandler *
 ---------------------------------------------------------------------------------
 (7) _TMR0_DefaultInterruptHandler                         0     0      0       0
 ---------------------------------------------------------------------------------
 (7) Absolute function(Fake)                               0     0      0       0
 ---------------------------------------------------------------------------------
 Estimated maximum stack depth 11
 ---------------------------------------------------------------------------------

 Call Graph Graphs:

 _main (ROOT)
   _I2C_Initialize
   _SYSTEM_Initialize
     _ADC_Initialize
     _OSCILLATOR_Initialize
     _PIN_MANAGER_Initialize
       _IOCAF5_SetInterruptHandler
     _TMR0_Initialize
       _TMR0_SetInterruptHandler
     _USBDeviceAttach
     _USBDeviceInit
     _WDT_Initialize
   _eeprom_storeBurstGroup
     _ACK_Poll
       _I2C_MasterStart
         _I2C_WaitForCompletion
       _I2C_MasterStop
         _I2C_WaitForCompletion
       _I2C_MasterWrite
         _I2C_WaitForCompletion
     _I2C_MasterStart
       _I2C_WaitForCompletion
     _I2C_MasterStop
       _I2C_WaitForCompletion
     _I2C_MasterWrite
       _I2C_WaitForCompletion
   _measurementBurst
     _takeMeasurement

 _INTERRUPT_InterruptManager (ROOT)
   _TMR0_ISR
     Absolute function(Fake) *
     _TMR0_DefaultInterruptHandler *
   _USBDeviceTasks
     _USBCtrlEPAllowStatusStage
     _USBCtrlEPService
       _USBCtrlTrfInHandler
         _USBCtrlTrfTxService
       _USBCtrlTrfOutHandler
         _USBCtrlTrfRxService
           _USBCtrlEPAllowStatusStage
       _USBCtrlTrfSetupHandler
         _USBCheckStdRequest
           _USBStdFeatureReqHandler
             _USER_USB_CALLBACK_EVENT_HANDLER
               _CDCInitEP
                 _USBEnableEndpoint
                   _USBConfigureEndpoint
                 _USBTransferOnePacket
               _USBCheckCDCRequest
           _USBStdGetDscHandler
           _USBStdGetStatusHandler
           _USBStdSetCfgHandler
             _USER_USB_CALLBACK_EVENT_HANDLER
               _CDCInitEP
                 _USBEnableEndpoint
                   _USBConfigureEndpoint
                 _USBTransferOnePacket
               _USBCheckCDCRequest
             _memset
           _USER_USB_CALLBACK_EVENT_HANDLER
             _CDCInitEP
               _USBEnableEndpoint
                 _USBConfigureEndpoint
               _USBTransferOnePacket
             _USBCheckCDCRequest
         _USBCtrlEPServiceComplete
           _USBCtrlEPAllowDataStage
             _USBCtrlTrfTxService
           _USBCtrlEPAllowStatusStage
         _USER_USB_CALLBACK_EVENT_HANDLER
           _CDCInitEP
             _USBEnableEndpoint
               _USBConfigureEndpoint
             _USBTransferOnePacket
           _USBCheckCDCRequest
       _memcpy
     _USBIncrement1msInternalTimers
     _USBStallHandler
     _USBSuspend
       _USER_USB_CALLBACK_EVENT_HANDLER
         _CDCInitEP
           _USBEnableEndpoint
             _USBConfigureEndpoint
           _USBTransferOnePacket
         _USBCheckCDCRequest
     _USBWakeFromSuspend
       _USER_USB_CALLBACK_EVENT_HANDLER
         _CDCInitEP
           _USBEnableEndpoint
             _USBConfigureEndpoint
           _USBTransferOnePacket
         _USBCheckCDCRequest
     _USER_USB_CALLBACK_EVENT_HANDLER
       _CDCInitEP
         _USBEnableEndpoint
           _USBConfigureEndpoint
         _USBTransferOnePacket
       _USBCheckCDCRequest
     i1_USBDeviceInit

 Address spaces:
Name               Size   Autos  Total    Cost      Usage
BIGRAM             3F0      0       0       0        0.0%
NULL                 0      0       0       0        0.0%
CODE                 0      0       0       0        0.0%
BITCOMMON            E      0       0       1        0.0%
BITSFR0              0      0       0       1        0.0%
SFR0                 0      0       0       1        0.0%
COMMON               E      E       E       2      100.0%
BITSFR1              0      0       0       2        0.0%
SFR1                 0      0       0       2        0.0%
BITSFR2              0      0       0       3        0.0%
SFR2                 0      0       0       3        0.0%
STACK                0      0       0       3        0.0%
BITBANK0            10      0       0       4        0.0%
BITSFR3              0      0       0       4        0.0%
SFR3                 0      0       0       4        0.0%
BANK0               10     10      10       5      100.0%
BITSFR4              0      0       0       5        0.0%
SFR4                 0      0       0       5        0.0%
BITBANK1            50      0       0       6        0.0%
BITSFR5              0      0       0       6        0.0%
SFR5                 0      0       0       6        0.0%
BANK1               30     15      2B       7       89.6%
BITSFR6              0      0       0       7        0.0%
SFR6                 0      0       0       7        0.0%
BITBANK2            50      0       0       8        0.0%
BITSFR7              0      0       0       8        0.0%
SFR7                 0      0       0       8        0.0%
BITSFR8              0      0       0       9        0.0%
SFR8                 0      0       0       9        0.0%
BANK2                0      0       0       9        0.0%
BITBANK3            50      0       0      10        0.0%
BITSFR9              0      0       0      10        0.0%
SFR9                 0      0       0      10        0.0%
BANK3               40      1      40      11      100.0%
BITSFR10             0      0       0      11        0.0%
SFR10                0      0       0      11        0.0%
BITBANK4            50      0       0      12        0.0%
BITSFR11             0      0       0      12        0.0%
SFR11                0      0       0      12        0.0%
BANK4               50      6      2B      13       53.8%
BITSFR12             0      0       0      13        0.0%
SFR12                0      0       0      13        0.0%
BITBANK5            50      0       0      14        0.0%
BITSFR13             0      0       0      14        0.0%
SFR13                0      0       0      14        0.0%
BANK5               50      0      40      15       80.0%
BITSFR14             0      0       0      15        0.0%
SFR14                0      0       0      15        0.0%
BITBANK6            50      0       0      16        0.0%
BITSFR15             0      0       0      16        0.0%
SFR15                0      0       0      16        0.0%
BANK6               50      0      40      17       80.0%
BITSFR16             0      0       0      17        0.0%
SFR16                0      0       0      17        0.0%
BITBANK7            50      0       0      18        0.0%
BITSFR17             0      0       0      18        0.0%
SFR17                0      0       0      18        0.0%
BANK7               20      0       0      19        0.0%
BITSFR18             0      0       0      19        0.0%
SFR18                0      0       0      19        0.0%
BITSFR19             0      0       0      20        0.0%
SFR19                0      0       0      20        0.0%
ABS                  0      0     134      20        0.0%
BITBANK8            50      0       0      21        0.0%
BITSFR20             0      0       0      21        0.0%
SFR20                0      0       0      21        0.0%
BITSFR21             0      0       0      22        0.0%
SFR21                0      0       0      22        0.0%
BANK8                0      0       0      22        0.0%
BITBANK9            50      0       0      23        0.0%
BITSFR22             0      0       0      23        0.0%
SFR22                0      0       0      23        0.0%
BITSFR23             0      0       0      24        0.0%
SFR23                0      0       0      24        0.0%
BANK9                0      0       0      24        0.0%
BITBANK10           50      0       0      25        0.0%
BITSFR24             0      0       0      25        0.0%
SFR24                0      0       0      25        0.0%
BITSFR25             0      0       0      26        0.0%
SFR25                0      0       0      26        0.0%
BANK10               0      0       0      26        0.0%
BITBANK11           50      0       0      27        0.0%
BITSFR26             0      0       0      27        0.0%
SFR26                0      0       0      27        0.0%
BITSFR27             0      0       0      28        0.0%
SFR27                0      0       0      28        0.0%
BANK11               0      0       0      28        0.0%
BITBANK12           30      0       0      29        0.0%
BITSFR28             0      0       0      29        0.0%
SFR28                0      0       0      29        0.0%
BITSFR29             0      0       0      30        0.0%
SFR29                0      0       0      30        0.0%
BANK12               0      0       0      30        0.0%
BITSFR30             0      0       0      31        0.0%
SFR30                0      0       0      31        0.0%
DATA                 0      0     134      31        0.0%
BITSFR31             0      0       0      32        0.0%
SFR31                0      0       0      32        0.0%


Microchip Technology PIC Macro Assembler V2.31 build 20201012212115 
Symbol Table                                                                                   Thu Apr 08 12:26:44 2021

                                _USB_SD_Ptr 189F                    ??_eeprom_storeBurstGroup 00C0  
                             _USBDeviceInit 0CA1                          __size_of_CDCInitEP 0038  
                           _timer0ReloadVal 01D9        USER_USB_CALLBACK_EVENT_HANDLER@event 0060  
      USER_USB_CALLBACK_EVENT_HANDLER@pdata 0062                                         l141 0D53  
                                       l136 0CE4                 __end_of_USBStdGetDscHandler 0A1D  
                                       l612 11FE                                         l196 1285  
                                       l197 1284                                         l615 1203  
                                       l199 128F                                         l633 11B6  
                                       l609 123C                                         l618 11A0  
                                       l813 034B                                         l806 1221  
                                       l719 1255                                         l903 0E15  
                                       l815 0501                                         l823 16CB  
                                       l808 1225                                         l809 1226  
                                       l739 11C8                                         l676 12F5  
                                       _BDT 0020                                         l861 11DD  
                                       l687 11BF                                         l871 11AC  
                                       l872 11AD                                         l864 1204  
                                       l881 11D1                                         l866 1213  
                                       l875 11A6                                         l869 11A7  
                                       l878 07FF                                         _UIE 0E92  
                                       _UIR 0E90                                  _USBSuspend 1290  
                                       _row 00AE                        USBStdSetCfgHandler@i 006A  
                      USBStdSetCfgHandler@p 0067                                         wreg 0009  
                            _USBDeviceTasks 0EE0                              _USBDeviceState 00B3  
        __end_of_IOCAF5_SetInterruptHandler 11C0                  _IOCAF5_SetInterruptHandler 11B7  
                     ??_USBCtrlTrfRxService 0072                    USBEnableEndpoint@options 0077  
                                      l4201 0CF3                                        l4211 0D08  
                                      l4203 0CF5                  USBConfigureEndpoint@handle 0076  
                                      l4141 11B7                                        l4221 0D2A  
                                      l4213 0D09                                        l4205 0CFA  
                                      l4143 11C0                                        l4311 1272  
                                      l4231 0D3E                                        l4223 0D30  
                                      l4207 0D06                                        l4321 1281  
                                      l4313 1278                                        l4241 0D51  
                                      l4233 0D44                                        l4225 0D34  
                                      l4217 0D0B                                        l4209 0D07  
                                      l4161 0CA7                                        l4331 12DB  
                                      l4323 128A                                        l4315 127B  
                                      l4235 0D45                                        l4227 0D37  
                                      l4219 0D26                                        l4171 0CB6  
                                      l4341 12EC                                        l4333 12DD  
                                      l4325 12D2                                        l4317 127D  
                                      l4237 0D47                                        l4229 0D3C  
                                      l4173 0CBA                                        l4157 0CA1  
                                      l4351 11FC                                        l4343 12ED  
                                      l4335 12E5                                        l4327 12D6  
                                      l4319 127F                                        l4239 0D50  
                                      l4191 0CE7                                        l4183 0CC9  
                                      l4175 0CC0                                        l4167 0CAD  
                                      l4159 0CA3                                        l4361 11B3  
                                      l4345 11F6                                        l4337 12E9  
                                      l4329 12D9                                        l4193 0CE8  
                                      l4185 0CDA                                        l4177 0CC7  
                                      l4169 0CB2                                        l4353 119D  
                                      l4363 11B4                                        l4355 11AE  
                                      l4347 11F9                                        l4339 12EB  
                                      l4371 124B                                        l4195 0CE9  
                                      l4187 0CDE                                        l4357 11B1  
                                      l4349 11FA                                        l4373 124C  
                                      l4365 123D                                        l4197 0CEF  
                                      l4189 0CE6                                        l4359 11B2  
                                      l4375 124D                                        l4367 1242  
                                      l4199 0CF1                                        l4801 11D2  
                                      l4369 1245                                        l4803 11D4  
                                      l5531 1207                                        l5523 1216  
                                      l4805 11D6                                        l5461 11A7  
                                      l5533 120B                                        l5525 121F  
                                      l5701 0410                                        l4807 11D9  
                                      l5535 1210                                        l5527 1220  
                                      l5711 04A4                                        l5703 043D  
                                      l4809 11DB                                        l5529 1204  
                                      l5721 0D54                                        l5713 04D5  
                                      l5705 0441                                        l5641 0078  
                                      l5801 169C                                        l4691 1236  
                                      l5491 11A3                                        l5731 0D64  
                                      l5715 04FB                                        l5707 0471  
                                      l5651 014C                                        l5643 007C  
                                      l5811 16AD                                        l5803 169D  
                                      l4693 1239                                        l4685 1227  
                                      l5493 11CB                                        l5741 0D7C  
                                      l5733 0D6A                                        l5725 0D62  
                                      l5717 04FF                                        l5709 04A0  
                                      l5661 01C1                                        l5653 0150  
                                      l5645 00B8                                        l5821 16C4  
                                      l5813 16B4                                        l5805 16A3  
                                      l4687 1230                                        l5495 11CE  
                                      l5743 0D81                                        l5735 0D70  
                                      l5719 0500                                        l5671 0255  
                                      l5663 01C5                                        l5655 0177  
                                      l5647 011B                                        l5639 0073  
                                      l5831 16D3                                        l5823 16C8  
                                      l5815 16B9                                        l5807 16A4  
                                      l4689 1233                                        l5489 11A1  
                                      l5497 07FA                                        l5761 0DF9  
                                      l5753 0D84                                        l5737 0D73  
                                      l5681 02E4                                        l5673 0259  
                                      l5665 01F5                                        l5657 017B  
                                      l5649 011F                                        l5841 16E9  
                                      l5833 16D5                                        l5809 16A9  
                                      l5825 16CB                                        l5499 07FC  
                                      l5763 0DFF                                        l5755 0DE7  
                                      l5747 0D83                                        l5739 0D77  
                                      l5691 0384                                        l5683 02E8  
                                      l5675 0284                                        l5667 0224  
                                      l5659 01BB                                        l5851 1708  
                                      l5843 16EA                                        l5835 16D6  
                                      l5827 16D0                                        l5819 16BE  
                                      l5765 0E02                                        l5757 0DED  
                                      l5693 03B1                                        l5685 0318  
                                      l5677 0288                                        l5669 0228  
                                      l5845 16F3                                        l5829 16D1  
                                      l5837 16DE                                        l5767 0E0A  
                                      l5759 0DF3                                        l5695 03DA  
                                      l5687 0352                                        l5679 02B6  
                                      l5847 16F5                                        l5839 16E4  
                                      l5769 0E0F                                        l5697 03DE  
                                      l5689 0380                                        l5849 1703  
                                      l5699 03E2                                        l5795 1695  
                                      l5797 1698                                        l5799 169B  
                                      u3100 1278                                        u3101 1277  
                                      _LATA 010C                                        u3110 128A  
                                      _LATB 010D                                        u3111 1289  
                                      _LATC 010E                                        u3120 1203  
                                      u3121 1202                                        u4400 1210  
                                      u4401 120F                                        u4340 11AC  
                                      u4341 11AB                                        u2950 0CC0  
                                      u4390 1225                                        u4710 01C1  
                                      u2951 0CBF                                        u4391 1224  
                                      u4711 01C0                  eeprom_storeBurstGroup@data 00BE  
                                      u4640 0078                                        u4705 018C  
                                      u4641 0077                                        u2970 0CE4  
                                      u2971 0CE3                                        u2980 0CFA  
                                      u2981 0CF9                                        u2965 0CCC  
                                      u4805 0414                                        u4725 01F8  
                                      u2990 0D30                                        u4830 0D61  
                                      u2991 0D2F                                        u4831 0D60  
                                      u4815 0474                                        u4735 022C  
                                      u4655 0081                                        u4840 0DF3  
                                      u4920 16A3                                        u4841 0DF2  
                                      u4825 04A8                                        u4745 028D  
                                      u4665 0089                                        u4921 16A2  
                                      u4850 0DFF                                        u4770 0352  
                                      u4930 16A9                                        u4851 0DFE  
                                      u4771 0351                                        u4755 02BA  
                                      u4675 00EF                                        u4931 16A8  
                                      u4860 0E15                                        u4940 16B9  
                                      u4861 0E14                                        u4765 031B  
                                      u4685 0123                                        u4941 16B8  
                                      u4950 16C4                                        u4695 0184  
                                      u4951 16C3                       ??_USBCtrlTrfTxService 0070  
                                      u4960 16D0                                        u4785 0357  
                                      u4961 16CF                                        u4970 16E4  
                                      u4795 03E7                                        u4971 16E3  
                                      u4980 16E9                                        u4981 16E8  
                                      u4990 16F3                                        u4991 16F2  
                                      _UCFG 0E91                                        _UEP0 0E98  
                                      _UEP1 0E99                                        _UEIE 0E97  
                                      _UEIR 0E93                                        _UCON 0E8E  
                                      _TMR0 0015                                        _WPUA 020C  
                                      _WPUB 020D                             _CDCDataInHandle 01CD  
    USBStdFeatureReqHandler@current_ep_data 006A                                        _pDst 01EC  
                                      _main 1695                                        _byte 01D8  
                                      fsr0h 0005                                        fsr1h 0007  
                                      indf0 0000                                        fsr0l 0004  
                                      indf1 0001                                 _BaudRateGen 022A  
                                      fsr1l 0006                             _USBDeviceAttach 1272  
                                      btemp 007E                                        start 0026  
                          __end_of_ACK_Poll 1214                  __end_of_USBCheckStdRequest 0992  
                    ??_USBCtrlTrfOutHandler 0076                   ??_USBStdFeatureReqHandler 0066  
                  ??_USBStdGetStatusHandler 0070                              ?_USBDeviceInit 0070  
                   __end_of_TMR0_Initialize 1256              ??_TMR0_DefaultInterruptHandler 0070  
            __size_of_OSCILLATOR_Initialize 000E                            ?_I2C_MasterStart 0070  
                          ?_I2C_MasterWrite 0070               __end_of_OSCILLATOR_Initialize 1204  
                               _writeBuffer 0320                                       ?_main 0070  
         __size_of_USBCtrlEPServiceComplete 00A1                      __end_of_USBDeviceTasks 1000  
                 ?_USBCtrlEPServiceComplete 0070                                       i1l203 1785  
                                     i1l213 15BE                                       i1l221 0AF9  
                                     i1l301 1345                                       i1l141 0BF4  
                                     i1l310 12D1                                       i1l207 1785  
                                     i1l231 0B4A                                       i1l304 12AF  
                                     i1l136 0B8C                                       i1l321 14B0  
                                     i1l153 0F58                                       i1l234 0827  
                                     i1l218 145A                                       i1l171 131A  
                                     i1l147 0F0D                                       i1l148 0FFF  
                                     i1l341 17FC                                       i1l157 0F91  
                                     i1l246 0882                                       i1l342 17FF  
                                     i1l334 17F5                                       i1l318 1506  
                                     i1l158 0FFD                                       i1l159 0F98  
                                     i1l328 1417                                       i1l257 0C97  
                                     i1l249 0C0D                                       i1l177 0909  
                                     i1l442 1694                                       i1l282 0A1C  
                                     i1l290 15CE                                       i1l346 0991  
                                     i1l259 0CA0                                       i1l291 15D1  
                                     i1l268 0AA9                                       i1l348 0914  
                                     i1l357 094A                                       i1l382 07B2  
                                     i1l286 15C3                                       i1l455 13DD  
                                     i1l391 1271                                       i1l384 07C5  
                                     i1l296 1625                                       i1l289 1617  
                                     i1l386 07F9                                       i1l549 13A5  
                                     i1l742 0003                                       i1l734 1559  
                                     i1l736 155E                                       i1l762 0024  
                                     i1l763 0024                                       i1l757 0012  
                                     _UADDR 0E96                                       _TRISA 008C  
                                     _TRISB 008D                                       _TRISC 008E  
                                     _USTAT 0E8F           __size_of_TMR0_SetInterruptHandler 0009  
        __size_of_USBCtrlEPAllowStatusStage 0079                   ?_TMR0_SetInterruptHandler 00BB  
           __end_of_USBCtrlEPAllowDataStage 15BF                            __end_of_TMR0_ISR 155F  
                                     _sd000 18AF                                       _sd001 1843  
                                     _sd002 1877                                       _sd003 18A7  
            ?_USBIncrement1msInternalTimers 0070                              _WDT_Initialize 119D  
                                     pclath 000A                           __end_of_CDCInitEP 13DE  
                                     status 0003                                       wtemp0 007E  
                  __end_of_measurementBurst 0502                __size_of_USBStdSetCfgHandler 008D  
                           __initialization 0028                                __end_of_main 170D  
                     _control_signal_bitmap 01DD             __size_of_eeprom_storeBurstGroup 00C2  
               ?_INTERRUPT_InterruptManager 0070                   __size_of_USBCtrlEPService 0056  
                                    ??_main 0248                             ?_USBDeviceTasks 0070  
                               ?_USBSuspend 0070                             i1_USBDeviceInit 0B4B  
                    __end_of_WDT_Initialize 11A1                                _cdc_mem_type 01DE  
                   __end_of_USBDeviceAttach 1290                                      _ADCON0 009D  
                                    _ADCON1 009E                                      _ADCON2 009F  
                          _CDCDataOutHandle 01CF                                      _ACTCON 039B  
                                    _ADRESH 009C                                      _ADRESL 009B  
                                    _APFCON 011D                                      _ANSELA 018C  
                                    _ANSELB 018D                                      _ANSELC 018E  
                                    _BORCON 0116                                      i1l4001 0C94  
                                    i1l4003 0C98                                      i1l1451 0EDF  
                                    i1l4005 0C9D                                      i1l4101 140A  
                                    i1l4111 1795                                      i1l4103 1410  
                                    i1l1447 1373                                      i1l4113 179B  
                                    i1l4121 17B0                                      i1l4105 1416  
                                    i1l4131 17D8                                      i1l4123 17B5  
                                    i1l4115 17A0                                      i1l4107 1786  
                                    i1l4051 1347                                      i1l4133 17DD  
                                    i1l4125 17C2                                      i1l4117 17A5  
                                    i1l4109 178F                                      i1l3421 1419  
                                    i1l3501 1654                                      i1l4053 1350  
                                    i1l4061 1367                                      i1l4135 17E9  
                                    i1l4127 17C5                                      i1l4119 17AB  
                                    i1l3431 1449                                      i1l3423 141D  
                                    i1l3511 166A                                      i1l3503 1656  
                                    i1l4055 1358                                      i1l3601 087D  
                                    i1l4137 17FA                                      i1l4129 17CC  
                                    i1l3433 1451                                      i1l3425 1436  
                                    i1l3441 1300                                      i1l3513 166E  
                                    i1l3505 1661                                      i1l3521 167B  
                                    i1l4057 135C                                      i1l4401 0B56  
                                    i1l4139 17FD                                      i1l4091 13E5  
                                    i1l3435 1455                                      i1l3427 143A  
                                    i1l3443 1304                                      i1l3451 0889  
                                    i1l3531 13B0                                      i1l3515 1673  
                                    i1l3507 1663                                      i1l4059 1363  
                                    i1l4251 12C5                                      i1l4243 12B0  
                                    i1l4411 0B70                                      i1l4403 0B5B  
                                    i1l4093 13E9                                      i1l3429 143F  
                                    i1l3445 130A                                      i1l3437 12F7  
                                    i1l3461 08A4                                      i1l3453 0892  
                                    i1l3541 13D9                                      i1l3533 13B5  
                                    i1l3517 1678                                      i1l3509 1665  
                                    i1l3701 15B3                                      i1l4261 1298  
                                    i1l4253 12CB                                      i1l4245 12B2  
                                    i1l4421 0B86                                      i1l4405 0B5F  
                                    i1l4095 13EA                                      i1l3447 1314  
                                    i1l3439 12FB                                      i1l3471 08ED  
                                    i1l3463 08B3                                      i1l3455 089B  
                                    i1l3543 13DB                                      i1l3535 13B7  
                                    i1l3527 13A6                                      i1l3703 15B9  
                                    i1l4271 125F                                      i1l4263 1299  
                                    i1l4255 12CF                                      i1l4247 12C1  
                                    i1l4431 0B95                                      i1l4423 0B8E  
                                    i1l4407 0B63                                      i1l4097 13F0  
                                    i1l4089 13DE                                      i1l3473 0905  
                                    i1l3465 08BF                                      i1l3457 08A1  
                                    i1l3449 0884                                      i1l3537 13BF  
                                    i1l3529 13AF                                      i1l3481 162F  
                                    i1l3553 137D                                      i1l3545 1374  
                                    i1l3801 15D8                                      i1l5401 0A6E  
                                    i1l4273 1264                                      i1l4281 132A  
                                    i1l4265 129F                                      i1l4257 1290  
                                    i1l4249 12C3                                      i1l4441 0BA9  
                                    i1l4433 0B97                                      i1l4425 0B8F  
                                    i1l4417 0B71                                      i1l4409 0B69  
                                    i1l3571 081E                                      i1l3563 0802  
                                    i1l3651 171C                                      i1l4099 13FD  
                                    i1l3467 08D1                                      i1l3539 13C7  
                                    i1l3491 1643                                      i1l3547 1375  
                                    i1l3803 15E4                                      i1l5331 0E21  
                                    i1l5411 0A87                                      i1l5403 0A70  
                                    i1l4275 126D                                      i1l4283 1334  
                                    i1l4267 12A0                                      i1l4259 1292  
                                    i1l4451 0BAD                                      i1l4443 0BAA  
                                    i1l4435 0B99                                      i1l4427 0B90  
                                    i1l4419 0B82                                      i1l4701 1513  
                                    i1l3573 0823                                      i1l3565 0810  
                                    i1l3661 1739                                      i1l3653 1720  
                                    i1l3645 170D                                      i1l3469 08D6  
                                    i1l3493 1648                                      i1l3485 1638  
                                    i1l3477 1626                                      i1l3549 1379  
                                    i1l3901 07CD                                      i1l3805 15EE  
                                    i1l3813 1603                                      i1l5341 0E7F  
                                    i1l5333 0E27                                      i1l5325 0E16  
                                    i1l5413 0A8C                                      i1l5405 0A75  
                                    i1l5501 14B1                                      i1l4269 1256  
                                    i1l4285 133F                                      i1l4277 131B  
                                    i1l4461 0BDA                                      i1l4453 0BC8  
                                    i1l4445 0BAB                                      i1l4437 0B9B  
                                    i1l4429 0B91                                      i1l4711 1542  
                                    i1l4703 1518                                      i1l3583 0845  
                                    i1l3591 085E                                      i1l3575 082E  
                                    i1l3567 0814                                      i1l3671 175B  
                                    i1l3663 173E                                      i1l3655 1727  
                                    i1l3647 1713                                      i1l3495 164C  
                                    i1l3487 163D                                      i1l3903 07DD  
                                    i1l3831 06B1                                      i1l3815 161C  
                                    i1l3807 15F6                                      i1l5351 0EB1  
                                    i1l5335 0E39                                      i1l5327 0E1A  
                                    i1l5415 0A93                                      i1l5407 0A7B  
                                    i1l5431 092A                                      i1l5423 0916  
                                    i1l3911 0AB1                                      i1l5511 14D7  
                                    i1l5503 14B7                                      i1l4279 1320  
                                    i1l4287 1341                                      i1l4471 0BE8  
                                    i1l4463 0BDF                                      i1l4455 0BCC  
                                    i1l4447 0BAC                                      i1l4439 0BA0  
                                    i1l4391 0B4B                                      u220_20 08A1  
                                    u300_20 12CF                                      i1l4713 1550  
                                    i1l4705 152A                                      i1l3593 0864  
                                    i1l3585 0852                                      i1l3577 083A  
                                    i1l3569 0819                                      i1l3673 175F  
                                    i1l3665 1740                                      i1l3657 172D  
                                    i1l3649 1717                                      u220_21 08A0  
                                    i1l3497 164D                                      i1l3905 07E5  
                                    i1l3841 06CD                                      i1l3833 06B8  
                                    i1l3825 06A2                                      i1l3761 099F  
                                    i1l3817 1620                                      i1l3809 15FE  
                                    i1l5361 0ED1                                      i1l5353 0EBE  
                                    i1l5345 0E89                                      i1l5417 0AA3  
                                    i1l5409 0A81                                      i1l6081 096E  
                                    i1l5441 093B                                      i1l5433 092B  
                                    i1l5425 091D                                      i1l3681 155F  
                                    i1l3921 0AC6                                      i1l3913 0AB6  
                                    i1l5521 1503                                      i1l5513 14E2  
                                    i1l5505 14BE                                      u300_21 12CE  
                                    i1l4473 0BF1                                      i1l4465 0BE1  
                                    i1l4457 0BD2                                      i1l4393 0B4D  
                                    i1l5601 0F71                                      i1l4715 1555  
                                    i1l4707 152D                                      i1l3595 0871  
                                    i1l3587 0857                                      i1l3579 083F  
                                    i1l3675 1764                                      i1l3667 1748  
                                    i1l3659 1733                                      i1l6091 1683  
                                    i1l3499 164F                                      i1l3907 07F1  
                                    i1l3851 0700                                      i1l3843 06D4  
                                    i1l3835 06BE                                      i1l3827 06A8  
                                    i1l3771 09CD                                      i1l3763 09A4  
                                    i1l3819 1621                                      i1l6083 160C  
                                    i1l5363 0ED5                                      i1l5355 0EC2  
                                    i1l5347 0EA7                                      i1l5339 0E43  
                                    i1l5451 0957                                      i1l5443 0941  
                                    i1l5435 0931                                      i1l5427 0921  
                                    i1l5419 090A                                      i1l3691 1588  
                                    i1l3683 1562                                      i1l3931 0AED  
                                    i1l3915 0ABB                                      i1l3923 0AC8  
                                    i1l5515 14F2                                      i1l5507 14CB  
                                    i1l4475 0BF2                                      i1l4467 0BE5  
                                    i1l4459 0BD7                                      i1l4395 0B51  
                                    i1l5611 0F96                                      i1l5603 0F75  
                                    i1l4717 155C                                      i1l4709 1530  
                                    i1l3597 0876                                      i1l3589 085C  
                                    i1l3677 1771                                      i1l3669 1754  
                                    i1l3861 072D                                      i1l3853 0714  
                                    i1l3845 06DD                                      i1l3829 06AF  
                                    i1l3837 06C0                                      i1l6085 0A11  
                                    i1l3781 0A02                                      i1l3773 09DD  
                                    i1l3765 09A9                                      i1l3757 0992  
                                    i1l5365 0ED9                                      i1l5357 0EC6  
                                    i1l5381 0A32                                      i1l5445 0942  
                                    i1l5437 0933                                      i1l5429 0925  
                                    i1l3685 1569                                      i1l3693 158E  
                                    i1l3941 0B0C                                      i1l3933 0AF3  
                                    i1l3925 0AD5                                      i1l3917 0AC1  
                                    i1l3909 0AAA                                      i1l5517 14F6  
                                    i1l5509 14D1                                      i1l4469 0BE6  
                                    i1l5621 0FAB                                      i1l5605 0F85  
                                    i1l5541 0EEB                                      i1l3599 087B  
                                    i1l3679 177E                                      i1l6087 1386  
                                    i1l3871 0755                                      i1l3863 0739  
                                    i1l3855 0718                                      i1l3847 06E4  
                                    i1l3839 06C6                                      i1l3783 0A05  
                                    i1l3775 09E0                                      i1l3767 09AE  
                                    i1l3759 0999                                      i1l5359 0ECB  
                                    i1l5383 0A38                                      i1l5375 0A25  
                                    i1l5367 0A1D                                      i1l5447 0948  
                                    i1l5439 0937                                      i1l5455 0966  
                                    i1l3695 159B                                      i1l3687 1575  
                                    i1l3951 0B1D                                      i1l3943 0B0E  
                                    i1l3935 0AFE                                      i1l3927 0AE2  
                                    i1l3919 0AC4                                      i1l5471 1481  
                                    i1l5463 145B                                      i1l5519 14FA  
                                    i1l5631 0FDF                                      i1l5623 0FB1  
                                    i1l5607 0F87                                      i1l5551 0EF8  
                                    i1l5543 0EEC                                      u221_20 08D6  
                                    u301_20 1264                                      u221_21 08D5  
                                    i1l6089 13A0                                      i1l3881 0775  
                                    i1l3873 075D                                      i1l3865 0743  
                                    i1l3857 0723                                      i1l3849 06EA  
                                    i1l3777 09E6                                      i1l3769 09BE  
                                    i1l3793 15BF                                      i1l5393 0A4A  
                                    i1l5385 0A46                                      i1l5377 0A2A  
                                    i1l5369 0A24                                      i1l5449 094C  
                                    i1l3697 15A2                                      i1l3689 1582  
                                    i1l3961 0B43                                      i1l3953 0B29  
                                    i1l3945 0B0F                                      i1l3937 0B03  
                                    i1l3929 0AE8                                      i1l5481 1499  
                                    i1l5473 1488                                      i1l5465 1464  
                                    u301_21 1263                                      i1l5633 0FE3  
                                    i1l5625 0FB6                                      i1l5617 0F9D  
                                    i1l5609 0F8E                                      i1l5561 0F11  
                                    i1l5553 0EFC                                      i1l5545 0EED  
                                    i1l5537 0EE0                                      i1l3971 0C14  
                                    i1l3891 079F                                      i1l3883 077D  
                                    i1l3875 0764                                      i1l3867 0749  
                                    i1l3859 0729                                      i1l3779 09F6  
                                    i1l3787 0A08                                      i1l5395 0A56  
                                    i1l5387 0A48                                      i1l5379 0A2E  
                                    i1l3699 15A5                                      i1l3955 0B36  
                                    i1l3947 0B14                                      i1l3939 0B09  
                                    i1l5483 149B                                      i1l5475 1493  
                                    i1l5467 146F                                      i1l5635 0FF2  
                                    i1l5627 0FC8                                      i1l5619 0FA2  
                                    i1l5563 0F15                                      i1l5571 0F23  
                                    i1l5555 0F02                                      i1l5547 0EEE  
                                    i1l5539 0EE6                                      i1l3981 0C30  
                                    i1l3973 0C16                                      i1l3965 0BF5  
                                    u213_25 1420                                      i1l3893 07A6  
                                    i1l3885 0785                                      i1l3877 0769  
                                    i1l3869 0751                                      i1l3797 15C5  
                                    i1l5397 0A5A                                      i1l3957 0B3C  
                                    i1l3949 0B18                                      i1l5485 149E  
                                    i1l5477 1495                                      i1l5469 1476  
                                    i1l5637 0FF7                                      i1l5629 0FD9  
                                    i1l5581 0F37                                      i1l5573 0F27  
                                    i1l5565 0F18                                      i1l5557 0F05  
                                    i1l5549 0EF3                                      i1l4695 1507  
                                    i1l3991 0C63                                      i1l3983 0C36  
                                    i1l3975 0C22                                      i1l3967 0BFB  
                                    i1l3895 07AA                                      i1l3887 078A  
                                    i1l3879 076F                                      i1l3799 15CB  
                                    i1l5399 0A60                                      i1l3959 0B41  
                                    i1l5487 14AD                                      i1l5479 1497  
                                    i1l5591 0F5D                                      i1l5583 0F47  
                                    i1l5575 0F2B                                      i1l5567 0F1A  
                                    i1l5559 0F0A                                      u230_20 0863  
                                    u222_20 162E                                      u302_20 126D  
                                    i1l4697 1508                                      u230_21 0862  
                                    i1l3985 0C43                                      i1l3993 0C6F  
                                    i1l3977 0C26                                      i1l3969 0C09  
                                    u222_21 162D                                      i1l3897 07B6  
                                    i1l3889 079A                                      u302_21 126C  
                                    i1l5585 0F4D                                      i1l5593 0F60  
                                    i1l5577 0F2E                                      i1l5569 0F1E  
                                    i1l4699 150C                                      i1l3995 0C7C  
                                    i1l3987 0C50                                      i1l3979 0C2A  
                                    i1l3899 07BE                                      i1l5595 0F65  
                                    i1l5587 0F50                                      i1l5579 0F33  
                                    i1l3997 0C89                                      i1l3989 0C57  
                                    u214_25 1426                                      i1l5597 0F69  
                                    i1l5589 0F56                                      i1l3999 0C8F  
                                    i1l5599 0F6C                                      i1l5791 001B  
                                    i1l5783 0006                                      u231_20 0882  
                                    u223_20 1637                                      u303_20 1320  
                                    u231_21 0881                                      u223_21 1636  
                                    u303_21 131F                                      i1l5793 0020  
                                    i1l5785 000A                                      i1l5787 000E  
                                    u215_25 142E                                      i1l5789 0016  
                                    u240_20 173E                                      u216_20 143F  
                                    u224_20 163D                                      u304_20 132A  
                                    u240_21 173D                                      u216_21 143E  
                                    u224_21 163C                                      u304_21 1329  
                                    u217_20 12FB                                      u225_20 1642  
                                    u241_20 1569                                      u305_20 1334  
                                    u217_21 12FA                                      u225_21 1641  
                                    u241_21 1568                                      u305_21 1333  
                                    u226_20 0810                                      u218_20 1304  
                                    u250_20 15D8                                      u242_20 159B  
                                    u226_21 080F                                      u218_21 1303  
                                    u250_21 15D7                                      u242_21 159A  
                                    u242_25 1597                                      u227_20 0819  
                                    u219_20 0889                                      u251_20 15F6  
                                    u315_20 0B69                                      u227_21 0818  
                                    u219_21 0888                                      u251_21 15F5  
                                    u315_21 0B68                                      u228_20 0823  
                                    u260_20 06DD                                      u252_20 15FE  
                                    u228_21 0822                                      u260_21 06DC  
                                    u252_21 15FD                                      u316_25 0B74  
                                    u229_20 0844                                      u237_20 1713  
                                    u261_20 06E4                                      u253_20 161C  
                                    u317_20 0B8C                                      u229_21 0843  
                                    u237_21 1712                                      u261_21 06E3  
                                    u253_21 161B                                      u317_21 0B8B  
                                    u238_20 171C                                      u270_20 07B2  
                                    u262_20 06EA                                      u254_20 06A8  
                                    u246_20 0999                                      u430_20 0A38  
                                    u318_20 0BA0                                      u238_21 171B  
                                    u270_21 07B1                                      u262_21 06E9  
                                    u254_21 06A7                                      u246_21 0998  
                                    u430_21 0A37                                      u318_21 0B9F  
                                    u239_20 1727                                      u271_20 07B6  
                                    u263_20 0718                                      u255_20 06AF  
                                    u247_20 09AE                                      u431_20 0A60  
                                    u319_20 0BD2                                      u239_21 1726  
                                    u271_21 07B5                                      u263_21 0717  
                                    u255_21 06AE                                      u247_21 09AD  
                                    u431_21 0A5F                                      u319_21 0BD1  
                                    u360_20 1513                                      u280_20 0C30  
                                    u264_20 072D                                      u256_20 06B8  
                                    u248_20 09E6                                      u432_20 0A8C  
                                    u272_20 0AB1                                      u360_21 1512  
                                    u280_21 0C2F                                      u264_21 072C  
                                    u256_21 06B7                                      u248_21 09E5  
                                    u432_21 0A8B                                      u272_21 0AB0  
                                    u361_20 152A                                      u281_20 0C36  
                                    u265_20 0749                                      u257_20 06C6  
                                    u249_20 15CB                                      u425_20 0E20  
                                    u433_20 0913                                      u273_20 0AB6  
                                    u441_20 0EE6                                      u361_21 1529  
                                    u281_21 0C35                                      u265_21 0748  
                                    u257_21 06C5                                      u249_21 15CA  
                                    u425_21 0E1F                                      u433_21 0912  
                                    u273_21 0AB5                                      u441_21 0EE5  
                                    u361_25 1526                                      u362_20 1542  
                                    u290_20 17A5                                      u282_20 0C57  
                                    u266_20 0751                                      u258_20 06CD  
                                    u426_20 0E42                                      u274_20 0AC1  
                                    u450_20 0F33                                      u442_20 0EEB  
                                    u362_21 1541                                      u290_21 17A4  
                                    u282_21 0C56                                      u266_21 0750  
                                    u258_21 06CC                                      u426_21 0E41  
                                    u274_21 0AC0                                      u450_21 0F32  
                                    u442_21 0EEA                                      u362_25 153E  
                                    u363_20 1550                                      u291_20 17B5  
                                    u283_20 0C9D                                      u267_20 0755  
                                    u259_20 06D4                                      u427_20 0E88  
                                    u275_20 0AFE                                      u435_20 14BE  
                                    u451_20 0F37                                      u443_20 0EF8  
                                    u363_21 154F                                      u291_21 17B4  
                                    u283_21 0C9C                                      u267_21 0754  
                                    u259_21 06D3                                      u427_21 0E87  
                                    u275_21 0AFD                                      u435_21 14BD  
                                    u451_21 0F36                                      u443_21 0EF7  
                                    u363_25 154C                                      u292_20 17CC  
                                    u268_20 077D                                      u428_20 0EB0  
                                    u276_20 0B09                                      u460_20 0F9D  
                                    u452_20 0F56                                      u444_20 0EFC  
                                    u292_21 17CB                                      u268_21 077C  
                                    u428_21 0EAF                                      u276_21 0B08  
                                    u460_21 0F9C                                      u452_21 0F55  
                                    u444_21 0EFB                                      u436_25 14C2  
                                    u293_20 17DD                                      u269_20 07AA  
                                    u429_20 0EDF                                      u277_20 0B14  
                                    u437_20 14E2                                      u461_20 0FB6  
                                    u453_20 0F5D                                      u445_20 0F0A  
                                    u293_21 17DC                                      u269_21 07A9  
                                    u429_21 0EDE                                      u277_21 0B13  
                                    u437_21 14E1                                      u461_21 0FB5  
                                    u453_21 0F5C                                      u445_21 0F09  
                                    u294_20 17FA                                      u278_20 0B49  
                                    u286_20 1373                                      u438_20 1503  
                                    u462_20 0FDF                                      u454_20 0F65  
                                    u446_20 0F11                                      u294_21 17F9  
                                    u278_21 0B48                                      u286_21 1372  
                                    u438_21 1502                                      u462_21 0FDE  
                                    u454_21 0F64                                      u446_21 0F10  
                                    u279_20 0C09                                      u287_20 13E5  
                                    u463_20 0FFD                                      u455_20 0F69  
                                    u447_20 0F15                                      u279_21 0C08  
                                    u287_21 13E4                                      u463_21 0FFC  
                                    u455_21 0F68                                      u447_21 0F14  
                                    u279_25 0C05                                      u288_20 13F0  
                                    u456_20 0F71                                      u448_20 0F27  
                                    u288_21 13EF                                      u456_21 0F70  
                                    u448_21 0F26                                      u289_20 179B  
                                    u457_20 0F75                                      u449_20 0F2B  
                                    u289_21 179A                                      u457_21 0F74  
                                    u449_21 0F2A                                      u458_20 0F8E  
                                    u490_20 001B                                      _OSCCON 0099  
                                    u458_21 0F8D                                      u490_21 001A  
                                    u459_20 0F96                                      u491_20 0020  
                                    u459_21 0F95                                      u491_21 001F  
                                    u487_20 000A                                      u487_21 0009  
                                    _PLLRDY 04D6                                      u488_20 000E  
                                    u488_21 000D                                      u489_20 0016  
                                    u489_21 0015                                      _WDTCON 0097  
              eeprom_storeBurstGroup@column 0247                                      _SSPBUF 0211  
                     _I2C_WaitForCompletion 11A7                           _shortPacketStatus 00B1  
                           USBDeviceTasks@i 00BA                 USBStdFeatureReqHandler@pUEP 0068  
                  USBTransferOnePacket@data 0071                  USBCtrlTrfInHandler@lastDTS 0075  
                           ??_USBDeviceInit 00BB                           _USBEnableEndpoint 12F6  
           __size_of_USBStdGetStatusHandler 0067                                      _column 00AD  
                                    _memcpy 1346                            ?_TMR0_Initialize 0070  
                                    _memset 0E16                     __size_of_I2C_MasterStop 0006  
                   __size_of_I2C_Initialize 000C                          ?_USBEnableEndpoint 0077  
             __size_of_USBTransferOnePacket 0087                                __pdataBIGRAM 2250  
                           ?_WDT_Initialize 0070                                   ?_ACK_Poll 0070  
                       ??_USBEnableEndpoint 0078    TMR0_SetInterruptHandler@InterruptHandler 00BB  
IOCAF5_SetInterruptHandler@InterruptHandler 00BB                                 _CtrlTrfData 0058  
                    _eeprom_storeBurstGroup 0D54                        _controlTransferState 00B0  
                         _SYSTEM_Initialize 1227                     __end_of__initialization 006D  
                        ?_SYSTEM_Initialize 0070                    __size_of_USBStallHandler 002B  
                       __size_of_USBSuspend 0020                        i1USBDeviceInit@i_665 0073  
                            __pcstackCOMMON 0070                   __end_of_USBEnableEndpoint 131B  
                             __end_of_sd000 18B3                               __end_of_sd001 1877  
                             __end_of_sd002 188D                               __end_of_sd003 18AF  
                       ??_SYSTEM_Initialize 00C0                                   ?_TMR0_ISR 0070  
          __size_of_USBCtrlEPAllowDataStage 0060               __size_of_USBConfigureEndpoint 0043  
                   __end_ofi1_USBDeviceInit 0BF5                 __end_of_USBCtrlTrfInHandler 1800  
                    _measurementburst_count 022E                              _OPTION_REGbits 0095  
                                _cdc_notice 0220                                  _cdc_rx_len 01E0  
                                _cdc_tx_len 01DF                                  ??_ACK_Poll 00BC  
               ?_IOCAF5_SetInterruptHandler 00BB                    ??_USBCtrlTrfSetupHandler 006F  
                   _USBTicksSinceSuspendEnd 01E1                        _currentEepromAddress 01C7  
                          ?_USBDeviceAttach 0070                   __end_of_SYSTEM_Initialize 123D  
                    _USBStdGetStatusHandler 15BF                                  __pbssBANK1 00A0  
                                __pbssBANK3 01B0                                  __pbssBANK4 0220  
                                __pbssBANK5 02A0                                  __pbssBANK6 0320  
                    ?_I2C_WaitForCompletion 0070                 __size_of_USBWakeFromSuspend 0022  
                               _pBDTEntryIn 00A0                     _IOCAF5_InterruptHandler 0249  
          __end_of_USBCtrlEPServiceComplete 0B4B                 __size_of_USBCheckCDCRequest 006F  
                                __pmaintext 1695                    __size_of_takeMeasurement 0013  
                      USBCtrlTrfRxService@i 0074            __end_of_TMR0_SetInterruptHandler 11C9  
                                ??_TMR0_ISR 0070                                  __pintentry 0004  
                                   ?_memcpy 0070                                     ?_memset 0070  
                                _device_dsc 188D                            _USBCtrlEPService 14B1  
                                _ep_data_in 01C4                     __size_of_ADC_Initialize 0009  
               __end_of_USBCtrlTrfRxService 0CA1                          _USBCheckStdRequest 090A  
                         _configDescriptor1 1800                 __end_of_USBCtrlTrfTxService 0883  
                       _USBStdSetCfgHandler 0A1D                                     _OSCTUNE 0098  
                                   _SSP1ADD 0212                                     _SSP1BUF 0211  
                       ?_USBCheckStdRequest 0070                __size_of_USBStdGetDscHandler 008B  
                                   _UIEbits 0E92                                     _UIRbits 0E90  
                             _cdc_trf_state 00AF                           ?_measurementBurst 0070  
                                   _pCDCDst 01D1                                     _pCDCSrc 01D3  
                      _ADC_InterruptHandler 0232             ??_USBIncrement1msInternalTimers 0070  
                      ?_USBStdSetCfgHandler 0070                                   _CDCInitEP 13A6  
                        ??_measurementBurst 00BD                  __size_of_USBEnableEndpoint 0025  
                                _readBuffer 02A0                        ??_USBCheckStdRequest 006D  
             __size_of_USBCtrlTrfOutHandler 003A                            ??_USBDeviceTasks 00B8  
                         ??_USBStallHandler 0070                            ?i1_USBDeviceInit 0070  
                            _I2C_MasterStop 07FA                             __size_of_memcpy 002E  
                            _I2C_Initialize 11D2                             __size_of_memset 00CA  
                 __end_of_configDescriptor1 1843                                     __ptext1 0071  
                                   __ptext2 1214                                     __ptext3 0D54  
                                   __ptext4 1204                                     __ptext5 11C9  
                                   __ptext6 07FA                                     __ptext7 11A1  
                                   __ptext8 11A7                                     __ptext9 1227  
                                   _inPipes 00A6                 _USBDeferOUTDataStagePackets 01E2  
                                   _counter 01CB                       _OSCILLATOR_Initialize 11F6  
                              ??_USBSuspend 0066                    ??_PIN_MANAGER_Initialize 00BD  
                                 _IOCAFbits 0393                                   _IOCANbits 0392  
                                 _IOCAPbits 0391                    __size_of_I2C_MasterStart 0006  
                  __size_of_I2C_MasterWrite 0009                          __end_of_USB_CD_Ptr 18B5  
                __size_of_SYSTEM_Initialize 0016             __size_of_USBCtrlTrfSetupHandler 0056  
                                   clrloop0 11DF                               _writeout_flag 01DB  
                      end_of_initialization 006D                          __end_of_USB_SD_Ptr 18A7  
                                   memcpy@d 0079                                     memcpy@n 0072  
                                   memcpy@s 0075                         _pBDTEntryEP0OutNext 00AB  
                                   init_ram 11EA                                     memset@c 0072  
                                   memset@k 007A                                     memset@n 0074  
                                   memset@s 007C                                     initloop 11EB  
                           _USB1msTickCount 01BD             _dummy_encapsulated_cmd_response 0234  
                  ?_USBStdFeatureReqHandler 0070                       ??_USBStdSetCfgHandler 0066  
                                ?_CDCInitEP 0070                          __end_of_USBSuspend 12B0  
                   _USBCtrlEPAllowDataStage 155F            measurementBurst@measurement_type 01EF  
                                _sleep_flag 01DC                      __end_of_I2C_MasterStop 0800  
                    __end_of_I2C_Initialize 11DE                    _USBCtrlEPServiceComplete 0AAA  
                _USBStatusStageEnabledFlag1 01E5                  _USBStatusStageEnabledFlag2 01E4  
                          ??_WDT_Initialize 00BB                           ??_takeMeasurement 00BB  
                        USBEnableEndpoint@p 007A                    _TMR0_SetInterruptHandler 11C0  
                   ?_eeprom_storeBurstGroup 00BC                          _BothEP0OutUOWNsSet 01E8  
                 USBStdSetCfgHandler@i_1402 0069                   USBConfigureEndpoint@EPNum 0075  
                         __size_of_ACK_Poll 0010                  ?_USBCtrlEPAllowStatusStage 0070  
       USER_USB_CALLBACK_EVENT_HANDLER@size 0064                                   _USTATcopy 00B4  
              __end_of_USBTransferOnePacket 090A                          USBDeviceInit@i_665 00BE  
                    _USBCtrlTrfSetupHandler 145B                             ?_I2C_MasterStop 0070  
                           ?_I2C_Initialize 0070                       __end_of_USBDeviceInit 0D54  
     __end_of_USBIncrement1msInternalTimers 1272      __size_of_USBIncrement1msInternalTimers 001C  
             _USBIncrement1msInternalTimers 1256                               __pidataBIGRAM 0502  
                         __size_of_TMR0_ISR 0058                              _ADC_Initialize 11AE  
                            __end_of_memcpy 1374                      ?_OSCILLATOR_Initialize 0070  
                            __end_of_memset 0EE0                           _USBBusIsSuspended 01EA  
            __end_of_eeprom_storeBurstGroup 0E16                         start_initialization 0028  
                   ?_USBStdGetStatusHandler 0070               USBCtrlTrfRxService@byteToRead 0075  
                  __size_of_TMR0_Initialize 0019             __size_of_PIN_MANAGER_Initialize 0024  
                               _cdc_data_rx 20C0                                 _cdc_data_tx 2080  
              __end_of_USBConfigureEndpoint 145B             __end_of_USBStdFeatureReqHandler 07FA  
                   ??_I2C_WaitForCompletion 00BB           __end_of_USBCtrlEPAllowStatusStage 1786  
                  __end_of_USBCtrlEPService 1507                           ??_I2C_MasterStart 00BB  
                         ??_I2C_MasterWrite 00BB                   ??_USBCtrlEPAllowDataStage 0073  
                               ??_CDCInitEP 007D                              USBDeviceInit@i 00BF  
                            USBDeviceInit@p 00BC                      _pBDTEntryEP0OutCurrent 00B2  
                   USBTransferOnePacket@dir 0070                     USBTransferOnePacket@len 0073  
                       _USBStdGetDscHandler 0992                      __end_of_ADC_Initialize 11B7  
                                  ??_memcpy 0074                                    ??_memset 0076  
                                memset@dest 0070              _IOCAF5_DefaultInterruptHandler 0000  
                    _USBActiveConfiguration 00B5              __end_of_USBStdGetStatusHandler 1626  
                                 ___latbits 0002                               __pcstackBANK0 0060  
                             __pcstackBANK1 00B6                               __pcstackBANK3 01EF  
              __size_of_USBCtrlTrfInHandler 007A                               __pcstackBANK4 0243  
                      ?_USBStdGetDscHandler 0070                  __end_of_USBWakeFromSuspend 12D2  
                           _USBStallHandler 131B                                _pBDTEntryOut 01B7  
                __end_of_USBCheckCDCRequest 1695                       _TMR0_InterruptHandler 01C9  
                                 __pnvBANK4 0249                    __size_of_USBDeviceAttach 001E  
                    _PIN_MANAGER_Initialize 12D2                             ?_ADC_Initialize 0070  
              ??_INTERRUPT_InterruptManager 007E                   __size_of_measurementBurst 0491  
                      _USBTransferOnePacket 0883                                   _measarray 2250  
                                  _ACK_Poll 1204                __end_of_USBCtrlTrfOutHandler 1418  
                     ??_USBStdGetDscHandler 0070                                 _ep_data_out 01C1  
              __size_of_USBCtrlTrfRxService 00AC               USBConfigureEndpoint@direction 0070  
              __size_of_USBCtrlTrfTxService 0081                           ??_TMR0_Initialize 00BD  
                ??_USBCtrlEPServiceComplete 0075                                   clear_ram0 11DE  
         eeprom_storeBurstGroup@pagewritten 0245                                    _PIE2bits 0092  
                           _takeMeasurement 1214                   eeprom_storeBurstGroup@row 0246  
       __size_of_INTERRUPT_InterruptManager 0022                  ??_TMR0_SetInterruptHandler 00BD  
                                  _PIR1bits 0011                                    _PIR2bits 0012  
                                  _UEP0bits 0E98                  _USBDeferINDataStagePackets 01E3  
                                  _SSP1CON1 0215                                    _SSP1CON2 0216  
                                  _TMR0_ISR 1507                 __size_of_USBCheckStdRequest 0088  
                                  _SSP1STAT 0214                                    _UCONbits 0E8E  
                      _USBConfigureEndpoint 1418            eeprom_storeBurstGroup@addresslsb 0244  
          eeprom_storeBurstGroup@addressmsb 0243            __size_of_USBStdFeatureReqHandler 0158  
                                _ADCON0bits 009D                       ?_USBTransferOnePacket 0070  
                              _RemoteWakeup 01EB                    __size_ofi1_USBDeviceInit 00AA  
                   __end_of_USBStallHandler 1346                 ??_USBCtrlEPAllowStatusStage 0070  
                    takeMeasurement@channel 00BC                 __end_of_USBStdSetCfgHandler 0AAA  
                            _write_complete 01D6                          __end_of_device_dsc 189F  
                              _second_round 01D5                            ??_I2C_MasterStop 00BB  
                   ?_USBCtrlTrfSetupHandler 0070                            ??_I2C_Initialize 00BB  
                   USBStdGetStatusHandler@p 0072                                   memcpy@tmp 0077  
                    USBTransferOnePacket@ep 0078                                    _SetupPkt 0050  
                   ??_OSCILLATOR_Initialize 00BB                       ?_USBConfigureEndpoint 0070  
                         ??_USBDeviceAttach 00BB                          _waitforsleep_count 0230  
                               _burst_count 01D7                                 _line_coding 023C  
                           _I2C_MasterStart 11A1                             _I2C_MasterWrite 11C9  
                   __size_of_USBDeviceTasks 0120                                    __ptext10 119D  
                                  __ptext11 0CA1                                    __ptext12 1272  
                                  __ptext21 0EE0                                    __ptext13 123D  
                                  __ptext30 0AAA                                    __ptext22 0B4B  
                                  __ptext14 11C0                                    __ptext31 155F  
                                  __ptext23 12B0                                    __ptext15 12D2  
                                  __ptext40 13A6                                    __ptext32 090A  
                                  __ptext24 1290                                    __ptext16 11B7  
                                  __ptext41 0883                                    __ptext33 0A1D  
                                  __ptext25 131B                                    __ptext17 11F6  
                                  __ptext50 0003                                    __ptext42 12F6  
                                  __ptext34 0E16                                    __ptext26 1256  
                                  __ptext18 11AE                                    __ptext43 1418  
                                  __ptext35 15BF                                    __ptext27 14B1  
                                  __ptext19 11D2                                    __ptext44 13DE  
                                  __ptext36 0992                                    __ptext28 1346  
                                  __ptext45 0BF5                                    __ptext37 06A2  
                                  __ptext29 145B                                    __ptext46 170D  
                                  __ptext38 1374                                    __ptext47 1786  
                                  __ptext39 1626                                    __ptext48 0802  
                                  __ptext49 1507                ??_IOCAF5_SetInterruptHandler 00BD  
                              _SSP1CON1bits 0215                                _SSP1CON2bits 0216  
                   __end_of_takeMeasurement 1227              __size_of_I2C_WaitForCompletion 0007  
            __end_of_USBCtrlTrfSetupHandler 14B1                               __size_of_main 0078  
                         ?_USBCtrlEPService 0070               __end_of_I2C_WaitForCompletion 11AE  
      __end_of_TMR0_DefaultInterruptHandler 0004       __size_of_TMR0_DefaultInterruptHandler 0001  
              _TMR0_DefaultInterruptHandler 0003                          ??_USBCtrlEPService 00B6  
                       _USBCtrlTrfInHandler 1786                         I2C_MasterWrite@data 00BB  
                                  _outPipes 01B0                        _USBCtrlTrfOutHandler 13DE  
                                  int$flags 007E                   _USBCtrlEPAllowStatusStage 170D  
        __end_of_INTERRUPT_InterruptManager 0026                  _INTERRUPT_InterruptManager 0004  
                    ??_USBTransferOnePacket 0074         __size_of_IOCAF5_SetInterruptHandler 0009  
                          _measurementBurst 0071                            _measurement_flag 01DA  
                 _USBDeferStatusStagePacket 01E6                            i1USBDeviceInit@i 0074  
                          i1USBDeviceInit@p 0071                                  _INTCONbits 000B  
                      ?_USBCtrlTrfInHandler 0070                                    memcpy@d1 0078  
                                  memcpy@s1 0070               USBCtrlTrfTxService@byteToSend 0072  
                          ?_USBStallHandler 0070                    USBStdFeatureReqHandler@p 006B  
                   __size_of_WDT_Initialize 0004                                    intlevel1 0000  
                    __size_of_USBDeviceInit 00B3     __end_of_USER_USB_CALLBACK_EVENT_HANDLER 13A6  
  __size_of_USER_USB_CALLBACK_EVENT_HANDLER 0032            ?_USER_USB_CALLBACK_EVENT_HANDLER 0060  
         ??_USER_USB_CALLBACK_EVENT_HANDLER 007E             _USER_USB_CALLBACK_EVENT_HANDLER 1374  
                         ??i1_USBDeviceInit 0070                     ?_PIN_MANAGER_Initialize 0070  
                          ??_ADC_Initialize 00BB               ?_TMR0_DefaultInterruptHandler 0070  
                    ??_USBConfigureEndpoint 0071                       ?_USBCtrlTrfOutHandler 0070  
                       _USBCtrlTrfRxService 0BF5                          _USBWakeFromSuspend 12B0  
                   _USBStdFeatureReqHandler 06A2                     __end_of_I2C_MasterStart 11A7  
                   __end_of_I2C_MasterWrite 11D2                          _USBCheckCDCRequest 1626  
                       _USBCtrlTrfTxService 0802                               __pstringtext1 189F  
                             __pstringtext2 18B3                               __pstringtext3 1800  
                             __pstringtext4 1843                               __pstringtext5 1877  
                             __pstringtext6 188D                               __pstringtext7 18A7  
                             __pstringtext8 18AF               eeprom_storeBurstGroup@address 00BC  
                                _OPTION_REG 0095                         ?_USBWakeFromSuspend 0070  
                           _TMR0_Initialize 123D                       ??_USBCtrlTrfInHandler 0073  
                     _USBAlternateInterface 01ED                         ?_USBCheckCDCRequest 0070  
                               _SSPCON2bits 0216                         USBEnableEndpoint@ep 007C  
                           _endpoint_number 01E9                        ?_USBCtrlTrfRxService 0070  
            __end_of_PIN_MANAGER_Initialize 12F6                    ?_USBCtrlEPAllowDataStage 0070  
                          ?_takeMeasurement 0070                        ?_USBCtrlTrfTxService 0070  
              _USBStatusStageTimeoutCounter 01E7                        ??_USBWakeFromSuspend 0066  
                USBTransferOnePacket@handle 0079                        ??_USBCheckCDCRequest 0070  
                                _USB_CD_Ptr 18B3  
