

Microchip MPLAB XC8 Assembler V2.31 build 20201012212115 
                                                                                               Thu Mar 25 18:44:56 2021

Microchip MPLAB XC8 C Compiler v2.31 (Free license) build 20201012212115 Og1 
     1                           	processor	16F1459
     2                           	pagewidth 120
     3                           	opt	flic
     4                           	psect	stringtext1,global,class=STRCODE,delta=2,noexec
     5                           	psect	stringtext2,global,class=STRCODE,delta=2,noexec
     6                           	psect	stringtext3,global,class=STRCODE,delta=2,noexec
     7                           	psect	stringtext4,global,class=STRCODE,delta=2,noexec
     8                           	psect	stringtext5,global,class=STRCODE,delta=2,noexec
     9                           	psect	stringtext6,global,class=STRCODE,delta=2,noexec
    10                           	psect	stringtext7,global,class=STRCODE,delta=2,noexec
    11                           	psect	stringtext8,global,class=STRCODE,delta=2,noexec
    12                           	psect	stringtext9,global,class=STRCODE,delta=2,noexec
    13                           	psect	stringtext10,global,class=STRCODE,delta=2,noexec
    14                           	psect	stringtext11,global,class=STRCODE,delta=2,noexec
    15                           	psect	stringtext12,global,class=STRCODE,delta=2,noexec
    16                           	psect	nvBANK1,global,class=BANK1,space=1,delta=1,noexec
    17                           	psect	cinit,global,class=CODE,merge=1,delta=2
    18                           	psect	bssBANK0h,global,class=BANK0,space=1,delta=1,noexec
    19                           	psect	bssBANK1,global,class=BANK1,space=1,delta=1,noexec
    20                           	psect	clrtext,global,class=CODE,delta=2
    21                           	psect	cstackBANK1,global,class=BANK1,space=1,delta=1,noexec
    22                           	psect	cstackCOMMON,global,class=COMMON,space=1,delta=1,noexec
    23                           	psect	cstackBANK0h,global,class=BANK0,space=1,delta=1,noexec
    24                           	psect	maintext,global,class=CODE,merge=1,split=1,delta=2
    25                           	psect	text1,local,class=CODE,merge=1,delta=2
    26                           	psect	text2,local,class=CODE,merge=1,delta=2
    27                           	psect	text3,local,class=CODE,merge=1,delta=2
    28                           	psect	text4,local,class=CODE,merge=1,delta=2
    29                           	psect	text5,local,class=CODE,merge=1,delta=2
    30                           	psect	text6,local,class=CODE,merge=1,delta=2
    31                           	psect	text7,local,class=CODE,merge=1,delta=2
    32                           	psect	text8,local,class=CODE,merge=1,delta=2
    33                           	psect	text9,local,class=CODE,merge=1,delta=2
    34                           	psect	text10,local,class=CODE,merge=1,delta=2
    35                           	psect	intentry,global,class=CODE,delta=2
    36                           	psect	text12,local,class=CODE,merge=1,delta=2
    37                           	psect	text13,local,class=CODE,merge=1,delta=2
    38                           	psect	text14,local,class=CODE,merge=1,delta=2
    39                           	psect	text15,local,class=CODE,merge=1,delta=2
    40                           	psect	text16,local,class=CODE,merge=1,delta=2
    41                           	psect	text17,local,class=CODE,merge=1,delta=2
    42                           	psect	text18,local,class=CODE,merge=1,delta=2
    43                           	psect	text19,local,class=CODE,merge=1,delta=2,group=2
    44                           	psect	text20,local,class=CODE,merge=1,delta=2
    45                           	psect	text21,local,class=CODE,merge=1,delta=2
    46                           	psect	text22,local,class=CODE,merge=1,delta=2
    47                           	psect	text23,local,class=CODE,merge=1,delta=2
    48                           	psect	text24,local,class=CODE,merge=1,delta=2
    49                           	psect	text25,local,class=CODE,merge=1,delta=2,group=2
    50                           	psect	text26,local,class=CODE,merge=1,delta=2
    51                           	psect	text27,local,class=CODE,merge=1,delta=2
    52                           	psect	text28,local,class=CODE,merge=1,delta=2
    53                           	psect	text29,local,class=CODE,merge=1,delta=2
    54                           	psect	text30,local,class=CODE,merge=1,delta=2
    55                           	psect	text31,local,class=CODE,merge=1,delta=2
    56                           	psect	text32,local,class=CODE,merge=1,delta=2
    57                           	psect	text33,local,class=CODE,merge=1,delta=2
    58                           	psect	text34,local,class=CODE,merge=1,delta=2
    59                           	psect	text35,local,class=CODE,merge=1,delta=2
    60                           	psect	text36,local,class=CODE,merge=1,delta=2
    61                           	psect	text37,local,class=CODE,merge=1,delta=2
    62                           	psect	text38,local,class=CODE,merge=1,delta=2
    63                           	psect	text39,local,class=CODE,merge=1,delta=2
    64                           	psect	text40,local,class=CODE,merge=1,inline,delta=2
    65                           	psect	text41,local,class=CODE,merge=1,inline,delta=2
    66                           	psect	text42,local,class=CODE,merge=1,delta=2
    67                           	psect	text43,local,class=CODE,merge=1,delta=2
    68                           	psect	text44,local,class=CODE,merge=1,delta=2
    69                           	psect	text45,local,class=CODE,merge=1,delta=2
    70                           	psect	text46,local,class=CODE,merge=1,delta=2
    71                           	psect	text47,local,class=CODE,merge=1,delta=2
    72                           	psect	text48,local,class=CODE,merge=1,delta=2
    73                           	psect	text49,local,class=CODE,merge=1,delta=2
    74                           	psect	text50,local,class=CODE,merge=1,delta=2
    75                           	psect	text51,local,class=CODE,merge=1,delta=2
    76                           	psect	text52,local,class=CODE,merge=1,delta=2
    77                           	psect	text53,local,class=CODE,merge=1,delta=2
    78                           	psect	text54,local,class=CODE,merge=1,delta=2
    79                           	psect	text55,local,class=CODE,merge=1,delta=2
    80                           	psect	text56,local,class=CODE,merge=1,delta=2
    81                           	psect	text57,local,class=CODE,merge=1,delta=2
    82                           	psect	text58,local,class=CODE,merge=1,inline,delta=2
    83                           	psect	text59,local,class=CODE,merge=1,inline,delta=2
    84                           	psect	text60,local,class=CODE,merge=1,inline,delta=2
    85                           	psect	text61,local,class=CODE,merge=1,inline,delta=2
    86                           	psect	text62,local,class=CODE,merge=1,inline,delta=2
    87                           	psect	text63,local,class=CODE,merge=1,inline,delta=2
    88                           	psect	text64,local,class=CODE,merge=1,inline,delta=2
    89                           	psect	text65,local,class=CODE,merge=1,delta=2
    90                           	psect	text66,local,class=CODE,merge=1,delta=2
    91                           	psect	text67,local,class=CODE,merge=1,delta=2
    92                           	psect	text68,local,class=CODE,merge=1,delta=2
    93                           	psect	text69,local,class=CODE,merge=1,delta=2
    94                           	psect	text70,local,class=CODE,merge=1,delta=2
    95                           	psect	text71,local,class=CODE,merge=1,delta=2
    96                           	psect	text72,local,class=CODE,merge=1,delta=2
    97                           	psect	text73,local,class=CODE,merge=1,delta=2
    98                           	psect	text74,local,class=CODE,merge=1,delta=2
    99                           	psect	text75,local,class=CODE,merge=1,inline,delta=2
   100                           	psect	text76,local,class=CODE,merge=1,inline,delta=2
   101                           	psect	text77,local,class=CODE,merge=1,delta=2
   102                           	psect	text78,local,class=CODE,merge=1,delta=2
   103                           	psect	config,global,abs,ovrld,class=CONFIG,space=4,delta=2,noexec
   104                           	dabs	1,0x20,32,_BDT
   105                           	dabs	1,0x40,8,_SetupPkt
   106                           	dabs	1,0x48,8,_CtrlTrfData
   107                           	dabs	1,0x7E,2
   108  0000                     
   109                           ; Version 2.20
   110                           ; Generated 12/02/2020 GMT
   111                           ; 
   112                           ; Copyright © 2020, Microchip Technology Inc. and its subsidiaries ("Microchip")
   113                           ; All rights reserved.
   114                           ; 
   115                           ; This software is developed by Microchip Technology Inc. and its subsidiaries ("Microch
      +                          ip").
   116                           ; 
   117                           ; Redistribution and use in source and binary forms, with or without modification, are
   118                           ; permitted provided that the following conditions are met:
   119                           ; 
   120                           ;     1. Redistributions of source code must retain the above copyright notice, this lis
      +                          t of
   121                           ;        conditions and the following disclaimer.
   122                           ; 
   123                           ;     2. Redistributions in binary form must reproduce the above copyright notice, this 
      +                          list
   124                           ;        of conditions and the following disclaimer in the documentation and/or other
   125                           ;        materials provided with the distribution.
   126                           ; 
   127                           ;     3. Microchip's name may not be used to endorse or promote products derived from th
      +                          is
   128                           ;        software without specific prior written permission.
   129                           ; 
   130                           ; THIS SOFTWARE IS PROVIDED BY MICROCHIP "AS IS" AND ANY EXPRESS OR IMPLIED WARRANTIES,
   131                           ; INCLUDING, BUT NOT LIMITED TO, THE IMPLIED WARRANTIES OF MERCHANTABILITY AND FITNESS F
      +                          OR
   132                           ; PURPOSE ARE DISCLAIMED.  IN NO EVENT SHALL MICROCHIP BE LIABLE FOR ANY DIRECT, INDIREC
      +                          T,
   133                           ; INCIDENTAL, SPECIAL, EXEMPLARY, OR CONSEQUENTIAL DAMAGES (INCLUDING BUT NOT LIMITED TO
   134                           ; PROCUREMENT OF SUBSTITUTE GOODS OR SERVICES; LOSS OF USE, DATA OR PROFITS; OR BUSINESS
   135                           ; INTERRUPTION) HOWSOEVER CAUSED AND ON ANY THEORY OF LIABILITY, WHETHER IN CONTRACT, ST
      +                          RICT
   136                           ; LIABILITY, OR TORT (INCLUDING NEGLIGENCE OR OTHERWISE) ARISING IN ANY WAY OUT OF THE U
      +                          SE OF
   137                           ; THIS SOFTWARE, EVEN IF ADVISED OF THE POSSIBILITY OF SUCH DAMAGE.
   138                           ; 
   139                           ; 
   140                           ; Code-generator required, PIC16F1459 Definitions
   141                           ; 
   142                           ; SFR Addresses
   143  0000                     	;# 
   144  0001                     	;# 
   145  0002                     	;# 
   146  0003                     	;# 
   147  0004                     	;# 
   148  0005                     	;# 
   149  0006                     	;# 
   150  0007                     	;# 
   151  0008                     	;# 
   152  0009                     	;# 
   153  000A                     	;# 
   154  000B                     	;# 
   155  000C                     	;# 
   156  000D                     	;# 
   157  000E                     	;# 
   158  0011                     	;# 
   159  0012                     	;# 
   160  0015                     	;# 
   161  0016                     	;# 
   162  0016                     	;# 
   163  0017                     	;# 
   164  0018                     	;# 
   165  0019                     	;# 
   166  001A                     	;# 
   167  001B                     	;# 
   168  001C                     	;# 
   169  008C                     	;# 
   170  008D                     	;# 
   171  008E                     	;# 
   172  0091                     	;# 
   173  0092                     	;# 
   174  0095                     	;# 
   175  0096                     	;# 
   176  0097                     	;# 
   177  0098                     	;# 
   178  0099                     	;# 
   179  009A                     	;# 
   180  009B                     	;# 
   181  009B                     	;# 
   182  009C                     	;# 
   183  009D                     	;# 
   184  009E                     	;# 
   185  009F                     	;# 
   186  010C                     	;# 
   187  010D                     	;# 
   188  010E                     	;# 
   189  0111                     	;# 
   190  0112                     	;# 
   191  0113                     	;# 
   192  0114                     	;# 
   193  0115                     	;# 
   194  0116                     	;# 
   195  0117                     	;# 
   196  0118                     	;# 
   197  0119                     	;# 
   198  011D                     	;# 
   199  018C                     	;# 
   200  018D                     	;# 
   201  018E                     	;# 
   202  0191                     	;# 
   203  0191                     	;# 
   204  0192                     	;# 
   205  0193                     	;# 
   206  0193                     	;# 
   207  0194                     	;# 
   208  0195                     	;# 
   209  0196                     	;# 
   210  0197                     	;# 
   211  0199                     	;# 
   212  019A                     	;# 
   213  019B                     	;# 
   214  019B                     	;# 
   215  019C                     	;# 
   216  019D                     	;# 
   217  019E                     	;# 
   218  019F                     	;# 
   219  020C                     	;# 
   220  020D                     	;# 
   221  0211                     	;# 
   222  0211                     	;# 
   223  0212                     	;# 
   224  0212                     	;# 
   225  0213                     	;# 
   226  0213                     	;# 
   227  0214                     	;# 
   228  0214                     	;# 
   229  0215                     	;# 
   230  0215                     	;# 
   231  0215                     	;# 
   232  0216                     	;# 
   233  0216                     	;# 
   234  0217                     	;# 
   235  0217                     	;# 
   236  0391                     	;# 
   237  0392                     	;# 
   238  0393                     	;# 
   239  0394                     	;# 
   240  0395                     	;# 
   241  0396                     	;# 
   242  039A                     	;# 
   243  039B                     	;# 
   244  0611                     	;# 
   245  0612                     	;# 
   246  0613                     	;# 
   247  0613                     	;# 
   248  0614                     	;# 
   249  0615                     	;# 
   250  0616                     	;# 
   251  0616                     	;# 
   252  0691                     	;# 
   253  0692                     	;# 
   254  0693                     	;# 
   255  0694                     	;# 
   256  0695                     	;# 
   257  0E8E                     	;# 
   258  0E8F                     	;# 
   259  0E90                     	;# 
   260  0E91                     	;# 
   261  0E92                     	;# 
   262  0E93                     	;# 
   263  0E94                     	;# 
   264  0E94                     	;# 
   265  0E95                     	;# 
   266  0E96                     	;# 
   267  0E97                     	;# 
   268  0E98                     	;# 
   269  0E99                     	;# 
   270  0E9A                     	;# 
   271  0E9B                     	;# 
   272  0E9C                     	;# 
   273  0E9D                     	;# 
   274  0E9E                     	;# 
   275  0E9F                     	;# 
   276  0FE4                     	;# 
   277  0FE5                     	;# 
   278  0FE6                     	;# 
   279  0FE7                     	;# 
   280  0FE8                     	;# 
   281  0FE9                     	;# 
   282  0FEA                     	;# 
   283  0FEB                     	;# 
   284  0FED                     	;# 
   285  0FEE                     	;# 
   286  0FEF                     	;# 
   287  0000                     	;# 
   288  0001                     	;# 
   289  0002                     	;# 
   290  0003                     	;# 
   291  0004                     	;# 
   292  0005                     	;# 
   293  0006                     	;# 
   294  0007                     	;# 
   295  0008                     	;# 
   296  0009                     	;# 
   297  000A                     	;# 
   298  000B                     	;# 
   299  000C                     	;# 
   300  000D                     	;# 
   301  000E                     	;# 
   302  0011                     	;# 
   303  0012                     	;# 
   304  0015                     	;# 
   305  0016                     	;# 
   306  0016                     	;# 
   307  0017                     	;# 
   308  0018                     	;# 
   309  0019                     	;# 
   310  001A                     	;# 
   311  001B                     	;# 
   312  001C                     	;# 
   313  008C                     	;# 
   314  008D                     	;# 
   315  008E                     	;# 
   316  0091                     	;# 
   317  0092                     	;# 
   318  0095                     	;# 
   319  0096                     	;# 
   320  0097                     	;# 
   321  0098                     	;# 
   322  0099                     	;# 
   323  009A                     	;# 
   324  009B                     	;# 
   325  009B                     	;# 
   326  009C                     	;# 
   327  009D                     	;# 
   328  009E                     	;# 
   329  009F                     	;# 
   330  010C                     	;# 
   331  010D                     	;# 
   332  010E                     	;# 
   333  0111                     	;# 
   334  0112                     	;# 
   335  0113                     	;# 
   336  0114                     	;# 
   337  0115                     	;# 
   338  0116                     	;# 
   339  0117                     	;# 
   340  0118                     	;# 
   341  0119                     	;# 
   342  011D                     	;# 
   343  018C                     	;# 
   344  018D                     	;# 
   345  018E                     	;# 
   346  0191                     	;# 
   347  0191                     	;# 
   348  0192                     	;# 
   349  0193                     	;# 
   350  0193                     	;# 
   351  0194                     	;# 
   352  0195                     	;# 
   353  0196                     	;# 
   354  0197                     	;# 
   355  0199                     	;# 
   356  019A                     	;# 
   357  019B                     	;# 
   358  019B                     	;# 
   359  019C                     	;# 
   360  019D                     	;# 
   361  019E                     	;# 
   362  019F                     	;# 
   363  020C                     	;# 
   364  020D                     	;# 
   365  0211                     	;# 
   366  0211                     	;# 
   367  0212                     	;# 
   368  0212                     	;# 
   369  0213                     	;# 
   370  0213                     	;# 
   371  0214                     	;# 
   372  0214                     	;# 
   373  0215                     	;# 
   374  0215                     	;# 
   375  0215                     	;# 
   376  0216                     	;# 
   377  0216                     	;# 
   378  0217                     	;# 
   379  0217                     	;# 
   380  0391                     	;# 
   381  0392                     	;# 
   382  0393                     	;# 
   383  0394                     	;# 
   384  0395                     	;# 
   385  0396                     	;# 
   386  039A                     	;# 
   387  039B                     	;# 
   388  0611                     	;# 
   389  0612                     	;# 
   390  0613                     	;# 
   391  0613                     	;# 
   392  0614                     	;# 
   393  0615                     	;# 
   394  0616                     	;# 
   395  0616                     	;# 
   396  0691                     	;# 
   397  0692                     	;# 
   398  0693                     	;# 
   399  0694                     	;# 
   400  0695                     	;# 
   401  0E8E                     	;# 
   402  0E8F                     	;# 
   403  0E90                     	;# 
   404  0E91                     	;# 
   405  0E92                     	;# 
   406  0E93                     	;# 
   407  0E94                     	;# 
   408  0E94                     	;# 
   409  0E95                     	;# 
   410  0E96                     	;# 
   411  0E97                     	;# 
   412  0E98                     	;# 
   413  0E99                     	;# 
   414  0E9A                     	;# 
   415  0E9B                     	;# 
   416  0E9C                     	;# 
   417  0E9D                     	;# 
   418  0E9E                     	;# 
   419  0E9F                     	;# 
   420  0FE4                     	;# 
   421  0FE5                     	;# 
   422  0FE6                     	;# 
   423  0FE7                     	;# 
   424  0FE8                     	;# 
   425  0FE9                     	;# 
   426  0FEA                     	;# 
   427  0FEB                     	;# 
   428  0FED                     	;# 
   429  0FEE                     	;# 
   430  0FEF                     	;# 
   431  0000                     	;# 
   432  0001                     	;# 
   433  0002                     	;# 
   434  0003                     	;# 
   435  0004                     	;# 
   436  0005                     	;# 
   437  0006                     	;# 
   438  0007                     	;# 
   439  0008                     	;# 
   440  0009                     	;# 
   441  000A                     	;# 
   442  000B                     	;# 
   443  000C                     	;# 
   444  000D                     	;# 
   445  000E                     	;# 
   446  0011                     	;# 
   447  0012                     	;# 
   448  0015                     	;# 
   449  0016                     	;# 
   450  0016                     	;# 
   451  0017                     	;# 
   452  0018                     	;# 
   453  0019                     	;# 
   454  001A                     	;# 
   455  001B                     	;# 
   456  001C                     	;# 
   457  008C                     	;# 
   458  008D                     	;# 
   459  008E                     	;# 
   460  0091                     	;# 
   461  0092                     	;# 
   462  0095                     	;# 
   463  0096                     	;# 
   464  0097                     	;# 
   465  0098                     	;# 
   466  0099                     	;# 
   467  009A                     	;# 
   468  009B                     	;# 
   469  009B                     	;# 
   470  009C                     	;# 
   471  009D                     	;# 
   472  009E                     	;# 
   473  009F                     	;# 
   474  010C                     	;# 
   475  010D                     	;# 
   476  010E                     	;# 
   477  0111                     	;# 
   478  0112                     	;# 
   479  0113                     	;# 
   480  0114                     	;# 
   481  0115                     	;# 
   482  0116                     	;# 
   483  0117                     	;# 
   484  0118                     	;# 
   485  0119                     	;# 
   486  011D                     	;# 
   487  018C                     	;# 
   488  018D                     	;# 
   489  018E                     	;# 
   490  0191                     	;# 
   491  0191                     	;# 
   492  0192                     	;# 
   493  0193                     	;# 
   494  0193                     	;# 
   495  0194                     	;# 
   496  0195                     	;# 
   497  0196                     	;# 
   498  0197                     	;# 
   499  0199                     	;# 
   500  019A                     	;# 
   501  019B                     	;# 
   502  019B                     	;# 
   503  019C                     	;# 
   504  019D                     	;# 
   505  019E                     	;# 
   506  019F                     	;# 
   507  020C                     	;# 
   508  020D                     	;# 
   509  0211                     	;# 
   510  0211                     	;# 
   511  0212                     	;# 
   512  0212                     	;# 
   513  0213                     	;# 
   514  0213                     	;# 
   515  0214                     	;# 
   516  0214                     	;# 
   517  0215                     	;# 
   518  0215                     	;# 
   519  0215                     	;# 
   520  0216                     	;# 
   521  0216                     	;# 
   522  0217                     	;# 
   523  0217                     	;# 
   524  0391                     	;# 
   525  0392                     	;# 
   526  0393                     	;# 
   527  0394                     	;# 
   528  0395                     	;# 
   529  0396                     	;# 
   530  039A                     	;# 
   531  039B                     	;# 
   532  0611                     	;# 
   533  0612                     	;# 
   534  0613                     	;# 
   535  0613                     	;# 
   536  0614                     	;# 
   537  0615                     	;# 
   538  0616                     	;# 
   539  0616                     	;# 
   540  0691                     	;# 
   541  0692                     	;# 
   542  0693                     	;# 
   543  0694                     	;# 
   544  0695                     	;# 
   545  0E8E                     	;# 
   546  0E8F                     	;# 
   547  0E90                     	;# 
   548  0E91                     	;# 
   549  0E92                     	;# 
   550  0E93                     	;# 
   551  0E94                     	;# 
   552  0E94                     	;# 
   553  0E95                     	;# 
   554  0E96                     	;# 
   555  0E97                     	;# 
   556  0E98                     	;# 
   557  0E99                     	;# 
   558  0E9A                     	;# 
   559  0E9B                     	;# 
   560  0E9C                     	;# 
   561  0E9D                     	;# 
   562  0E9E                     	;# 
   563  0E9F                     	;# 
   564  0FE4                     	;# 
   565  0FE5                     	;# 
   566  0FE6                     	;# 
   567  0FE7                     	;# 
   568  0FE8                     	;# 
   569  0FE9                     	;# 
   570  0FEA                     	;# 
   571  0FEB                     	;# 
   572  0FED                     	;# 
   573  0FEE                     	;# 
   574  0FEF                     	;# 
   575  0000                     	;# 
   576  0001                     	;# 
   577  0002                     	;# 
   578  0003                     	;# 
   579  0004                     	;# 
   580  0005                     	;# 
   581  0006                     	;# 
   582  0007                     	;# 
   583  0008                     	;# 
   584  0009                     	;# 
   585  000A                     	;# 
   586  000B                     	;# 
   587  000C                     	;# 
   588  000D                     	;# 
   589  000E                     	;# 
   590  0011                     	;# 
   591  0012                     	;# 
   592  0015                     	;# 
   593  0016                     	;# 
   594  0016                     	;# 
   595  0017                     	;# 
   596  0018                     	;# 
   597  0019                     	;# 
   598  001A                     	;# 
   599  001B                     	;# 
   600  001C                     	;# 
   601  008C                     	;# 
   602  008D                     	;# 
   603  008E                     	;# 
   604  0091                     	;# 
   605  0092                     	;# 
   606  0095                     	;# 
   607  0096                     	;# 
   608  0097                     	;# 
   609  0098                     	;# 
   610  0099                     	;# 
   611  009A                     	;# 
   612  009B                     	;# 
   613  009B                     	;# 
   614  009C                     	;# 
   615  009D                     	;# 
   616  009E                     	;# 
   617  009F                     	;# 
   618  010C                     	;# 
   619  010D                     	;# 
   620  010E                     	;# 
   621  0111                     	;# 
   622  0112                     	;# 
   623  0113                     	;# 
   624  0114                     	;# 
   625  0115                     	;# 
   626  0116                     	;# 
   627  0117                     	;# 
   628  0118                     	;# 
   629  0119                     	;# 
   630  011D                     	;# 
   631  018C                     	;# 
   632  018D                     	;# 
   633  018E                     	;# 
   634  0191                     	;# 
   635  0191                     	;# 
   636  0192                     	;# 
   637  0193                     	;# 
   638  0193                     	;# 
   639  0194                     	;# 
   640  0195                     	;# 
   641  0196                     	;# 
   642  0197                     	;# 
   643  0199                     	;# 
   644  019A                     	;# 
   645  019B                     	;# 
   646  019B                     	;# 
   647  019C                     	;# 
   648  019D                     	;# 
   649  019E                     	;# 
   650  019F                     	;# 
   651  020C                     	;# 
   652  020D                     	;# 
   653  0211                     	;# 
   654  0211                     	;# 
   655  0212                     	;# 
   656  0212                     	;# 
   657  0213                     	;# 
   658  0213                     	;# 
   659  0214                     	;# 
   660  0214                     	;# 
   661  0215                     	;# 
   662  0215                     	;# 
   663  0215                     	;# 
   664  0216                     	;# 
   665  0216                     	;# 
   666  0217                     	;# 
   667  0217                     	;# 
   668  0391                     	;# 
   669  0392                     	;# 
   670  0393                     	;# 
   671  0394                     	;# 
   672  0395                     	;# 
   673  0396                     	;# 
   674  039A                     	;# 
   675  039B                     	;# 
   676  0611                     	;# 
   677  0612                     	;# 
   678  0613                     	;# 
   679  0613                     	;# 
   680  0614                     	;# 
   681  0615                     	;# 
   682  0616                     	;# 
   683  0616                     	;# 
   684  0691                     	;# 
   685  0692                     	;# 
   686  0693                     	;# 
   687  0694                     	;# 
   688  0695                     	;# 
   689  0E8E                     	;# 
   690  0E8F                     	;# 
   691  0E90                     	;# 
   692  0E91                     	;# 
   693  0E92                     	;# 
   694  0E93                     	;# 
   695  0E94                     	;# 
   696  0E94                     	;# 
   697  0E95                     	;# 
   698  0E96                     	;# 
   699  0E97                     	;# 
   700  0E98                     	;# 
   701  0E99                     	;# 
   702  0E9A                     	;# 
   703  0E9B                     	;# 
   704  0E9C                     	;# 
   705  0E9D                     	;# 
   706  0E9E                     	;# 
   707  0E9F                     	;# 
   708  0FE4                     	;# 
   709  0FE5                     	;# 
   710  0FE6                     	;# 
   711  0FE7                     	;# 
   712  0FE8                     	;# 
   713  0FE9                     	;# 
   714  0FEA                     	;# 
   715  0FEB                     	;# 
   716  0FED                     	;# 
   717  0FEE                     	;# 
   718  0FEF                     	;# 
   719  0000                     	;# 
   720  0001                     	;# 
   721  0002                     	;# 
   722  0003                     	;# 
   723  0004                     	;# 
   724  0005                     	;# 
   725  0006                     	;# 
   726  0007                     	;# 
   727  0008                     	;# 
   728  0009                     	;# 
   729  000A                     	;# 
   730  000B                     	;# 
   731  000C                     	;# 
   732  000D                     	;# 
   733  000E                     	;# 
   734  0011                     	;# 
   735  0012                     	;# 
   736  0015                     	;# 
   737  0016                     	;# 
   738  0016                     	;# 
   739  0017                     	;# 
   740  0018                     	;# 
   741  0019                     	;# 
   742  001A                     	;# 
   743  001B                     	;# 
   744  001C                     	;# 
   745  008C                     	;# 
   746  008D                     	;# 
   747  008E                     	;# 
   748  0091                     	;# 
   749  0092                     	;# 
   750  0095                     	;# 
   751  0096                     	;# 
   752  0097                     	;# 
   753  0098                     	;# 
   754  0099                     	;# 
   755  009A                     	;# 
   756  009B                     	;# 
   757  009B                     	;# 
   758  009C                     	;# 
   759  009D                     	;# 
   760  009E                     	;# 
   761  009F                     	;# 
   762  010C                     	;# 
   763  010D                     	;# 
   764  010E                     	;# 
   765  0111                     	;# 
   766  0112                     	;# 
   767  0113                     	;# 
   768  0114                     	;# 
   769  0115                     	;# 
   770  0116                     	;# 
   771  0117                     	;# 
   772  0118                     	;# 
   773  0119                     	;# 
   774  011D                     	;# 
   775  018C                     	;# 
   776  018D                     	;# 
   777  018E                     	;# 
   778  0191                     	;# 
   779  0191                     	;# 
   780  0192                     	;# 
   781  0193                     	;# 
   782  0193                     	;# 
   783  0194                     	;# 
   784  0195                     	;# 
   785  0196                     	;# 
   786  0197                     	;# 
   787  0199                     	;# 
   788  019A                     	;# 
   789  019B                     	;# 
   790  019B                     	;# 
   791  019C                     	;# 
   792  019D                     	;# 
   793  019E                     	;# 
   794  019F                     	;# 
   795  020C                     	;# 
   796  020D                     	;# 
   797  0211                     	;# 
   798  0211                     	;# 
   799  0212                     	;# 
   800  0212                     	;# 
   801  0213                     	;# 
   802  0213                     	;# 
   803  0214                     	;# 
   804  0214                     	;# 
   805  0215                     	;# 
   806  0215                     	;# 
   807  0215                     	;# 
   808  0216                     	;# 
   809  0216                     	;# 
   810  0217                     	;# 
   811  0217                     	;# 
   812  0391                     	;# 
   813  0392                     	;# 
   814  0393                     	;# 
   815  0394                     	;# 
   816  0395                     	;# 
   817  0396                     	;# 
   818  039A                     	;# 
   819  039B                     	;# 
   820  0611                     	;# 
   821  0612                     	;# 
   822  0613                     	;# 
   823  0613                     	;# 
   824  0614                     	;# 
   825  0615                     	;# 
   826  0616                     	;# 
   827  0616                     	;# 
   828  0691                     	;# 
   829  0692                     	;# 
   830  0693                     	;# 
   831  0694                     	;# 
   832  0695                     	;# 
   833  0E8E                     	;# 
   834  0E8F                     	;# 
   835  0E90                     	;# 
   836  0E91                     	;# 
   837  0E92                     	;# 
   838  0E93                     	;# 
   839  0E94                     	;# 
   840  0E94                     	;# 
   841  0E95                     	;# 
   842  0E96                     	;# 
   843  0E97                     	;# 
   844  0E98                     	;# 
   845  0E99                     	;# 
   846  0E9A                     	;# 
   847  0E9B                     	;# 
   848  0E9C                     	;# 
   849  0E9D                     	;# 
   850  0E9E                     	;# 
   851  0E9F                     	;# 
   852  0FE4                     	;# 
   853  0FE5                     	;# 
   854  0FE6                     	;# 
   855  0FE7                     	;# 
   856  0FE8                     	;# 
   857  0FE9                     	;# 
   858  0FEA                     	;# 
   859  0FEB                     	;# 
   860  0FED                     	;# 
   861  0FEE                     	;# 
   862  0FEF                     	;# 
   863  0000                     	;# 
   864  0001                     	;# 
   865  0002                     	;# 
   866  0003                     	;# 
   867  0004                     	;# 
   868  0005                     	;# 
   869  0006                     	;# 
   870  0007                     	;# 
   871  0008                     	;# 
   872  0009                     	;# 
   873  000A                     	;# 
   874  000B                     	;# 
   875  000C                     	;# 
   876  000D                     	;# 
   877  000E                     	;# 
   878  0011                     	;# 
   879  0012                     	;# 
   880  0015                     	;# 
   881  0016                     	;# 
   882  0016                     	;# 
   883  0017                     	;# 
   884  0018                     	;# 
   885  0019                     	;# 
   886  001A                     	;# 
   887  001B                     	;# 
   888  001C                     	;# 
   889  008C                     	;# 
   890  008D                     	;# 
   891  008E                     	;# 
   892  0091                     	;# 
   893  0092                     	;# 
   894  0095                     	;# 
   895  0096                     	;# 
   896  0097                     	;# 
   897  0098                     	;# 
   898  0099                     	;# 
   899  009A                     	;# 
   900  009B                     	;# 
   901  009B                     	;# 
   902  009C                     	;# 
   903  009D                     	;# 
   904  009E                     	;# 
   905  009F                     	;# 
   906  010C                     	;# 
   907  010D                     	;# 
   908  010E                     	;# 
   909  0111                     	;# 
   910  0112                     	;# 
   911  0113                     	;# 
   912  0114                     	;# 
   913  0115                     	;# 
   914  0116                     	;# 
   915  0117                     	;# 
   916  0118                     	;# 
   917  0119                     	;# 
   918  011D                     	;# 
   919  018C                     	;# 
   920  018D                     	;# 
   921  018E                     	;# 
   922  0191                     	;# 
   923  0191                     	;# 
   924  0192                     	;# 
   925  0193                     	;# 
   926  0193                     	;# 
   927  0194                     	;# 
   928  0195                     	;# 
   929  0196                     	;# 
   930  0197                     	;# 
   931  0199                     	;# 
   932  019A                     	;# 
   933  019B                     	;# 
   934  019B                     	;# 
   935  019C                     	;# 
   936  019D                     	;# 
   937  019E                     	;# 
   938  019F                     	;# 
   939  020C                     	;# 
   940  020D                     	;# 
   941  0211                     	;# 
   942  0211                     	;# 
   943  0212                     	;# 
   944  0212                     	;# 
   945  0213                     	;# 
   946  0213                     	;# 
   947  0214                     	;# 
   948  0214                     	;# 
   949  0215                     	;# 
   950  0215                     	;# 
   951  0215                     	;# 
   952  0216                     	;# 
   953  0216                     	;# 
   954  0217                     	;# 
   955  0217                     	;# 
   956  0391                     	;# 
   957  0392                     	;# 
   958  0393                     	;# 
   959  0394                     	;# 
   960  0395                     	;# 
   961  0396                     	;# 
   962  039A                     	;# 
   963  039B                     	;# 
   964  0611                     	;# 
   965  0612                     	;# 
   966  0613                     	;# 
   967  0613                     	;# 
   968  0614                     	;# 
   969  0615                     	;# 
   970  0616                     	;# 
   971  0616                     	;# 
   972  0691                     	;# 
   973  0692                     	;# 
   974  0693                     	;# 
   975  0694                     	;# 
   976  0695                     	;# 
   977  0E8E                     	;# 
   978  0E8F                     	;# 
   979  0E90                     	;# 
   980  0E91                     	;# 
   981  0E92                     	;# 
   982  0E93                     	;# 
   983  0E94                     	;# 
   984  0E94                     	;# 
   985  0E95                     	;# 
   986  0E96                     	;# 
   987  0E97                     	;# 
   988  0E98                     	;# 
   989  0E99                     	;# 
   990  0E9A                     	;# 
   991  0E9B                     	;# 
   992  0E9C                     	;# 
   993  0E9D                     	;# 
   994  0E9E                     	;# 
   995  0E9F                     	;# 
   996  0FE4                     	;# 
   997  0FE5                     	;# 
   998  0FE6                     	;# 
   999  0FE7                     	;# 
  1000  0FE8                     	;# 
  1001  0FE9                     	;# 
  1002  0FEA                     	;# 
  1003  0FEB                     	;# 
  1004  0FED                     	;# 
  1005  0FEE                     	;# 
  1006  0FEF                     	;# 
  1007  0000                     	;# 
  1008  0001                     	;# 
  1009  0002                     	;# 
  1010  0003                     	;# 
  1011  0004                     	;# 
  1012  0005                     	;# 
  1013  0006                     	;# 
  1014  0007                     	;# 
  1015  0008                     	;# 
  1016  0009                     	;# 
  1017  000A                     	;# 
  1018  000B                     	;# 
  1019  000C                     	;# 
  1020  000D                     	;# 
  1021  000E                     	;# 
  1022  0011                     	;# 
  1023  0012                     	;# 
  1024  0015                     	;# 
  1025  0016                     	;# 
  1026  0016                     	;# 
  1027  0017                     	;# 
  1028  0018                     	;# 
  1029  0019                     	;# 
  1030  001A                     	;# 
  1031  001B                     	;# 
  1032  001C                     	;# 
  1033  008C                     	;# 
  1034  008D                     	;# 
  1035  008E                     	;# 
  1036  0091                     	;# 
  1037  0092                     	;# 
  1038  0095                     	;# 
  1039  0096                     	;# 
  1040  0097                     	;# 
  1041  0098                     	;# 
  1042  0099                     	;# 
  1043  009A                     	;# 
  1044  009B                     	;# 
  1045  009B                     	;# 
  1046  009C                     	;# 
  1047  009D                     	;# 
  1048  009E                     	;# 
  1049  009F                     	;# 
  1050  010C                     	;# 
  1051  010D                     	;# 
  1052  010E                     	;# 
  1053  0111                     	;# 
  1054  0112                     	;# 
  1055  0113                     	;# 
  1056  0114                     	;# 
  1057  0115                     	;# 
  1058  0116                     	;# 
  1059  0117                     	;# 
  1060  0118                     	;# 
  1061  0119                     	;# 
  1062  011D                     	;# 
  1063  018C                     	;# 
  1064  018D                     	;# 
  1065  018E                     	;# 
  1066  0191                     	;# 
  1067  0191                     	;# 
  1068  0192                     	;# 
  1069  0193                     	;# 
  1070  0193                     	;# 
  1071  0194                     	;# 
  1072  0195                     	;# 
  1073  0196                     	;# 
  1074  0197                     	;# 
  1075  0199                     	;# 
  1076  019A                     	;# 
  1077  019B                     	;# 
  1078  019B                     	;# 
  1079  019C                     	;# 
  1080  019D                     	;# 
  1081  019E                     	;# 
  1082  019F                     	;# 
  1083  020C                     	;# 
  1084  020D                     	;# 
  1085  0211                     	;# 
  1086  0211                     	;# 
  1087  0212                     	;# 
  1088  0212                     	;# 
  1089  0213                     	;# 
  1090  0213                     	;# 
  1091  0214                     	;# 
  1092  0214                     	;# 
  1093  0215                     	;# 
  1094  0215                     	;# 
  1095  0215                     	;# 
  1096  0216                     	;# 
  1097  0216                     	;# 
  1098  0217                     	;# 
  1099  0217                     	;# 
  1100  0391                     	;# 
  1101  0392                     	;# 
  1102  0393                     	;# 
  1103  0394                     	;# 
  1104  0395                     	;# 
  1105  0396                     	;# 
  1106  039A                     	;# 
  1107  039B                     	;# 
  1108  0611                     	;# 
  1109  0612                     	;# 
  1110  0613                     	;# 
  1111  0613                     	;# 
  1112  0614                     	;# 
  1113  0615                     	;# 
  1114  0616                     	;# 
  1115  0616                     	;# 
  1116  0691                     	;# 
  1117  0692                     	;# 
  1118  0693                     	;# 
  1119  0694                     	;# 
  1120  0695                     	;# 
  1121  0E8E                     	;# 
  1122  0E8F                     	;# 
  1123  0E90                     	;# 
  1124  0E91                     	;# 
  1125  0E92                     	;# 
  1126  0E93                     	;# 
  1127  0E94                     	;# 
  1128  0E94                     	;# 
  1129  0E95                     	;# 
  1130  0E96                     	;# 
  1131  0E97                     	;# 
  1132  0E98                     	;# 
  1133  0E99                     	;# 
  1134  0E9A                     	;# 
  1135  0E9B                     	;# 
  1136  0E9C                     	;# 
  1137  0E9D                     	;# 
  1138  0E9E                     	;# 
  1139  0E9F                     	;# 
  1140  0FE4                     	;# 
  1141  0FE5                     	;# 
  1142  0FE6                     	;# 
  1143  0FE7                     	;# 
  1144  0FE8                     	;# 
  1145  0FE9                     	;# 
  1146  0FEA                     	;# 
  1147  0FEB                     	;# 
  1148  0FED                     	;# 
  1149  0FEE                     	;# 
  1150  0FEF                     	;# 
  1151  0000                     	;# 
  1152  0001                     	;# 
  1153  0002                     	;# 
  1154  0003                     	;# 
  1155  0004                     	;# 
  1156  0005                     	;# 
  1157  0006                     	;# 
  1158  0007                     	;# 
  1159  0008                     	;# 
  1160  0009                     	;# 
  1161  000A                     	;# 
  1162  000B                     	;# 
  1163  000C                     	;# 
  1164  000D                     	;# 
  1165  000E                     	;# 
  1166  0011                     	;# 
  1167  0012                     	;# 
  1168  0015                     	;# 
  1169  0016                     	;# 
  1170  0016                     	;# 
  1171  0017                     	;# 
  1172  0018                     	;# 
  1173  0019                     	;# 
  1174  001A                     	;# 
  1175  001B                     	;# 
  1176  001C                     	;# 
  1177  008C                     	;# 
  1178  008D                     	;# 
  1179  008E                     	;# 
  1180  0091                     	;# 
  1181  0092                     	;# 
  1182  0095                     	;# 
  1183  0096                     	;# 
  1184  0097                     	;# 
  1185  0098                     	;# 
  1186  0099                     	;# 
  1187  009A                     	;# 
  1188  009B                     	;# 
  1189  009B                     	;# 
  1190  009C                     	;# 
  1191  009D                     	;# 
  1192  009E                     	;# 
  1193  009F                     	;# 
  1194  010C                     	;# 
  1195  010D                     	;# 
  1196  010E                     	;# 
  1197  0111                     	;# 
  1198  0112                     	;# 
  1199  0113                     	;# 
  1200  0114                     	;# 
  1201  0115                     	;# 
  1202  0116                     	;# 
  1203  0117                     	;# 
  1204  0118                     	;# 
  1205  0119                     	;# 
  1206  011D                     	;# 
  1207  018C                     	;# 
  1208  018D                     	;# 
  1209  018E                     	;# 
  1210  0191                     	;# 
  1211  0191                     	;# 
  1212  0192                     	;# 
  1213  0193                     	;# 
  1214  0193                     	;# 
  1215  0194                     	;# 
  1216  0195                     	;# 
  1217  0196                     	;# 
  1218  0197                     	;# 
  1219  0199                     	;# 
  1220  019A                     	;# 
  1221  019B                     	;# 
  1222  019B                     	;# 
  1223  019C                     	;# 
  1224  019D                     	;# 
  1225  019E                     	;# 
  1226  019F                     	;# 
  1227  020C                     	;# 
  1228  020D                     	;# 
  1229  0211                     	;# 
  1230  0211                     	;# 
  1231  0212                     	;# 
  1232  0212                     	;# 
  1233  0213                     	;# 
  1234  0213                     	;# 
  1235  0214                     	;# 
  1236  0214                     	;# 
  1237  0215                     	;# 
  1238  0215                     	;# 
  1239  0215                     	;# 
  1240  0216                     	;# 
  1241  0216                     	;# 
  1242  0217                     	;# 
  1243  0217                     	;# 
  1244  0391                     	;# 
  1245  0392                     	;# 
  1246  0393                     	;# 
  1247  0394                     	;# 
  1248  0395                     	;# 
  1249  0396                     	;# 
  1250  039A                     	;# 
  1251  039B                     	;# 
  1252  0611                     	;# 
  1253  0612                     	;# 
  1254  0613                     	;# 
  1255  0613                     	;# 
  1256  0614                     	;# 
  1257  0615                     	;# 
  1258  0616                     	;# 
  1259  0616                     	;# 
  1260  0691                     	;# 
  1261  0692                     	;# 
  1262  0693                     	;# 
  1263  0694                     	;# 
  1264  0695                     	;# 
  1265  0E8E                     	;# 
  1266  0E8F                     	;# 
  1267  0E90                     	;# 
  1268  0E91                     	;# 
  1269  0E92                     	;# 
  1270  0E93                     	;# 
  1271  0E94                     	;# 
  1272  0E94                     	;# 
  1273  0E95                     	;# 
  1274  0E96                     	;# 
  1275  0E97                     	;# 
  1276  0E98                     	;# 
  1277  0E99                     	;# 
  1278  0E9A                     	;# 
  1279  0E9B                     	;# 
  1280  0E9C                     	;# 
  1281  0E9D                     	;# 
  1282  0E9E                     	;# 
  1283  0E9F                     	;# 
  1284  0FE4                     	;# 
  1285  0FE5                     	;# 
  1286  0FE6                     	;# 
  1287  0FE7                     	;# 
  1288  0FE8                     	;# 
  1289  0FE9                     	;# 
  1290  0FEA                     	;# 
  1291  0FEB                     	;# 
  1292  0FED                     	;# 
  1293  0FEE                     	;# 
  1294  0FEF                     	;# 
  1295  0000                     	;# 
  1296  0001                     	;# 
  1297  0002                     	;# 
  1298  0003                     	;# 
  1299  0004                     	;# 
  1300  0005                     	;# 
  1301  0006                     	;# 
  1302  0007                     	;# 
  1303  0008                     	;# 
  1304  0009                     	;# 
  1305  000A                     	;# 
  1306  000B                     	;# 
  1307  000C                     	;# 
  1308  000D                     	;# 
  1309  000E                     	;# 
  1310  0011                     	;# 
  1311  0012                     	;# 
  1312  0015                     	;# 
  1313  0016                     	;# 
  1314  0016                     	;# 
  1315  0017                     	;# 
  1316  0018                     	;# 
  1317  0019                     	;# 
  1318  001A                     	;# 
  1319  001B                     	;# 
  1320  001C                     	;# 
  1321  008C                     	;# 
  1322  008D                     	;# 
  1323  008E                     	;# 
  1324  0091                     	;# 
  1325  0092                     	;# 
  1326  0095                     	;# 
  1327  0096                     	;# 
  1328  0097                     	;# 
  1329  0098                     	;# 
  1330  0099                     	;# 
  1331  009A                     	;# 
  1332  009B                     	;# 
  1333  009B                     	;# 
  1334  009C                     	;# 
  1335  009D                     	;# 
  1336  009E                     	;# 
  1337  009F                     	;# 
  1338  010C                     	;# 
  1339  010D                     	;# 
  1340  010E                     	;# 
  1341  0111                     	;# 
  1342  0112                     	;# 
  1343  0113                     	;# 
  1344  0114                     	;# 
  1345  0115                     	;# 
  1346  0116                     	;# 
  1347  0117                     	;# 
  1348  0118                     	;# 
  1349  0119                     	;# 
  1350  011D                     	;# 
  1351  018C                     	;# 
  1352  018D                     	;# 
  1353  018E                     	;# 
  1354  0191                     	;# 
  1355  0191                     	;# 
  1356  0192                     	;# 
  1357  0193                     	;# 
  1358  0193                     	;# 
  1359  0194                     	;# 
  1360  0195                     	;# 
  1361  0196                     	;# 
  1362  0197                     	;# 
  1363  0199                     	;# 
  1364  019A                     	;# 
  1365  019B                     	;# 
  1366  019B                     	;# 
  1367  019C                     	;# 
  1368  019D                     	;# 
  1369  019E                     	;# 
  1370  019F                     	;# 
  1371  020C                     	;# 
  1372  020D                     	;# 
  1373  0211                     	;# 
  1374  0211                     	;# 
  1375  0212                     	;# 
  1376  0212                     	;# 
  1377  0213                     	;# 
  1378  0213                     	;# 
  1379  0214                     	;# 
  1380  0214                     	;# 
  1381  0215                     	;# 
  1382  0215                     	;# 
  1383  0215                     	;# 
  1384  0216                     	;# 
  1385  0216                     	;# 
  1386  0217                     	;# 
  1387  0217                     	;# 
  1388  0391                     	;# 
  1389  0392                     	;# 
  1390  0393                     	;# 
  1391  0394                     	;# 
  1392  0395                     	;# 
  1393  0396                     	;# 
  1394  039A                     	;# 
  1395  039B                     	;# 
  1396  0611                     	;# 
  1397  0612                     	;# 
  1398  0613                     	;# 
  1399  0613                     	;# 
  1400  0614                     	;# 
  1401  0615                     	;# 
  1402  0616                     	;# 
  1403  0616                     	;# 
  1404  0691                     	;# 
  1405  0692                     	;# 
  1406  0693                     	;# 
  1407  0694                     	;# 
  1408  0695                     	;# 
  1409  0E8E                     	;# 
  1410  0E8F                     	;# 
  1411  0E90                     	;# 
  1412  0E91                     	;# 
  1413  0E92                     	;# 
  1414  0E93                     	;# 
  1415  0E94                     	;# 
  1416  0E94                     	;# 
  1417  0E95                     	;# 
  1418  0E96                     	;# 
  1419  0E97                     	;# 
  1420  0E98                     	;# 
  1421  0E99                     	;# 
  1422  0E9A                     	;# 
  1423  0E9B                     	;# 
  1424  0E9C                     	;# 
  1425  0E9D                     	;# 
  1426  0E9E                     	;# 
  1427  0E9F                     	;# 
  1428  0FE4                     	;# 
  1429  0FE5                     	;# 
  1430  0FE6                     	;# 
  1431  0FE7                     	;# 
  1432  0FE8                     	;# 
  1433  0FE9                     	;# 
  1434  0FEA                     	;# 
  1435  0FEB                     	;# 
  1436  0FED                     	;# 
  1437  0FEE                     	;# 
  1438  0FEF                     	;# 
  1439  0000                     	;# 
  1440  0001                     	;# 
  1441  0002                     	;# 
  1442  0003                     	;# 
  1443  0004                     	;# 
  1444  0005                     	;# 
  1445  0006                     	;# 
  1446  0007                     	;# 
  1447  0008                     	;# 
  1448  0009                     	;# 
  1449  000A                     	;# 
  1450  000B                     	;# 
  1451  000C                     	;# 
  1452  000D                     	;# 
  1453  000E                     	;# 
  1454  0011                     	;# 
  1455  0012                     	;# 
  1456  0015                     	;# 
  1457  0016                     	;# 
  1458  0016                     	;# 
  1459  0017                     	;# 
  1460  0018                     	;# 
  1461  0019                     	;# 
  1462  001A                     	;# 
  1463  001B                     	;# 
  1464  001C                     	;# 
  1465  008C                     	;# 
  1466  008D                     	;# 
  1467  008E                     	;# 
  1468  0091                     	;# 
  1469  0092                     	;# 
  1470  0095                     	;# 
  1471  0096                     	;# 
  1472  0097                     	;# 
  1473  0098                     	;# 
  1474  0099                     	;# 
  1475  009A                     	;# 
  1476  009B                     	;# 
  1477  009B                     	;# 
  1478  009C                     	;# 
  1479  009D                     	;# 
  1480  009E                     	;# 
  1481  009F                     	;# 
  1482  010C                     	;# 
  1483  010D                     	;# 
  1484  010E                     	;# 
  1485  0111                     	;# 
  1486  0112                     	;# 
  1487  0113                     	;# 
  1488  0114                     	;# 
  1489  0115                     	;# 
  1490  0116                     	;# 
  1491  0117                     	;# 
  1492  0118                     	;# 
  1493  0119                     	;# 
  1494  011D                     	;# 
  1495  018C                     	;# 
  1496  018D                     	;# 
  1497  018E                     	;# 
  1498  0191                     	;# 
  1499  0191                     	;# 
  1500  0192                     	;# 
  1501  0193                     	;# 
  1502  0193                     	;# 
  1503  0194                     	;# 
  1504  0195                     	;# 
  1505  0196                     	;# 
  1506  0197                     	;# 
  1507  0199                     	;# 
  1508  019A                     	;# 
  1509  019B                     	;# 
  1510  019B                     	;# 
  1511  019C                     	;# 
  1512  019D                     	;# 
  1513  019E                     	;# 
  1514  019F                     	;# 
  1515  020C                     	;# 
  1516  020D                     	;# 
  1517  0211                     	;# 
  1518  0211                     	;# 
  1519  0212                     	;# 
  1520  0212                     	;# 
  1521  0213                     	;# 
  1522  0213                     	;# 
  1523  0214                     	;# 
  1524  0214                     	;# 
  1525  0215                     	;# 
  1526  0215                     	;# 
  1527  0215                     	;# 
  1528  0216                     	;# 
  1529  0216                     	;# 
  1530  0217                     	;# 
  1531  0217                     	;# 
  1532  0391                     	;# 
  1533  0392                     	;# 
  1534  0393                     	;# 
  1535  0394                     	;# 
  1536  0395                     	;# 
  1537  0396                     	;# 
  1538  039A                     	;# 
  1539  039B                     	;# 
  1540  0611                     	;# 
  1541  0612                     	;# 
  1542  0613                     	;# 
  1543  0613                     	;# 
  1544  0614                     	;# 
  1545  0615                     	;# 
  1546  0616                     	;# 
  1547  0616                     	;# 
  1548  0691                     	;# 
  1549  0692                     	;# 
  1550  0693                     	;# 
  1551  0694                     	;# 
  1552  0695                     	;# 
  1553  0E8E                     	;# 
  1554  0E8F                     	;# 
  1555  0E90                     	;# 
  1556  0E91                     	;# 
  1557  0E92                     	;# 
  1558  0E93                     	;# 
  1559  0E94                     	;# 
  1560  0E94                     	;# 
  1561  0E95                     	;# 
  1562  0E96                     	;# 
  1563  0E97                     	;# 
  1564  0E98                     	;# 
  1565  0E99                     	;# 
  1566  0E9A                     	;# 
  1567  0E9B                     	;# 
  1568  0E9C                     	;# 
  1569  0E9D                     	;# 
  1570  0E9E                     	;# 
  1571  0E9F                     	;# 
  1572  0FE4                     	;# 
  1573  0FE5                     	;# 
  1574  0FE6                     	;# 
  1575  0FE7                     	;# 
  1576  0FE8                     	;# 
  1577  0FE9                     	;# 
  1578  0FEA                     	;# 
  1579  0FEB                     	;# 
  1580  0FED                     	;# 
  1581  0FEE                     	;# 
  1582  0FEF                     	;# 
  1583  0000                     	;# 
  1584  0001                     	;# 
  1585  0002                     	;# 
  1586  0003                     	;# 
  1587  0004                     	;# 
  1588  0005                     	;# 
  1589  0006                     	;# 
  1590  0007                     	;# 
  1591  0008                     	;# 
  1592  0009                     	;# 
  1593  000A                     	;# 
  1594  000B                     	;# 
  1595  000C                     	;# 
  1596  000D                     	;# 
  1597  000E                     	;# 
  1598  0011                     	;# 
  1599  0012                     	;# 
  1600  0015                     	;# 
  1601  0016                     	;# 
  1602  0016                     	;# 
  1603  0017                     	;# 
  1604  0018                     	;# 
  1605  0019                     	;# 
  1606  001A                     	;# 
  1607  001B                     	;# 
  1608  001C                     	;# 
  1609  008C                     	;# 
  1610  008D                     	;# 
  1611  008E                     	;# 
  1612  0091                     	;# 
  1613  0092                     	;# 
  1614  0095                     	;# 
  1615  0096                     	;# 
  1616  0097                     	;# 
  1617  0098                     	;# 
  1618  0099                     	;# 
  1619  009A                     	;# 
  1620  009B                     	;# 
  1621  009B                     	;# 
  1622  009C                     	;# 
  1623  009D                     	;# 
  1624  009E                     	;# 
  1625  009F                     	;# 
  1626  010C                     	;# 
  1627  010D                     	;# 
  1628  010E                     	;# 
  1629  0111                     	;# 
  1630  0112                     	;# 
  1631  0113                     	;# 
  1632  0114                     	;# 
  1633  0115                     	;# 
  1634  0116                     	;# 
  1635  0117                     	;# 
  1636  0118                     	;# 
  1637  0119                     	;# 
  1638  011D                     	;# 
  1639  018C                     	;# 
  1640  018D                     	;# 
  1641  018E                     	;# 
  1642  0191                     	;# 
  1643  0191                     	;# 
  1644  0192                     	;# 
  1645  0193                     	;# 
  1646  0193                     	;# 
  1647  0194                     	;# 
  1648  0195                     	;# 
  1649  0196                     	;# 
  1650  0197                     	;# 
  1651  0199                     	;# 
  1652  019A                     	;# 
  1653  019B                     	;# 
  1654  019B                     	;# 
  1655  019C                     	;# 
  1656  019D                     	;# 
  1657  019E                     	;# 
  1658  019F                     	;# 
  1659  020C                     	;# 
  1660  020D                     	;# 
  1661  0211                     	;# 
  1662  0211                     	;# 
  1663  0212                     	;# 
  1664  0212                     	;# 
  1665  0213                     	;# 
  1666  0213                     	;# 
  1667  0214                     	;# 
  1668  0214                     	;# 
  1669  0215                     	;# 
  1670  0215                     	;# 
  1671  0215                     	;# 
  1672  0216                     	;# 
  1673  0216                     	;# 
  1674  0217                     	;# 
  1675  0217                     	;# 
  1676  0391                     	;# 
  1677  0392                     	;# 
  1678  0393                     	;# 
  1679  0394                     	;# 
  1680  0395                     	;# 
  1681  0396                     	;# 
  1682  039A                     	;# 
  1683  039B                     	;# 
  1684  0611                     	;# 
  1685  0612                     	;# 
  1686  0613                     	;# 
  1687  0613                     	;# 
  1688  0614                     	;# 
  1689  0615                     	;# 
  1690  0616                     	;# 
  1691  0616                     	;# 
  1692  0691                     	;# 
  1693  0692                     	;# 
  1694  0693                     	;# 
  1695  0694                     	;# 
  1696  0695                     	;# 
  1697  0E8E                     	;# 
  1698  0E8F                     	;# 
  1699  0E90                     	;# 
  1700  0E91                     	;# 
  1701  0E92                     	;# 
  1702  0E93                     	;# 
  1703  0E94                     	;# 
  1704  0E94                     	;# 
  1705  0E95                     	;# 
  1706  0E96                     	;# 
  1707  0E97                     	;# 
  1708  0E98                     	;# 
  1709  0E99                     	;# 
  1710  0E9A                     	;# 
  1711  0E9B                     	;# 
  1712  0E9C                     	;# 
  1713  0E9D                     	;# 
  1714  0E9E                     	;# 
  1715  0E9F                     	;# 
  1716  0FE4                     	;# 
  1717  0FE5                     	;# 
  1718  0FE6                     	;# 
  1719  0FE7                     	;# 
  1720  0FE8                     	;# 
  1721  0FE9                     	;# 
  1722  0FEA                     	;# 
  1723  0FEB                     	;# 
  1724  0FED                     	;# 
  1725  0FEE                     	;# 
  1726  0FEF                     	;# 
  1727                           
  1728                           	psect	stringtext1
  1729  105C                     __pstringtext1:
  1730  105C                     _i2c_fsmStateTable:
  1731  105C  34AC               	retlw	low _I2C_DO_IDLE
  1732  105D  3408               	retlw	high _I2C_DO_IDLE
  1733  105E  3408               	retlw	low _I2C_DO_SEND_ADR_READ
  1734  105F  3409               	retlw	high _I2C_DO_SEND_ADR_READ
  1735  1060  34F8               	retlw	low _I2C_DO_SEND_ADR_WRITE
  1736  1061  3408               	retlw	high _I2C_DO_SEND_ADR_WRITE
  1737  1062  3440               	retlw	low _I2C_DO_TX
  1738  1063  340C               	retlw	high _I2C_DO_TX
  1739  1064  34FA               	retlw	low _I2C_DO_RX
  1740  1065  340B               	retlw	high _I2C_DO_RX
  1741  1066  34F1               	retlw	low _I2C_DO_RCEN
  1742  1067  3408               	retlw	high _I2C_DO_RCEN
  1743  1068  3491               	retlw	low _I2C_DO_TX_EMPTY
  1744  1069  340B               	retlw	high _I2C_DO_TX_EMPTY
  1745  106A  34B1               	retlw	low _I2C_DO_SEND_RESTART_READ
  1746  106B  3408               	retlw	high _I2C_DO_SEND_RESTART_READ
  1747  106C  34B6               	retlw	low _I2C_DO_SEND_RESTART_WRITE
  1748  106D  3408               	retlw	high _I2C_DO_SEND_RESTART_WRITE
  1749  106E  34BB               	retlw	low _I2C_DO_SEND_RESTART
  1750  106F  3408               	retlw	high _I2C_DO_SEND_RESTART
  1751  1070  34C0               	retlw	low _I2C_DO_SEND_STOP
  1752  1071  3408               	retlw	high _I2C_DO_SEND_STOP
  1753  1072  34C5               	retlw	low _I2C_DO_RX_ACK
  1754  1073  3408               	retlw	high _I2C_DO_RX_ACK
  1755  1074  34CA               	retlw	low _I2C_DO_RX_NACK_STOP
  1756  1075  3408               	retlw	high _I2C_DO_RX_NACK_STOP
  1757  1076  34CF               	retlw	low _I2C_DO_RX_NACK_RESTART
  1758  1077  3408               	retlw	high _I2C_DO_RX_NACK_RESTART
  1759  1078  34D4               	retlw	low _I2C_DO_RESET
  1760  1079  3408               	retlw	high _I2C_DO_RESET
  1761  107A  34DC               	retlw	low _I2C_DO_ADDRESS_NACK
  1762  107B  340A               	retlw	high _I2C_DO_ADDRESS_NACK
  1763  107C                     __end_of_i2c_fsmStateTable:
  1764                           
  1765                           	psect	stringtext2
  1766  10D6                     __pstringtext2:
  1767  10D6                     _USB_SD_Ptr:
  1768  10D6  34E6               	retlw	low (_sd000| (0+32768))
  1769  10D7  3490               	retlw	high (_sd000| (0+32768))
  1770  10D8  3400               	retlw	low (_sd001| (0+32768))
  1771  10D9  3490               	retlw	high (_sd001| (0+32768))
  1772  10DA  349C               	retlw	low (_sd002| (0+32768))
  1773  10DB  3490               	retlw	high (_sd002| (0+32768))
  1774  10DC  34DE               	retlw	low (_sd003| (0+32768))
  1775  10DD  3490               	retlw	high (_sd003| (0+32768))
  1776  10DE                     __end_of_USB_SD_Ptr:
  1777                           
  1778                           	psect	stringtext3
  1779  10EA                     __pstringtext3:
  1780  10EA                     _USB_CD_Ptr:
  1781  10EA  347C               	retlw	low (_configDescriptor1| (0+32768))
  1782  10EB  3490               	retlw	high (_configDescriptor1| (0+32768))
  1783  10EC                     __end_of_USB_CD_Ptr:
  1784                           
  1785                           	psect	stringtext4
  1786  06A3                     __pstringtext4:
  1787  06A3                     _ExtPropertyFeatureDescriptor:
  1788  06A3  348E               	retlw	142
  1789  06A4  3400               	retlw	0
  1790  06A5  3400               	retlw	0
  1791  06A6  3400               	retlw	0
  1792  06A7  3400               	retlw	0
  1793  06A8  3401               	retlw	1
  1794  06A9  3405               	retlw	5
  1795  06AA  3400               	retlw	0
  1796  06AB  3401               	retlw	1
  1797  06AC  3400               	retlw	0
  1798  06AD  3484               	retlw	132
  1799  06AE  3400               	retlw	0
  1800  06AF  3400               	retlw	0
  1801  06B0  3400               	retlw	0
  1802  06B1  3401               	retlw	1
  1803  06B2  3400               	retlw	0
  1804  06B3  3400               	retlw	0
  1805  06B4  3400               	retlw	0
  1806  06B5  3428               	retlw	40
  1807  06B6  3400               	retlw	0
  1808  06B7  3444               	retlw	68
  1809  06B8  3400               	retlw	0
  1810  06B9  3465               	retlw	101
  1811  06BA  3400               	retlw	0
  1812  06BB  3476               	retlw	118
  1813  06BC  3400               	retlw	0
  1814  06BD  3469               	retlw	105
  1815  06BE  3400               	retlw	0
  1816  06BF  3463               	retlw	99
  1817  06C0  3400               	retlw	0
  1818  06C1  3465               	retlw	101
  1819  06C2  3400               	retlw	0
  1820  06C3  3449               	retlw	73
  1821  06C4  3400               	retlw	0
  1822  06C5  346E               	retlw	110
  1823  06C6  3400               	retlw	0
  1824  06C7  3474               	retlw	116
  1825  06C8  3400               	retlw	0
  1826  06C9  3465               	retlw	101
  1827  06CA  3400               	retlw	0
  1828  06CB  3472               	retlw	114
  1829  06CC  3400               	retlw	0
  1830  06CD  3466               	retlw	102
  1831  06CE  3400               	retlw	0
  1832  06CF  3461               	retlw	97
  1833  06D0  3400               	retlw	0
  1834  06D1  3463               	retlw	99
  1835  06D2  3400               	retlw	0
  1836  06D3  3465               	retlw	101
  1837  06D4  3400               	retlw	0
  1838  06D5  3447               	retlw	71
  1839  06D6  3400               	retlw	0
  1840  06D7  3455               	retlw	85
  1841  06D8  3400               	retlw	0
  1842  06D9  3449               	retlw	73
  1843  06DA  3400               	retlw	0
  1844  06DB  3444               	retlw	68
  1845  06DC  3400               	retlw	0
  1846  06DD  3400               	retlw	0
  1847  06DE  3400               	retlw	0
  1848  06DF  344E               	retlw	78
  1849  06E0  3400               	retlw	0
  1850  06E1  3400               	retlw	0
  1851  06E2  3400               	retlw	0
  1852  06E3  347B               	retlw	123
  1853  06E4  3400               	retlw	0
  1854  06E5  3435               	retlw	53
  1855  06E6  3400               	retlw	0
  1856  06E7  3438               	retlw	56
  1857  06E8  3400               	retlw	0
  1858  06E9  3464               	retlw	100
  1859  06EA  3400               	retlw	0
  1860  06EB  3430               	retlw	48
  1861  06EC  3400               	retlw	0
  1862  06ED  3437               	retlw	55
  1863  06EE  3400               	retlw	0
  1864  06EF  3432               	retlw	50
  1865  06F0  3400               	retlw	0
  1866  06F1  3431               	retlw	49
  1867  06F2  3400               	retlw	0
  1868  06F3  3430               	retlw	48
  1869  06F4  3400               	retlw	0
  1870  06F5  342D               	retlw	45
  1871  06F6  3400               	retlw	0
  1872  06F7  3432               	retlw	50
  1873  06F8  3400               	retlw	0
  1874  06F9  3437               	retlw	55
  1875  06FA  3400               	retlw	0
  1876  06FB  3463               	retlw	99
  1877  06FC  3400               	retlw	0
  1878  06FD  3431               	retlw	49
  1879  06FE  3400               	retlw	0
  1880  06FF  342D               	retlw	45
  1881  0700  3400               	retlw	0
  1882  0701  3431               	retlw	49
  1883  0702  3400               	retlw	0
  1884  0703  3431               	retlw	49
  1885  0704  3400               	retlw	0
  1886  0705  3464               	retlw	100
  1887  0706  3400               	retlw	0
  1888  0707  3464               	retlw	100
  1889  0708  3400               	retlw	0
  1890  0709  342D               	retlw	45
  1891  070A  3400               	retlw	0
  1892  070B  3462               	retlw	98
  1893  070C  3400               	retlw	0
  1894  070D  3464               	retlw	100
  1895  070E  3400               	retlw	0
  1896  070F  3430               	retlw	48
  1897  0710  3400               	retlw	0
  1898  0711  3462               	retlw	98
  1899  0712  3400               	retlw	0
  1900  0713  342D               	retlw	45
  1901  0714  3400               	retlw	0
  1902  0715  3430               	retlw	48
  1903  0716  3400               	retlw	0
  1904  0717  3438               	retlw	56
  1905  0718  3400               	retlw	0
  1906  0719  3430               	retlw	48
  1907  071A  3400               	retlw	0
  1908  071B  3430               	retlw	48
  1909  071C  3400               	retlw	0
  1910  071D  3432               	retlw	50
  1911  071E  3400               	retlw	0
  1912  071F  3430               	retlw	48
  1913  0720  3400               	retlw	0
  1914  0721  3430               	retlw	48
  1915  0722  3400               	retlw	0
  1916  0723  3463               	retlw	99
  1917  0724  3400               	retlw	0
  1918  0725  3439               	retlw	57
  1919  0726  3400               	retlw	0
  1920  0727  3461               	retlw	97
  1921  0728  3400               	retlw	0
  1922  0729  3436               	retlw	54
  1923  072A  3400               	retlw	0
  1924  072B  3436               	retlw	54
  1925  072C  3400               	retlw	0
  1926  072D  347D               	retlw	125
  1927  072E  3400               	retlw	0
  1928  072F  3400               	retlw	0
  1929  0730  3400               	retlw	0
  1930  0731                     __end_of_ExtPropertyFeatureDescriptor:
  1931                           
  1932                           	psect	stringtext5
  1933  1000                     __pstringtext5:
  1934  1000                     _sd001:
  1935  1000  3434               	retlw	52
  1936  1001  3403               	retlw	3
  1937  1002  344D               	retlw	77
  1938  1003  3400               	retlw	0
  1939  1004  3469               	retlw	105
  1940  1005  3400               	retlw	0
  1941  1006  3463               	retlw	99
  1942  1007  3400               	retlw	0
  1943  1008  3472               	retlw	114
  1944  1009  3400               	retlw	0
  1945  100A  346F               	retlw	111
  1946  100B  3400               	retlw	0
  1947  100C  3463               	retlw	99
  1948  100D  3400               	retlw	0
  1949  100E  3468               	retlw	104
  1950  100F  3400               	retlw	0
  1951  1010  3469               	retlw	105
  1952  1011  3400               	retlw	0
  1953  1012  3470               	retlw	112
  1954  1013  3400               	retlw	0
  1955  1014  3420               	retlw	32
  1956  1015  3400               	retlw	0
  1957  1016  3454               	retlw	84
  1958  1017  3400               	retlw	0
  1959  1018  3465               	retlw	101
  1960  1019  3400               	retlw	0
  1961  101A  3463               	retlw	99
  1962  101B  3400               	retlw	0
  1963  101C  3468               	retlw	104
  1964  101D  3400               	retlw	0
  1965  101E  346E               	retlw	110
  1966  101F  3400               	retlw	0
  1967  1020  346F               	retlw	111
  1968  1021  3400               	retlw	0
  1969  1022  346C               	retlw	108
  1970  1023  3400               	retlw	0
  1971  1024  346F               	retlw	111
  1972  1025  3400               	retlw	0
  1973  1026  3467               	retlw	103
  1974  1027  3400               	retlw	0
  1975  1028  3479               	retlw	121
  1976  1029  3400               	retlw	0
  1977  102A  3420               	retlw	32
  1978  102B  3400               	retlw	0
  1979  102C  3449               	retlw	73
  1980  102D  3400               	retlw	0
  1981  102E  346E               	retlw	110
  1982  102F  3400               	retlw	0
  1983  1030  3463               	retlw	99
  1984  1031  3400               	retlw	0
  1985  1032  342E               	retlw	46
  1986  1033  3400               	retlw	0
  1987  1034                     __end_of_sd001:
  1988                           
  1989                           	psect	stringtext6
  1990  1034                     __pstringtext6:
  1991  1034                     _CompatIDFeatureDescriptor:
  1992  1034  3428               	retlw	40
  1993  1035  3400               	retlw	0
  1994  1036  3400               	retlw	0
  1995  1037  3400               	retlw	0
  1996  1038  3400               	retlw	0
  1997  1039  3401               	retlw	1
  1998  103A  3404               	retlw	4
  1999  103B  3400               	retlw	0
  2000  103C  3401               	retlw	1
  2001  103D  3400               	retlw	0
  2002  103E  3400               	retlw	0
  2003  103F  3400               	retlw	0
  2004  1040  3400               	retlw	0
  2005  1041  3400               	retlw	0
  2006  1042  3400               	retlw	0
  2007  1043  3400               	retlw	0
  2008  1044  3400               	retlw	0
  2009  1045  3401               	retlw	1
  2010  1046  3457               	retlw	87
  2011  1047  3449               	retlw	73
  2012  1048  344E               	retlw	78
  2013  1049  3455               	retlw	85
  2014  104A  3453               	retlw	83
  2015  104B  3442               	retlw	66
  2016  104C  3400               	retlw	0
  2017  104D  3400               	retlw	0
  2018  104E  3400               	retlw	0
  2019  104F  3400               	retlw	0
  2020  1050  3400               	retlw	0
  2021  1051  3400               	retlw	0
  2022  1052  3400               	retlw	0
  2023  1053  3400               	retlw	0
  2024  1054  3400               	retlw	0
  2025  1055  3400               	retlw	0
  2026  1056  3400               	retlw	0
  2027  1057  3400               	retlw	0
  2028  1058  3400               	retlw	0
  2029  1059  3400               	retlw	0
  2030  105A  3400               	retlw	0
  2031  105B  3400               	retlw	0
  2032  105C                     __end_of_CompatIDFeatureDescriptor:
  2033                           
  2034                           	psect	stringtext7
  2035  107C                     __pstringtext7:
  2036  107C                     _configDescriptor1:
  2037  107C  3409               	retlw	9
  2038  107D  3402               	retlw	2
  2039  107E  3420               	retlw	32
  2040  107F  3400               	retlw	0
  2041  1080  3401               	retlw	1
  2042  1081  3401               	retlw	1
  2043  1082  3400               	retlw	0
  2044  1083  34C0               	retlw	192
  2045  1084  3432               	retlw	50
  2046  1085  3409               	retlw	9
  2047  1086  3404               	retlw	4
  2048  1087  3400               	retlw	0
  2049  1088  3400               	retlw	0
  2050  1089  3402               	retlw	2
  2051  108A  34FF               	retlw	255
  2052  108B  34FF               	retlw	255
  2053  108C  34FF               	retlw	255
  2054  108D  3400               	retlw	0
  2055  108E  3407               	retlw	7
  2056  108F  3405               	retlw	5
  2057  1090  3401               	retlw	1
  2058  1091  3403               	retlw	3
  2059  1092  3408               	retlw	8
  2060  1093  3400               	retlw	0
  2061  1094  340A               	retlw	10
  2062  1095  3407               	retlw	7
  2063  1096  3405               	retlw	5
  2064  1097  3481               	retlw	129
  2065  1098  3403               	retlw	3
  2066  1099  3408               	retlw	8
  2067  109A  3400               	retlw	0
  2068  109B  340A               	retlw	10
  2069  109C                     __end_of_configDescriptor1:
  2070                           
  2071                           	psect	stringtext8
  2072  109C                     __pstringtext8:
  2073  109C                     _sd002:
  2074  109C  3416               	retlw	22
  2075  109D  3403               	retlw	3
  2076  109E  3453               	retlw	83
  2077  109F  3400               	retlw	0
  2078  10A0  346D               	retlw	109
  2079  10A1  3400               	retlw	0
  2080  10A2  3461               	retlw	97
  2081  10A3  3400               	retlw	0
  2082  10A4  3472               	retlw	114
  2083  10A5  3400               	retlw	0
  2084  10A6  3474               	retlw	116
  2085  10A7  3400               	retlw	0
  2086  10A8  3420               	retlw	32
  2087  10A9  3400               	retlw	0
  2088  10AA  3453               	retlw	83
  2089  10AB  3400               	retlw	0
  2090  10AC  3468               	retlw	104
  2091  10AD  3400               	retlw	0
  2092  10AE  346F               	retlw	111
  2093  10AF  3400               	retlw	0
  2094  10B0  3465               	retlw	101
  2095  10B1  3400               	retlw	0
  2096  10B2                     __end_of_sd002:
  2097                           
  2098                           	psect	stringtext9
  2099  10B2                     __pstringtext9:
  2100  10B2                     _MSOSDescriptor:
  2101  10B2  3412               	retlw	18
  2102  10B3  3403               	retlw	3
  2103  10B4  344D               	retlw	77
  2104  10B5  3400               	retlw	0
  2105  10B6  3453               	retlw	83
  2106  10B7  3400               	retlw	0
  2107  10B8  3446               	retlw	70
  2108  10B9  3400               	retlw	0
  2109  10BA  3454               	retlw	84
  2110  10BB  3400               	retlw	0
  2111  10BC  3431               	retlw	49
  2112  10BD  3400               	retlw	0
  2113  10BE  3430               	retlw	48
  2114  10BF  3400               	retlw	0
  2115  10C0  3430               	retlw	48
  2116  10C1  3400               	retlw	0
  2117  10C2  34EE               	retlw	238
  2118  10C3  3400               	retlw	0
  2119  10C4                     __end_of_MSOSDescriptor:
  2120                           
  2121                           	psect	stringtext10
  2122  10C4                     __pstringtext10:
  2123  10C4                     _device_dsc:
  2124  10C4  3412               	retlw	18
  2125  10C5  3401               	retlw	1
  2126  10C6  3400               	retlw	0
  2127  10C7  3402               	retlw	2
  2128  10C8  3400               	retlw	0
  2129  10C9  3400               	retlw	0
  2130  10CA  3400               	retlw	0
  2131  10CB  3408               	retlw	8
  2132  10CC  34D8               	retlw	216
  2133  10CD  3404               	retlw	4
  2134  10CE  3453               	retlw	83
  2135  10CF  3400               	retlw	0
  2136  10D0  3400               	retlw	0
  2137  10D1  3401               	retlw	1
  2138  10D2  3401               	retlw	1
  2139  10D3  3402               	retlw	2
  2140  10D4  3403               	retlw	3
  2141  10D5  3401               	retlw	1
  2142  10D6                     __end_of_device_dsc:
  2143                           
  2144                           	psect	stringtext11
  2145  10DE                     __pstringtext11:
  2146  10DE                     _sd003:
  2147  10DE  3408               	retlw	8
  2148  10DF  3403               	retlw	3
  2149  10E0  3431               	retlw	49
  2150  10E1  3400               	retlw	0
  2151  10E2  3432               	retlw	50
  2152  10E3  3400               	retlw	0
  2153  10E4  3434               	retlw	52
  2154  10E5  3400               	retlw	0
  2155  10E6                     __end_of_sd003:
  2156                           
  2157                           	psect	stringtext12
  2158  10E6                     __pstringtext12:
  2159  10E6                     _sd000:
  2160  10E6  3404               	retlw	4
  2161  10E7  3403               	retlw	3
  2162  10E8  3409               	retlw	9
  2163  10E9  3404               	retlw	4
  2164  10EA                     __end_of_sd000:
  2165                           
  2166                           	psect	nvBANK1
  2167  00E7                     __pnvBANK1:
  2168  00E7                     _IOCAF5_InterruptHandler:
  2169  00E7                     	ds	2
  2170  0011                     _PIR1bits	set	17
  2171  000B                     _INTCONbits	set	11
  2172  0012                     _PIR2bits	set	18
  2173  009D                     _ADCON0bits	set	157
  2174  009D                     _ADCON0	set	157
  2175  009C                     _ADRESH	set	156
  2176  009B                     _ADRESL	set	155
  2177  009F                     _ADCON2	set	159
  2178  009E                     _ADCON1	set	158
  2179  0097                     _WDTCON	set	151
  2180  0098                     _OSCTUNE	set	152
  2181  0099                     _OSCCON	set	153
  2182  0091                     _PIE1bits	set	145
  2183  0095                     _OPTION_REGbits	set	149
  2184  008E                     _TRISC	set	142
  2185  008D                     _TRISB	set	141
  2186  008C                     _TRISA	set	140
  2187  0092                     _PIE2bits	set	146
  2188  04D6                     _PLLRDY	set	1238
  2189  0116                     _BORCON	set	278
  2190  011D                     _APFCON	set	285
  2191  010E                     _LATC	set	270
  2192  010D                     _LATB	set	269
  2193  010C                     _LATA	set	268
  2194  0196                     _PMCON2	set	406
  2195  0193                     _PMDATL	set	403
  2196  0194                     _PMDATH	set	404
  2197  0195                     _PMCON1bits	set	405
  2198  0192                     _PMADRH	set	402
  2199  0191                     _PMADRL	set	401
  2200  018C                     _ANSELA	set	396
  2201  018D                     _ANSELB	set	397
  2202  018E                     _ANSELC	set	398
  2203  0214                     _SSP1STATbits	set	532
  2204  0216                     _SSP1CON2bits	set	534
  2205  0211                     _SSP1BUF	set	529
  2206  0215                     _SSP1CON1bits	set	533
  2207  0212                     _SSP1ADD	set	530
  2208  0216                     _SSP1CON2	set	534
  2209  0215                     _SSP1CON1	set	533
  2210  0214                     _SSP1STAT	set	532
  2211  020C                     _WPUA	set	524
  2212  020D                     _WPUB	set	525
  2213  039B                     _ACTCON	set	923
  2214  0391                     _IOCAPbits	set	913
  2215  0392                     _IOCANbits	set	914
  2216  0393                     _IOCAFbits	set	915
  2217  0E98                     _UEP0bits	set	3736
  2218  0E8E                     _UCON	set	3726
  2219  0E8F                     _USTAT	set	3727
  2220  0E92                     _UIEbits	set	3730
  2221  0E90                     _UIRbits	set	3728
  2222  0E96                     _UADDR	set	3734
  2223  0E8E                     _UCONbits	set	3726
  2224  0E92                     _UIE	set	3730
  2225  0E97                     _UEIE	set	3735
  2226  0E91                     _UCFG	set	3729
  2227  0E90                     _UIR	set	3728
  2228  0E93                     _UEIR	set	3731
  2229  0E99                     _UEP1	set	3737
  2230  0E98                     _UEP0	set	3736
  2231                           
  2232                           	psect	cinit
  2233  0052                     start_initialization:	
  2234                           ; #config settings
  2235                           
  2236  0052                     __initialization:
  2237                           
  2238                           ; Clear objects allocated to BANK0h
  2239  0052  3050               	movlw	low __pbssBANK0h
  2240  0053  0084               	movwf	4
  2241  0054  3000               	movlw	high __pbssBANK0h
  2242  0055  0085               	movwf	5
  2243  0056  3010               	movlw	16
  2244  0057  3188  20EB  3180   	fcall	clear_ram0
  2245                           
  2246                           ; Clear objects allocated to BANK1
  2247  005A  30A0               	movlw	low __pbssBANK1
  2248  005B  0084               	movwf	4
  2249  005C  3000               	movlw	high __pbssBANK1
  2250  005D  0085               	movwf	5
  2251  005E  3042               	movlw	66
  2252  005F  3188  20EB  3180   	fcall	clear_ram0
  2253  0062                     end_of_initialization:	
  2254                           ;End of C runtime variable initialization code
  2255                           
  2256  0062                     __end_of__initialization:
  2257  0062  107E               	bcf	int$flags,0	;clear compiler interrupt flag (level 1)
  2258  0063  0020               	movlb	0
  2259  0064  3189  2900         	ljmp	_main	;jump to C main() function
  2260                           
  2261                           	psect	bssBANK0h
  2262  0050                     __pbssBANK0h:
  2263  0050                     _inPipes:
  2264  0050                     	ds	5
  2265  0055                     _pBDTEntryIn:
  2266  0055                     	ds	4
  2267  0059                     _pBDTEntryEP0OutNext:
  2268  0059                     	ds	2
  2269  005B                     _controlTransferState:
  2270  005B                     	ds	1
  2271  005C                     _pBDTEntryEP0OutCurrent:
  2272  005C                     	ds	1
  2273  005D                     _USBDeviceState:
  2274  005D                     	ds	1
  2275  005E                     _USTATcopy:
  2276  005E                     	ds	1
  2277  005F                     _USBActiveConfiguration:
  2278  005F                     	ds	1
  2279                           
  2280                           	psect	bssBANK1
  2281  00A0                     __pbssBANK1:
  2282  00A0                     _I2C_Status:
  2283  00A0                     	ds	29
  2284  00BD                     _outPipes:
  2285  00BD                     	ds	7
  2286  00C4                     _USB1msTickCount:
  2287  00C4                     	ds	4
  2288  00C8                     _pBDTEntryOut:
  2289  00C8                     	ds	4
  2290  00CC                     _ADC_InterruptHandler:
  2291  00CC                     	ds	2
  2292  00CE                     _ep_data_out:
  2293  00CE                     	ds	2
  2294  00D0                     _ep_data_in:
  2295  00D0                     	ds	2
  2296  00D2                     _MSSP_InterruptHandler:
  2297  00D2                     	ds	2
  2298  00D4                     _USBTicksSinceSuspendEnd:
  2299  00D4                     	ds	1
  2300  00D5                     _USBDeferOUTDataStagePackets:
  2301  00D5                     	ds	1
  2302  00D6                     _USBDeferINDataStagePackets:
  2303  00D6                     	ds	1
  2304  00D7                     _USBStatusStageEnabledFlag2:
  2305  00D7                     	ds	1
  2306  00D8                     _USBStatusStageEnabledFlag1:
  2307  00D8                     	ds	1
  2308  00D9                     _USBDeferStatusStagePacket:
  2309  00D9                     	ds	1
  2310  00DA                     _USBStatusStageTimeoutCounter:
  2311  00DA                     	ds	1
  2312  00DB                     _BothEP0OutUOWNsSet:
  2313  00DB                     	ds	1
  2314  00DC                     _endpoint_number:
  2315  00DC                     	ds	1
  2316  00DD                     _USBBusIsSuspended:
  2317  00DD                     	ds	1
  2318  00DE                     _RemoteWakeup:
  2319  00DE                     	ds	1
  2320  00DF                     _pDst:
  2321  00DF                     	ds	1
  2322  00E0                     _shortPacketStatus:
  2323  00E0                     	ds	1
  2324  00E1                     _USBAlternateInterface:
  2325  00E1                     	ds	1
  2326                           
  2327                           	psect	clrtext
  2328  08EB                     clear_ram0:	
  2329                           ;	Called with FSR0 containing the base address, and
  2330                           ;	WREG with the size to clear
  2331                           
  2332  08EB  0064               	clrwdt	;clear the watchdog before getting into this loop
  2333  08EC                     clrloop0:
  2334  08EC  0180               	clrf	0	;clear RAM location pointed to by FSR
  2335  08ED  3101               	addfsr 0,1
  2336  08EE  0B89               	decfsz	9,f	;Have we reached the end of clearing yet?
  2337  08EF  28EC               	goto	clrloop0	;have we reached the end yet?
  2338  08F0  3400               	retlw	0	;all done for this memory range, return
  2339                           
  2340                           	psect	cstackBANK1
  2341  00E2                     __pcstackBANK1:
  2342  00E2                     ?_IOCAF5_SetInterruptHandler:
  2343  00E2                     ??_OSCILLATOR_Initialize:	
  2344                           ; 1 bytes @ 0x0
  2345                           
  2346  00E2                     ??_WDT_Initialize:	
  2347                           ; 1 bytes @ 0x0
  2348                           
  2349  00E2                     ?_ADC_SetInterruptHandler:	
  2350                           ; 1 bytes @ 0x0
  2351                           
  2352  00E2                     ??_USBDeviceInit:	
  2353                           ; 1 bytes @ 0x0
  2354                           
  2355  00E2                     ??_USBDeviceAttach:	
  2356                           ; 1 bytes @ 0x0
  2357                           
  2358  00E2                     ??_I2C_Initialize:	
  2359                           ; 1 bytes @ 0x0
  2360                           
  2361  00E2                     IOCAF5_SetInterruptHandler@InterruptHandler:	
  2362                           ; 1 bytes @ 0x0
  2363                           
  2364  00E2                     ADC_SetInterruptHandler@InterruptHandler:	
  2365                           ; 2 bytes @ 0x0
  2366                           
  2367                           
  2368                           ; 2 bytes @ 0x0
  2369  00E2                     	ds	1
  2370  00E3                     USBDeviceInit@p:
  2371                           
  2372                           ; 2 bytes @ 0x1
  2373  00E3                     	ds	1
  2374  00E4                     ??_IOCAF5_SetInterruptHandler:
  2375  00E4                     ??_ADC_Initialize:	
  2376                           ; 1 bytes @ 0x2
  2377                           
  2378  00E4                     ??_ADC_SetInterruptHandler:	
  2379                           ; 1 bytes @ 0x2
  2380                           
  2381  00E4                     ??_PIN_MANAGER_Initialize:	
  2382                           ; 1 bytes @ 0x2
  2383                           
  2384                           
  2385                           ; 1 bytes @ 0x2
  2386  00E4                     	ds	1
  2387  00E5                     USBDeviceInit@i_1171:
  2388                           
  2389                           ; 1 bytes @ 0x3
  2390  00E5                     	ds	1
  2391  00E6                     USBDeviceInit@i:
  2392                           
  2393                           ; 1 bytes @ 0x4
  2394  00E6                     	ds	1
  2395  00E7                     ??_SYSTEM_Initialize:
  2396  00E7                     ??_main:	
  2397                           ; 1 bytes @ 0x5
  2398                           
  2399                           
  2400                           	psect	cstackCOMMON
  2401  0070                     __pcstackCOMMON:	
  2402                           ; 1 bytes @ 0x5
  2403                           
  2404  0070                     ?_I2C_SetBuffer:
  2405  0070                     ?_USBWakeFromSuspend:	
  2406                           ; 1 bytes @ 0x0
  2407                           
  2408  0070                     ?_USBSuspend:	
  2409                           ; 1 bytes @ 0x0
  2410                           
  2411  0070                     ?_USBIncrement1msInternalTimers:	
  2412                           ; 1 bytes @ 0x0
  2413                           
  2414  0070                     ??_USBIncrement1msInternalTimers:	
  2415                           ; 1 bytes @ 0x0
  2416                           
  2417  0070                     ?_USBCtrlEPAllowStatusStage:	
  2418                           ; 1 bytes @ 0x0
  2419                           
  2420  0070                     ??_USBCtrlEPAllowStatusStage:	
  2421                           ; 1 bytes @ 0x0
  2422                           
  2423  0070                     ?_USBStallHandler:	
  2424                           ; 1 bytes @ 0x0
  2425                           
  2426  0070                     ??_USBStallHandler:	
  2427                           ; 1 bytes @ 0x0
  2428                           
  2429  0070                     ?_USBCtrlEPService:	
  2430                           ; 1 bytes @ 0x0
  2431                           
  2432  0070                     ?_USBCtrlTrfTxService:	
  2433                           ; 1 bytes @ 0x0
  2434                           
  2435  0070                     ??_USBCtrlTrfTxService:	
  2436                           ; 1 bytes @ 0x0
  2437                           
  2438  0070                     ?_memset:	
  2439                           ; 1 bytes @ 0x0
  2440                           
  2441  0070                     ?_memcpy:	
  2442                           ; 1 bytes @ 0x0
  2443                           
  2444  0070                     ?_USBCtrlTrfSetupHandler:	
  2445                           ; 1 bytes @ 0x0
  2446                           
  2447  0070                     ?_USBCtrlTrfOutHandler:	
  2448                           ; 1 bytes @ 0x0
  2449                           
  2450  0070                     ?_USBCtrlTrfInHandler:	
  2451                           ; 1 bytes @ 0x0
  2452                           
  2453  0070                     ?_USBCheckStdRequest:	
  2454                           ; 1 bytes @ 0x0
  2455                           
  2456  0070                     ?_USBStdFeatureReqHandler:	
  2457                           ; 1 bytes @ 0x0
  2458                           
  2459  0070                     ?_IOCAF5_DefaultInterruptHandler:	
  2460                           ; 1 bytes @ 0x0
  2461                           
  2462  0070                     ??_IOCAF5_DefaultInterruptHandler:	
  2463                           ; 1 bytes @ 0x0
  2464                           
  2465  0070                     ?_IOCAF5_ISR:	
  2466                           ; 1 bytes @ 0x0
  2467                           
  2468  0070                     ??_IOCAF5_ISR:	
  2469                           ; 1 bytes @ 0x0
  2470                           
  2471  0070                     ?_I2C_DO_IDLE:	
  2472                           ; 1 bytes @ 0x0
  2473                           
  2474  0070                     ??_I2C_DO_IDLE:	
  2475                           ; 1 bytes @ 0x0
  2476                           
  2477  0070                     ?_I2C_DO_SEND_ADR_READ:	
  2478                           ; 1 bytes @ 0x0
  2479                           
  2480  0070                     ??_I2C_DO_SEND_ADR_READ:	
  2481                           ; 1 bytes @ 0x0
  2482                           
  2483  0070                     ?_I2C_DO_SEND_ADR_WRITE:	
  2484                           ; 1 bytes @ 0x0
  2485                           
  2486  0070                     ?_I2C_DO_TX:	
  2487                           ; 1 bytes @ 0x0
  2488                           
  2489  0070                     ?_I2C_DO_RX:	
  2490                           ; 1 bytes @ 0x0
  2491                           
  2492  0070                     ?_I2C_DO_RCEN:	
  2493                           ; 1 bytes @ 0x0
  2494                           
  2495  0070                     ??_I2C_DO_RCEN:	
  2496                           ; 1 bytes @ 0x0
  2497                           
  2498  0070                     ?_I2C_DO_TX_EMPTY:	
  2499                           ; 1 bytes @ 0x0
  2500                           
  2501  0070                     ?_I2C_DO_SEND_RESTART_READ:	
  2502                           ; 1 bytes @ 0x0
  2503                           
  2504  0070                     ??_I2C_DO_SEND_RESTART_READ:	
  2505                           ; 1 bytes @ 0x0
  2506                           
  2507  0070                     ?_I2C_DO_SEND_RESTART_WRITE:	
  2508                           ; 1 bytes @ 0x0
  2509                           
  2510  0070                     ??_I2C_DO_SEND_RESTART_WRITE:	
  2511                           ; 1 bytes @ 0x0
  2512                           
  2513  0070                     ?_I2C_DO_SEND_RESTART:	
  2514                           ; 1 bytes @ 0x0
  2515                           
  2516  0070                     ??_I2C_DO_SEND_RESTART:	
  2517                           ; 1 bytes @ 0x0
  2518                           
  2519  0070                     ?_I2C_DO_SEND_STOP:	
  2520                           ; 1 bytes @ 0x0
  2521                           
  2522  0070                     ??_I2C_DO_SEND_STOP:	
  2523                           ; 1 bytes @ 0x0
  2524                           
  2525  0070                     ?_I2C_DO_RX_ACK:	
  2526                           ; 1 bytes @ 0x0
  2527                           
  2528  0070                     ??_I2C_DO_RX_ACK:	
  2529                           ; 1 bytes @ 0x0
  2530                           
  2531  0070                     ?_I2C_DO_RX_NACK_STOP:	
  2532                           ; 1 bytes @ 0x0
  2533                           
  2534  0070                     ??_I2C_DO_RX_NACK_STOP:	
  2535                           ; 1 bytes @ 0x0
  2536                           
  2537  0070                     ?_I2C_DO_RX_NACK_RESTART:	
  2538                           ; 1 bytes @ 0x0
  2539                           
  2540  0070                     ??_I2C_DO_RX_NACK_RESTART:	
  2541                           ; 1 bytes @ 0x0
  2542                           
  2543  0070                     ?_I2C_DO_RESET:	
  2544                           ; 1 bytes @ 0x0
  2545                           
  2546  0070                     ??_I2C_DO_RESET:	
  2547                           ; 1 bytes @ 0x0
  2548                           
  2549  0070                     ?_I2C_DO_ADDRESS_NACK:	
  2550                           ; 1 bytes @ 0x0
  2551                           
  2552  0070                     ?_I2C_MasterIsr:	
  2553                           ; 1 bytes @ 0x0
  2554                           
  2555  0070                     ?_I2C_MasterClearIrq:	
  2556                           ; 1 bytes @ 0x0
  2557                           
  2558  0070                     ??_I2C_MasterClearIrq:	
  2559                           ; 1 bytes @ 0x0
  2560                           
  2561  0070                     ?_I2C_SetCallback:	
  2562                           ; 1 bytes @ 0x0
  2563                           
  2564  0070                     ?_I2C_MasterFsm:	
  2565                           ; 1 bytes @ 0x0
  2566                           
  2567  0070                     ?_I2C_MasterIsNack:	
  2568                           ; 1 bytes @ 0x0
  2569                           
  2570  0070                     ??_I2C_MasterIsNack:	
  2571                           ; 1 bytes @ 0x0
  2572                           
  2573  0070                     ?_I2C_MasterSendTxData:	
  2574                           ; 1 bytes @ 0x0
  2575                           
  2576  0070                     ??_I2C_MasterSendTxData:	
  2577                           ; 1 bytes @ 0x0
  2578                           
  2579  0070                     ?_I2C_MasterGetRxData:	
  2580                           ; 1 bytes @ 0x0
  2581                           
  2582  0070                     ??_I2C_MasterGetRxData:	
  2583                           ; 1 bytes @ 0x0
  2584                           
  2585  0070                     ?_I2C_MasterSendAck:	
  2586                           ; 1 bytes @ 0x0
  2587                           
  2588  0070                     ??_I2C_MasterSendAck:	
  2589                           ; 1 bytes @ 0x0
  2590                           
  2591  0070                     ?_I2C_MasterStartRx:	
  2592                           ; 1 bytes @ 0x0
  2593                           
  2594  0070                     ??_I2C_MasterStartRx:	
  2595                           ; 1 bytes @ 0x0
  2596                           
  2597  0070                     ?_I2C_MasterSetIrq:	
  2598                           ; 1 bytes @ 0x0
  2599                           
  2600  0070                     ??_I2C_MasterSetIrq:	
  2601                           ; 1 bytes @ 0x0
  2602                           
  2603  0070                     ?_I2C_MasterEnableRestart:	
  2604                           ; 1 bytes @ 0x0
  2605                           
  2606  0070                     ??_I2C_MasterEnableRestart:	
  2607                           ; 1 bytes @ 0x0
  2608                           
  2609  0070                     ?_I2C_MasterStop:	
  2610                           ; 1 bytes @ 0x0
  2611                           
  2612  0070                     ??_I2C_MasterStop:	
  2613                           ; 1 bytes @ 0x0
  2614                           
  2615  0070                     ?_I2C_MasterSendNack:	
  2616                           ; 1 bytes @ 0x0
  2617                           
  2618  0070                     ??_I2C_MasterSendNack:	
  2619                           ; 1 bytes @ 0x0
  2620                           
  2621  0070                     ?_OSCILLATOR_Initialize:	
  2622                           ; 1 bytes @ 0x0
  2623                           
  2624  0070                     ?_WDT_Initialize:	
  2625                           ; 1 bytes @ 0x0
  2626                           
  2627  0070                     ?_ADC_Initialize:	
  2628                           ; 1 bytes @ 0x0
  2629                           
  2630  0070                     ?_ADC_ISR:	
  2631                           ; 1 bytes @ 0x0
  2632                           
  2633  0070                     ??_ADC_ISR:	
  2634                           ; 1 bytes @ 0x0
  2635                           
  2636  0070                     ?_ADC_DefaultInterruptHandler:	
  2637                           ; 1 bytes @ 0x0
  2638                           
  2639  0070                     ??_ADC_DefaultInterruptHandler:	
  2640                           ; 1 bytes @ 0x0
  2641                           
  2642  0070                     ?_USBCheckVendorRequest:	
  2643                           ; 1 bytes @ 0x0
  2644                           
  2645  0070                     ??_USBCheckVendorRequest:	
  2646                           ; 1 bytes @ 0x0
  2647                           
  2648  0070                     ?_USBDeviceInit:	
  2649                           ; 1 bytes @ 0x0
  2650                           
  2651  0070                     ?_USBDeviceTasks:	
  2652                           ; 1 bytes @ 0x0
  2653                           
  2654  0070                     ?_USBDeviceAttach:	
  2655                           ; 1 bytes @ 0x0
  2656                           
  2657  0070                     ?_USBCtrlEPAllowDataStage:	
  2658                           ; 1 bytes @ 0x0
  2659                           
  2660  0070                     ?_USBCtrlEPServiceComplete:	
  2661                           ; 1 bytes @ 0x0
  2662                           
  2663  0070                     ?_USBCtrlTrfRxService:	
  2664                           ; 1 bytes @ 0x0
  2665                           
  2666  0070                     ?_USBStdSetCfgHandler:	
  2667                           ; 1 bytes @ 0x0
  2668                           
  2669  0070                     ?_USBStdGetDscHandler:	
  2670                           ; 1 bytes @ 0x0
  2671                           
  2672  0070                     ??_USBStdGetDscHandler:	
  2673                           ; 1 bytes @ 0x0
  2674                           
  2675  0070                     ?_USBStdGetStatusHandler:	
  2676                           ; 1 bytes @ 0x0
  2677                           
  2678  0070                     ??_USBStdGetStatusHandler:	
  2679                           ; 1 bytes @ 0x0
  2680                           
  2681  0070                     ?_PIN_MANAGER_Initialize:	
  2682                           ; 1 bytes @ 0x0
  2683                           
  2684  0070                     ?_PIN_MANAGER_IOC:	
  2685                           ; 1 bytes @ 0x0
  2686                           
  2687  0070                     ??_PIN_MANAGER_IOC:	
  2688                           ; 1 bytes @ 0x0
  2689                           
  2690  0070                     ?_I2C_Initialize:	
  2691                           ; 1 bytes @ 0x0
  2692                           
  2693  0070                     ?_SYSTEM_Initialize:	
  2694                           ; 1 bytes @ 0x0
  2695                           
  2696  0070                     ?_INTERRUPT_InterruptManager:	
  2697                           ; 1 bytes @ 0x0
  2698                           
  2699  0070                     ?_main:	
  2700                           ; 1 bytes @ 0x0
  2701                           
  2702  0070                     ?i1_USBDeviceInit:	
  2703                           ; 1 bytes @ 0x0
  2704                           
  2705  0070                     ??i1_USBDeviceInit:	
  2706                           ; 1 bytes @ 0x0
  2707                           
  2708  0070                     I2C_MasterSendTxData@data:	
  2709                           ; 1 bytes @ 0x0
  2710                           
  2711  0070                     I2C_SetBuffer@bufferSize:	
  2712                           ; 1 bytes @ 0x0
  2713                           
  2714  0070                     I2C_SetCallback@cb:	
  2715                           ; 2 bytes @ 0x0
  2716                           
  2717  0070                     memcpy@s1:	
  2718                           ; 2 bytes @ 0x0
  2719                           
  2720  0070                     memset@c:	
  2721                           ; 2 bytes @ 0x0
  2722                           
  2723                           
  2724                           ; 2 bytes @ 0x0
  2725  0070                     	ds	1
  2726  0071                     ??_I2C_DO_SEND_ADR_WRITE:
  2727  0071                     USBCheckVendorRequest@Length:	
  2728                           ; 1 bytes @ 0x1
  2729                           
  2730  0071                     i1USBDeviceInit@p:	
  2731                           ; 2 bytes @ 0x1
  2732                           
  2733                           
  2734                           ; 2 bytes @ 0x1
  2735  0071                     	ds	1
  2736  0072                     ??_I2C_SetBuffer:
  2737  0072                     ??_USBCtrlTrfRxService:	
  2738                           ; 1 bytes @ 0x2
  2739                           
  2740  0072                     USBCtrlTrfTxService@byteToSend:	
  2741                           ; 1 bytes @ 0x2
  2742                           
  2743  0072                     I2C_SetCallback@ptr:	
  2744                           ; 1 bytes @ 0x2
  2745                           
  2746  0072                     USBStdGetStatusHandler@p:	
  2747                           ; 1 bytes @ 0x2
  2748                           
  2749  0072                     memcpy@n:	
  2750                           ; 2 bytes @ 0x2
  2751                           
  2752  0072                     memset@n:	
  2753                           ; 2 bytes @ 0x2
  2754                           
  2755                           
  2756                           ; 2 bytes @ 0x2
  2757  0072                     	ds	1
  2758  0073                     ??_USBCtrlTrfInHandler:
  2759  0073                     ??_I2C_SetCallback:	
  2760                           ; 1 bytes @ 0x3
  2761                           
  2762  0073                     ?_USER_USB_CALLBACK_EVENT_HANDLER:	
  2763                           ; 1 bytes @ 0x3
  2764                           
  2765  0073                     ??_USBCtrlEPAllowDataStage:	
  2766                           ; 1 bytes @ 0x3
  2767                           
  2768  0073                     I2C_SetBuffer@buffer:	
  2769                           ; 1 bytes @ 0x3
  2770                           
  2771  0073                     i1USBDeviceInit@i_1171:	
  2772                           ; 1 bytes @ 0x3
  2773                           
  2774  0073                     USER_USB_CALLBACK_EVENT_HANDLER@event:	
  2775                           ; 1 bytes @ 0x3
  2776                           
  2777                           
  2778                           ; 2 bytes @ 0x3
  2779  0073                     	ds	1
  2780  0074                     ??_memset:
  2781  0074                     ??_memcpy:	
  2782                           ; 1 bytes @ 0x4
  2783                           
  2784  0074                     USBCtrlTrfRxService@i:	
  2785                           ; 1 bytes @ 0x4
  2786                           
  2787  0074                     I2C_SetCallback@idx:	
  2788                           ; 1 bytes @ 0x4
  2789                           
  2790  0074                     i1USBDeviceInit@i:	
  2791                           ; 1 bytes @ 0x4
  2792                           
  2793                           
  2794                           ; 1 bytes @ 0x4
  2795  0074                     	ds	1
  2796  0075                     ?_I2C_SetDataCompleteCallback:
  2797  0075                     ??_USBCtrlEPServiceComplete:	
  2798                           ; 1 bytes @ 0x5
  2799                           
  2800  0075                     USBCtrlTrfRxService@byteToRead:	
  2801                           ; 1 bytes @ 0x5
  2802                           
  2803  0075                     USBCtrlTrfInHandler@lastDTS:	
  2804                           ; 1 bytes @ 0x5
  2805                           
  2806  0075                     USER_USB_CALLBACK_EVENT_HANDLER@pdata:	
  2807                           ; 1 bytes @ 0x5
  2808                           
  2809  0075                     I2C_SetDataCompleteCallback@cb:	
  2810                           ; 2 bytes @ 0x5
  2811                           
  2812  0075                     memcpy@s:	
  2813                           ; 2 bytes @ 0x5
  2814                           
  2815                           
  2816                           ; 2 bytes @ 0x5
  2817  0075                     	ds	1
  2818  0076                     ??_USBCtrlTrfOutHandler:
  2819  0076                     memset@k:	
  2820                           ; 1 bytes @ 0x6
  2821                           
  2822                           
  2823                           ; 2 bytes @ 0x6
  2824  0076                     	ds	1
  2825  0077                     I2C_SetDataCompleteCallback@ptr:
  2826  0077                     memcpy@tmp:	
  2827                           ; 1 bytes @ 0x7
  2828                           
  2829  0077                     USER_USB_CALLBACK_EVENT_HANDLER@size:	
  2830                           ; 1 bytes @ 0x7
  2831                           
  2832                           
  2833                           ; 2 bytes @ 0x7
  2834  0077                     	ds	1
  2835  0078                     ??_I2C_SetDataCompleteCallback:
  2836  0078                     memcpy@d1:	
  2837                           ; 1 bytes @ 0x8
  2838                           
  2839  0078                     memset@dest:	
  2840                           ; 1 bytes @ 0x8
  2841                           
  2842                           
  2843                           ; 1 bytes @ 0x8
  2844  0078                     	ds	1
  2845  0079                     ?_rd1RegCompleteHandler:
  2846  0079                     ?_rd2RegCompleteHandler:	
  2847                           ; 1 bytes @ 0x9
  2848                           
  2849  0079                     ?_wr1RegCompleteHandler:	
  2850                           ; 1 bytes @ 0x9
  2851                           
  2852  0079                     ?_wr2RegCompleteHandler:	
  2853                           ; 1 bytes @ 0x9
  2854                           
  2855  0079                     ?_rdBlkRegCompleteHandler:	
  2856                           ; 1 bytes @ 0x9
  2857                           
  2858  0079                     ??_USBWakeFromSuspend:	
  2859                           ; 1 bytes @ 0x9
  2860                           
  2861  0079                     ??_USBSuspend:	
  2862                           ; 1 bytes @ 0x9
  2863                           
  2864  0079                     ??_USBStdFeatureReqHandler:	
  2865                           ; 1 bytes @ 0x9
  2866                           
  2867  0079                     ?_I2C_CallbackReturnStop:	
  2868                           ; 1 bytes @ 0x9
  2869                           
  2870  0079                     ?_I2C_CallbackReturnReset:	
  2871                           ; 1 bytes @ 0x9
  2872                           
  2873  0079                     ??_USER_USB_CALLBACK_EVENT_HANDLER:	
  2874                           ; 1 bytes @ 0x9
  2875                           
  2876  0079                     rd1RegCompleteHandler@ptr:	
  2877                           ; 1 bytes @ 0x9
  2878                           
  2879  0079                     rd2RegCompleteHandler@ptr:	
  2880                           ; 1 bytes @ 0x9
  2881                           
  2882  0079                     wr1RegCompleteHandler@ptr:	
  2883                           ; 1 bytes @ 0x9
  2884                           
  2885  0079                     wr2RegCompleteHandler@ptr:	
  2886                           ; 1 bytes @ 0x9
  2887                           
  2888  0079                     rdBlkRegCompleteHandler@ptr:	
  2889                           ; 1 bytes @ 0x9
  2890                           
  2891  0079                     I2C_CallbackReturnStop@funPtr:	
  2892                           ; 1 bytes @ 0x9
  2893                           
  2894  0079                     I2C_CallbackReturnReset@funPtr:	
  2895                           ; 1 bytes @ 0x9
  2896                           
  2897  0079                     memcpy@d:	
  2898                           ; 1 bytes @ 0x9
  2899                           
  2900  0079                     memset@s:	
  2901                           ; 1 bytes @ 0x9
  2902                           
  2903                           
  2904                           ; 1 bytes @ 0x9
  2905  0079                     	ds	1
  2906  007A                     ??_rd1RegCompleteHandler:
  2907  007A                     ??_rd2RegCompleteHandler:	
  2908                           ; 1 bytes @ 0xA
  2909                           
  2910  007A                     ??_wr1RegCompleteHandler:	
  2911                           ; 1 bytes @ 0xA
  2912                           
  2913  007A                     ??_wr2RegCompleteHandler:	
  2914                           ; 1 bytes @ 0xA
  2915                           
  2916  007A                     ??_rdBlkRegCompleteHandler:	
  2917                           ; 1 bytes @ 0xA
  2918                           
  2919  007A                     ??_I2C_DO_TX:	
  2920                           ; 1 bytes @ 0xA
  2921                           
  2922  007A                     ??_I2C_DO_RX:	
  2923                           ; 1 bytes @ 0xA
  2924                           
  2925  007A                     ??_I2C_DO_TX_EMPTY:	
  2926                           ; 1 bytes @ 0xA
  2927                           
  2928  007A                     ??_I2C_DO_ADDRESS_NACK:	
  2929                           ; 1 bytes @ 0xA
  2930                           
  2931  007A                     ??_I2C_CallbackReturnStop:	
  2932                           ; 1 bytes @ 0xA
  2933                           
  2934  007A                     ??_I2C_CallbackReturnReset:	
  2935                           ; 1 bytes @ 0xA
  2936                           
  2937  007A                     ??_USBStdSetCfgHandler:	
  2938                           ; 1 bytes @ 0xA
  2939                           
  2940                           
  2941                           ; 1 bytes @ 0xA
  2942  007A                     	ds	1
  2943  007B                     ??_USBCheckStdRequest:
  2944                           
  2945                           ; 1 bytes @ 0xB
  2946  007B                     	ds	2
  2947  007D                     ??_USBCtrlTrfSetupHandler:
  2948  007D                     ??_I2C_MasterIsr:	
  2949                           ; 1 bytes @ 0xD
  2950                           
  2951                           
  2952                           ; 1 bytes @ 0xD
  2953  007D                     	ds	1
  2954  007E                     ??_INTERRUPT_InterruptManager:
  2955                           
  2956                           	psect	cstackBANK0h
  2957  0060                     __pcstackBANK0h:	
  2958                           ; 1 bytes @ 0xE
  2959                           
  2960  0060                     ??_I2C_MasterFsm:
  2961  0060                     USBStdSetCfgHandler@p:	
  2962                           ; 1 bytes @ 0x0
  2963                           
  2964  0060                     USBStdFeatureReqHandler@pUEP:	
  2965                           ; 2 bytes @ 0x0
  2966                           
  2967                           
  2968                           ; 2 bytes @ 0x0
  2969  0060                     	ds	2
  2970  0062                     USBStdSetCfgHandler@i_1885:
  2971  0062                     USBStdFeatureReqHandler@current_ep_data:	
  2972                           ; 1 bytes @ 0x2
  2973                           
  2974                           
  2975                           ; 1 bytes @ 0x2
  2976  0062                     	ds	1
  2977  0063                     USBStdSetCfgHandler@i:
  2978  0063                     USBStdFeatureReqHandler@p:	
  2979                           ; 1 bytes @ 0x3
  2980                           
  2981                           
  2982                           ; 2 bytes @ 0x3
  2983  0063                     	ds	2
  2984  0065                     ??_USBCtrlEPService:
  2985                           
  2986                           ; 1 bytes @ 0x5
  2987  0065                     	ds	2
  2988  0067                     ??_USBDeviceTasks:
  2989                           
  2990                           ; 1 bytes @ 0x7
  2991  0067                     	ds	2
  2992  0069                     USBDeviceTasks@i:
  2993                           
  2994                           ; 1 bytes @ 0x9
  2995  0069                     	ds	1
  2996                           
  2997                           	psect	maintext
  2998  0900                     __pmaintext:	
  2999 ;;
  3000 ;;Main: autosize = 0, tempsize = 0, incstack = 0, save=0
  3001 ;;
  3002 ;; *************** function _main *****************
  3003 ;; Defined at:
  3004 ;;		line 49 in file "main.c"
  3005 ;; Parameters:    Size  Location     Type
  3006 ;;		None
  3007 ;; Auto vars:     Size  Location     Type
  3008 ;;		None
  3009 ;; Return value:  Size  Location     Type
  3010 ;;                  1    wreg      void 
  3011 ;; Registers used:
  3012 ;;		wreg, fsr1l, fsr1h, status,2, status,0, pclath, cstack
  3013 ;; Tracked objects:
  3014 ;;		On entry : B1F/0
  3015 ;;		On exit  : 0/0
  3016 ;;		Unchanged: 0/0
  3017 ;; Data sizes:     COMMON  BANK0h   BANK1   BANK2   BANK3   BANK4   BANK5   BANK6   BANK7   BANK8   BANK9  BANK10  BANK1
      +1  BANK12
  3018 ;;      Params:         0       0       0       0       0       0       0       0       0       0       0       0       
      +0       0
  3019 ;;      Locals:         0       0       0       0       0       0       0       0       0       0       0       0       
      +0       0
  3020 ;;      Temps:          0       0       0       0       0       0       0       0       0       0       0       0       
      +0       0
  3021 ;;      Totals:         0       0       0       0       0       0       0       0       0       0       0       0       
      +0       0
  3022 ;;Total ram usage:        0 bytes
  3023 ;; Hardware stack levels required when called:   11
  3024 ;; This function calls:
  3025 ;;		_SYSTEM_Initialize
  3026 ;; This function is called by:
  3027 ;;		Startup code after reset
  3028 ;; This function uses a non-reentrant model
  3029 ;;
  3030                           
  3031                           
  3032                           ;psect for function _main
  3033  0900                     _main:
  3034  0900                     l6040:	
  3035                           ;incstack = 0
  3036                           ; Regs used in _main: [wreg+fsr1l+fsr1h+status,2+status,0+pclath+cstack]
  3037                           
  3038                           
  3039                           ;main.c: 52:     SYSTEM_Initialize();
  3040  0900  3189  21C1  3189   	fcall	_SYSTEM_Initialize
  3041  0903                     l6042:
  3042                           
  3043                           ;main.c: 58:     (INTCONbits.GIE = 1);
  3044  0903  178B               	bsf	11,7	;volatile
  3045  0904                     l6044:
  3046                           
  3047                           ;main.c: 61:     (INTCONbits.PEIE = 1);
  3048  0904  170B               	bsf	11,6	;volatile
  3049  0905                     l1143:	
  3050                           ;main.c: 69:     while (1)
  3051                           
  3052  0905                     l1144:	
  3053                           ;main.c: 70:     {;main.c: 72:     }
  3054                           
  3055  0905  2905               	goto	l1143
  3056  0906  3180  2850         	ljmp	start
  3057  0908                     __end_of_main:
  3058                           
  3059                           	psect	text1
  3060  09C1                     __ptext1:	
  3061 ;; *************** function _SYSTEM_Initialize *****************
  3062 ;; Defined at:
  3063 ;;		line 50 in file "mcc_generated_files/mcc.c"
  3064 ;; Parameters:    Size  Location     Type
  3065 ;;		None
  3066 ;; Auto vars:     Size  Location     Type
  3067 ;;		None
  3068 ;; Return value:  Size  Location     Type
  3069 ;;                  1    wreg      void 
  3070 ;; Registers used:
  3071 ;;		wreg, fsr1l, fsr1h, status,2, status,0, pclath, cstack
  3072 ;; Tracked objects:
  3073 ;;		On entry : 0/0
  3074 ;;		On exit  : 0/0
  3075 ;;		Unchanged: 0/0
  3076 ;; Data sizes:     COMMON  BANK0h   BANK1   BANK2   BANK3   BANK4   BANK5   BANK6   BANK7   BANK8   BANK9  BANK10  BANK1
      +1  BANK12
  3077 ;;      Params:         0       0       0       0       0       0       0       0       0       0       0       0       
      +0       0
  3078 ;;      Locals:         0       0       0       0       0       0       0       0       0       0       0       0       
      +0       0
  3079 ;;      Temps:          0       0       0       0       0       0       0       0       0       0       0       0       
      +0       0
  3080 ;;      Totals:         0       0       0       0       0       0       0       0       0       0       0       0       
      +0       0
  3081 ;;Total ram usage:        0 bytes
  3082 ;; Hardware stack levels used:    1
  3083 ;; Hardware stack levels required when called:   10
  3084 ;; This function calls:
  3085 ;;		_ADC_Initialize
  3086 ;;		_I2C_Initialize
  3087 ;;		_OSCILLATOR_Initialize
  3088 ;;		_PIN_MANAGER_Initialize
  3089 ;;		_USBDeviceAttach
  3090 ;;		_USBDeviceInit
  3091 ;;		_WDT_Initialize
  3092 ;; This function is called by:
  3093 ;;		_main
  3094 ;; This function uses a non-reentrant model
  3095 ;;
  3096                           
  3097                           
  3098                           ;psect for function _SYSTEM_Initialize
  3099  09C1                     _SYSTEM_Initialize:
  3100  09C1                     l6008:	
  3101                           ;incstack = 0
  3102                           ; Regs used in _SYSTEM_Initialize: [wreg+fsr1l+fsr1h+status,2+status,0+pclath+cstack]
  3103                           
  3104                           
  3105                           ;mcc_generated_files/mcc.c: 53:     I2C_Initialize();
  3106  09C1  3189  211A  3189   	fcall	_I2C_Initialize
  3107                           
  3108                           ;mcc_generated_files/mcc.c: 54:     PIN_MANAGER_Initialize();
  3109  09C4  318A  228B  3189   	fcall	_PIN_MANAGER_Initialize
  3110                           
  3111                           ;mcc_generated_files/mcc.c: 55:     OSCILLATOR_Initialize();
  3112  09C7  3189  2130  3189   	fcall	_OSCILLATOR_Initialize
  3113                           
  3114                           ;mcc_generated_files/mcc.c: 56:     WDT_Initialize();
  3115  09CA  3187  27FC  3189   	fcall	_WDT_Initialize
  3116  09CD                     l6010:
  3117                           
  3118                           ;mcc_generated_files/mcc.c: 57:     USBDeviceInit();
  3119  09CD  3182  22CD  3189   	fcall	_USBDeviceInit
  3120  09D0                     l6012:
  3121                           
  3122                           ;mcc_generated_files/mcc.c: 58:     ADC_Initialize();
  3123  09D0  3189  21B0  3189   	fcall	_ADC_Initialize
  3124  09D3                     l6014:
  3125                           
  3126                           ;mcc_generated_files/mcc.c: 59:     USBDeviceAttach();
  3127  09D3  318A  2246  3189   	fcall	_USBDeviceAttach
  3128  09D6                     l992:
  3129  09D6  0008               	return
  3130  09D7                     __end_of_SYSTEM_Initialize:
  3131                           
  3132                           	psect	text2
  3133  07FC                     __ptext2:	
  3134 ;; *************** function _WDT_Initialize *****************
  3135 ;; Defined at:
  3136 ;;		line 78 in file "mcc_generated_files/mcc.c"
  3137 ;; Parameters:    Size  Location     Type
  3138 ;;		None
  3139 ;; Auto vars:     Size  Location     Type
  3140 ;;		None
  3141 ;; Return value:  Size  Location     Type
  3142 ;;                  1    wreg      void 
  3143 ;; Registers used:
  3144 ;;		wreg
  3145 ;; Tracked objects:
  3146 ;;		On entry : 0/0
  3147 ;;		On exit  : 0/0
  3148 ;;		Unchanged: 0/0
  3149 ;; Data sizes:     COMMON  BANK0h   BANK1   BANK2   BANK3   BANK4   BANK5   BANK6   BANK7   BANK8   BANK9  BANK10  BANK1
      +1  BANK12
  3150 ;;      Params:         0       0       0       0       0       0       0       0       0       0       0       0       
      +0       0
  3151 ;;      Locals:         0       0       0       0       0       0       0       0       0       0       0       0       
      +0       0
  3152 ;;      Temps:          0       0       0       0       0       0       0       0       0       0       0       0       
      +0       0
  3153 ;;      Totals:         0       0       0       0       0       0       0       0       0       0       0       0       
      +0       0
  3154 ;;Total ram usage:        0 bytes
  3155 ;; Hardware stack levels used:    1
  3156 ;; Hardware stack levels required when called:    8
  3157 ;; This function calls:
  3158 ;;		Nothing
  3159 ;; This function is called by:
  3160 ;;		_SYSTEM_Initialize
  3161 ;; This function uses a non-reentrant model
  3162 ;;
  3163                           
  3164                           
  3165                           ;psect for function _WDT_Initialize
  3166  07FC                     _WDT_Initialize:
  3167  07FC                     l5890:	
  3168                           ;incstack = 0
  3169                           ; Regs used in _WDT_Initialize: [wreg]
  3170                           
  3171                           
  3172                           ;mcc_generated_files/mcc.c: 81:     WDTCON = 0x16;
  3173  07FC  3016               	movlw	22
  3174  07FD  0021               	movlb	1	; select bank1
  3175  07FE  0097               	movwf	23	;volatile
  3176  07FF                     l1001:
  3177  07FF  0008               	return
  3178  0800                     __end_of_WDT_Initialize:
  3179                           
  3180                           	psect	text3
  3181  02CD                     __ptext3:	
  3182 ;; *************** function _USBDeviceInit *****************
  3183 ;; Defined at:
  3184 ;;		line 281 in file "mcc_generated_files/usb/usb_device.c"
  3185 ;; Parameters:    Size  Location     Type
  3186 ;;		None
  3187 ;; Auto vars:     Size  Location     Type
  3188 ;;  p               2    1[BANK1 ] PTR unsigned char 
  3189 ;;		 -> UEP1(1), 
  3190 ;;  i               1    3[BANK1 ] unsigned char 
  3191 ;;  i               1    4[BANK1 ] unsigned char 
  3192 ;; Return value:  Size  Location     Type
  3193 ;;                  1    wreg      void 
  3194 ;; Registers used:
  3195 ;;		wreg, fsr1l, fsr1h, status,2, status,0
  3196 ;; Tracked objects:
  3197 ;;		On entry : 0/0
  3198 ;;		On exit  : 0/0
  3199 ;;		Unchanged: 0/0
  3200 ;; Data sizes:     COMMON  BANK0h   BANK1   BANK2   BANK3   BANK4   BANK5   BANK6   BANK7   BANK8   BANK9  BANK10  BANK1
      +1  BANK12
  3201 ;;      Params:         0       0       0       0       0       0       0       0       0       0       0       0       
      +0       0
  3202 ;;      Locals:         0       0       4       0       0       0       0       0       0       0       0       0       
      +0       0
  3203 ;;      Temps:          0       0       1       0       0       0       0       0       0       0       0       0       
      +0       0
  3204 ;;      Totals:         0       0       5       0       0       0       0       0       0       0       0       0       
      +0       0
  3205 ;;Total ram usage:        5 bytes
  3206 ;; Hardware stack levels used:    1
  3207 ;; Hardware stack levels required when called:    8
  3208 ;; This function calls:
  3209 ;;		Nothing
  3210 ;; This function is called by:
  3211 ;;		_SYSTEM_Initialize
  3212 ;; This function uses a non-reentrant model
  3213 ;;
  3214                           
  3215                           
  3216                           ;psect for function _USBDeviceInit
  3217  02CD                     _USBDeviceInit:
  3218  02CD                     l5718:	
  3219                           ;incstack = 0
  3220                           ; Regs used in _USBDeviceInit: [wreg+fsr1l+fsr1h+status,2+status,0]
  3221                           
  3222                           
  3223                           ;mcc_generated_files/usb/usb_device.c: 283:     uint8_t i;;mcc_generated_files/usb/usb_d
      +                          evice.c: 285:     {PIE2bits.USBIE = 0;};
  3224  02CD  0021               	movlb	1	; select bank1
  3225  02CE  1112               	bcf	18,2	;volatile
  3226  02CF                     l5720:
  3227                           
  3228                           ;mcc_generated_files/usb/usb_device.c: 292:     {UEIR = 0;};
  3229  02CF  003D               	movlb	29	; select bank29
  3230  02D0  0193               	clrf	19	;volatile
  3231                           
  3232                           ;mcc_generated_files/usb/usb_device.c: 295:     {UIR = 0;};
  3233  02D1  0190               	clrf	16	;volatile
  3234                           
  3235                           ;mcc_generated_files/usb/usb_device.c: 298:     UEP0 = 0;
  3236  02D2  0198               	clrf	24	;volatile
  3237  02D3                     l5722:
  3238                           
  3239                           ;mcc_generated_files/usb/usb_device.c: 300:     { uint8_t i; uint8_t* p = (uint8_t*)&UEP
      +                          1; for(i=0;i<1;i++) *p++ = 0; };
  3240  02D3  300E               	movlw	14
  3241  02D4  0021               	movlb	1	; select bank1
  3242  02D5  00E4               	movwf	(USBDeviceInit@p+1)^(0+128)
  3243  02D6  3099               	movlw	153
  3244  02D7  00E3               	movwf	USBDeviceInit@p^(0+128)
  3245  02D8  01E5               	clrf	USBDeviceInit@i_1171^(0+128)
  3246  02D9                     l5728:
  3247  02D9  0863               	movf	USBDeviceInit@p^(0+128),w
  3248  02DA  0086               	movwf	6
  3249  02DB  0864               	movf	(USBDeviceInit@p+1)^(0+128),w
  3250  02DC  0087               	movwf	7
  3251  02DD  0181               	clrf	1
  3252  02DE                     l5730:
  3253  02DE  3001               	movlw	1
  3254  02DF  07E3               	addwf	USBDeviceInit@p^(0+128),f
  3255  02E0  3000               	movlw	0
  3256  02E1  3DE4               	addwfc	(USBDeviceInit@p+1)^(0+128),f
  3257  02E2                     l5732:
  3258  02E2  3001               	movlw	1
  3259  02E3  00E2               	movwf	??_USBDeviceInit^(0+128)
  3260  02E4  0862               	movf	??_USBDeviceInit^(0+128),w
  3261  02E5  07E5               	addwf	USBDeviceInit@i_1171^(0+128),f
  3262  02E6                     l5734:
  3263  02E6  0865               	movf	USBDeviceInit@i_1171^(0+128),w
  3264  02E7  1903               	btfsc	3,2
  3265  02E8  2AEA               	goto	u3641
  3266  02E9  2AEB               	goto	u3640
  3267  02EA                     u3641:
  3268  02EA  2AD9               	goto	l5728
  3269  02EB                     u3640:
  3270  02EB                     l5736:
  3271                           
  3272                           ;mcc_generated_files/usb/usb_device.c: 302:     { UCFG = 0x10 | 0x00 | 0x00 | 0x02; UEIE
      +                           = 0x9F; UIE = 0x39 | 0x40 | 0x02; };
  3273  02EB  3012               	movlw	18
  3274  02EC  003D               	movlb	29	; select bank29
  3275  02ED  0091               	movwf	17	;volatile
  3276  02EE  309F               	movlw	159
  3277  02EF  0097               	movwf	23	;volatile
  3278  02F0  307B               	movlw	123
  3279  02F1  0092               	movwf	18	;volatile
  3280  02F2                     l5738:
  3281                           
  3282                           ;mcc_generated_files/usb/usb_device.c: 311:     for(i = 0; i < (sizeof(BDT)/sizeof(BDT_E
      +                          NTRY)); i++)
  3283  02F2  0021               	movlb	1	; select bank1
  3284  02F3  01E6               	clrf	USBDeviceInit@i^(0+128)
  3285  02F4                     l5744:
  3286                           
  3287                           ;mcc_generated_files/usb/usb_device.c: 312:     {;mcc_generated_files/usb/usb_device.c: 
      +                          313:         BDT[i].Val = 0x00;
  3288  02F4  0866               	movf	USBDeviceInit@i^(0+128),w
  3289  02F5  00E2               	movwf	??_USBDeviceInit^(0+128)
  3290  02F6  3001               	movlw	1
  3291  02F7                     u3655:
  3292  02F7  35E2               	lslf	??_USBDeviceInit^(0+128),f
  3293  02F8  3EFF               	addlw	-1
  3294  02F9  1D03               	skipz
  3295  02FA  2AF7               	goto	u3655
  3296  02FB  3562               	lslf	??_USBDeviceInit^(0+128),w
  3297  02FC  3E20               	addlw	32
  3298  02FD  0086               	movwf	6
  3299  02FE  0187               	clrf	7
  3300  02FF  3000               	movlw	0
  3301  0300  3FC0               	movwi [0]fsr1
  3302  0301  3000               	movlw	0
  3303  0302  3FC1               	movwi [1]fsr1
  3304  0303  3FC2               	movwi [2]fsr1
  3305  0304  3FC3               	movwi [3]fsr1
  3306  0305                     l5746:
  3307                           
  3308                           ;mcc_generated_files/usb/usb_device.c: 314:     }
  3309  0305  3001               	movlw	1
  3310  0306  00E2               	movwf	??_USBDeviceInit^(0+128)
  3311  0307  0862               	movf	??_USBDeviceInit^(0+128),w
  3312  0308  07E6               	addwf	USBDeviceInit@i^(0+128),f
  3313  0309                     l5748:
  3314  0309  3008               	movlw	8
  3315  030A  0266               	subwf	USBDeviceInit@i^(0+128),w
  3316  030B  1C03               	skipc
  3317  030C  2B0E               	goto	u3661
  3318  030D  2B0F               	goto	u3660
  3319  030E                     u3661:
  3320  030E  2AF4               	goto	l5744
  3321  030F                     u3660:
  3322  030F                     l301:
  3323                           
  3324                           ;mcc_generated_files/usb/usb_device.c: 317:     UCONbits.PPBRST = 1;
  3325  030F  003D               	movlb	29	; select bank29
  3326  0310  170E               	bsf	14,6	;volatile
  3327  0311                     l5750:
  3328                           
  3329                           ;mcc_generated_files/usb/usb_device.c: 320:     UADDR = 0x00;
  3330  0311  0196               	clrf	22	;volatile
  3331  0312                     l5752:
  3332                           
  3333                           ;mcc_generated_files/usb/usb_device.c: 323:     UCONbits.PKTDIS = 0;
  3334  0312  120E               	bcf	14,4	;volatile
  3335  0313                     l5754:
  3336                           
  3337                           ;mcc_generated_files/usb/usb_device.c: 326:     UCONbits.PPBRST = 0;
  3338  0313  130E               	bcf	14,6	;volatile
  3339  0314                     l5756:
  3340                           
  3341                           ;mcc_generated_files/usb/usb_device.c: 330:     {;mcc_generated_files/usb/usb_device.c: 
      +                          331:         (UIR &= 0xF7);
  3342  0314  30F7               	movlw	247
  3343  0315  0021               	movlb	1	; select bank1
  3344  0316  00E2               	movwf	??_USBDeviceInit^(0+128)
  3345  0317  0862               	movf	??_USBDeviceInit^(0+128),w
  3346  0318  003D               	movlb	29	; select bank29
  3347  0319  0590               	andwf	16,f	;volatile
  3348  031A                     l5758:
  3349                           
  3350                           ;mcc_generated_files/usb/usb_device.c: 333:         inPipes[0].info.Val = 0;
  3351  031A  0020               	movlb	0	; select bank0
  3352  031B  01D2               	clrf	_inPipes+2	;volatile
  3353  031C                     l5760:
  3354                           
  3355                           ;mcc_generated_files/usb/usb_device.c: 334:         outPipes[0].info.Val = 0;
  3356  031C  0021               	movlb	1	; select bank1
  3357  031D  01BF               	clrf	(_outPipes^(0+128)+2)	;volatile
  3358  031E                     l5762:
  3359                           
  3360                           ;mcc_generated_files/usb/usb_device.c: 335:         outPipes[0].wCount.Val = 0;
  3361  031E  01C0               	clrf	(_outPipes^(0+128)+3)	;volatile
  3362  031F  01C1               	clrf	((_outPipes+1)^(0+128)+3)	;volatile
  3363  0320                     l5764:
  3364                           
  3365                           ;mcc_generated_files/usb/usb_device.c: 336:     }while(UIRbits.TRNIF == 1);
  3366  0320  003D               	movlb	29	; select bank29
  3367  0321  1990               	btfsc	16,3	;volatile
  3368  0322  2B24               	goto	u3671
  3369  0323  2B25               	goto	u3670
  3370  0324                     u3671:
  3371  0324  2B14               	goto	l5756
  3372  0325                     u3670:
  3373  0325                     l5766:
  3374                           
  3375                           ;mcc_generated_files/usb/usb_device.c: 340:     USBStatusStageEnabledFlag1 = 1;
  3376  0325  3001               	movlw	1
  3377  0326  0021               	movlb	1	; select bank1
  3378  0327  00E2               	movwf	??_USBDeviceInit^(0+128)
  3379  0328  0862               	movf	??_USBDeviceInit^(0+128),w
  3380  0329  00D8               	movwf	_USBStatusStageEnabledFlag1^(0+128)	;volatile
  3381                           
  3382                           ;mcc_generated_files/usb/usb_device.c: 341:     USBStatusStageEnabledFlag2 = 1;
  3383  032A  3001               	movlw	1
  3384  032B  00E2               	movwf	??_USBDeviceInit^(0+128)
  3385  032C  0862               	movf	??_USBDeviceInit^(0+128),w
  3386  032D  00D7               	movwf	_USBStatusStageEnabledFlag2^(0+128)	;volatile
  3387  032E                     l5768:
  3388                           
  3389                           ;mcc_generated_files/usb/usb_device.c: 343:     USBDeferINDataStagePackets = 0;
  3390  032E  01D6               	clrf	_USBDeferINDataStagePackets^(0+128)	;volatile
  3391  032F                     l5770:
  3392                           
  3393                           ;mcc_generated_files/usb/usb_device.c: 344:     USBDeferOUTDataStagePackets = 0;
  3394  032F  01D5               	clrf	_USBDeferOUTDataStagePackets^(0+128)	;volatile
  3395  0330                     l5772:
  3396                           
  3397                           ;mcc_generated_files/usb/usb_device.c: 345:     USBBusIsSuspended = 0;
  3398  0330  01DD               	clrf	_USBBusIsSuspended^(0+128)	;volatile
  3399  0331                     l5774:
  3400                           
  3401                           ;mcc_generated_files/usb/usb_device.c: 349:     for(i = 0; i < (uint8_t)(1 +1u); i++)
  3402  0331  01E6               	clrf	USBDeviceInit@i^(0+128)
  3403  0332                     l5778:
  3404                           
  3405                           ;mcc_generated_files/usb/usb_device.c: 350:     {;mcc_generated_files/usb/usb_device.c: 
      +                          351:         pBDTEntryIn[i] = 0u;
  3406  0332  3566               	lslf	USBDeviceInit@i^(0+128),w
  3407  0333  3E55               	addlw	(low (_pBDTEntryIn| 0))& (0+255)
  3408  0334  0086               	movwf	6
  3409  0335  0187               	clrf	7
  3410  0336  3000               	movlw	0
  3411  0337  3FC0               	movwi [0]fsr1
  3412  0338  3FC1               	movwi [1]fsr1
  3413                           
  3414                           ;mcc_generated_files/usb/usb_device.c: 352:         pBDTEntryOut[i] = 0u;
  3415  0339  3566               	lslf	USBDeviceInit@i^(0+128),w
  3416  033A  3EC8               	addlw	(low (_pBDTEntryOut| 0))& (0+255)
  3417  033B  0086               	movwf	6
  3418  033C  0187               	clrf	7
  3419  033D  3000               	movlw	0
  3420  033E  3FC0               	movwi [0]fsr1
  3421  033F  3FC1               	movwi [1]fsr1
  3422                           
  3423                           ;mcc_generated_files/usb/usb_device.c: 353:         ep_data_in[i].Val = 0u;
  3424  0340  0866               	movf	USBDeviceInit@i^(0+128),w
  3425  0341  3ED0               	addlw	(low (_ep_data_in| 0))& (0+255)
  3426  0342  0086               	movwf	6
  3427  0343  0187               	clrf	7
  3428  0344  0181               	clrf	1
  3429                           
  3430                           ;mcc_generated_files/usb/usb_device.c: 354:         ep_data_out[i].Val = 0u;
  3431  0345  0866               	movf	USBDeviceInit@i^(0+128),w
  3432  0346  3ECE               	addlw	(low (_ep_data_out| 0))& (0+255)
  3433  0347  0086               	movwf	6
  3434  0348  0187               	clrf	7
  3435  0349  0181               	clrf	1
  3436  034A                     l5780:
  3437                           
  3438                           ;mcc_generated_files/usb/usb_device.c: 355:     }
  3439  034A  3001               	movlw	1
  3440  034B  00E2               	movwf	??_USBDeviceInit^(0+128)
  3441  034C  0862               	movf	??_USBDeviceInit^(0+128),w
  3442  034D  07E6               	addwf	USBDeviceInit@i^(0+128),f
  3443  034E                     l5782:
  3444  034E  3002               	movlw	2
  3445  034F  0266               	subwf	USBDeviceInit@i^(0+128),w
  3446  0350  1C03               	skipc
  3447  0351  2B53               	goto	u3681
  3448  0352  2B54               	goto	u3680
  3449  0353                     u3681:
  3450  0353  2B32               	goto	l5778
  3451  0354                     u3680:
  3452  0354                     l5784:
  3453                           
  3454                           ;mcc_generated_files/usb/usb_device.c: 358:     pBDTEntryIn[0] = (volatile BDT_ENTRY*)&B
      +                          DT[2];
  3455  0354  3028               	movlw	40
  3456  0355  0020               	movlb	0	; select bank0
  3457  0356  00D5               	movwf	_pBDTEntryIn
  3458  0357  3000               	movlw	0
  3459  0358  00D6               	movwf	_pBDTEntryIn+1
  3460  0359                     l5786:
  3461                           
  3462                           ;mcc_generated_files/usb/usb_device.c: 360:     UEP0 = 0x06|0x10;
  3463  0359  3016               	movlw	22
  3464  035A  003D               	movlb	29	; select bank29
  3465  035B  0098               	movwf	24	;volatile
  3466  035C                     l5788:
  3467                           
  3468                           ;mcc_generated_files/usb/usb_device.c: 362:     BDT[0].ADR = (((uint16_t)(&SetupPkt)) & 
      +                          0x7FFF);
  3469  035C  3000               	movlw	0
  3470  035D  0020               	movlb	0	; select bank0
  3471  035E  00A3               	movwf	35	;volatile
  3472  035F  3040               	movlw	64
  3473  0360  00A2               	movwf	34	;volatile
  3474  0361                     l5790:
  3475                           
  3476                           ;mcc_generated_files/usb/usb_device.c: 363:     BDT[0].CNT = 8;
  3477  0361  3008               	movlw	8
  3478  0362  00A1               	movwf	33	;volatile
  3479  0363                     l5792:
  3480                           
  3481                           ;mcc_generated_files/usb/usb_device.c: 364:     BDT[0].STAT.Val = 0x00|0x04;
  3482  0363  3004               	movlw	4
  3483  0364  0021               	movlb	1	; select bank1
  3484  0365  00E2               	movwf	??_USBDeviceInit^(0+128)
  3485  0366  0862               	movf	??_USBDeviceInit^(0+128),w
  3486  0367  0020               	movlb	0	; select bank0
  3487  0368  00A0               	movwf	32	;volatile
  3488  0369                     l5794:
  3489                           
  3490                           ;mcc_generated_files/usb/usb_device.c: 365:     BDT[0].STAT.Val |= 0x80;
  3491  0369  17A0               	bsf	32,7	;volatile
  3492  036A                     l5796:
  3493                           
  3494                           ;mcc_generated_files/usb/usb_device.c: 368:     USBActiveConfiguration = 0;
  3495  036A  01DF               	clrf	_USBActiveConfiguration	;volatile
  3496  036B                     l5798:
  3497                           
  3498                           ;mcc_generated_files/usb/usb_device.c: 370:     USB1msTickCount = 0;
  3499  036B  3000               	movlw	0
  3500  036C  0021               	movlb	1	; select bank1
  3501  036D  00C7               	movwf	(_USB1msTickCount+3)^(0+128)	;volatile
  3502  036E  3000               	movlw	0
  3503  036F  00C6               	movwf	(_USB1msTickCount+2)^(0+128)	;volatile
  3504  0370  3000               	movlw	0
  3505  0371  00C5               	movwf	(_USB1msTickCount+1)^(0+128)	;volatile
  3506  0372  3000               	movlw	0
  3507  0373  00C4               	movwf	_USB1msTickCount^(0+128)	;volatile
  3508  0374                     l5800:
  3509                           
  3510                           ;mcc_generated_files/usb/usb_device.c: 371:     USBTicksSinceSuspendEnd = 0;
  3511  0374  01D4               	clrf	_USBTicksSinceSuspendEnd^(0+128)	;volatile
  3512  0375                     l5802:
  3513                           
  3514                           ;mcc_generated_files/usb/usb_device.c: 374:     USBDeviceState = DETACHED_STATE;
  3515  0375  0020               	movlb	0	; select bank0
  3516  0376  01DD               	clrf	_USBDeviceState	;volatile
  3517  0377                     l306:
  3518  0377  0008               	return
  3519  0378                     __end_of_USBDeviceInit:
  3520                           
  3521                           	psect	text4
  3522  0A46                     __ptext4:	
  3523 ;; *************** function _USBDeviceAttach *****************
  3524 ;; Defined at:
  3525 ;;		line 1356 in file "mcc_generated_files/usb/usb_device.c"
  3526 ;; Parameters:    Size  Location     Type
  3527 ;;		None
  3528 ;; Auto vars:     Size  Location     Type
  3529 ;;		None
  3530 ;; Return value:  Size  Location     Type
  3531 ;;                  1    wreg      void 
  3532 ;; Registers used:
  3533 ;;		wreg, status,2, status,0
  3534 ;; Tracked objects:
  3535 ;;		On entry : 0/0
  3536 ;;		On exit  : 0/0
  3537 ;;		Unchanged: 0/0
  3538 ;; Data sizes:     COMMON  BANK0h   BANK1   BANK2   BANK3   BANK4   BANK5   BANK6   BANK7   BANK8   BANK9  BANK10  BANK1
      +1  BANK12
  3539 ;;      Params:         0       0       0       0       0       0       0       0       0       0       0       0       
      +0       0
  3540 ;;      Locals:         0       0       0       0       0       0       0       0       0       0       0       0       
      +0       0
  3541 ;;      Temps:          0       0       1       0       0       0       0       0       0       0       0       0       
      +0       0
  3542 ;;      Totals:         0       0       1       0       0       0       0       0       0       0       0       0       
      +0       0
  3543 ;;Total ram usage:        1 bytes
  3544 ;; Hardware stack levels used:    1
  3545 ;; Hardware stack levels required when called:    8
  3546 ;; This function calls:
  3547 ;;		Nothing
  3548 ;; This function is called by:
  3549 ;;		_SYSTEM_Initialize
  3550 ;; This function uses a non-reentrant model
  3551 ;;
  3552                           
  3553                           
  3554                           ;psect for function _USBDeviceAttach
  3555  0A46                     _USBDeviceAttach:
  3556  0A46                     l5826:	
  3557                           ;incstack = 0
  3558                           ; Regs used in _USBDeviceAttach: [wreg+status,2+status,0]
  3559                           
  3560                           
  3561                           ;mcc_generated_files/usb/usb_device.c: 1360:     {;mcc_generated_files/usb/usb_device.c:
      +                           1361:         if(1 == 1)
  3562  0A46  0020               	movlb	0	; select bank0
  3563  0A47  085D               	movf	_USBDeviceState,w	;volatile
  3564  0A48  1D03               	btfss	3,2
  3565  0A49  2A4B               	goto	u3731
  3566  0A4A  2A4C               	goto	u3730
  3567  0A4B                     u3731:
  3568  0A4B  2A64               	goto	l364
  3569  0A4C                     u3730:
  3570  0A4C                     l5828:
  3571                           
  3572                           ;mcc_generated_files/usb/usb_device.c: 1362:         {;mcc_generated_files/usb/usb_devic
      +                          e.c: 1364:             UCON = 0;
  3573  0A4C  003D               	movlb	29	; select bank29
  3574  0A4D  018E               	clrf	14	;volatile
  3575                           
  3576                           ;mcc_generated_files/usb/usb_device.c: 1367:             UIE = 0;
  3577  0A4E  0192               	clrf	18	;volatile
  3578  0A4F                     l5830:
  3579                           
  3580                           ;mcc_generated_files/usb/usb_device.c: 1371:             { UCFG = 0x10 | 0x00 | 0x00 | 0
      +                          x02; UEIE = 0x9F; UIE = 0x39 | 0x40 | 0x02; };
  3581  0A4F  3012               	movlw	18
  3582  0A50  0091               	movwf	17	;volatile
  3583  0A51                     l5832:
  3584  0A51  309F               	movlw	159
  3585  0A52  0097               	movwf	23	;volatile
  3586  0A53                     l5834:
  3587  0A53  307B               	movlw	123
  3588  0A54  0092               	movwf	18	;volatile
  3589  0A55                     l5836:
  3590                           
  3591                           ;mcc_generated_files/usb/usb_device.c: 1373:             {PIE2bits.USBIE = 1;};
  3592  0A55  0021               	movlb	1	; select bank1
  3593  0A56  1512               	bsf	18,2	;volatile
  3594                           
  3595                           ;mcc_generated_files/usb/usb_device.c: 1376:             while(!UCONbits.USBEN){UCONbits
      +                          .USBEN = 1;}
  3596  0A57  2A59               	goto	l361
  3597  0A58                     l362:
  3598  0A58  158E               	bsf	14,3	;volatile
  3599  0A59                     l361:
  3600  0A59  003D               	movlb	29	; select bank29
  3601  0A5A  1D8E               	btfss	14,3	;volatile
  3602  0A5B  2A5D               	goto	u3741
  3603  0A5C  2A5E               	goto	u3740
  3604  0A5D                     u3741:
  3605  0A5D  2A58               	goto	l362
  3606  0A5E                     u3740:
  3607  0A5E                     l5838:
  3608                           
  3609                           ;mcc_generated_files/usb/usb_device.c: 1379:             USBDeviceState = ATTACHED_STATE
      +                          ;
  3610  0A5E  3001               	movlw	1
  3611  0A5F  0021               	movlb	1	; select bank1
  3612  0A60  00E2               	movwf	??_USBDeviceAttach^(0+128)
  3613  0A61  0862               	movf	??_USBDeviceAttach^(0+128),w
  3614  0A62  0020               	movlb	0	; select bank0
  3615  0A63  00DD               	movwf	_USBDeviceState	;volatile
  3616  0A64                     l364:
  3617  0A64  0008               	return
  3618  0A65                     __end_of_USBDeviceAttach:
  3619                           
  3620                           	psect	text5
  3621  0A8B                     __ptext5:	
  3622 ;; *************** function _PIN_MANAGER_Initialize *****************
  3623 ;; Defined at:
  3624 ;;		line 57 in file "mcc_generated_files/pin_manager.c"
  3625 ;; Parameters:    Size  Location     Type
  3626 ;;		None
  3627 ;; Auto vars:     Size  Location     Type
  3628 ;;		None
  3629 ;; Return value:  Size  Location     Type
  3630 ;;                  1    wreg      void 
  3631 ;; Registers used:
  3632 ;;		wreg, status,2, status,0, pclath, cstack
  3633 ;; Tracked objects:
  3634 ;;		On entry : 0/0
  3635 ;;		On exit  : 0/0
  3636 ;;		Unchanged: 0/0
  3637 ;; Data sizes:     COMMON  BANK0h   BANK1   BANK2   BANK3   BANK4   BANK5   BANK6   BANK7   BANK8   BANK9  BANK10  BANK1
      +1  BANK12
  3638 ;;      Params:         0       0       0       0       0       0       0       0       0       0       0       0       
      +0       0
  3639 ;;      Locals:         0       0       0       0       0       0       0       0       0       0       0       0       
      +0       0
  3640 ;;      Temps:          0       0       0       0       0       0       0       0       0       0       0       0       
      +0       0
  3641 ;;      Totals:         0       0       0       0       0       0       0       0       0       0       0       0       
      +0       0
  3642 ;;Total ram usage:        0 bytes
  3643 ;; Hardware stack levels used:    1
  3644 ;; Hardware stack levels required when called:    9
  3645 ;; This function calls:
  3646 ;;		_IOCAF5_SetInterruptHandler
  3647 ;; This function is called by:
  3648 ;;		_SYSTEM_Initialize
  3649 ;; This function uses a non-reentrant model
  3650 ;;
  3651                           
  3652                           
  3653                           ;psect for function _PIN_MANAGER_Initialize
  3654  0A8B                     _PIN_MANAGER_Initialize:
  3655  0A8B                     l5840:	
  3656                           ;incstack = 0
  3657                           ; Regs used in _PIN_MANAGER_Initialize: [wreg+status,2+status,0+pclath+cstack]
  3658                           
  3659                           
  3660                           ;mcc_generated_files/pin_manager.c: 62:     LATA = 0x00;
  3661  0A8B  0022               	movlb	2	; select bank2
  3662  0A8C  018C               	clrf	12	;volatile
  3663                           
  3664                           ;mcc_generated_files/pin_manager.c: 63:     LATB = 0x00;
  3665  0A8D  018D               	clrf	13	;volatile
  3666  0A8E                     l5842:
  3667                           
  3668                           ;mcc_generated_files/pin_manager.c: 64:     LATC = 0x20;
  3669  0A8E  3020               	movlw	32
  3670  0A8F  008E               	movwf	14	;volatile
  3671  0A90                     l5844:
  3672                           
  3673                           ;mcc_generated_files/pin_manager.c: 69:     TRISA = 0x30;
  3674  0A90  3030               	movlw	48
  3675  0A91  0021               	movlb	1	; select bank1
  3676  0A92  008C               	movwf	12	;volatile
  3677  0A93                     l5846:
  3678                           
  3679                           ;mcc_generated_files/pin_manager.c: 70:     TRISB = 0xA0;
  3680  0A93  30A0               	movlw	160
  3681  0A94  008D               	movwf	13	;volatile
  3682  0A95                     l5848:
  3683                           
  3684                           ;mcc_generated_files/pin_manager.c: 71:     TRISC = 0xDF;
  3685  0A95  30DF               	movlw	223
  3686  0A96  008E               	movwf	14	;volatile
  3687  0A97                     l5850:
  3688                           
  3689                           ;mcc_generated_files/pin_manager.c: 76:     ANSELC = 0xCC;
  3690  0A97  30CC               	movlw	204
  3691  0A98  0023               	movlb	3	; select bank3
  3692  0A99  008E               	movwf	14	;volatile
  3693  0A9A                     l5852:
  3694                           
  3695                           ;mcc_generated_files/pin_manager.c: 77:     ANSELB = 0x00;
  3696  0A9A  018D               	clrf	13	;volatile
  3697  0A9B                     l5854:
  3698                           
  3699                           ;mcc_generated_files/pin_manager.c: 78:     ANSELA = 0x00;
  3700  0A9B  018C               	clrf	12	;volatile
  3701  0A9C                     l5856:
  3702                           
  3703                           ;mcc_generated_files/pin_manager.c: 83:     WPUB = 0x00;
  3704  0A9C  0024               	movlb	4	; select bank4
  3705  0A9D  018D               	clrf	13	;volatile
  3706  0A9E                     l5858:
  3707                           
  3708                           ;mcc_generated_files/pin_manager.c: 84:     WPUA = 0x00;
  3709  0A9E  018C               	clrf	12	;volatile
  3710  0A9F                     l5860:
  3711                           
  3712                           ;mcc_generated_files/pin_manager.c: 85:     OPTION_REGbits.nWPUEN = 1;
  3713  0A9F  0021               	movlb	1	; select bank1
  3714  0AA0  1795               	bsf	21,7	;volatile
  3715  0AA1                     l5862:
  3716                           
  3717                           ;mcc_generated_files/pin_manager.c: 91:     APFCON = 0x00;
  3718  0AA1  0022               	movlb	2	; select bank2
  3719  0AA2  019D               	clrf	29	;volatile
  3720  0AA3                     l5864:
  3721                           
  3722                           ;mcc_generated_files/pin_manager.c: 97:     IOCAFbits.IOCAF5 = 0;
  3723  0AA3  0027               	movlb	7	; select bank7
  3724  0AA4  1293               	bcf	19,5	;volatile
  3725  0AA5                     l5866:
  3726                           
  3727                           ;mcc_generated_files/pin_manager.c: 99:     IOCANbits.IOCAN5 = 0;
  3728  0AA5  1292               	bcf	18,5	;volatile
  3729  0AA6                     l5868:
  3730                           
  3731                           ;mcc_generated_files/pin_manager.c: 101:     IOCAPbits.IOCAP5 = 1;
  3732  0AA6  1691               	bsf	17,5	;volatile
  3733  0AA7                     l5870:
  3734                           
  3735                           ;mcc_generated_files/pin_manager.c: 106:     IOCAF5_SetInterruptHandler(IOCAF5_DefaultIn
      +                          terruptHandler);
  3736  0AA7  3086               	movlw	low _IOCAF5_DefaultInterruptHandler
  3737  0AA8  0021               	movlb	1	; select bank1
  3738  0AA9  00E2               	movwf	IOCAF5_SetInterruptHandler@InterruptHandler^(0+128)
  3739  0AAA  3008               	movlw	high _IOCAF5_DefaultInterruptHandler
  3740  0AAB  00E3               	movwf	(IOCAF5_SetInterruptHandler@InterruptHandler^(0+128)+1)
  3741  0AAC  3188  20E5  318A   	fcall	_IOCAF5_SetInterruptHandler
  3742  0AAF                     l5872:
  3743                           
  3744                           ;mcc_generated_files/pin_manager.c: 109:     INTCONbits.IOCIE = 1;
  3745  0AAF  158B               	bsf	11,3	;volatile
  3746  0AB0                     l608:
  3747  0AB0  0008               	return
  3748  0AB1                     __end_of_PIN_MANAGER_Initialize:
  3749                           
  3750                           	psect	text6
  3751  08E5                     __ptext6:	
  3752 ;; *************** function _IOCAF5_SetInterruptHandler *****************
  3753 ;; Defined at:
  3754 ;;		line 140 in file "mcc_generated_files/pin_manager.c"
  3755 ;; Parameters:    Size  Location     Type
  3756 ;;  InterruptHan    2    0[BANK1 ] PTR FTN()void 
  3757 ;;		 -> IOCAF5_DefaultInterruptHandler(1), 
  3758 ;; Auto vars:     Size  Location     Type
  3759 ;;		None
  3760 ;; Return value:  Size  Location     Type
  3761 ;;                  1    wreg      void 
  3762 ;; Registers used:
  3763 ;;		wreg
  3764 ;; Tracked objects:
  3765 ;;		On entry : 0/0
  3766 ;;		On exit  : 0/0
  3767 ;;		Unchanged: 0/0
  3768 ;; Data sizes:     COMMON  BANK0h   BANK1   BANK2   BANK3   BANK4   BANK5   BANK6   BANK7   BANK8   BANK9  BANK10  BANK1
      +1  BANK12
  3769 ;;      Params:         0       0       2       0       0       0       0       0       0       0       0       0       
      +0       0
  3770 ;;      Locals:         0       0       0       0       0       0       0       0       0       0       0       0       
      +0       0
  3771 ;;      Temps:          0       0       0       0       0       0       0       0       0       0       0       0       
      +0       0
  3772 ;;      Totals:         0       0       2       0       0       0       0       0       0       0       0       0       
      +0       0
  3773 ;;Total ram usage:        2 bytes
  3774 ;; Hardware stack levels used:    1
  3775 ;; Hardware stack levels required when called:    8
  3776 ;; This function calls:
  3777 ;;		Nothing
  3778 ;; This function is called by:
  3779 ;;		_PIN_MANAGER_Initialize
  3780 ;; This function uses a non-reentrant model
  3781 ;;
  3782                           
  3783                           
  3784                           ;psect for function _IOCAF5_SetInterruptHandler
  3785  08E5                     _IOCAF5_SetInterruptHandler:
  3786  08E5                     l5714:	
  3787                           ;incstack = 0
  3788                           ; Regs used in _IOCAF5_SetInterruptHandler: [wreg]
  3789                           
  3790                           
  3791                           ;mcc_generated_files/pin_manager.c: 141:     IOCAF5_InterruptHandler = InterruptHandler;
  3792  08E5  0021               	movlb	1	; select bank1
  3793  08E6  0863               	movf	(IOCAF5_SetInterruptHandler@InterruptHandler+1)^(0+128),w
  3794  08E7  00E8               	movwf	(_IOCAF5_InterruptHandler+1)^(0+128)
  3795  08E8  0862               	movf	IOCAF5_SetInterruptHandler@InterruptHandler^(0+128),w
  3796  08E9  00E7               	movwf	_IOCAF5_InterruptHandler^(0+128)
  3797  08EA                     l619:
  3798  08EA  0008               	return
  3799  08EB                     __end_of_IOCAF5_SetInterruptHandler:
  3800                           
  3801                           	psect	text7
  3802  0930                     __ptext7:	
  3803 ;; *************** function _OSCILLATOR_Initialize *****************
  3804 ;; Defined at:
  3805 ;;		line 62 in file "mcc_generated_files/mcc.c"
  3806 ;; Parameters:    Size  Location     Type
  3807 ;;		None
  3808 ;; Auto vars:     Size  Location     Type
  3809 ;;		None
  3810 ;; Return value:  Size  Location     Type
  3811 ;;                  1    wreg      void 
  3812 ;; Registers used:
  3813 ;;		wreg, status,2
  3814 ;; Tracked objects:
  3815 ;;		On entry : 0/0
  3816 ;;		On exit  : 0/0
  3817 ;;		Unchanged: 0/0
  3818 ;; Data sizes:     COMMON  BANK0h   BANK1   BANK2   BANK3   BANK4   BANK5   BANK6   BANK7   BANK8   BANK9  BANK10  BANK1
      +1  BANK12
  3819 ;;      Params:         0       0       0       0       0       0       0       0       0       0       0       0       
      +0       0
  3820 ;;      Locals:         0       0       0       0       0       0       0       0       0       0       0       0       
      +0       0
  3821 ;;      Temps:          0       0       0       0       0       0       0       0       0       0       0       0       
      +0       0
  3822 ;;      Totals:         0       0       0       0       0       0       0       0       0       0       0       0       
      +0       0
  3823 ;;Total ram usage:        0 bytes
  3824 ;; Hardware stack levels used:    1
  3825 ;; Hardware stack levels required when called:    8
  3826 ;; This function calls:
  3827 ;;		Nothing
  3828 ;; This function is called by:
  3829 ;;		_SYSTEM_Initialize
  3830 ;; This function uses a non-reentrant model
  3831 ;;
  3832                           
  3833                           
  3834                           ;psect for function _OSCILLATOR_Initialize
  3835  0930                     _OSCILLATOR_Initialize:
  3836  0930                     l5882:	
  3837                           ;incstack = 0
  3838                           ; Regs used in _OSCILLATOR_Initialize: [wreg+status,2]
  3839                           
  3840                           
  3841                           ;mcc_generated_files/mcc.c: 65:     OSCCON = 0x78;
  3842  0930  3078               	movlw	120
  3843  0931  0021               	movlb	1	; select bank1
  3844  0932  0099               	movwf	25	;volatile
  3845  0933                     l5884:
  3846                           
  3847                           ;mcc_generated_files/mcc.c: 67:     OSCTUNE = 0x00;
  3848  0933  0198               	clrf	24	;volatile
  3849  0934                     l5886:
  3850                           
  3851                           ;mcc_generated_files/mcc.c: 69:     ACTCON = 0x00;
  3852  0934  0027               	movlb	7	; select bank7
  3853  0935  019B               	clrf	27	;volatile
  3854  0936                     l5888:
  3855                           
  3856                           ;mcc_generated_files/mcc.c: 71:     BORCON = 0x00;
  3857  0936  0022               	movlb	2	; select bank2
  3858  0937  0196               	clrf	22	;volatile
  3859  0938                     l995:	
  3860                           ;mcc_generated_files/mcc.c: 74:     {;mcc_generated_files/mcc.c: 75:     }
  3861                           
  3862                           
  3863                           ;mcc_generated_files/mcc.c: 73:     while(PLLRDY == 0)
  3864  0938  0021               	movlb	1	; select bank1
  3865  0939  1F1A               	btfss	26,6	;volatile
  3866  093A  293C               	goto	u3751
  3867  093B  293D               	goto	u3750
  3868  093C                     u3751:
  3869  093C  2938               	goto	l995
  3870  093D                     u3750:
  3871  093D                     l998:
  3872  093D  0008               	return
  3873  093E                     __end_of_OSCILLATOR_Initialize:
  3874                           
  3875                           	psect	text8
  3876  091A                     __ptext8:	
  3877 ;; *************** function _I2C_Initialize *****************
  3878 ;; Defined at:
  3879 ;;		line 167 in file "mcc_generated_files/i2c_master.c"
  3880 ;; Parameters:    Size  Location     Type
  3881 ;;		None
  3882 ;; Auto vars:     Size  Location     Type
  3883 ;;		None
  3884 ;; Return value:  Size  Location     Type
  3885 ;;                  1    wreg      void 
  3886 ;; Registers used:
  3887 ;;		wreg, status,2
  3888 ;; Tracked objects:
  3889 ;;		On entry : 0/0
  3890 ;;		On exit  : 0/0
  3891 ;;		Unchanged: 0/0
  3892 ;; Data sizes:     COMMON  BANK0h   BANK1   BANK2   BANK3   BANK4   BANK5   BANK6   BANK7   BANK8   BANK9  BANK10  BANK1
      +1  BANK12
  3893 ;;      Params:         0       0       0       0       0       0       0       0       0       0       0       0       
      +0       0
  3894 ;;      Locals:         0       0       0       0       0       0       0       0       0       0       0       0       
      +0       0
  3895 ;;      Temps:          0       0       0       0       0       0       0       0       0       0       0       0       
      +0       0
  3896 ;;      Totals:         0       0       0       0       0       0       0       0       0       0       0       0       
      +0       0
  3897 ;;Total ram usage:        0 bytes
  3898 ;; Hardware stack levels used:    1
  3899 ;; Hardware stack levels required when called:    8
  3900 ;; This function calls:
  3901 ;;		Nothing
  3902 ;; This function is called by:
  3903 ;;		_SYSTEM_Initialize
  3904 ;; This function uses a non-reentrant model
  3905 ;;
  3906                           
  3907                           
  3908                           ;psect for function _I2C_Initialize
  3909  091A                     _I2C_Initialize:
  3910  091A                     l5874:	
  3911                           ;incstack = 0
  3912                           ; Regs used in _I2C_Initialize: [wreg+status,2]
  3913                           
  3914                           
  3915                           ;mcc_generated_files/i2c_master.c: 169:     SSP1STAT = 0x00;
  3916  091A  0024               	movlb	4	; select bank4
  3917  091B  0194               	clrf	20	;volatile
  3918  091C                     l5876:
  3919                           
  3920                           ;mcc_generated_files/i2c_master.c: 170:     SSP1CON1 = 0x08;
  3921  091C  3008               	movlw	8
  3922  091D  0095               	movwf	21	;volatile
  3923  091E                     l5878:
  3924                           
  3925                           ;mcc_generated_files/i2c_master.c: 171:     SSP1CON2 = 0x00;
  3926  091E  0196               	clrf	22	;volatile
  3927                           
  3928                           ;mcc_generated_files/i2c_master.c: 172:     SSP1ADD = 0x3B;
  3929  091F  303B               	movlw	59
  3930  0920  0092               	movwf	18	;volatile
  3931  0921                     l5880:
  3932                           
  3933                           ;mcc_generated_files/i2c_master.c: 173:     SSP1CON1bits.SSPEN = 0;
  3934  0921  1295               	bcf	21,5	;volatile
  3935  0922                     l731:
  3936  0922  0008               	return
  3937  0923                     __end_of_I2C_Initialize:
  3938                           
  3939                           	psect	text9
  3940  09B0                     __ptext9:	
  3941 ;; *************** function _ADC_Initialize *****************
  3942 ;; Defined at:
  3943 ;;		line 67 in file "mcc_generated_files/adc.c"
  3944 ;; Parameters:    Size  Location     Type
  3945 ;;		None
  3946 ;; Auto vars:     Size  Location     Type
  3947 ;;		None
  3948 ;; Return value:  Size  Location     Type
  3949 ;;                  1    wreg      void 
  3950 ;; Registers used:
  3951 ;;		wreg, status,2, status,0, pclath, cstack
  3952 ;; Tracked objects:
  3953 ;;		On entry : 0/0
  3954 ;;		On exit  : 0/0
  3955 ;;		Unchanged: 0/0
  3956 ;; Data sizes:     COMMON  BANK0h   BANK1   BANK2   BANK3   BANK4   BANK5   BANK6   BANK7   BANK8   BANK9  BANK10  BANK1
      +1  BANK12
  3957 ;;      Params:         0       0       0       0       0       0       0       0       0       0       0       0       
      +0       0
  3958 ;;      Locals:         0       0       0       0       0       0       0       0       0       0       0       0       
      +0       0
  3959 ;;      Temps:          0       0       0       0       0       0       0       0       0       0       0       0       
      +0       0
  3960 ;;      Totals:         0       0       0       0       0       0       0       0       0       0       0       0       
      +0       0
  3961 ;;Total ram usage:        0 bytes
  3962 ;; Hardware stack levels used:    1
  3963 ;; Hardware stack levels required when called:    9
  3964 ;; This function calls:
  3965 ;;		_ADC_SetInterruptHandler
  3966 ;; This function is called by:
  3967 ;;		_SYSTEM_Initialize
  3968 ;; This function uses a non-reentrant model
  3969 ;;
  3970                           
  3971                           
  3972                           ;psect for function _ADC_Initialize
  3973  09B0                     _ADC_Initialize:
  3974  09B0                     l5892:	
  3975                           ;incstack = 0
  3976                           ; Regs used in _ADC_Initialize: [wreg+status,2+status,0+pclath+cstack]
  3977                           
  3978                           
  3979                           ;mcc_generated_files/adc.c: 72:     ADCON1 = 0x20;
  3980  09B0  3020               	movlw	32
  3981  09B1  0021               	movlb	1	; select bank1
  3982  09B2  009E               	movwf	30	;volatile
  3983  09B3                     l5894:
  3984                           
  3985                           ;mcc_generated_files/adc.c: 75:     ADCON2 = 0x00;
  3986  09B3  019F               	clrf	31	;volatile
  3987  09B4                     l5896:
  3988                           
  3989                           ;mcc_generated_files/adc.c: 78:     ADRESL = 0x00;
  3990  09B4  019B               	clrf	27	;volatile
  3991  09B5                     l5898:
  3992                           
  3993                           ;mcc_generated_files/adc.c: 81:     ADRESH = 0x00;
  3994  09B5  019C               	clrf	28	;volatile
  3995  09B6                     l5900:
  3996                           
  3997                           ;mcc_generated_files/adc.c: 84:     ADCON0 = 0x01;
  3998  09B6  3001               	movlw	1
  3999  09B7  009D               	movwf	29	;volatile
  4000  09B8                     l5902:
  4001                           
  4002                           ;mcc_generated_files/adc.c: 87:     PIE1bits.ADIE = 1;
  4003  09B8  1711               	bsf	17,6	;volatile
  4004  09B9                     l5904:
  4005                           
  4006                           ;mcc_generated_files/adc.c: 90:     ADC_SetInterruptHandler(ADC_DefaultInterruptHandler)
      +                          ;
  4007  09B9  3085               	movlw	low _ADC_DefaultInterruptHandler
  4008  09BA  00E2               	movwf	ADC_SetInterruptHandler@InterruptHandler^(0+128)
  4009  09BB  3008               	movlw	high _ADC_DefaultInterruptHandler
  4010  09BC  00E3               	movwf	(ADC_SetInterruptHandler@InterruptHandler^(0+128)+1)
  4011  09BD  3188  20DF  3189   	fcall	_ADC_SetInterruptHandler
  4012  09C0                     l1101:
  4013  09C0  0008               	return
  4014  09C1                     __end_of_ADC_Initialize:
  4015                           
  4016                           	psect	text10
  4017  08DF                     __ptext10:	
  4018 ;; *************** function _ADC_SetInterruptHandler *****************
  4019 ;; Defined at:
  4020 ;;		line 159 in file "mcc_generated_files/adc.c"
  4021 ;; Parameters:    Size  Location     Type
  4022 ;;  InterruptHan    2    0[BANK1 ] PTR FTN()void 
  4023 ;;		 -> ADC_DefaultInterruptHandler(1), 
  4024 ;; Auto vars:     Size  Location     Type
  4025 ;;		None
  4026 ;; Return value:  Size  Location     Type
  4027 ;;                  1    wreg      void 
  4028 ;; Registers used:
  4029 ;;		wreg
  4030 ;; Tracked objects:
  4031 ;;		On entry : 0/0
  4032 ;;		On exit  : 0/0
  4033 ;;		Unchanged: 0/0
  4034 ;; Data sizes:     COMMON  BANK0h   BANK1   BANK2   BANK3   BANK4   BANK5   BANK6   BANK7   BANK8   BANK9  BANK10  BANK1
      +1  BANK12
  4035 ;;      Params:         0       0       2       0       0       0       0       0       0       0       0       0       
      +0       0
  4036 ;;      Locals:         0       0       0       0       0       0       0       0       0       0       0       0       
      +0       0
  4037 ;;      Temps:          0       0       0       0       0       0       0       0       0       0       0       0       
      +0       0
  4038 ;;      Totals:         0       0       2       0       0       0       0       0       0       0       0       0       
      +0       0
  4039 ;;Total ram usage:        2 bytes
  4040 ;; Hardware stack levels used:    1
  4041 ;; Hardware stack levels required when called:    8
  4042 ;; This function calls:
  4043 ;;		Nothing
  4044 ;; This function is called by:
  4045 ;;		_ADC_Initialize
  4046 ;; This function uses a non-reentrant model
  4047 ;;
  4048                           
  4049                           
  4050                           ;psect for function _ADC_SetInterruptHandler
  4051  08DF                     _ADC_SetInterruptHandler:
  4052  08DF                     l5716:	
  4053                           ;incstack = 0
  4054                           ; Regs used in _ADC_SetInterruptHandler: [wreg]
  4055                           
  4056                           
  4057                           ;mcc_generated_files/adc.c: 160:     ADC_InterruptHandler = InterruptHandler;
  4058  08DF  0021               	movlb	1	; select bank1
  4059  08E0  0863               	movf	(ADC_SetInterruptHandler@InterruptHandler+1)^(0+128),w
  4060  08E1  00CD               	movwf	(_ADC_InterruptHandler+1)^(0+128)
  4061  08E2  0862               	movf	ADC_SetInterruptHandler@InterruptHandler^(0+128),w
  4062  08E3  00CC               	movwf	_ADC_InterruptHandler^(0+128)
  4063  08E4                     l1129:
  4064  08E4  0008               	return
  4065  08E5                     __end_of_ADC_SetInterruptHandler:
  4066                           
  4067                           	psect	intentry
  4068  0004                     __pintentry:	
  4069 ;; *************** function _INTERRUPT_InterruptManager *****************
  4070 ;; Defined at:
  4071 ;;		line 52 in file "mcc_generated_files/interrupt_manager.c"
  4072 ;; Parameters:    Size  Location     Type
  4073 ;;		None
  4074 ;; Auto vars:     Size  Location     Type
  4075 ;;		None
  4076 ;; Return value:  Size  Location     Type
  4077 ;;                  1    wreg      void 
  4078 ;; Registers used:
  4079 ;;		wreg, fsr0l, fsr0h, fsr1l, fsr1h, status,2, status,0, pclath, cstack
  4080 ;; Tracked objects:
  4081 ;;		On entry : 0/0
  4082 ;;		On exit  : 0/0
  4083 ;;		Unchanged: 0/0
  4084 ;; Data sizes:     COMMON  BANK0h   BANK1   BANK2   BANK3   BANK4   BANK5   BANK6   BANK7   BANK8   BANK9  BANK10  BANK1
      +1  BANK12
  4085 ;;      Params:         0       0       0       0       0       0       0       0       0       0       0       0       
      +0       0
  4086 ;;      Locals:         0       0       0       0       0       0       0       0       0       0       0       0       
      +0       0
  4087 ;;      Temps:          0       0       0       0       0       0       0       0       0       0       0       0       
      +0       0
  4088 ;;      Totals:         0       0       0       0       0       0       0       0       0       0       0       0       
      +0       0
  4089 ;;Total ram usage:        0 bytes
  4090 ;; Hardware stack levels used:    1
  4091 ;; Hardware stack levels required when called:    7
  4092 ;; This function calls:
  4093 ;;		Absolute function
  4094 ;;		_ADC_ISR
  4095 ;;		_I2C_MasterIsr
  4096 ;;		_PIN_MANAGER_IOC
  4097 ;;		_USBDeviceTasks
  4098 ;; This function is called by:
  4099 ;;		Interrupt level 1
  4100 ;; This function uses a non-reentrant model
  4101 ;;
  4102                           
  4103  0004                     _INTERRUPT_InterruptManager:
  4104                           
  4105                           ;incstack = 0
  4106  0004  147E               	bsf	int$flags,0	;set compiler interrupt flag (level 1)
  4107                           
  4108                           ; Regs used in _INTERRUPT_InterruptManager: [wreg-fsr1h+status,2+status,0+pclath+cstack]
  4109  0005  3180               	pagesel	$
  4110  0006                     i1l6016:
  4111                           
  4112                           ;mcc_generated_files/interrupt_manager.c: 55:     if(INTCONbits.IOCIE == 1 && INTCONbits
      +                          .IOCIF == 1)
  4113  0006  1D8B               	btfss	11,3	;volatile
  4114  0007  2809               	goto	u399_21
  4115  0008  280A               	goto	u399_20
  4116  0009                     u399_21:
  4117  0009  2812               	goto	i1l1024
  4118  000A                     u399_20:
  4119  000A                     i1l6018:
  4120  000A  1C0B               	btfss	11,0	;volatile
  4121  000B  280D               	goto	u400_21
  4122  000C  280E               	goto	u400_20
  4123  000D                     u400_21:
  4124  000D  2812               	goto	i1l1024
  4125  000E                     u400_20:
  4126  000E                     i1l6020:
  4127                           
  4128                           ;mcc_generated_files/interrupt_manager.c: 56:     {;mcc_generated_files/interrupt_manage
      +                          r.c: 57:         PIN_MANAGER_IOC();
  4129  000E  3189  2111  3180   	fcall	_PIN_MANAGER_IOC
  4130                           
  4131                           ;mcc_generated_files/interrupt_manager.c: 58:     }
  4132  0011  284E               	goto	i1l1036
  4133  0012                     i1l1024:	
  4134                           ;mcc_generated_files/interrupt_manager.c: 59:     else if(INTCONbits.PEIE == 1)
  4135                           
  4136  0012  1F0B               	btfss	11,6	;volatile
  4137  0013  2815               	goto	u401_21
  4138  0014  2816               	goto	u401_20
  4139  0015                     u401_21:
  4140  0015  284E               	goto	i1l1036
  4141  0016                     u401_20:
  4142  0016                     i1l6022:
  4143                           
  4144                           ;mcc_generated_files/interrupt_manager.c: 60:     {;mcc_generated_files/interrupt_manage
      +                          r.c: 61:         if(PIE1bits.ADIE == 1 && PIR1bits.ADIF == 1)
  4145  0016  0021               	movlb	1	; select bank1
  4146  0017  1F11               	btfss	17,6	;volatile
  4147  0018  281A               	goto	u402_21
  4148  0019  281B               	goto	u402_20
  4149  001A                     u402_21:
  4150  001A  2824               	goto	i1l1027
  4151  001B                     u402_20:
  4152  001B                     i1l6024:
  4153  001B  0020               	movlb	0	; select bank0
  4154  001C  1F11               	btfss	17,6	;volatile
  4155  001D  281F               	goto	u403_21
  4156  001E  2820               	goto	u403_20
  4157  001F                     u403_21:
  4158  001F  2824               	goto	i1l1027
  4159  0020                     u403_20:
  4160  0020                     i1l6026:
  4161                           
  4162                           ;mcc_generated_files/interrupt_manager.c: 62:         {;mcc_generated_files/interrupt_ma
      +                          nager.c: 63:             ADC_ISR();
  4163  0020  3189  213E  3180   	fcall	_ADC_ISR
  4164                           
  4165                           ;mcc_generated_files/interrupt_manager.c: 64:         }
  4166  0023  284E               	goto	i1l1036
  4167  0024                     i1l1027:	
  4168                           ;mcc_generated_files/interrupt_manager.c: 65:         else if(PIE2bits.USBIE == 1 && PIR
      +                          2bits.USBIF == 1)
  4169                           
  4170  0024  0021               	movlb	1	; select bank1
  4171  0025  1D12               	btfss	18,2	;volatile
  4172  0026  2828               	goto	u404_21
  4173  0027  2829               	goto	u404_20
  4174  0028                     u404_21:
  4175  0028  2832               	goto	i1l1029
  4176  0029                     u404_20:
  4177  0029                     i1l6028:
  4178  0029  0020               	movlb	0	; select bank0
  4179  002A  1D12               	btfss	18,2	;volatile
  4180  002B  282D               	goto	u405_21
  4181  002C  282E               	goto	u405_20
  4182  002D                     u405_21:
  4183  002D  2832               	goto	i1l1029
  4184  002E                     u405_20:
  4185  002E                     i1l6030:
  4186                           
  4187                           ;mcc_generated_files/interrupt_manager.c: 66:         {;mcc_generated_files/interrupt_ma
      +                          nager.c: 67:             USBDeviceTasks();
  4188  002E  3181  21B2  3180   	fcall	_USBDeviceTasks
  4189                           
  4190                           ;mcc_generated_files/interrupt_manager.c: 68:         }
  4191  0031  284E               	goto	i1l1036
  4192  0032                     i1l1029:	
  4193                           ;mcc_generated_files/interrupt_manager.c: 69:         else if(PIE2bits.BCL1IE == 1 && PI
      +                          R2bits.BCL1IF == 1)
  4194                           
  4195  0032  0021               	movlb	1	; select bank1
  4196  0033  1D92               	btfss	18,3	;volatile
  4197  0034  2836               	goto	u406_21
  4198  0035  2837               	goto	u406_20
  4199  0036                     u406_21:
  4200  0036  2843               	goto	i1l1031
  4201  0037                     u406_20:
  4202  0037                     i1l6032:
  4203  0037  0020               	movlb	0	; select bank0
  4204  0038  1D92               	btfss	18,3	;volatile
  4205  0039  283B               	goto	u407_21
  4206  003A  283C               	goto	u407_20
  4207  003B                     u407_21:
  4208  003B  2843               	goto	i1l1031
  4209  003C                     u407_20:
  4210  003C                     i1l6034:
  4211                           
  4212                           ;mcc_generated_files/interrupt_manager.c: 70:         {;mcc_generated_files/interrupt_ma
      +                          nager.c: 71:             MSSP_InterruptHandler();
  4213  003C  0021               	movlb	1	; select bank1
  4214  003D  0853               	movf	(_MSSP_InterruptHandler+1)^(0+128),w
  4215  003E  008A               	movwf	10
  4216  003F  0852               	movf	_MSSP_InterruptHandler^(0+128),w
  4217  0040  000A               	callw
  4218  0041  3180               	pagesel	$
  4219                           
  4220                           ;mcc_generated_files/interrupt_manager.c: 72:         }
  4221  0042  284E               	goto	i1l1036
  4222  0043                     i1l1031:	
  4223                           ;mcc_generated_files/interrupt_manager.c: 73:         else if(PIE1bits.SSP1IE == 1 && PI
      +                          R1bits.SSP1IF == 1)
  4224                           
  4225  0043  0021               	movlb	1	; select bank1
  4226  0044  1D91               	btfss	17,3	;volatile
  4227  0045  2847               	goto	u408_21
  4228  0046  2848               	goto	u408_20
  4229  0047                     u408_21:
  4230  0047  284E               	goto	i1l1030
  4231  0048                     u408_20:
  4232  0048                     i1l6036:
  4233  0048  0020               	movlb	0	; select bank0
  4234  0049  1D91               	btfss	17,3	;volatile
  4235  004A  284C               	goto	u409_21
  4236  004B  284D               	goto	u409_20
  4237  004C                     u409_21:
  4238  004C  284E               	goto	i1l1030
  4239  004D                     u409_20:
  4240  004D  283C               	goto	i1l6034
  4241  004E                     i1l1030:
  4242  004E                     i1l1036:
  4243  004E  107E               	bcf	int$flags,0	;clear compiler interrupt flag (level 1)
  4244  004F  0009               	retfie
  4245  0050                     __end_of_INTERRUPT_InterruptManager:
  4246                           
  4247                           	psect	text12
  4248  01B2                     __ptext12:	
  4249 ;; *************** function _USBDeviceTasks *****************
  4250 ;; Defined at:
  4251 ;;		line 481 in file "mcc_generated_files/usb/usb_device.c"
  4252 ;; Parameters:    Size  Location     Type
  4253 ;;		None
  4254 ;; Auto vars:     Size  Location     Type
  4255 ;;  i               1    9[BANK0h] unsigned char 
  4256 ;; Return value:  Size  Location     Type
  4257 ;;                  1    wreg      void 
  4258 ;; Registers used:
  4259 ;;		wreg, fsr0l, fsr0h, fsr1l, fsr1h, status,2, status,0, pclath, cstack
  4260 ;; Tracked objects:
  4261 ;;		On entry : 0/0
  4262 ;;		On exit  : 0/0
  4263 ;;		Unchanged: 0/0
  4264 ;; Data sizes:     COMMON  BANK0h   BANK1   BANK2   BANK3   BANK4   BANK5   BANK6   BANK7   BANK8   BANK9  BANK10  BANK1
      +1  BANK12
  4265 ;;      Params:         0       0       0       0       0       0       0       0       0       0       0       0       
      +0       0
  4266 ;;      Locals:         0       1       0       0       0       0       0       0       0       0       0       0       
      +0       0
  4267 ;;      Temps:          0       2       0       0       0       0       0       0       0       0       0       0       
      +0       0
  4268 ;;      Totals:         0       3       0       0       0       0       0       0       0       0       0       0       
      +0       0
  4269 ;;Total ram usage:        3 bytes
  4270 ;; Hardware stack levels used:    1
  4271 ;; Hardware stack levels required when called:    6
  4272 ;; This function calls:
  4273 ;;		_USBCtrlEPAllowStatusStage
  4274 ;;		_USBCtrlEPService
  4275 ;;		_USBIncrement1msInternalTimers
  4276 ;;		_USBStallHandler
  4277 ;;		_USBSuspend
  4278 ;;		_USBWakeFromSuspend
  4279 ;;		_USER_USB_CALLBACK_EVENT_HANDLER
  4280 ;;		i1_USBDeviceInit
  4281 ;; This function is called by:
  4282 ;;		_INTERRUPT_InterruptManager
  4283 ;; This function uses a non-reentrant model
  4284 ;;
  4285                           
  4286                           
  4287                           ;psect for function _USBDeviceTasks
  4288  01B2                     _USBDeviceTasks:
  4289  01B2                     i1l5906:	
  4290                           ;incstack = 0
  4291                           ; Regs used in _USBDeviceTasks: [wreg-fsr1h+status,2+status,0+pclath+cstack]
  4292                           
  4293                           
  4294                           ;mcc_generated_files/usb/usb_device.c: 483:     uint8_t i;;mcc_generated_files/usb/usb_d
      +                          evice.c: 594:     if(USBDeviceState == ATTACHED_STATE)
  4295  01B2  0020               	movlb	0	; select bank0
  4296  01B3  035D               	decf	_USBDeviceState,w	;volatile
  4297  01B4  1D03               	btfss	3,2
  4298  01B5  29B7               	goto	u376_21
  4299  01B6  29B8               	goto	u376_20
  4300  01B7                     u376_21:
  4301  01B7  29C5               	goto	i1l5918
  4302  01B8                     u376_20:
  4303  01B8                     i1l5908:
  4304                           
  4305                           ;mcc_generated_files/usb/usb_device.c: 595:     {;mcc_generated_files/usb/usb_device.c: 
      +                          605:         if(!UCONbits.SE0)
  4306  01B8  003D               	movlb	29	; select bank29
  4307  01B9  1A8E               	btfsc	14,5	;volatile
  4308  01BA  29BC               	goto	u377_21
  4309  01BB  29BD               	goto	u377_20
  4310  01BC                     u377_21:
  4311  01BC  29C5               	goto	i1l5918
  4312  01BD                     u377_20:
  4313  01BD                     i1l5910:
  4314                           
  4315                           ;mcc_generated_files/usb/usb_device.c: 606:         {;mcc_generated_files/usb/usb_device
      +                          .c: 612:                 {UIR = 0;};
  4316  01BD  0190               	clrf	16	;volatile
  4317  01BE                     i1l5912:
  4318                           
  4319                           ;mcc_generated_files/usb/usb_device.c: 618:             UIEbits.URSTIE = 1;
  4320  01BE  1412               	bsf	18,0	;volatile
  4321  01BF                     i1l5914:
  4322                           
  4323                           ;mcc_generated_files/usb/usb_device.c: 619:             UIEbits.IDLEIE = 1;
  4324  01BF  1612               	bsf	18,4	;volatile
  4325  01C0                     i1l5916:
  4326                           
  4327                           ;mcc_generated_files/usb/usb_device.c: 620:             USBDeviceState = POWERED_STATE;
  4328  01C0  3002               	movlw	2
  4329  01C1  0020               	movlb	0	; select bank0
  4330  01C2  00E7               	movwf	??_USBDeviceTasks
  4331  01C3  0867               	movf	??_USBDeviceTasks,w
  4332  01C4  00DD               	movwf	_USBDeviceState	;volatile
  4333  01C5                     i1l5918:
  4334                           
  4335                           ;mcc_generated_files/usb/usb_device.c: 638:     if(UIRbits.ACTVIF && UIEbits.ACTVIE)
  4336  01C5  003D               	movlb	29	; select bank29
  4337  01C6  1D10               	btfss	16,2	;volatile
  4338  01C7  29C9               	goto	u378_21
  4339  01C8  29CA               	goto	u378_20
  4340  01C9                     u378_21:
  4341  01C9  29D7               	goto	i1l5926
  4342  01CA                     u378_20:
  4343  01CA                     i1l5920:
  4344  01CA  1D12               	btfss	18,2	;volatile
  4345  01CB  29CD               	goto	u379_21
  4346  01CC  29CE               	goto	u379_20
  4347  01CD                     u379_21:
  4348  01CD  29D7               	goto	i1l5926
  4349  01CE                     u379_20:
  4350  01CE                     i1l5922:
  4351                           
  4352                           ;mcc_generated_files/usb/usb_device.c: 639:     {;mcc_generated_files/usb/usb_device.c: 
      +                          640:         (UIR &= 0xFB);
  4353  01CE  30FB               	movlw	251
  4354  01CF  0020               	movlb	0	; select bank0
  4355  01D0  00E7               	movwf	??_USBDeviceTasks
  4356  01D1  0867               	movf	??_USBDeviceTasks,w
  4357  01D2  003D               	movlb	29	; select bank29
  4358  01D3  0590               	andwf	16,f	;volatile
  4359  01D4                     i1l5924:
  4360                           
  4361                           ;mcc_generated_files/usb/usb_device.c: 644:             USBWakeFromSuspend();
  4362  01D4  318A  2227  3181   	fcall	_USBWakeFromSuspend
  4363  01D7                     i1l5926:
  4364                           
  4365                           ;mcc_generated_files/usb/usb_device.c: 651:     if(UCONbits.SUSPND==1)
  4366  01D7  003D               	movlb	29	; select bank29
  4367  01D8  1C8E               	btfss	14,1	;volatile
  4368  01D9  29DB               	goto	u380_21
  4369  01DA  29DC               	goto	u380_20
  4370  01DB                     u380_21:
  4371  01DB  29DF               	goto	i1l312
  4372  01DC                     u380_20:
  4373  01DC                     i1l5928:
  4374                           
  4375                           ;mcc_generated_files/usb/usb_device.c: 652:     {;mcc_generated_files/usb/usb_device.c: 
      +                          653:         PIR2bits.USBIF = 0;;
  4376  01DC  0020               	movlb	0	; select bank0
  4377  01DD  1112               	bcf	18,2	;volatile
  4378                           
  4379                           ;mcc_generated_files/usb/usb_device.c: 654:         return;
  4380  01DE  2ACC               	goto	i1l313
  4381  01DF                     i1l312:	
  4382                           ;mcc_generated_files/usb/usb_device.c: 655:     }
  4383                           
  4384                           
  4385                           ;mcc_generated_files/usb/usb_device.c: 667:     if(UIRbits.URSTIF && UIEbits.URSTIE)
  4386  01DF  1C10               	btfss	16,0	;volatile
  4387  01E0  29E2               	goto	u381_21
  4388  01E1  29E3               	goto	u381_20
  4389  01E2                     u381_21:
  4390  01E2  29F6               	goto	i1l5940
  4391  01E3                     u381_20:
  4392  01E3                     i1l5930:
  4393  01E3  1C12               	btfss	18,0	;volatile
  4394  01E4  29E6               	goto	u382_21
  4395  01E5  29E7               	goto	u382_20
  4396  01E6                     u382_21:
  4397  01E6  29F6               	goto	i1l5940
  4398  01E7                     u382_20:
  4399  01E7                     i1l5932:
  4400                           
  4401                           ;mcc_generated_files/usb/usb_device.c: 668:     {;mcc_generated_files/usb/usb_device.c: 
      +                          669:         USBDeviceInit();
  4402  01E7  3184  2423  3181   	fcall	i1_USBDeviceInit
  4403  01EA                     i1l5934:
  4404                           
  4405                           ;mcc_generated_files/usb/usb_device.c: 673:         {PIE2bits.USBIE = 1;};
  4406  01EA  0021               	movlb	1	; select bank1
  4407  01EB  1512               	bsf	18,2	;volatile
  4408  01EC                     i1l5936:
  4409                           
  4410                           ;mcc_generated_files/usb/usb_device.c: 675:         USBDeviceState = DEFAULT_STATE;
  4411  01EC  3004               	movlw	4
  4412  01ED  0020               	movlb	0	; select bank0
  4413  01EE  00E7               	movwf	??_USBDeviceTasks
  4414  01EF  0867               	movf	??_USBDeviceTasks,w
  4415  01F0  00DD               	movwf	_USBDeviceState	;volatile
  4416  01F1                     i1l5938:
  4417                           
  4418                           ;mcc_generated_files/usb/usb_device.c: 685:         (UIR &= 0xFE);
  4419  01F1  30FE               	movlw	254
  4420  01F2  00E7               	movwf	??_USBDeviceTasks
  4421  01F3  0867               	movf	??_USBDeviceTasks,w
  4422  01F4  003D               	movlb	29	; select bank29
  4423  01F5  0590               	andwf	16,f	;volatile
  4424  01F6                     i1l5940:
  4425                           
  4426                           ;mcc_generated_files/usb/usb_device.c: 691:     if(UIRbits.IDLEIF && UIEbits.IDLEIE)
  4427  01F6  1E10               	btfss	16,4	;volatile
  4428  01F7  29F9               	goto	u383_21
  4429  01F8  29FA               	goto	u383_20
  4430  01F9                     u383_21:
  4431  01F9  2A01               	goto	i1l5946
  4432  01FA                     u383_20:
  4433  01FA                     i1l5942:
  4434  01FA  1E12               	btfss	18,4	;volatile
  4435  01FB  29FD               	goto	u384_21
  4436  01FC  29FE               	goto	u384_20
  4437  01FD                     u384_21:
  4438  01FD  2A01               	goto	i1l5946
  4439  01FE                     u384_20:
  4440  01FE                     i1l5944:
  4441                           
  4442                           ;mcc_generated_files/usb/usb_device.c: 692:     {;mcc_generated_files/usb/usb_device.c: 
      +                          698:             USBSuspend();
  4443  01FE  318A  220B  3181   	fcall	_USBSuspend
  4444  0201                     i1l5946:
  4445                           
  4446                           ;mcc_generated_files/usb/usb_device.c: 712:     if(UIRbits.SOFIF)
  4447  0201  003D               	movlb	29	; select bank29
  4448  0202  1F10               	btfss	16,6	;volatile
  4449  0203  2A05               	goto	u385_21
  4450  0204  2A06               	goto	u385_20
  4451  0205                     u385_21:
  4452  0205  2A32               	goto	i1l5962
  4453  0206                     u385_20:
  4454  0206                     i1l5948:
  4455                           
  4456                           ;mcc_generated_files/usb/usb_device.c: 713:     {;mcc_generated_files/usb/usb_device.c: 
      +                          715:         if(UIEbits.SOFIE)
  4457  0206  1F12               	btfss	18,6	;volatile
  4458  0207  2A09               	goto	u386_21
  4459  0208  2A0A               	goto	u386_20
  4460  0209                     u386_21:
  4461  0209  2A19               	goto	i1l5952
  4462  020A                     u386_20:
  4463  020A                     i1l5950:
  4464                           
  4465                           ;mcc_generated_files/usb/usb_device.c: 716:         {;mcc_generated_files/usb/usb_device
      +                          .c: 717:             USER_USB_CALLBACK_EVENT_HANDLER((USB_EVENT)EVENT_SOF,0,1);
  4466  020A  3073               	movlw	115
  4467  020B  00F3               	movwf	USER_USB_CALLBACK_EVENT_HANDLER@event
  4468  020C  3000               	movlw	0
  4469  020D  00F4               	movwf	USER_USB_CALLBACK_EVENT_HANDLER@event+1
  4470  020E  3000               	movlw	0
  4471  020F  00F5               	movwf	USER_USB_CALLBACK_EVENT_HANDLER@pdata
  4472  0210  3000               	movlw	0
  4473  0211  00F6               	movwf	USER_USB_CALLBACK_EVENT_HANDLER@pdata+1
  4474  0212  3001               	movlw	1
  4475  0213  00F7               	movwf	USER_USB_CALLBACK_EVENT_HANDLER@size
  4476  0214  3000               	movlw	0
  4477  0215  00F8               	movwf	USER_USB_CALLBACK_EVENT_HANDLER@size+1
  4478  0216  318B  2308  3181   	fcall	_USER_USB_CALLBACK_EVENT_HANDLER
  4479  0219                     i1l5952:
  4480                           
  4481                           ;mcc_generated_files/usb/usb_device.c: 719:         (UIR &= 0xBF);
  4482  0219  30BF               	movlw	191
  4483  021A  0020               	movlb	0	; select bank0
  4484  021B  00E7               	movwf	??_USBDeviceTasks
  4485  021C  0867               	movf	??_USBDeviceTasks,w
  4486  021D  003D               	movlb	29	; select bank29
  4487  021E  0590               	andwf	16,f	;volatile
  4488  021F                     i1l5954:
  4489                           
  4490                           ;mcc_generated_files/usb/usb_device.c: 722:             USBIncrement1msInternalTimers();
  4491  021F  3189  21EF  3181   	fcall	_USBIncrement1msInternalTimers
  4492  0222                     i1l5956:
  4493                           
  4494                           ;mcc_generated_files/usb/usb_device.c: 739:             if(USBStatusStageTimeoutCounter 
      +                          != 0u)
  4495  0222  0021               	movlb	1	; select bank1
  4496  0223  085A               	movf	_USBStatusStageTimeoutCounter^(0+128),w	;volatile
  4497  0224  1903               	btfsc	3,2
  4498  0225  2A27               	goto	u387_21
  4499  0226  2A28               	goto	u387_20
  4500  0227                     u387_21:
  4501  0227  2A2A               	goto	i1l318
  4502  0228                     u387_20:
  4503  0228                     i1l5958:
  4504                           
  4505                           ;mcc_generated_files/usb/usb_device.c: 740:             {;mcc_generated_files/usb/usb_de
      +                          vice.c: 741:                 USBStatusStageTimeoutCounter--;
  4506  0228  3001               	movlw	1
  4507  0229  02DA               	subwf	_USBStatusStageTimeoutCounter^(0+128),f	;volatile
  4508  022A                     i1l318:	
  4509                           ;mcc_generated_files/usb/usb_device.c: 742:             }
  4510                           
  4511                           
  4512                           ;mcc_generated_files/usb/usb_device.c: 748:             if(USBStatusStageTimeoutCounter 
      +                          == 0)
  4513  022A  085A               	movf	_USBStatusStageTimeoutCounter^(0+128),w	;volatile
  4514  022B  1D03               	btfss	3,2
  4515  022C  2A2E               	goto	u388_21
  4516  022D  2A2F               	goto	u388_20
  4517  022E                     u388_21:
  4518  022E  2A32               	goto	i1l5962
  4519  022F                     u388_20:
  4520  022F                     i1l5960:
  4521                           
  4522                           ;mcc_generated_files/usb/usb_device.c: 749:             {;mcc_generated_files/usb/usb_de
      +                          vice.c: 750:                 USBCtrlEPAllowStatusStage();
  4523  022F  318E  2614  3181   	fcall	_USBCtrlEPAllowStatusStage
  4524  0232                     i1l5962:
  4525                           
  4526                           ;mcc_generated_files/usb/usb_device.c: 755:     if(UIRbits.STALLIF && UIEbits.STALLIE)
  4527  0232  003D               	movlb	29	; select bank29
  4528  0233  1E90               	btfss	16,5	;volatile
  4529  0234  2A36               	goto	u389_21
  4530  0235  2A37               	goto	u389_20
  4531  0236                     u389_21:
  4532  0236  2A3E               	goto	i1l5968
  4533  0237                     u389_20:
  4534  0237                     i1l5964:
  4535  0237  1E92               	btfss	18,5	;volatile
  4536  0238  2A3A               	goto	u390_21
  4537  0239  2A3B               	goto	u390_20
  4538  023A                     u390_21:
  4539  023A  2A3E               	goto	i1l5968
  4540  023B                     u390_20:
  4541  023B                     i1l5966:
  4542                           
  4543                           ;mcc_generated_files/usb/usb_device.c: 756:     {;mcc_generated_files/usb/usb_device.c: 
      +                          757:         USBStallHandler();
  4544  023B  318A  22B1  3181   	fcall	_USBStallHandler
  4545  023E                     i1l5968:
  4546                           
  4547                           ;mcc_generated_files/usb/usb_device.c: 760:     if(UIRbits.UERRIF && UIEbits.UERRIE)
  4548  023E  003D               	movlb	29	; select bank29
  4549  023F  1C90               	btfss	16,1	;volatile
  4550  0240  2A42               	goto	u391_21
  4551  0241  2A43               	goto	u391_20
  4552  0242                     u391_21:
  4553  0242  2A58               	goto	i1l5976
  4554  0243                     u391_20:
  4555  0243                     i1l5970:
  4556  0243  1C92               	btfss	18,1	;volatile
  4557  0244  2A46               	goto	u392_21
  4558  0245  2A47               	goto	u392_20
  4559  0246                     u392_21:
  4560  0246  2A58               	goto	i1l5976
  4561  0247                     u392_20:
  4562  0247                     i1l5972:
  4563                           
  4564                           ;mcc_generated_files/usb/usb_device.c: 761:     {;mcc_generated_files/usb/usb_device.c: 
      +                          762:         USER_USB_CALLBACK_EVENT_HANDLER((USB_EVENT)EVENT_BUS_ERROR,0,1);
  4565  0247  30FF               	movlw	255
  4566  0248  00F3               	movwf	USER_USB_CALLBACK_EVENT_HANDLER@event
  4567  0249  307F               	movlw	127
  4568  024A  00F4               	movwf	USER_USB_CALLBACK_EVENT_HANDLER@event+1
  4569  024B  3000               	movlw	0
  4570  024C  00F5               	movwf	USER_USB_CALLBACK_EVENT_HANDLER@pdata
  4571  024D  3000               	movlw	0
  4572  024E  00F6               	movwf	USER_USB_CALLBACK_EVENT_HANDLER@pdata+1
  4573  024F  3001               	movlw	1
  4574  0250  00F7               	movwf	USER_USB_CALLBACK_EVENT_HANDLER@size
  4575  0251  3000               	movlw	0
  4576  0252  00F8               	movwf	USER_USB_CALLBACK_EVENT_HANDLER@size+1
  4577  0253  318B  2308  3181   	fcall	_USER_USB_CALLBACK_EVENT_HANDLER
  4578  0256                     i1l5974:
  4579                           
  4580                           ;mcc_generated_files/usb/usb_device.c: 763:         {UEIR = 0;};
  4581  0256  003D               	movlb	29	; select bank29
  4582  0257  0193               	clrf	19	;volatile
  4583  0258                     i1l5976:
  4584                           
  4585                           ;mcc_generated_files/usb/usb_device.c: 778:     if(USBDeviceState < DEFAULT_STATE)
  4586  0258  3004               	movlw	4
  4587  0259  0020               	movlb	0	; select bank0
  4588  025A  025D               	subwf	_USBDeviceState,w	;volatile
  4589  025B  1803               	skipnc
  4590  025C  2A5E               	goto	u393_21
  4591  025D  2A5F               	goto	u393_20
  4592  025E                     u393_21:
  4593  025E  2A61               	goto	i1l322
  4594  025F                     u393_20:
  4595  025F                     i1l5978:
  4596                           
  4597                           ;mcc_generated_files/usb/usb_device.c: 779:     {;mcc_generated_files/usb/usb_device.c: 
      +                          780:         PIR2bits.USBIF = 0;;
  4598  025F  1112               	bcf	18,2	;volatile
  4599                           
  4600                           ;mcc_generated_files/usb/usb_device.c: 781:         return;
  4601  0260  2ACC               	goto	i1l313
  4602  0261                     i1l322:	
  4603                           ;mcc_generated_files/usb/usb_device.c: 782:     }
  4604                           
  4605                           
  4606                           ;mcc_generated_files/usb/usb_device.c: 787:     if(UIEbits.TRNIE)
  4607  0261  003D               	movlb	29	; select bank29
  4608  0262  1D92               	btfss	18,3	;volatile
  4609  0263  2A65               	goto	u394_21
  4610  0264  2A66               	goto	u394_20
  4611  0265                     u394_21:
  4612  0265  2ACA               	goto	i1l323
  4613  0266                     u394_20:
  4614  0266                     i1l5980:
  4615                           
  4616                           ;mcc_generated_files/usb/usb_device.c: 788:     {;mcc_generated_files/usb/usb_device.c: 
      +                          789:         for(i = 0; i < 4u; i++)
  4617  0266  0020               	movlb	0	; select bank0
  4618  0267  01E9               	clrf	USBDeviceTasks@i
  4619  0268                     i1l324:
  4620                           
  4621                           ;mcc_generated_files/usb/usb_device.c: 790:         {;mcc_generated_files/usb/usb_device
      +                          .c: 791:             if(UIRbits.TRNIF)
  4622  0268  003D               	movlb	29	; select bank29
  4623  0269  1D90               	btfss	16,3	;volatile
  4624  026A  2A6C               	goto	u395_21
  4625  026B  2A6D               	goto	u395_20
  4626  026C                     u395_21:
  4627  026C  2ACA               	goto	i1l323
  4628  026D                     u395_20:
  4629  026D                     i1l5986:
  4630                           
  4631                           ;mcc_generated_files/usb/usb_device.c: 792:             {;mcc_generated_files/usb/usb_de
      +                          vice.c: 794:                 USTATcopy.Val = USTAT;
  4632  026D  080F               	movf	15,w	;volatile
  4633  026E  0020               	movlb	0	; select bank0
  4634  026F  00E7               	movwf	??_USBDeviceTasks
  4635  0270  0867               	movf	??_USBDeviceTasks,w
  4636  0271  00DE               	movwf	_USTATcopy	;volatile
  4637  0272                     i1l5988:
  4638                           
  4639                           ;mcc_generated_files/usb/usb_device.c: 795:                 endpoint_number = USTATcopy.
      +                          endpoint_number;
  4640  0272  0C5E               	rrf	_USTATcopy,w	;volatile
  4641  0273  00E7               	movwf	??_USBDeviceTasks
  4642  0274  0CE7               	rrf	??_USBDeviceTasks,f
  4643  0275  0C67               	rrf	??_USBDeviceTasks,w
  4644  0276  390F               	andlw	15
  4645  0277  00E8               	movwf	??_USBDeviceTasks+1
  4646  0278  0868               	movf	??_USBDeviceTasks+1,w
  4647  0279  0021               	movlb	1	; select bank1
  4648  027A  00DC               	movwf	_endpoint_number^(0+128)	;volatile
  4649  027B                     i1l5990:
  4650                           
  4651                           ;mcc_generated_files/usb/usb_device.c: 797:                 (UIR &= 0xF7);
  4652  027B  30F7               	movlw	247
  4653  027C  0020               	movlb	0	; select bank0
  4654  027D  00E7               	movwf	??_USBDeviceTasks
  4655  027E  0867               	movf	??_USBDeviceTasks,w
  4656  027F  003D               	movlb	29	; select bank29
  4657  0280  0590               	andwf	16,f	;volatile
  4658  0281                     i1l5992:
  4659                           
  4660                           ;mcc_generated_files/usb/usb_device.c: 802:                 if(USTATcopy.direction == 0)
  4661  0281  0020               	movlb	0	; select bank0
  4662  0282  195E               	btfsc	_USTATcopy,2	;volatile
  4663  0283  2A85               	goto	u396_21
  4664  0284  2A86               	goto	u396_20
  4665  0285                     u396_21:
  4666  0285  2A97               	goto	i1l5996
  4667  0286                     u396_20:
  4668  0286                     i1l5994:
  4669                           
  4670                           ;mcc_generated_files/usb/usb_device.c: 803:                 {;mcc_generated_files/usb/us
      +                          b_device.c: 804:                     ep_data_out[endpoint_number].bits.ping_pong_state ^
      +                          = 1;
  4671  0286  0021               	movlb	1	; select bank1
  4672  0287  085C               	movf	_endpoint_number^(0+128),w	;volatile
  4673  0288  3ECE               	addlw	(low (_ep_data_out| 0))& (0+255)
  4674  0289  0086               	movwf	6
  4675  028A  0187               	clrf	7
  4676  028B  0801               	movf	1,w
  4677  028C  3901               	andlw	1
  4678  028D  0020               	movlb	0	; select bank0
  4679  028E  00E7               	movwf	??_USBDeviceTasks
  4680  028F  3001               	movlw	1
  4681  0290  06E7               	xorwf	??_USBDeviceTasks,f
  4682  0291  0801               	movf	1,w
  4683  0292  0667               	xorwf	??_USBDeviceTasks,w
  4684  0293  39FE               	andlw	-2
  4685  0294  0667               	xorwf	??_USBDeviceTasks,w
  4686  0295  0081               	movwf	1
  4687                           
  4688                           ;mcc_generated_files/usb/usb_device.c: 805:                 }
  4689  0296  2AA7               	goto	i1l5998
  4690  0297                     i1l5996:
  4691                           
  4692                           ;mcc_generated_files/usb/usb_device.c: 807:                 {;mcc_generated_files/usb/us
      +                          b_device.c: 808:                     ep_data_in[endpoint_number].bits.ping_pong_state ^=
      +                           1;
  4693  0297  0021               	movlb	1	; select bank1
  4694  0298  085C               	movf	_endpoint_number^(0+128),w	;volatile
  4695  0299  3ED0               	addlw	(low (_ep_data_in| 0))& (0+255)
  4696  029A  0086               	movwf	6
  4697  029B  0187               	clrf	7
  4698  029C  0801               	movf	1,w
  4699  029D  3901               	andlw	1
  4700  029E  0020               	movlb	0	; select bank0
  4701  029F  00E7               	movwf	??_USBDeviceTasks
  4702  02A0  3001               	movlw	1
  4703  02A1  06E7               	xorwf	??_USBDeviceTasks,f
  4704  02A2  0801               	movf	1,w
  4705  02A3  0667               	xorwf	??_USBDeviceTasks,w
  4706  02A4  39FE               	andlw	-2
  4707  02A5  0667               	xorwf	??_USBDeviceTasks,w
  4708  02A6  0081               	movwf	1
  4709  02A7                     i1l5998:
  4710                           
  4711                           ;mcc_generated_files/usb/usb_device.c: 814:                 if(endpoint_number == 0)
  4712  02A7  0021               	movlb	1	; select bank1
  4713  02A8  085C               	movf	_endpoint_number^(0+128),w	;volatile
  4714  02A9  1D03               	btfss	3,2
  4715  02AA  2AAC               	goto	u397_21
  4716  02AB  2AAD               	goto	u397_20
  4717  02AC                     u397_21:
  4718  02AC  2AB1               	goto	i1l6002
  4719  02AD                     u397_20:
  4720  02AD                     i1l6000:
  4721                           
  4722                           ;mcc_generated_files/usb/usb_device.c: 815:                 {;mcc_generated_files/usb/us
      +                          b_device.c: 816:                     USBCtrlEPService();
  4723  02AD  318C  2495  3181   	fcall	_USBCtrlEPService
  4724                           
  4725                           ;mcc_generated_files/usb/usb_device.c: 817:                 }
  4726  02B0  2ABF               	goto	i1l6004
  4727  02B1                     i1l6002:
  4728                           
  4729                           ;mcc_generated_files/usb/usb_device.c: 819:                 {;mcc_generated_files/usb/us
      +                          b_device.c: 820:                     USER_USB_CALLBACK_EVENT_HANDLER((USB_EVENT)EVENT_TR
      +                          ANSFER,(uint8_t*)&USTATcopy.Val,0);
  4730  02B1  3072               	movlw	114
  4731  02B2  00F3               	movwf	USER_USB_CALLBACK_EVENT_HANDLER@event
  4732  02B3  3000               	movlw	0
  4733  02B4  00F4               	movwf	USER_USB_CALLBACK_EVENT_HANDLER@event+1
  4734  02B5  305E               	movlw	low _USTATcopy
  4735  02B6  00F5               	movwf	USER_USB_CALLBACK_EVENT_HANDLER@pdata
  4736  02B7  3000               	movlw	high _USTATcopy
  4737  02B8  00F6               	movwf	USER_USB_CALLBACK_EVENT_HANDLER@pdata+1
  4738  02B9  3000               	movlw	0
  4739  02BA  00F7               	movwf	USER_USB_CALLBACK_EVENT_HANDLER@size
  4740  02BB  00F8               	movwf	USER_USB_CALLBACK_EVENT_HANDLER@size+1
  4741  02BC  318B  2308  3181   	fcall	_USER_USB_CALLBACK_EVENT_HANDLER
  4742  02BF                     i1l6004:
  4743                           
  4744                           ;mcc_generated_files/usb/usb_device.c: 827:         }
  4745  02BF  3001               	movlw	1
  4746  02C0  0020               	movlb	0	; select bank0
  4747  02C1  00E7               	movwf	??_USBDeviceTasks
  4748  02C2  0867               	movf	??_USBDeviceTasks,w
  4749  02C3  07E9               	addwf	USBDeviceTasks@i,f
  4750  02C4                     i1l6006:
  4751  02C4  3004               	movlw	4
  4752  02C5  0269               	subwf	USBDeviceTasks@i,w
  4753  02C6  1C03               	skipc
  4754  02C7  2AC9               	goto	u398_21
  4755  02C8  2ACA               	goto	u398_20
  4756  02C9                     u398_21:
  4757  02C9  2A68               	goto	i1l324
  4758  02CA                     u398_20:
  4759  02CA                     i1l323:	
  4760                           ;mcc_generated_files/usb/usb_device.c: 828:     }
  4761                           
  4762                           
  4763                           ;mcc_generated_files/usb/usb_device.c: 830:     PIR2bits.USBIF = 0;;
  4764  02CA  0020               	movlb	0	; select bank0
  4765  02CB  1112               	bcf	18,2	;volatile
  4766  02CC                     i1l313:
  4767  02CC  0008               	return
  4768  02CD                     __end_of_USBDeviceTasks:
  4769                           
  4770                           	psect	text13
  4771  0423                     __ptext13:	
  4772 ;; *************** function i1_USBDeviceInit *****************
  4773 ;; Defined at:
  4774 ;;		line 281 in file "mcc_generated_files/usb/usb_device.c"
  4775 ;; Parameters:    Size  Location     Type
  4776 ;;		None
  4777 ;; Auto vars:     Size  Location     Type
  4778 ;;  p               2    1[COMMON] PTR unsigned char 
  4779 ;;		 -> UEP1(1), 
  4780 ;;  i               1    4[COMMON] unsigned char 
  4781 ;;  i               1    3[COMMON] unsigned char 
  4782 ;; Return value:  Size  Location     Type
  4783 ;;                  1    wreg      void 
  4784 ;; Registers used:
  4785 ;;		wreg, fsr1l, fsr1h, status,2, status,0
  4786 ;; Tracked objects:
  4787 ;;		On entry : 0/0
  4788 ;;		On exit  : 0/0
  4789 ;;		Unchanged: 0/0
  4790 ;; Data sizes:     COMMON  BANK0h   BANK1   BANK2   BANK3   BANK4   BANK5   BANK6   BANK7   BANK8   BANK9  BANK10  BANK1
      +1  BANK12
  4791 ;;      Params:         0       0       0       0       0       0       0       0       0       0       0       0       
      +0       0
  4792 ;;      Locals:         4       0       0       0       0       0       0       0       0       0       0       0       
      +0       0
  4793 ;;      Temps:          1       0       0       0       0       0       0       0       0       0       0       0       
      +0       0
  4794 ;;      Totals:         5       0       0       0       0       0       0       0       0       0       0       0       
      +0       0
  4795 ;;Total ram usage:        5 bytes
  4796 ;; Hardware stack levels used:    1
  4797 ;; This function calls:
  4798 ;;		Nothing
  4799 ;; This function is called by:
  4800 ;;		_USBDeviceTasks
  4801 ;; This function uses a non-reentrant model
  4802 ;;
  4803                           
  4804                           
  4805                           ;psect for function i1_USBDeviceInit
  4806  0423                     i1_USBDeviceInit:
  4807  0423                     i1l4972:	
  4808                           ;incstack = 0
  4809                           ; Regs used in i1_USBDeviceInit: [wreg+fsr1l+fsr1h+status,2+status,0]
  4810                           
  4811                           
  4812                           ;mcc_generated_files/usb/usb_device.c: 283:     uint8_t i;;mcc_generated_files/usb/usb_d
      +                          evice.c: 285:     {PIE2bits.USBIE = 0;};
  4813  0423  0021               	movlb	1	; select bank1
  4814  0424  1112               	bcf	18,2	;volatile
  4815  0425                     i1l4974:
  4816                           
  4817                           ;mcc_generated_files/usb/usb_device.c: 292:     {UEIR = 0;};
  4818  0425  003D               	movlb	29	; select bank29
  4819  0426  0193               	clrf	19	;volatile
  4820                           
  4821                           ;mcc_generated_files/usb/usb_device.c: 295:     {UIR = 0;};
  4822  0427  0190               	clrf	16	;volatile
  4823                           
  4824                           ;mcc_generated_files/usb/usb_device.c: 298:     UEP0 = 0;
  4825  0428  0198               	clrf	24	;volatile
  4826  0429                     i1l4976:
  4827                           
  4828                           ;mcc_generated_files/usb/usb_device.c: 300:     { uint8_t i; uint8_t* p = (uint8_t*)&UEP
      +                          1; for(i=0;i<1;i++) *p++ = 0; };
  4829  0429  300E               	movlw	14
  4830  042A  00F2               	movwf	i1USBDeviceInit@p+1
  4831  042B  3099               	movlw	153
  4832  042C  00F1               	movwf	i1USBDeviceInit@p
  4833  042D  01F3               	clrf	i1USBDeviceInit@i_1171
  4834  042E                     i1l4982:
  4835  042E  0871               	movf	i1USBDeviceInit@p,w
  4836  042F  0086               	movwf	6
  4837  0430  0872               	movf	i1USBDeviceInit@p+1,w
  4838  0431  0087               	movwf	7
  4839  0432  0181               	clrf	1
  4840  0433                     i1l4984:
  4841  0433  3001               	movlw	1
  4842  0434  07F1               	addwf	i1USBDeviceInit@p,f
  4843  0435  3000               	movlw	0
  4844  0436  3DF2               	addwfc	i1USBDeviceInit@p+1,f
  4845  0437                     i1l4986:
  4846  0437  3001               	movlw	1
  4847  0438  00F0               	movwf	??i1_USBDeviceInit
  4848  0439  0870               	movf	??i1_USBDeviceInit,w
  4849  043A  07F3               	addwf	i1USBDeviceInit@i_1171,f
  4850  043B                     i1l4988:
  4851  043B  0873               	movf	i1USBDeviceInit@i_1171,w
  4852  043C  1903               	btfsc	3,2
  4853  043D  2C3F               	goto	u290_21
  4854  043E  2C40               	goto	u290_20
  4855  043F                     u290_21:
  4856  043F  2C2E               	goto	i1l4982
  4857  0440                     u290_20:
  4858  0440                     i1l4990:
  4859                           
  4860                           ;mcc_generated_files/usb/usb_device.c: 302:     { UCFG = 0x10 | 0x00 | 0x00 | 0x02; UEIE
      +                           = 0x9F; UIE = 0x39 | 0x40 | 0x02; };
  4861  0440  3012               	movlw	18
  4862  0441  003D               	movlb	29	; select bank29
  4863  0442  0091               	movwf	17	;volatile
  4864  0443  309F               	movlw	159
  4865  0444  0097               	movwf	23	;volatile
  4866  0445  307B               	movlw	123
  4867  0446  0092               	movwf	18	;volatile
  4868  0447                     i1l4992:
  4869                           
  4870                           ;mcc_generated_files/usb/usb_device.c: 311:     for(i = 0; i < (sizeof(BDT)/sizeof(BDT_E
      +                          NTRY)); i++)
  4871  0447  01F4               	clrf	i1USBDeviceInit@i
  4872  0448                     i1l4998:
  4873                           
  4874                           ;mcc_generated_files/usb/usb_device.c: 312:     {;mcc_generated_files/usb/usb_device.c: 
      +                          313:         BDT[i].Val = 0x00;
  4875  0448  0874               	movf	i1USBDeviceInit@i,w
  4876  0449  00F0               	movwf	??i1_USBDeviceInit
  4877  044A  3001               	movlw	1
  4878  044B                     u291_25:
  4879  044B  35F0               	lslf	??i1_USBDeviceInit,f
  4880  044C  3EFF               	addlw	-1
  4881  044D  1D03               	skipz
  4882  044E  2C4B               	goto	u291_25
  4883  044F  3570               	lslf	??i1_USBDeviceInit,w
  4884  0450  3E20               	addlw	32
  4885  0451  0086               	movwf	6
  4886  0452  0187               	clrf	7
  4887  0453  3000               	movlw	0
  4888  0454  3FC0               	movwi [0]fsr1
  4889  0455  3000               	movlw	0
  4890  0456  3FC1               	movwi [1]fsr1
  4891  0457  3FC2               	movwi [2]fsr1
  4892  0458  3FC3               	movwi [3]fsr1
  4893  0459                     i1l5000:
  4894                           
  4895                           ;mcc_generated_files/usb/usb_device.c: 314:     }
  4896  0459  3001               	movlw	1
  4897  045A  00F0               	movwf	??i1_USBDeviceInit
  4898  045B  0870               	movf	??i1_USBDeviceInit,w
  4899  045C  07F4               	addwf	i1USBDeviceInit@i,f
  4900  045D                     i1l5002:
  4901  045D  3008               	movlw	8
  4902  045E  0274               	subwf	i1USBDeviceInit@i,w
  4903  045F  1C03               	skipc
  4904  0460  2C62               	goto	u292_21
  4905  0461  2C63               	goto	u292_20
  4906  0462                     u292_21:
  4907  0462  2C48               	goto	i1l4998
  4908  0463                     u292_20:
  4909  0463                     i1l301:
  4910                           
  4911                           ;mcc_generated_files/usb/usb_device.c: 317:     UCONbits.PPBRST = 1;
  4912  0463  003D               	movlb	29	; select bank29
  4913  0464  170E               	bsf	14,6	;volatile
  4914  0465                     i1l5004:
  4915                           
  4916                           ;mcc_generated_files/usb/usb_device.c: 320:     UADDR = 0x00;
  4917  0465  0196               	clrf	22	;volatile
  4918  0466                     i1l5006:
  4919                           
  4920                           ;mcc_generated_files/usb/usb_device.c: 323:     UCONbits.PKTDIS = 0;
  4921  0466  120E               	bcf	14,4	;volatile
  4922  0467                     i1l5008:
  4923                           
  4924                           ;mcc_generated_files/usb/usb_device.c: 326:     UCONbits.PPBRST = 0;
  4925  0467  130E               	bcf	14,6	;volatile
  4926  0468                     i1l5010:
  4927                           
  4928                           ;mcc_generated_files/usb/usb_device.c: 330:     {;mcc_generated_files/usb/usb_device.c: 
      +                          331:         (UIR &= 0xF7);
  4929  0468  30F7               	movlw	247
  4930  0469  00F0               	movwf	??i1_USBDeviceInit
  4931  046A  0870               	movf	??i1_USBDeviceInit,w
  4932  046B  0590               	andwf	16,f	;volatile
  4933  046C                     i1l5012:
  4934                           
  4935                           ;mcc_generated_files/usb/usb_device.c: 333:         inPipes[0].info.Val = 0;
  4936  046C  0020               	movlb	0	; select bank0
  4937  046D  01D2               	clrf	_inPipes+2	;volatile
  4938  046E                     i1l5014:
  4939                           
  4940                           ;mcc_generated_files/usb/usb_device.c: 334:         outPipes[0].info.Val = 0;
  4941  046E  0021               	movlb	1	; select bank1
  4942  046F  01BF               	clrf	(_outPipes^(0+128)+2)	;volatile
  4943  0470                     i1l5016:
  4944                           
  4945                           ;mcc_generated_files/usb/usb_device.c: 335:         outPipes[0].wCount.Val = 0;
  4946  0470  01C0               	clrf	(_outPipes^(0+128)+3)	;volatile
  4947  0471  01C1               	clrf	((_outPipes+1)^(0+128)+3)	;volatile
  4948  0472                     i1l5018:
  4949                           
  4950                           ;mcc_generated_files/usb/usb_device.c: 336:     }while(UIRbits.TRNIF == 1);
  4951  0472  003D               	movlb	29	; select bank29
  4952  0473  1990               	btfsc	16,3	;volatile
  4953  0474  2C76               	goto	u293_21
  4954  0475  2C77               	goto	u293_20
  4955  0476                     u293_21:
  4956  0476  2C68               	goto	i1l5010
  4957  0477                     u293_20:
  4958  0477                     i1l5020:
  4959                           
  4960                           ;mcc_generated_files/usb/usb_device.c: 340:     USBStatusStageEnabledFlag1 = 1;
  4961  0477  3001               	movlw	1
  4962  0478  00F0               	movwf	??i1_USBDeviceInit
  4963  0479  0870               	movf	??i1_USBDeviceInit,w
  4964  047A  0021               	movlb	1	; select bank1
  4965  047B  00D8               	movwf	_USBStatusStageEnabledFlag1^(0+128)	;volatile
  4966                           
  4967                           ;mcc_generated_files/usb/usb_device.c: 341:     USBStatusStageEnabledFlag2 = 1;
  4968  047C  3001               	movlw	1
  4969  047D  00F0               	movwf	??i1_USBDeviceInit
  4970  047E  0870               	movf	??i1_USBDeviceInit,w
  4971  047F  00D7               	movwf	_USBStatusStageEnabledFlag2^(0+128)	;volatile
  4972  0480                     i1l5022:
  4973                           
  4974                           ;mcc_generated_files/usb/usb_device.c: 343:     USBDeferINDataStagePackets = 0;
  4975  0480  01D6               	clrf	_USBDeferINDataStagePackets^(0+128)	;volatile
  4976  0481                     i1l5024:
  4977                           
  4978                           ;mcc_generated_files/usb/usb_device.c: 344:     USBDeferOUTDataStagePackets = 0;
  4979  0481  01D5               	clrf	_USBDeferOUTDataStagePackets^(0+128)	;volatile
  4980  0482                     i1l5026:
  4981                           
  4982                           ;mcc_generated_files/usb/usb_device.c: 345:     USBBusIsSuspended = 0;
  4983  0482  01DD               	clrf	_USBBusIsSuspended^(0+128)	;volatile
  4984  0483                     i1l5028:
  4985                           
  4986                           ;mcc_generated_files/usb/usb_device.c: 349:     for(i = 0; i < (uint8_t)(1 +1u); i++)
  4987  0483  01F4               	clrf	i1USBDeviceInit@i
  4988  0484                     i1l5032:
  4989                           
  4990                           ;mcc_generated_files/usb/usb_device.c: 350:     {;mcc_generated_files/usb/usb_device.c: 
      +                          351:         pBDTEntryIn[i] = 0u;
  4991  0484  3574               	lslf	i1USBDeviceInit@i,w
  4992  0485  3E55               	addlw	(low (_pBDTEntryIn| 0))& (0+255)
  4993  0486  0086               	movwf	6
  4994  0487  0187               	clrf	7
  4995  0488  3000               	movlw	0
  4996  0489  3FC0               	movwi [0]fsr1
  4997  048A  3FC1               	movwi [1]fsr1
  4998                           
  4999                           ;mcc_generated_files/usb/usb_device.c: 352:         pBDTEntryOut[i] = 0u;
  5000  048B  3574               	lslf	i1USBDeviceInit@i,w
  5001  048C  3EC8               	addlw	(low (_pBDTEntryOut| 0))& (0+255)
  5002  048D  0086               	movwf	6
  5003  048E  0187               	clrf	7
  5004  048F  3000               	movlw	0
  5005  0490  3FC0               	movwi [0]fsr1
  5006  0491  3FC1               	movwi [1]fsr1
  5007                           
  5008                           ;mcc_generated_files/usb/usb_device.c: 353:         ep_data_in[i].Val = 0u;
  5009  0492  0874               	movf	i1USBDeviceInit@i,w
  5010  0493  3ED0               	addlw	(low (_ep_data_in| 0))& (0+255)
  5011  0494  0086               	movwf	6
  5012  0495  0187               	clrf	7
  5013  0496  0181               	clrf	1
  5014                           
  5015                           ;mcc_generated_files/usb/usb_device.c: 354:         ep_data_out[i].Val = 0u;
  5016  0497  0874               	movf	i1USBDeviceInit@i,w
  5017  0498  3ECE               	addlw	(low (_ep_data_out| 0))& (0+255)
  5018  0499  0086               	movwf	6
  5019  049A  0187               	clrf	7
  5020  049B  0181               	clrf	1
  5021  049C                     i1l5034:
  5022                           
  5023                           ;mcc_generated_files/usb/usb_device.c: 355:     }
  5024  049C  3001               	movlw	1
  5025  049D  00F0               	movwf	??i1_USBDeviceInit
  5026  049E  0870               	movf	??i1_USBDeviceInit,w
  5027  049F  07F4               	addwf	i1USBDeviceInit@i,f
  5028  04A0                     i1l5036:
  5029  04A0  3002               	movlw	2
  5030  04A1  0274               	subwf	i1USBDeviceInit@i,w
  5031  04A2  1C03               	skipc
  5032  04A3  2CA5               	goto	u294_21
  5033  04A4  2CA6               	goto	u294_20
  5034  04A5                     u294_21:
  5035  04A5  2C84               	goto	i1l5032
  5036  04A6                     u294_20:
  5037  04A6                     i1l5038:
  5038                           
  5039                           ;mcc_generated_files/usb/usb_device.c: 358:     pBDTEntryIn[0] = (volatile BDT_ENTRY*)&B
      +                          DT[2];
  5040  04A6  3028               	movlw	40
  5041  04A7  0020               	movlb	0	; select bank0
  5042  04A8  00D5               	movwf	_pBDTEntryIn
  5043  04A9  3000               	movlw	0
  5044  04AA  00D6               	movwf	_pBDTEntryIn+1
  5045  04AB                     i1l5040:
  5046                           
  5047                           ;mcc_generated_files/usb/usb_device.c: 360:     UEP0 = 0x06|0x10;
  5048  04AB  3016               	movlw	22
  5049  04AC  003D               	movlb	29	; select bank29
  5050  04AD  0098               	movwf	24	;volatile
  5051  04AE                     i1l5042:
  5052                           
  5053                           ;mcc_generated_files/usb/usb_device.c: 362:     BDT[0].ADR = (((uint16_t)(&SetupPkt)) & 
      +                          0x7FFF);
  5054  04AE  3000               	movlw	0
  5055  04AF  0020               	movlb	0	; select bank0
  5056  04B0  00A3               	movwf	35	;volatile
  5057  04B1  3040               	movlw	64
  5058  04B2  00A2               	movwf	34	;volatile
  5059  04B3                     i1l5044:
  5060                           
  5061                           ;mcc_generated_files/usb/usb_device.c: 363:     BDT[0].CNT = 8;
  5062  04B3  3008               	movlw	8
  5063  04B4  00A1               	movwf	33	;volatile
  5064  04B5                     i1l5046:
  5065                           
  5066                           ;mcc_generated_files/usb/usb_device.c: 364:     BDT[0].STAT.Val = 0x00|0x04;
  5067  04B5  3004               	movlw	4
  5068  04B6  00F0               	movwf	??i1_USBDeviceInit
  5069  04B7  0870               	movf	??i1_USBDeviceInit,w
  5070  04B8  00A0               	movwf	32	;volatile
  5071  04B9                     i1l5048:
  5072                           
  5073                           ;mcc_generated_files/usb/usb_device.c: 365:     BDT[0].STAT.Val |= 0x80;
  5074  04B9  17A0               	bsf	32,7	;volatile
  5075  04BA                     i1l5050:
  5076                           
  5077                           ;mcc_generated_files/usb/usb_device.c: 368:     USBActiveConfiguration = 0;
  5078  04BA  01DF               	clrf	_USBActiveConfiguration	;volatile
  5079  04BB                     i1l5052:
  5080                           
  5081                           ;mcc_generated_files/usb/usb_device.c: 370:     USB1msTickCount = 0;
  5082  04BB  3000               	movlw	0
  5083  04BC  0021               	movlb	1	; select bank1
  5084  04BD  00C7               	movwf	(_USB1msTickCount+3)^(0+128)	;volatile
  5085  04BE  3000               	movlw	0
  5086  04BF  00C6               	movwf	(_USB1msTickCount+2)^(0+128)	;volatile
  5087  04C0  3000               	movlw	0
  5088  04C1  00C5               	movwf	(_USB1msTickCount+1)^(0+128)	;volatile
  5089  04C2  3000               	movlw	0
  5090  04C3  00C4               	movwf	_USB1msTickCount^(0+128)	;volatile
  5091  04C4                     i1l5054:
  5092                           
  5093                           ;mcc_generated_files/usb/usb_device.c: 371:     USBTicksSinceSuspendEnd = 0;
  5094  04C4  01D4               	clrf	_USBTicksSinceSuspendEnd^(0+128)	;volatile
  5095  04C5                     i1l5056:
  5096                           
  5097                           ;mcc_generated_files/usb/usb_device.c: 374:     USBDeviceState = DETACHED_STATE;
  5098  04C5  0020               	movlb	0	; select bank0
  5099  04C6  01DD               	clrf	_USBDeviceState	;volatile
  5100  04C7                     i1l306:
  5101  04C7  0008               	return
  5102  04C8                     __end_ofi1_USBDeviceInit:
  5103                           
  5104                           	psect	text14
  5105  0A27                     __ptext14:	
  5106 ;; *************** function _USBWakeFromSuspend *****************
  5107 ;; Defined at:
  5108 ;;		line 2307 in file "mcc_generated_files/usb/usb_device.c"
  5109 ;; Parameters:    Size  Location     Type
  5110 ;;		None
  5111 ;; Auto vars:     Size  Location     Type
  5112 ;;		None
  5113 ;; Return value:  Size  Location     Type
  5114 ;;                  1    wreg      void 
  5115 ;; Registers used:
  5116 ;;		wreg, fsr0l, fsr0h, status,2, status,0, pclath, cstack
  5117 ;; Tracked objects:
  5118 ;;		On entry : 0/0
  5119 ;;		On exit  : 0/0
  5120 ;;		Unchanged: 0/0
  5121 ;; Data sizes:     COMMON  BANK0h   BANK1   BANK2   BANK3   BANK4   BANK5   BANK6   BANK7   BANK8   BANK9  BANK10  BANK1
      +1  BANK12
  5122 ;;      Params:         0       0       0       0       0       0       0       0       0       0       0       0       
      +0       0
  5123 ;;      Locals:         0       0       0       0       0       0       0       0       0       0       0       0       
      +0       0
  5124 ;;      Temps:          1       0       0       0       0       0       0       0       0       0       0       0       
      +0       0
  5125 ;;      Totals:         1       0       0       0       0       0       0       0       0       0       0       0       
      +0       0
  5126 ;;Total ram usage:        1 bytes
  5127 ;; Hardware stack levels used:    1
  5128 ;; Hardware stack levels required when called:    2
  5129 ;; This function calls:
  5130 ;;		_USER_USB_CALLBACK_EVENT_HANDLER
  5131 ;; This function is called by:
  5132 ;;		_USBDeviceTasks
  5133 ;; This function uses a non-reentrant model
  5134 ;;
  5135                           
  5136                           
  5137                           ;psect for function _USBWakeFromSuspend
  5138  0A27                     _USBWakeFromSuspend:
  5139  0A27                     i1l4808:	
  5140                           ;incstack = 0
  5141                           ; Regs used in _USBWakeFromSuspend: [wreg-fsr0h+status,2+status,0+pclath+cstack]
  5142                           
  5143                           
  5144                           ;mcc_generated_files/usb/usb_device.c: 2309:     USBBusIsSuspended = 0;
  5145  0A27  0021               	movlb	1	; select bank1
  5146  0A28  01DD               	clrf	_USBBusIsSuspended^(0+128)	;volatile
  5147  0A29                     i1l4810:
  5148                           
  5149                           ;mcc_generated_files/usb/usb_device.c: 2315:     USER_USB_CALLBACK_EVENT_HANDLER((USB_EV
      +                          ENT)EVENT_RESUME,0,0);
  5150  0A29  3074               	movlw	116
  5151  0A2A  00F3               	movwf	USER_USB_CALLBACK_EVENT_HANDLER@event
  5152  0A2B  3000               	movlw	0
  5153  0A2C  00F4               	movwf	USER_USB_CALLBACK_EVENT_HANDLER@event+1
  5154  0A2D  3000               	movlw	0
  5155  0A2E  00F5               	movwf	USER_USB_CALLBACK_EVENT_HANDLER@pdata
  5156  0A2F  3000               	movlw	0
  5157  0A30  00F6               	movwf	USER_USB_CALLBACK_EVENT_HANDLER@pdata+1
  5158  0A31  3000               	movlw	0
  5159  0A32  00F7               	movwf	USER_USB_CALLBACK_EVENT_HANDLER@size
  5160  0A33  00F8               	movwf	USER_USB_CALLBACK_EVENT_HANDLER@size+1
  5161  0A34  318B  2308  318A   	fcall	_USER_USB_CALLBACK_EVENT_HANDLER
  5162  0A37                     i1l4812:
  5163                           
  5164                           ;mcc_generated_files/usb/usb_device.c: 2322:         UCONbits.SUSPND = 0;
  5165  0A37  003D               	movlb	29	; select bank29
  5166  0A38  108E               	bcf	14,1	;volatile
  5167  0A39                     i1l4814:
  5168                           
  5169                           ;mcc_generated_files/usb/usb_device.c: 2327:     UIEbits.ACTVIE = 0;
  5170  0A39  1112               	bcf	18,2	;volatile
  5171                           
  5172                           ;mcc_generated_files/usb/usb_device.c: 2345:     while(UIRbits.ACTVIF)
  5173  0A3A  2A3F               	goto	i1l4818
  5174  0A3B                     i1l4816:
  5175                           
  5176                           ;mcc_generated_files/usb/usb_device.c: 2347:     {;mcc_generated_files/usb/usb_device.c:
      +                           2348:         (UIR &= 0xFB);
  5177  0A3B  30FB               	movlw	251
  5178  0A3C  00F9               	movwf	??_USBWakeFromSuspend
  5179  0A3D  0879               	movf	??_USBWakeFromSuspend,w
  5180  0A3E  0590               	andwf	16,f	;volatile
  5181  0A3F                     i1l4818:
  5182                           
  5183                           ;mcc_generated_files/usb/usb_device.c: 2345:     while(UIRbits.ACTVIF)
  5184  0A3F  1910               	btfsc	16,2	;volatile
  5185  0A40  2A42               	goto	u274_21
  5186  0A41  2A43               	goto	u274_20
  5187  0A42                     u274_21:
  5188  0A42  2A3B               	goto	i1l4816
  5189  0A43                     u274_20:
  5190  0A43                     i1l4820:
  5191                           
  5192                           ;mcc_generated_files/usb/usb_device.c: 2351:     USBTicksSinceSuspendEnd = 0;
  5193  0A43  0021               	movlb	1	; select bank1
  5194  0A44  01D4               	clrf	_USBTicksSinceSuspendEnd^(0+128)	;volatile
  5195  0A45                     i1l477:
  5196  0A45  0008               	return
  5197  0A46                     __end_of_USBWakeFromSuspend:
  5198                           
  5199                           	psect	text15
  5200  0A0B                     __ptext15:	
  5201 ;; *************** function _USBSuspend *****************
  5202 ;; Defined at:
  5203 ;;		line 2249 in file "mcc_generated_files/usb/usb_device.c"
  5204 ;; Parameters:    Size  Location     Type
  5205 ;;		None
  5206 ;; Auto vars:     Size  Location     Type
  5207 ;;		None
  5208 ;; Return value:  Size  Location     Type
  5209 ;;                  1    wreg      void 
  5210 ;; Registers used:
  5211 ;;		wreg, fsr0l, fsr0h, status,2, status,0, pclath, cstack
  5212 ;; Tracked objects:
  5213 ;;		On entry : 0/0
  5214 ;;		On exit  : 0/0
  5215 ;;		Unchanged: 0/0
  5216 ;; Data sizes:     COMMON  BANK0h   BANK1   BANK2   BANK3   BANK4   BANK5   BANK6   BANK7   BANK8   BANK9  BANK10  BANK1
      +1  BANK12
  5217 ;;      Params:         0       0       0       0       0       0       0       0       0       0       0       0       
      +0       0
  5218 ;;      Locals:         0       0       0       0       0       0       0       0       0       0       0       0       
      +0       0
  5219 ;;      Temps:          1       0       0       0       0       0       0       0       0       0       0       0       
      +0       0
  5220 ;;      Totals:         1       0       0       0       0       0       0       0       0       0       0       0       
      +0       0
  5221 ;;Total ram usage:        1 bytes
  5222 ;; Hardware stack levels used:    1
  5223 ;; Hardware stack levels required when called:    2
  5224 ;; This function calls:
  5225 ;;		_USER_USB_CALLBACK_EVENT_HANDLER
  5226 ;; This function is called by:
  5227 ;;		_USBDeviceTasks
  5228 ;; This function uses a non-reentrant model
  5229 ;;
  5230                           
  5231                           
  5232                           ;psect for function _USBSuspend
  5233  0A0B                     _USBSuspend:
  5234  0A0B                     i1l4822:	
  5235                           ;incstack = 0
  5236                           ; Regs used in _USBSuspend: [wreg-fsr0h+status,2+status,0+pclath+cstack]
  5237                           
  5238                           
  5239                           ;mcc_generated_files/usb/usb_device.c: 2274:     UIEbits.ACTVIE = 1;
  5240  0A0B  003D               	movlb	29	; select bank29
  5241  0A0C  1512               	bsf	18,2	;volatile
  5242  0A0D                     i1l4824:
  5243                           
  5244                           ;mcc_generated_files/usb/usb_device.c: 2275:     (UIR &= 0xEF);
  5245  0A0D  30EF               	movlw	239
  5246  0A0E  00F9               	movwf	??_USBSuspend
  5247  0A0F  0879               	movf	??_USBSuspend,w
  5248  0A10  0590               	andwf	16,f	;volatile
  5249  0A11                     i1l4826:
  5250                           
  5251                           ;mcc_generated_files/usb/usb_device.c: 2278:         UCONbits.SUSPND = 1;
  5252  0A11  148E               	bsf	14,1	;volatile
  5253  0A12                     i1l4828:
  5254                           
  5255                           ;mcc_generated_files/usb/usb_device.c: 2281:     USBBusIsSuspended = 1;
  5256  0A12  3001               	movlw	1
  5257  0A13  00F9               	movwf	??_USBSuspend
  5258  0A14  0879               	movf	??_USBSuspend,w
  5259  0A15  0021               	movlb	1	; select bank1
  5260  0A16  00DD               	movwf	_USBBusIsSuspended^(0+128)	;volatile
  5261  0A17                     i1l4830:
  5262                           
  5263                           ;mcc_generated_files/usb/usb_device.c: 2282:     USBTicksSinceSuspendEnd = 0;
  5264  0A17  01D4               	clrf	_USBTicksSinceSuspendEnd^(0+128)	;volatile
  5265  0A18                     i1l4832:
  5266                           
  5267                           ;mcc_generated_files/usb/usb_device.c: 2289:     USER_USB_CALLBACK_EVENT_HANDLER((USB_EV
      +                          ENT)EVENT_SUSPEND,0,0);
  5268  0A18  3075               	movlw	117
  5269  0A19  00F3               	movwf	USER_USB_CALLBACK_EVENT_HANDLER@event
  5270  0A1A  3000               	movlw	0
  5271  0A1B  00F4               	movwf	USER_USB_CALLBACK_EVENT_HANDLER@event+1
  5272  0A1C  3000               	movlw	0
  5273  0A1D  00F5               	movwf	USER_USB_CALLBACK_EVENT_HANDLER@pdata
  5274  0A1E  3000               	movlw	0
  5275  0A1F  00F6               	movwf	USER_USB_CALLBACK_EVENT_HANDLER@pdata+1
  5276  0A20  3000               	movlw	0
  5277  0A21  00F7               	movwf	USER_USB_CALLBACK_EVENT_HANDLER@size
  5278  0A22  00F8               	movwf	USER_USB_CALLBACK_EVENT_HANDLER@size+1
  5279  0A23  318B  2308  318A   	fcall	_USER_USB_CALLBACK_EVENT_HANDLER
  5280  0A26                     i1l471:
  5281  0A26  0008               	return
  5282  0A27                     __end_of_USBSuspend:
  5283                           
  5284                           	psect	text16
  5285  0AB1                     __ptext16:	
  5286 ;; *************** function _USBStallHandler *****************
  5287 ;; Defined at:
  5288 ;;		line 2206 in file "mcc_generated_files/usb/usb_device.c"
  5289 ;; Parameters:    Size  Location     Type
  5290 ;;		None
  5291 ;; Auto vars:     Size  Location     Type
  5292 ;;		None
  5293 ;; Return value:  Size  Location     Type
  5294 ;;                  1    wreg      void 
  5295 ;; Registers used:
  5296 ;;		wreg, fsr1l, fsr1h, status,2, status,0
  5297 ;; Tracked objects:
  5298 ;;		On entry : 0/0
  5299 ;;		On exit  : 0/0
  5300 ;;		Unchanged: 0/0
  5301 ;; Data sizes:     COMMON  BANK0h   BANK1   BANK2   BANK3   BANK4   BANK5   BANK6   BANK7   BANK8   BANK9  BANK10  BANK1
      +1  BANK12
  5302 ;;      Params:         0       0       0       0       0       0       0       0       0       0       0       0       
      +0       0
  5303 ;;      Locals:         0       0       0       0       0       0       0       0       0       0       0       0       
      +0       0
  5304 ;;      Temps:          1       0       0       0       0       0       0       0       0       0       0       0       
      +0       0
  5305 ;;      Totals:         1       0       0       0       0       0       0       0       0       0       0       0       
      +0       0
  5306 ;;Total ram usage:        1 bytes
  5307 ;; Hardware stack levels used:    1
  5308 ;; This function calls:
  5309 ;;		Nothing
  5310 ;; This function is called by:
  5311 ;;		_USBDeviceTasks
  5312 ;; This function uses a non-reentrant model
  5313 ;;
  5314                           
  5315                           
  5316                           ;psect for function _USBStallHandler
  5317  0AB1                     _USBStallHandler:
  5318  0AB1                     i1l4842:	
  5319                           ;incstack = 0
  5320                           ; Regs used in _USBStallHandler: [wreg+fsr1l+fsr1h+status,2+status,0]
  5321                           
  5322                           
  5323                           ;mcc_generated_files/usb/usb_device.c: 2218:     if(UEP0bits.EPSTALL == 1)
  5324  0AB1  003D               	movlb	29	; select bank29
  5325  0AB2  1C18               	btfss	24,0	;volatile
  5326  0AB3  2AB5               	goto	u277_21
  5327  0AB4  2AB6               	goto	u277_20
  5328  0AB5                     u277_21:
  5329  0AB5  2AD7               	goto	i1l4852
  5330  0AB6                     u277_20:
  5331  0AB6                     i1l4844:
  5332                           
  5333                           ;mcc_generated_files/usb/usb_device.c: 2219:     {;mcc_generated_files/usb/usb_device.c:
      +                           2221:         if((pBDTEntryEP0OutCurrent->STAT.Val == 0x80) && (pBDTEntryIn[0]->STAT.Va
      +                          l == (0x80|0x04)))
  5334  0AB6  0020               	movlb	0	; select bank0
  5335  0AB7  085C               	movf	_pBDTEntryEP0OutCurrent,w
  5336  0AB8  0086               	movwf	6
  5337  0AB9  0187               	clrf	7
  5338  0ABA  3080               	movlw	128
  5339  0ABB  0601               	xorwf	1,w
  5340  0ABC  1D03               	btfss	3,2
  5341  0ABD  2ABF               	goto	u278_21
  5342  0ABE  2AC0               	goto	u278_20
  5343  0ABF                     u278_21:
  5344  0ABF  2AD5               	goto	i1l4850
  5345  0AC0                     u278_20:
  5346  0AC0                     i1l4846:
  5347  0AC0  0855               	movf	_pBDTEntryIn,w
  5348  0AC1  0086               	movwf	6
  5349  0AC2  0856               	movf	_pBDTEntryIn+1,w
  5350  0AC3  0087               	movwf	7
  5351  0AC4  3084               	movlw	132
  5352  0AC5  0601               	xorwf	1,w
  5353  0AC6  1D03               	btfss	3,2
  5354  0AC7  2AC9               	goto	u279_21
  5355  0AC8  2ACA               	goto	u279_20
  5356  0AC9                     u279_21:
  5357  0AC9  2AD5               	goto	i1l4850
  5358  0ACA                     u279_20:
  5359  0ACA                     i1l4848:
  5360                           
  5361                           ;mcc_generated_files/usb/usb_device.c: 2222:         {;mcc_generated_files/usb/usb_devic
      +                          e.c: 2224:             pBDTEntryEP0OutCurrent->STAT.Val = 0x00|(0x08 & 0x08)|0x04;
  5362  0ACA  300C               	movlw	12
  5363  0ACB  00F0               	movwf	??_USBStallHandler
  5364  0ACC  085C               	movf	_pBDTEntryEP0OutCurrent,w
  5365  0ACD  0086               	movwf	6
  5366  0ACE  0187               	clrf	7
  5367  0ACF  0870               	movf	??_USBStallHandler,w
  5368  0AD0  0081               	movwf	1
  5369                           
  5370                           ;mcc_generated_files/usb/usb_device.c: 2225:             pBDTEntryEP0OutCurrent->STAT.Va
      +                          l |= 0x80;
  5371  0AD1  085C               	movf	_pBDTEntryEP0OutCurrent,w
  5372  0AD2  0086               	movwf	6
  5373  0AD3  0187               	clrf	7
  5374  0AD4  1781               	bsf	1,7
  5375  0AD5                     i1l4850:
  5376                           
  5377                           ;mcc_generated_files/usb/usb_device.c: 2227:         UEP0bits.EPSTALL = 0;
  5378  0AD5  003D               	movlb	29	; select bank29
  5379  0AD6  1018               	bcf	24,0	;volatile
  5380  0AD7                     i1l4852:
  5381                           
  5382                           ;mcc_generated_files/usb/usb_device.c: 2230:     (UIR &= 0xDF);
  5383  0AD7  30DF               	movlw	223
  5384  0AD8  00F0               	movwf	??_USBStallHandler
  5385  0AD9  0870               	movf	??_USBStallHandler,w
  5386  0ADA  0590               	andwf	16,f	;volatile
  5387  0ADB                     i1l468:
  5388  0ADB  0008               	return
  5389  0ADC                     __end_of_USBStallHandler:
  5390                           
  5391                           	psect	text17
  5392  09EF                     __ptext17:	
  5393 ;; *************** function _USBIncrement1msInternalTimers *****************
  5394 ;; Defined at:
  5395 ;;		line 3029 in file "mcc_generated_files/usb/usb_device.c"
  5396 ;; Parameters:    Size  Location     Type
  5397 ;;		None
  5398 ;; Auto vars:     Size  Location     Type
  5399 ;;		None
  5400 ;; Return value:  Size  Location     Type
  5401 ;;                  1    wreg      void 
  5402 ;; Registers used:
  5403 ;;		wreg, status,2, status,0
  5404 ;; Tracked objects:
  5405 ;;		On entry : 0/0
  5406 ;;		On exit  : 0/0
  5407 ;;		Unchanged: 0/0
  5408 ;; Data sizes:     COMMON  BANK0h   BANK1   BANK2   BANK3   BANK4   BANK5   BANK6   BANK7   BANK8   BANK9  BANK10  BANK1
      +1  BANK12
  5409 ;;      Params:         0       0       0       0       0       0       0       0       0       0       0       0       
      +0       0
  5410 ;;      Locals:         0       0       0       0       0       0       0       0       0       0       0       0       
      +0       0
  5411 ;;      Temps:          1       0       0       0       0       0       0       0       0       0       0       0       
      +0       0
  5412 ;;      Totals:         1       0       0       0       0       0       0       0       0       0       0       0       
      +0       0
  5413 ;;Total ram usage:        1 bytes
  5414 ;; Hardware stack levels used:    1
  5415 ;; This function calls:
  5416 ;;		Nothing
  5417 ;; This function is called by:
  5418 ;;		_USBDeviceTasks
  5419 ;; This function uses a non-reentrant model
  5420 ;;
  5421                           
  5422                           
  5423                           ;psect for function _USBIncrement1msInternalTimers
  5424  09EF                     _USBIncrement1msInternalTimers:
  5425  09EF                     i1l4834:	
  5426                           ;incstack = 0
  5427                           ; Regs used in _USBIncrement1msInternalTimers: [wreg+status,2+status,0]
  5428                           
  5429                           
  5430                           ;mcc_generated_files/usb/usb_device.c: 3037:     USB1msTickCount++;
  5431  09EF  3001               	movlw	1
  5432  09F0  0021               	movlb	1	; select bank1
  5433  09F1  07C4               	addwf	_USB1msTickCount^(0+128),f	;volatile
  5434  09F2  3000               	movlw	0
  5435  09F3  3DC5               	addwfc	(_USB1msTickCount+1)^(0+128),f	;volatile
  5436  09F4  3000               	movlw	0
  5437  09F5  3DC6               	addwfc	(_USB1msTickCount+2)^(0+128),f	;volatile
  5438  09F6  3000               	movlw	0
  5439  09F7  3DC7               	addwfc	(_USB1msTickCount+3)^(0+128),f	;volatile
  5440  09F8                     i1l4836:
  5441                           
  5442                           ;mcc_generated_files/usb/usb_device.c: 3038:     if(USBBusIsSuspended == 0)
  5443  09F8  085D               	movf	_USBBusIsSuspended^(0+128),w	;volatile
  5444  09F9  1D03               	btfss	3,2
  5445  09FA  29FC               	goto	u275_21
  5446  09FB  29FD               	goto	u275_20
  5447  09FC                     u275_21:
  5448  09FC  2A0A               	goto	i1l558
  5449  09FD                     u275_20:
  5450  09FD                     i1l4838:
  5451                           
  5452                           ;mcc_generated_files/usb/usb_device.c: 3039:     {;mcc_generated_files/usb/usb_device.c:
      +                           3040:         USBTicksSinceSuspendEnd++;
  5453  09FD  3001               	movlw	1
  5454  09FE  00F0               	movwf	??_USBIncrement1msInternalTimers
  5455  09FF  0870               	movf	??_USBIncrement1msInternalTimers,w
  5456  0A00  07D4               	addwf	_USBTicksSinceSuspendEnd^(0+128),f	;volatile
  5457                           
  5458                           ;mcc_generated_files/usb/usb_device.c: 3042:         if(USBTicksSinceSuspendEnd == 0)
  5459  0A01  0854               	movf	_USBTicksSinceSuspendEnd^(0+128),w	;volatile
  5460  0A02  1D03               	btfss	3,2
  5461  0A03  2A05               	goto	u276_21
  5462  0A04  2A06               	goto	u276_20
  5463  0A05                     u276_21:
  5464  0A05  2A0A               	goto	i1l558
  5465  0A06                     u276_20:
  5466  0A06                     i1l4840:
  5467                           
  5468                           ;mcc_generated_files/usb/usb_device.c: 3043:         {;mcc_generated_files/usb/usb_devic
      +                          e.c: 3044:             USBTicksSinceSuspendEnd = 255;
  5469  0A06  30FF               	movlw	255
  5470  0A07  00F0               	movwf	??_USBIncrement1msInternalTimers
  5471  0A08  0870               	movf	??_USBIncrement1msInternalTimers,w
  5472  0A09  00D4               	movwf	_USBTicksSinceSuspendEnd^(0+128)	;volatile
  5473  0A0A                     i1l558:
  5474  0A0A  0008               	return
  5475  0A0B                     __end_of_USBIncrement1msInternalTimers:
  5476                           
  5477                           	psect	text18
  5478  0C95                     __ptext18:	
  5479 ;; *************** function _USBCtrlEPService *****************
  5480 ;; Defined at:
  5481 ;;		line 2376 in file "mcc_generated_files/usb/usb_device.c"
  5482 ;; Parameters:    Size  Location     Type
  5483 ;;		None
  5484 ;; Auto vars:     Size  Location     Type
  5485 ;;		None
  5486 ;; Return value:  Size  Location     Type
  5487 ;;                  1    wreg      void 
  5488 ;; Registers used:
  5489 ;;		wreg, fsr0l, fsr0h, fsr1l, fsr1h, status,2, status,0, pclath, cstack
  5490 ;; Tracked objects:
  5491 ;;		On entry : 0/0
  5492 ;;		On exit  : 0/0
  5493 ;;		Unchanged: 0/0
  5494 ;; Data sizes:     COMMON  BANK0h   BANK1   BANK2   BANK3   BANK4   BANK5   BANK6   BANK7   BANK8   BANK9  BANK10  BANK1
      +1  BANK12
  5495 ;;      Params:         0       0       0       0       0       0       0       0       0       0       0       0       
      +0       0
  5496 ;;      Locals:         0       0       0       0       0       0       0       0       0       0       0       0       
      +0       0
  5497 ;;      Temps:          0       2       0       0       0       0       0       0       0       0       0       0       
      +0       0
  5498 ;;      Totals:         0       2       0       0       0       0       0       0       0       0       0       0       
      +0       0
  5499 ;;Total ram usage:        2 bytes
  5500 ;; Hardware stack levels used:    1
  5501 ;; Hardware stack levels required when called:    5
  5502 ;; This function calls:
  5503 ;;		_USBCtrlTrfInHandler
  5504 ;;		_USBCtrlTrfOutHandler
  5505 ;;		_USBCtrlTrfSetupHandler
  5506 ;;		_memcpy
  5507 ;; This function is called by:
  5508 ;;		_USBDeviceTasks
  5509 ;; This function uses a non-reentrant model
  5510 ;;
  5511                           
  5512                           
  5513                           ;psect for function _USBCtrlEPService
  5514  0C95                     _USBCtrlEPService:
  5515  0C95                     i1l5804:	
  5516                           ;incstack = 0
  5517                           ; Regs used in _USBCtrlEPService: [wreg-fsr1h+status,2+status,0+pclath+cstack]
  5518                           
  5519                           
  5520                           ;mcc_generated_files/usb/usb_device.c: 2382:         USBStatusStageTimeoutCounter = (uin
      +                          t8_t)45;
  5521  0C95  302D               	movlw	45
  5522  0C96  0020               	movlb	0	; select bank0
  5523  0C97  00E5               	movwf	??_USBCtrlEPService
  5524  0C98  0865               	movf	??_USBCtrlEPService,w
  5525  0C99  0021               	movlb	1	; select bank1
  5526  0C9A  00DA               	movwf	_USBStatusStageTimeoutCounter^(0+128)	;volatile
  5527  0C9B                     i1l5806:
  5528                           
  5529                           ;mcc_generated_files/usb/usb_device.c: 2386:     if((USTATcopy.Val & ~0x02) == 0x00)
  5530  0C9B  0020               	movlb	0	; select bank0
  5531  0C9C  085E               	movf	_USTATcopy,w	;volatile
  5532  0C9D  39FD               	andlw	253
  5533  0C9E  1D03               	btfss	3,2
  5534  0C9F  2CA1               	goto	u369_21
  5535  0CA0  2CA2               	goto	u369_20
  5536  0CA1                     u369_21:
  5537  0CA1  2CDE               	goto	i1l5822
  5538  0CA2                     u369_20:
  5539  0CA2                     i1l5808:
  5540                           
  5541                           ;mcc_generated_files/usb/usb_device.c: 2387:     {;mcc_generated_files/usb/usb_device.c:
      +                           2390:             pBDTEntryEP0OutCurrent = (volatile BDT_ENTRY*)&BDT[(USTATcopy.Val & 0
      +                          x7E)>>1];
  5542  0CA2  365E               	lsrf	_USTATcopy,w	;volatile
  5543  0CA3  393F               	andlw	63
  5544  0CA4  00E5               	movwf	??_USBCtrlEPService
  5545  0CA5  3001               	movlw	1
  5546  0CA6                     u370_25:
  5547  0CA6  35E5               	lslf	??_USBCtrlEPService,f
  5548  0CA7  3EFF               	addlw	-1
  5549  0CA8  1D03               	skipz
  5550  0CA9  2CA6               	goto	u370_25
  5551  0CAA  3565               	lslf	??_USBCtrlEPService,w
  5552  0CAB  3E20               	addlw	32
  5553  0CAC  00E6               	movwf	??_USBCtrlEPService+1
  5554  0CAD  0866               	movf	??_USBCtrlEPService+1,w
  5555  0CAE  00DC               	movwf	_pBDTEntryEP0OutCurrent
  5556  0CAF                     i1l5810:
  5557                           
  5558                           ;mcc_generated_files/usb/usb_device.c: 2398:         pBDTEntryEP0OutNext = pBDTEntryEP0O
      +                          utCurrent;
  5559  0CAF  085C               	movf	_pBDTEntryEP0OutCurrent,w
  5560  0CB0  00D9               	movwf	_pBDTEntryEP0OutNext
  5561  0CB1  39FF               	andlw	255
  5562  0CB2  1D03               	skipz
  5563  0CB3  3000               	movlw	0
  5564  0CB4  00DA               	movwf	_pBDTEntryEP0OutNext+1
  5565  0CB5                     i1l5812:
  5566                           
  5567                           ;mcc_generated_files/usb/usb_device.c: 2400:         pBDTEntryEP0OutNext = (volatile BDT
      +                          _ENTRY*)(((uint16_t)pBDTEntryEP0OutNext) ^ 0x0004);
  5568  0CB5  3004               	movlw	4
  5569  0CB6  0659               	xorwf	_pBDTEntryEP0OutNext,w
  5570  0CB7  00D9               	movwf	_pBDTEntryEP0OutNext
  5571  0CB8  3000               	movlw	0
  5572  0CB9  065A               	xorwf	_pBDTEntryEP0OutNext+1,w
  5573  0CBA  00DA               	movwf	_pBDTEntryEP0OutNext+1
  5574  0CBB                     i1l5814:
  5575                           
  5576                           ;mcc_generated_files/usb/usb_device.c: 2403:         if(pBDTEntryEP0OutCurrent->STAT.PID
      +                           == 0xD)
  5577  0CBB  085C               	movf	_pBDTEntryEP0OutCurrent,w
  5578  0CBC  0086               	movwf	6
  5579  0CBD  0187               	clrf	7
  5580  0CBE  0C01               	rrf	1,w
  5581  0CBF  0C89               	rrf	9,f
  5582  0CC0  390F               	andlw	15
  5583  0CC1  3A0D               	xorlw	13
  5584  0CC2  1D03               	skipz
  5585  0CC3  2CC5               	goto	u371_21
  5586  0CC4  2CC6               	goto	u371_20
  5587  0CC5                     u371_21:
  5588  0CC5  2CDA               	goto	i1l5820
  5589  0CC6                     u371_20:
  5590  0CC6                     i1l5816:
  5591                           
  5592                           ;mcc_generated_files/usb/usb_device.c: 2404:         {;mcc_generated_files/usb/usb_devic
      +                          e.c: 2409:             memcpy((uint8_t*)&SetupPkt, (uint8_t*)((void *)(pBDTEntryEP0OutCu
      +                          rrent->ADR)), 8);
  5593  0CC6  085C               	movf	_pBDTEntryEP0OutCurrent,w
  5594  0CC7  3E02               	addlw	2
  5595  0CC8  0086               	movwf	6
  5596  0CC9  0187               	clrf	7
  5597  0CCA  3F40               	moviw [0]fsr1
  5598  0CCB  00F0               	movwf	memcpy@s1
  5599  0CCC  3F41               	moviw [1]fsr1
  5600  0CCD  00F1               	movwf	memcpy@s1+1
  5601  0CCE  3008               	movlw	8
  5602  0CCF  00F2               	movwf	memcpy@n
  5603  0CD0  3000               	movlw	0
  5604  0CD1  00F3               	movwf	memcpy@n+1
  5605  0CD2  3040               	movlw	64
  5606  0CD3  318B  2363  318C   	fcall	_memcpy
  5607  0CD6                     i1l5818:
  5608                           
  5609                           ;mcc_generated_files/usb/usb_device.c: 2412:             USBCtrlTrfSetupHandler();
  5610  0CD6  3187  27B4  318C   	fcall	_USBCtrlTrfSetupHandler
  5611                           
  5612                           ;mcc_generated_files/usb/usb_device.c: 2413:         }
  5613  0CD9  2CEA               	goto	i1l485
  5614  0CDA                     i1l5820:
  5615                           
  5616                           ;mcc_generated_files/usb/usb_device.c: 2415:         {;mcc_generated_files/usb/usb_devic
      +                          e.c: 2417:             USBCtrlTrfOutHandler();
  5617  0CDA  318B  23C0  318C   	fcall	_USBCtrlTrfOutHandler
  5618  0CDD  2CEA               	goto	i1l485
  5619  0CDE                     i1l5822:
  5620  0CDE  30FD               	movlw	253
  5621  0CDF  055E               	andwf	_USTATcopy,w	;volatile
  5622  0CE0  00E5               	movwf	??_USBCtrlEPService
  5623  0CE1  3004               	movlw	4
  5624  0CE2  0665               	xorwf	??_USBCtrlEPService,w
  5625  0CE3  1D03               	btfss	3,2
  5626  0CE4  2CE6               	goto	u372_21
  5627  0CE5  2CE7               	goto	u372_20
  5628  0CE6                     u372_21:
  5629  0CE6  2CEA               	goto	i1l485
  5630  0CE7                     u372_20:
  5631  0CE7                     i1l5824:
  5632                           
  5633                           ;mcc_generated_files/usb/usb_device.c: 2421:     {;mcc_generated_files/usb/usb_device.c:
      +                           2424:         USBCtrlTrfInHandler();
  5634  0CE7  318F  2708  318C   	fcall	_USBCtrlTrfInHandler
  5635  0CEA                     i1l485:
  5636  0CEA  0008               	return
  5637  0CEB                     __end_of_USBCtrlEPService:
  5638                           
  5639                           	psect	text19
  5640  0B63                     __ptext19:	
  5641 ;; *************** function _memcpy *****************
  5642 ;; Defined at:
  5643 ;;		line 4 in file "C:\Program Files\Microchip\xc8\v2.31\pic\sources\c99\common\memcpy.c"
  5644 ;; Parameters:    Size  Location     Type
  5645 ;;  d1              1    wreg     PTR void 
  5646 ;;		 -> SetupPkt(8), 
  5647 ;;  s1              2    0[COMMON] PTR const void 
  5648 ;;		 -> CtrlTrfData(8), RAM(4096), SetupPkt(8), 
  5649 ;;  n               2    2[COMMON] unsigned int 
  5650 ;; Auto vars:     Size  Location     Type
  5651 ;;  d1              1    8[COMMON] PTR void 
  5652 ;;		 -> SetupPkt(8), 
  5653 ;;  s               2    5[COMMON] PTR const unsigned char 
  5654 ;;		 -> CtrlTrfData(8), RAM(4096), SetupPkt(8), 
  5655 ;;  d               1    9[COMMON] PTR unsigned char 
  5656 ;;		 -> SetupPkt(8), 
  5657 ;;  tmp             1    7[COMMON] unsigned char 
  5658 ;; Return value:  Size  Location     Type
  5659 ;;                  1    wreg      PTR void 
  5660 ;; Registers used:
  5661 ;;		wreg, fsr1l, fsr1h, status,2, status,0
  5662 ;; Tracked objects:
  5663 ;;		On entry : 0/0
  5664 ;;		On exit  : 0/0
  5665 ;;		Unchanged: 0/0
  5666 ;; Data sizes:     COMMON  BANK0h   BANK1   BANK2   BANK3   BANK4   BANK5   BANK6   BANK7   BANK8   BANK9  BANK10  BANK1
      +1  BANK12
  5667 ;;      Params:         4       0       0       0       0       0       0       0       0       0       0       0       
      +0       0
  5668 ;;      Locals:         5       0       0       0       0       0       0       0       0       0       0       0       
      +0       0
  5669 ;;      Temps:          1       0       0       0       0       0       0       0       0       0       0       0       
      +0       0
  5670 ;;      Totals:        10       0       0       0       0       0       0       0       0       0       0       0       
      +0       0
  5671 ;;Total ram usage:       10 bytes
  5672 ;; Hardware stack levels used:    1
  5673 ;; This function calls:
  5674 ;;		Nothing
  5675 ;; This function is called by:
  5676 ;;		_USBCtrlEPService
  5677 ;; This function uses a non-reentrant model
  5678 ;;
  5679                           
  5680                           
  5681                           ;psect for function _memcpy
  5682  0B63                     _memcpy:
  5683                           
  5684                           ;incstack = 0
  5685                           ; Regs used in _memcpy: [wreg+fsr1l+fsr1h+status,2+status,0]
  5686                           ;memcpy@d1 stored from wreg
  5687  0B63  00F8               	movwf	memcpy@d1
  5688  0B64                     i1l4466:
  5689  0B64  0871               	movf	memcpy@s1+1,w
  5690  0B65  00F6               	movwf	memcpy@s+1
  5691  0B66  0870               	movf	memcpy@s1,w
  5692  0B67  00F5               	movwf	memcpy@s
  5693  0B68  0878               	movf	memcpy@d1,w
  5694  0B69  00F4               	movwf	??_memcpy
  5695  0B6A  0874               	movf	??_memcpy,w
  5696  0B6B  00F9               	movwf	memcpy@d
  5697  0B6C  2B84               	goto	i1l4476
  5698  0B6D                     i1l4468:
  5699  0B6D  0875               	movf	memcpy@s,w
  5700  0B6E  0086               	movwf	6
  5701  0B6F  0876               	movf	memcpy@s+1,w
  5702  0B70  0087               	movwf	7
  5703  0B71  0801               	movf	1,w
  5704  0B72  00F4               	movwf	??_memcpy
  5705  0B73  0874               	movf	??_memcpy,w
  5706  0B74  00F7               	movwf	memcpy@tmp
  5707  0B75                     i1l4470:
  5708  0B75  3001               	movlw	1
  5709  0B76  07F5               	addwf	memcpy@s,f
  5710  0B77  3000               	movlw	0
  5711  0B78  3DF6               	addwfc	memcpy@s+1,f
  5712  0B79                     i1l4472:
  5713  0B79  0877               	movf	memcpy@tmp,w
  5714  0B7A  00F4               	movwf	??_memcpy
  5715  0B7B  0879               	movf	memcpy@d,w
  5716  0B7C  0086               	movwf	6
  5717  0B7D  0187               	clrf	7
  5718  0B7E  0874               	movf	??_memcpy,w
  5719  0B7F  0081               	movwf	1
  5720  0B80                     i1l4474:
  5721  0B80  3001               	movlw	1
  5722  0B81  00F4               	movwf	??_memcpy
  5723  0B82  0874               	movf	??_memcpy,w
  5724  0B83  07F9               	addwf	memcpy@d,f
  5725  0B84                     i1l4476:
  5726  0B84  3001               	movlw	1
  5727  0B85  02F2               	subwf	memcpy@n,f
  5728  0B86  3000               	movlw	0
  5729  0B87  3BF3               	subwfb	memcpy@n+1,f
  5730  0B88  0A72               	incf	memcpy@n,w
  5731  0B89  1D03               	skipz
  5732  0B8A  2B8F               	goto	u257_21
  5733  0B8B  0A73               	incf	memcpy@n+1,w
  5734  0B8C  1D03               	btfss	3,2
  5735  0B8D  2B8F               	goto	u257_21
  5736  0B8E  2B90               	goto	u257_20
  5737  0B8F                     u257_21:
  5738  0B8F  2B6D               	goto	i1l4468
  5739  0B90                     u257_20:
  5740  0B90                     i1l1676:
  5741  0B90  0008               	return
  5742  0B91                     __end_of_memcpy:
  5743                           
  5744                           	psect	text20
  5745  07B4                     __ptext20:	
  5746 ;; *************** function _USBCtrlTrfSetupHandler *****************
  5747 ;; Defined at:
  5748 ;;		line 2469 in file "mcc_generated_files/usb/usb_device.c"
  5749 ;; Parameters:    Size  Location     Type
  5750 ;;		None
  5751 ;; Auto vars:     Size  Location     Type
  5752 ;;		None
  5753 ;; Return value:  Size  Location     Type
  5754 ;;                  1    wreg      void 
  5755 ;; Registers used:
  5756 ;;		wreg, fsr0l, fsr0h, fsr1l, fsr1h, status,2, status,0, pclath, cstack
  5757 ;; Tracked objects:
  5758 ;;		On entry : 0/0
  5759 ;;		On exit  : 0/0
  5760 ;;		Unchanged: 0/0
  5761 ;; Data sizes:     COMMON  BANK0h   BANK1   BANK2   BANK3   BANK4   BANK5   BANK6   BANK7   BANK8   BANK9  BANK10  BANK1
      +1  BANK12
  5762 ;;      Params:         0       0       0       0       0       0       0       0       0       0       0       0       
      +0       0
  5763 ;;      Locals:         0       0       0       0       0       0       0       0       0       0       0       0       
      +0       0
  5764 ;;      Temps:          1       0       0       0       0       0       0       0       0       0       0       0       
      +0       0
  5765 ;;      Totals:         1       0       0       0       0       0       0       0       0       0       0       0       
      +0       0
  5766 ;;Total ram usage:        1 bytes
  5767 ;; Hardware stack levels used:    1
  5768 ;; Hardware stack levels required when called:    4
  5769 ;; This function calls:
  5770 ;;		_USBCheckStdRequest
  5771 ;;		_USBCtrlEPServiceComplete
  5772 ;;		_USER_USB_CALLBACK_EVENT_HANDLER
  5773 ;; This function is called by:
  5774 ;;		_USBCtrlEPService
  5775 ;; This function uses a non-reentrant model
  5776 ;;
  5777                           
  5778                           
  5779                           ;psect for function _USBCtrlTrfSetupHandler
  5780  07B4                     _USBCtrlTrfSetupHandler:
  5781  07B4                     i1l5688:	
  5782                           ;incstack = 0
  5783                           ; Regs used in _USBCtrlTrfSetupHandler: [wreg-fsr1h+status,2+status,0+pclath+cstack]
  5784                           
  5785                           
  5786                           ;mcc_generated_files/usb/usb_device.c: 2474:     shortPacketStatus = 0;
  5787  07B4  0021               	movlb	1	; select bank1
  5788  07B5  01E0               	clrf	_shortPacketStatus^(0+128)	;volatile
  5789                           
  5790                           ;mcc_generated_files/usb/usb_device.c: 2475:     USBDeferStatusStagePacket = 0;
  5791  07B6  01D9               	clrf	_USBDeferStatusStagePacket^(0+128)	;volatile
  5792                           
  5793                           ;mcc_generated_files/usb/usb_device.c: 2476:     USBDeferINDataStagePackets = 0;
  5794  07B7  01D6               	clrf	_USBDeferINDataStagePackets^(0+128)	;volatile
  5795                           
  5796                           ;mcc_generated_files/usb/usb_device.c: 2477:     USBDeferOUTDataStagePackets = 0;
  5797  07B8  01D5               	clrf	_USBDeferOUTDataStagePackets^(0+128)	;volatile
  5798                           
  5799                           ;mcc_generated_files/usb/usb_device.c: 2478:     BothEP0OutUOWNsSet = 0;
  5800  07B9  01DB               	clrf	_BothEP0OutUOWNsSet^(0+128)	;volatile
  5801                           
  5802                           ;mcc_generated_files/usb/usb_device.c: 2479:     controlTransferState = 0;
  5803  07BA  0020               	movlb	0	; select bank0
  5804  07BB  01DB               	clrf	_controlTransferState	;volatile
  5805  07BC                     i1l5690:
  5806                           
  5807                           ;mcc_generated_files/usb/usb_device.c: 2488:     pBDTEntryIn[0]->STAT.Val &= ~(0x80);
  5808  07BC  307F               	movlw	127
  5809  07BD  00FD               	movwf	??_USBCtrlTrfSetupHandler
  5810  07BE  0855               	movf	_pBDTEntryIn,w
  5811  07BF  0086               	movwf	6
  5812  07C0  0856               	movf	_pBDTEntryIn+1,w
  5813  07C1  0087               	movwf	7
  5814  07C2  087D               	movf	??_USBCtrlTrfSetupHandler,w
  5815  07C3  0581               	andwf	1,f
  5816  07C4                     i1l5692:
  5817                           
  5818                           ;mcc_generated_files/usb/usb_device.c: 2490:     pBDTEntryIn[0] = (volatile BDT_ENTRY*)(
      +                          ((uint16_t)pBDTEntryIn[0]) ^ 0x0004);
  5819  07C4  3004               	movlw	4
  5820  07C5  0655               	xorwf	_pBDTEntryIn,w
  5821  07C6  00D5               	movwf	_pBDTEntryIn
  5822  07C7  3000               	movlw	0
  5823  07C8  0656               	xorwf	_pBDTEntryIn+1,w
  5824  07C9  00D6               	movwf	_pBDTEntryIn+1
  5825  07CA                     i1l5694:
  5826                           
  5827                           ;mcc_generated_files/usb/usb_device.c: 2491:     pBDTEntryIn[0]->STAT.Val &= ~(0x80);
  5828  07CA  307F               	movlw	127
  5829  07CB  00FD               	movwf	??_USBCtrlTrfSetupHandler
  5830  07CC  0855               	movf	_pBDTEntryIn,w
  5831  07CD  0086               	movwf	6
  5832  07CE  0856               	movf	_pBDTEntryIn+1,w
  5833  07CF  0087               	movwf	7
  5834  07D0  087D               	movf	??_USBCtrlTrfSetupHandler,w
  5835  07D1  0581               	andwf	1,f
  5836  07D2                     i1l5696:
  5837                           
  5838                           ;mcc_generated_files/usb/usb_device.c: 2492:     pBDTEntryIn[0] = (volatile BDT_ENTRY*)(
      +                          ((uint16_t)pBDTEntryIn[0]) ^ 0x0004);
  5839  07D2  3004               	movlw	4
  5840  07D3  0655               	xorwf	_pBDTEntryIn,w
  5841  07D4  00D5               	movwf	_pBDTEntryIn
  5842  07D5  3000               	movlw	0
  5843  07D6  0656               	xorwf	_pBDTEntryIn+1,w
  5844  07D7  00D6               	movwf	_pBDTEntryIn+1
  5845  07D8                     i1l5698:
  5846                           
  5847                           ;mcc_generated_files/usb/usb_device.c: 2493:     pBDTEntryEP0OutNext->STAT.Val &= ~(0x80
      +                          );
  5848  07D8  307F               	movlw	127
  5849  07D9  00FD               	movwf	??_USBCtrlTrfSetupHandler
  5850  07DA  0859               	movf	_pBDTEntryEP0OutNext,w
  5851  07DB  0086               	movwf	6
  5852  07DC  085A               	movf	_pBDTEntryEP0OutNext+1,w
  5853  07DD  0087               	movwf	7
  5854  07DE  087D               	movf	??_USBCtrlTrfSetupHandler,w
  5855  07DF  0581               	andwf	1,f
  5856  07E0                     i1l5700:
  5857                           
  5858                           ;mcc_generated_files/usb/usb_device.c: 2495:     inPipes[0].info.Val = 0;
  5859  07E0  01D2               	clrf	_inPipes+2	;volatile
  5860  07E1                     i1l5702:
  5861                           
  5862                           ;mcc_generated_files/usb/usb_device.c: 2496:     inPipes[0].wCount.Val = 0;
  5863  07E1  01D3               	clrf	_inPipes+3	;volatile
  5864  07E2  01D4               	clrf	_inPipes+4	;volatile
  5865  07E3                     i1l5704:
  5866                           
  5867                           ;mcc_generated_files/usb/usb_device.c: 2497:     outPipes[0].info.Val = 0;
  5868  07E3  0021               	movlb	1	; select bank1
  5869  07E4  01BF               	clrf	(_outPipes^(0+128)+2)	;volatile
  5870  07E5                     i1l5706:
  5871                           
  5872                           ;mcc_generated_files/usb/usb_device.c: 2498:     outPipes[0].wCount.Val = 0;
  5873  07E5  01C0               	clrf	(_outPipes^(0+128)+3)	;volatile
  5874  07E6  01C1               	clrf	((_outPipes+1)^(0+128)+3)	;volatile
  5875  07E7                     i1l5708:
  5876                           
  5877                           ;mcc_generated_files/usb/usb_device.c: 2504:     USBCheckStdRequest();
  5878  07E7  318F  2784  3187   	fcall	_USBCheckStdRequest
  5879  07EA                     i1l5710:
  5880                           
  5881                           ;mcc_generated_files/usb/usb_device.c: 2505:     USER_USB_CALLBACK_EVENT_HANDLER((USB_EV
      +                          ENT)EVENT_EP0_REQUEST,0,0);
  5882  07EA  3003               	movlw	3
  5883  07EB  00F3               	movwf	USER_USB_CALLBACK_EVENT_HANDLER@event
  5884  07EC  3000               	movlw	0
  5885  07ED  00F4               	movwf	USER_USB_CALLBACK_EVENT_HANDLER@event+1
  5886  07EE  3000               	movlw	0
  5887  07EF  00F5               	movwf	USER_USB_CALLBACK_EVENT_HANDLER@pdata
  5888  07F0  3000               	movlw	0
  5889  07F1  00F6               	movwf	USER_USB_CALLBACK_EVENT_HANDLER@pdata+1
  5890  07F2  3000               	movlw	0
  5891  07F3  00F7               	movwf	USER_USB_CALLBACK_EVENT_HANDLER@size
  5892  07F4  00F8               	movwf	USER_USB_CALLBACK_EVENT_HANDLER@size+1
  5893  07F5  318B  2308  3187   	fcall	_USER_USB_CALLBACK_EVENT_HANDLER
  5894  07F8                     i1l5712:
  5895                           
  5896                           ;mcc_generated_files/usb/usb_device.c: 2518:     USBCtrlEPServiceComplete();
  5897  07F8  3185  256C  3187   	fcall	_USBCtrlEPServiceComplete
  5898  07FB                     i1l488:
  5899  07FB  0008               	return
  5900  07FC                     __end_of_USBCtrlTrfSetupHandler:
  5901                           
  5902                           	psect	text21
  5903  056C                     __ptext21:	
  5904 ;; *************** function _USBCtrlEPServiceComplete *****************
  5905 ;; Defined at:
  5906 ;;		line 1620 in file "mcc_generated_files/usb/usb_device.c"
  5907 ;; Parameters:    Size  Location     Type
  5908 ;;		None
  5909 ;; Auto vars:     Size  Location     Type
  5910 ;;		None
  5911 ;; Return value:  Size  Location     Type
  5912 ;;                  1    wreg      void 
  5913 ;; Registers used:
  5914 ;;		wreg, fsr0l, fsr0h, fsr1l, fsr1h, status,2, status,0, pclath, cstack
  5915 ;; Tracked objects:
  5916 ;;		On entry : 0/0
  5917 ;;		On exit  : 0/0
  5918 ;;		Unchanged: 0/0
  5919 ;; Data sizes:     COMMON  BANK0h   BANK1   BANK2   BANK3   BANK4   BANK5   BANK6   BANK7   BANK8   BANK9  BANK10  BANK1
      +1  BANK12
  5920 ;;      Params:         0       0       0       0       0       0       0       0       0       0       0       0       
      +0       0
  5921 ;;      Locals:         0       0       0       0       0       0       0       0       0       0       0       0       
      +0       0
  5922 ;;      Temps:          2       0       0       0       0       0       0       0       0       0       0       0       
      +0       0
  5923 ;;      Totals:         2       0       0       0       0       0       0       0       0       0       0       0       
      +0       0
  5924 ;;Total ram usage:        2 bytes
  5925 ;; Hardware stack levels used:    1
  5926 ;; Hardware stack levels required when called:    2
  5927 ;; This function calls:
  5928 ;;		_USBCtrlEPAllowDataStage
  5929 ;;		_USBCtrlEPAllowStatusStage
  5930 ;; This function is called by:
  5931 ;;		_USBCtrlTrfSetupHandler
  5932 ;; This function uses a non-reentrant model
  5933 ;;
  5934                           
  5935                           
  5936                           ;psect for function _USBCtrlEPServiceComplete
  5937  056C                     _USBCtrlEPServiceComplete:
  5938  056C                     i1l4266:	
  5939                           ;incstack = 0
  5940                           ; Regs used in _USBCtrlEPServiceComplete: [wreg-fsr1h+status,2+status,0+pclath+cstack]
  5941                           
  5942                           
  5943                           ;mcc_generated_files/usb/usb_device.c: 1626:     UCONbits.PKTDIS = 0;
  5944  056C  003D               	movlb	29	; select bank29
  5945  056D  120E               	bcf	14,4	;volatile
  5946                           
  5947                           ;mcc_generated_files/usb/usb_device.c: 1632:     if(inPipes[0].info.bits.busy == 0)
  5948  056E  0020               	movlb	0	; select bank0
  5949  056F  1BD2               	btfsc	_inPipes+2,7	;volatile
  5950  0570  2D72               	goto	u244_21
  5951  0571  2D73               	goto	u244_20
  5952  0572                     u244_21:
  5953  0572  2DBB               	goto	i1l386
  5954  0573                     u244_20:
  5955  0573                     i1l4268:
  5956                           
  5957                           ;mcc_generated_files/usb/usb_device.c: 1633:     {;mcc_generated_files/usb/usb_device.c:
      +                           1634:         if(outPipes[0].info.bits.busy == 1)
  5958  0573  0021               	movlb	1	; select bank1
  5959  0574  1FBF               	btfss	(_outPipes^(0+128)+2),7	;volatile
  5960  0575  2D77               	goto	u245_21
  5961  0576  2D78               	goto	u245_20
  5962  0577                     u245_21:
  5963  0577  2D8A               	goto	i1l4280
  5964  0578                     u245_20:
  5965  0578                     i1l4270:
  5966                           
  5967                           ;mcc_generated_files/usb/usb_device.c: 1635:         {;mcc_generated_files/usb/usb_devic
      +                          e.c: 1636:             controlTransferState = 2;
  5968  0578  3002               	movlw	2
  5969  0579  00F5               	movwf	??_USBCtrlEPServiceComplete
  5970  057A  0875               	movf	??_USBCtrlEPServiceComplete,w
  5971  057B  0020               	movlb	0	; select bank0
  5972  057C  00DB               	movwf	_controlTransferState	;volatile
  5973  057D                     i1l4272:
  5974                           
  5975                           ;mcc_generated_files/usb/usb_device.c: 1647:             if(USBDeferOUTDataStagePackets 
      +                          == 0)
  5976  057D  0021               	movlb	1	; select bank1
  5977  057E  0855               	movf	_USBDeferOUTDataStagePackets^(0+128),w	;volatile
  5978  057F  1D03               	btfss	3,2
  5979  0580  2D82               	goto	u246_21
  5980  0581  2D83               	goto	u246_20
  5981  0582                     u246_21:
  5982  0582  2D86               	goto	i1l4276
  5983  0583                     u246_20:
  5984  0583                     i1l4274:
  5985                           
  5986                           ;mcc_generated_files/usb/usb_device.c: 1648:             {;mcc_generated_files/usb/usb_d
      +                          evice.c: 1649:                 USBCtrlEPAllowDataStage();
  5987  0583  318C  24EB  3185   	fcall	_USBCtrlEPAllowDataStage
  5988  0586                     i1l4276:
  5989                           
  5990                           ;mcc_generated_files/usb/usb_device.c: 1654:             USBStatusStageEnabledFlag2 = 0;
  5991  0586  0021               	movlb	1	; select bank1
  5992  0587  01D7               	clrf	_USBStatusStageEnabledFlag2^(0+128)	;volatile
  5993  0588                     i1l4278:
  5994                           
  5995                           ;mcc_generated_files/usb/usb_device.c: 1655:             USBStatusStageEnabledFlag1 = 0;
  5996  0588  01D8               	clrf	_USBStatusStageEnabledFlag1^(0+128)	;volatile
  5997                           
  5998                           ;mcc_generated_files/usb/usb_device.c: 1656:         }
  5999  0589  2E09               	goto	i1l396
  6000  058A                     i1l4280:
  6001                           
  6002                           ;mcc_generated_files/usb/usb_device.c: 1658:         {;mcc_generated_files/usb/usb_devic
      +                          e.c: 1663:             pBDTEntryEP0OutNext->CNT = 8;
  6003  058A  0020               	movlb	0	; select bank0
  6004  058B  0859               	movf	_pBDTEntryEP0OutNext,w
  6005  058C  3E01               	addlw	1
  6006  058D  00F5               	movwf	??_USBCtrlEPServiceComplete
  6007  058E  3000               	movlw	0
  6008  058F  3D5A               	addwfc	_pBDTEntryEP0OutNext+1,w
  6009  0590  00F6               	movwf	??_USBCtrlEPServiceComplete+1
  6010  0591  0875               	movf	??_USBCtrlEPServiceComplete,w
  6011  0592  0086               	movwf	6
  6012  0593  0876               	movf	??_USBCtrlEPServiceComplete+1,w
  6013  0594  0087               	movwf	7
  6014  0595  3008               	movlw	8
  6015  0596  0081               	movwf	1
  6016  0597                     i1l4282:
  6017                           
  6018                           ;mcc_generated_files/usb/usb_device.c: 1664:             pBDTEntryEP0OutNext->ADR = (((u
      +                          int16_t)(&SetupPkt)) & 0x7FFF);
  6019  0597  3040               	movlw	64
  6020  0598  00F5               	movwf	??_USBCtrlEPServiceComplete
  6021  0599  3000               	movlw	0
  6022  059A  00F6               	movwf	??_USBCtrlEPServiceComplete+1
  6023  059B  0859               	movf	_pBDTEntryEP0OutNext,w
  6024  059C  0086               	movwf	6
  6025  059D  085A               	movf	_pBDTEntryEP0OutNext+1,w
  6026  059E  0087               	movwf	7
  6027  059F  3142               	addfsr 1,2
  6028  05A0  0875               	movf	??_USBCtrlEPServiceComplete,w
  6029  05A1  3FC0               	movwi [0]fsr1
  6030  05A2  0876               	movf	??_USBCtrlEPServiceComplete+1,w
  6031  05A3  3FC1               	movwi [1]fsr1
  6032  05A4                     i1l4284:
  6033                           
  6034                           ;mcc_generated_files/usb/usb_device.c: 1665:             pBDTEntryEP0OutNext->STAT.Val =
      +                           0x00|(0x08 & 0x08)|0x04;
  6035  05A4  0859               	movf	_pBDTEntryEP0OutNext,w
  6036  05A5  0086               	movwf	6
  6037  05A6  085A               	movf	_pBDTEntryEP0OutNext+1,w
  6038  05A7  0087               	movwf	7
  6039  05A8  300C               	movlw	12
  6040  05A9  0081               	movwf	1
  6041  05AA                     i1l4286:
  6042                           
  6043                           ;mcc_generated_files/usb/usb_device.c: 1666:             pBDTEntryEP0OutNext->STAT.Val |
      +                          = 0x80;
  6044  05AA  0859               	movf	_pBDTEntryEP0OutNext,w
  6045  05AB  0086               	movwf	6
  6046  05AC  085A               	movf	_pBDTEntryEP0OutNext+1,w
  6047  05AD  0087               	movwf	7
  6048  05AE  1781               	bsf	1,7
  6049  05AF                     i1l4288:
  6050                           
  6051                           ;mcc_generated_files/usb/usb_device.c: 1667:             pBDTEntryIn[0]->STAT.Val = 0x04
      +                          ;
  6052  05AF  0855               	movf	_pBDTEntryIn,w
  6053  05B0  0086               	movwf	6
  6054  05B1  0856               	movf	_pBDTEntryIn+1,w
  6055  05B2  0087               	movwf	7
  6056  05B3  3004               	movlw	4
  6057  05B4  0081               	movwf	1
  6058  05B5                     i1l4290:
  6059                           
  6060                           ;mcc_generated_files/usb/usb_device.c: 1668:             pBDTEntryIn[0]->STAT.Val |= 0x8
      +                          0;
  6061  05B5  0855               	movf	_pBDTEntryIn,w
  6062  05B6  0086               	movwf	6
  6063  05B7  0856               	movf	_pBDTEntryIn+1,w
  6064  05B8  0087               	movwf	7
  6065  05B9  1781               	bsf	1,7
  6066  05BA  2E09               	goto	i1l396
  6067  05BB                     i1l386:	
  6068                           ;mcc_generated_files/usb/usb_device.c: 1671:     else
  6069                           
  6070                           
  6071                           ;mcc_generated_files/usb/usb_device.c: 1672:     {;mcc_generated_files/usb/usb_device.c:
      +                           1673:   if(SetupPkt.DataDir == (0x80>>7))
  6072  05BB  1FC0               	btfss	64,7	;volatile
  6073  05BC  2DBE               	goto	u247_21
  6074  05BD  2DBF               	goto	u247_20
  6075  05BE                     u247_21:
  6076  05BE  2DD8               	goto	i1l4306
  6077  05BF                     u247_20:
  6078  05BF                     i1l4292:
  6079                           
  6080                           ;mcc_generated_files/usb/usb_device.c: 1674:   {;mcc_generated_files/usb/usb_device.c: 1
      +                          675:    controlTransferState = 1;
  6081  05BF  3001               	movlw	1
  6082  05C0  00F5               	movwf	??_USBCtrlEPServiceComplete
  6083  05C1  0875               	movf	??_USBCtrlEPServiceComplete,w
  6084  05C2  00DB               	movwf	_controlTransferState	;volatile
  6085  05C3                     i1l4294:
  6086                           
  6087                           ;mcc_generated_files/usb/usb_device.c: 1689:    if(USBDeferINDataStagePackets == 0)
  6088  05C3  0021               	movlb	1	; select bank1
  6089  05C4  0856               	movf	_USBDeferINDataStagePackets^(0+128),w	;volatile
  6090  05C5  1D03               	btfss	3,2
  6091  05C6  2DC8               	goto	u248_21
  6092  05C7  2DC9               	goto	u248_20
  6093  05C8                     u248_21:
  6094  05C8  2DCC               	goto	i1l4298
  6095  05C9                     u248_20:
  6096  05C9                     i1l4296:
  6097                           
  6098                           ;mcc_generated_files/usb/usb_device.c: 1690:             {;mcc_generated_files/usb/usb_d
      +                          evice.c: 1691:                 USBCtrlEPAllowDataStage();
  6099  05C9  318C  24EB  3185   	fcall	_USBCtrlEPAllowDataStage
  6100  05CC                     i1l4298:
  6101                           
  6102                           ;mcc_generated_files/usb/usb_device.c: 1714:             USBStatusStageEnabledFlag2 = 0;
  6103  05CC  0021               	movlb	1	; select bank1
  6104  05CD  01D7               	clrf	_USBStatusStageEnabledFlag2^(0+128)	;volatile
  6105  05CE                     i1l4300:
  6106                           
  6107                           ;mcc_generated_files/usb/usb_device.c: 1715:             USBStatusStageEnabledFlag1 = 0;
  6108  05CE  01D8               	clrf	_USBStatusStageEnabledFlag1^(0+128)	;volatile
  6109  05CF                     i1l4302:
  6110                           
  6111                           ;mcc_generated_files/usb/usb_device.c: 1716:             if(USBDeferStatusStagePacket ==
      +                           0)
  6112  05CF  0859               	movf	_USBDeferStatusStagePacket^(0+128),w	;volatile
  6113  05D0  1D03               	btfss	3,2
  6114  05D1  2DD3               	goto	u249_21
  6115  05D2  2DD4               	goto	u249_20
  6116  05D3                     u249_21:
  6117  05D3  2E09               	goto	i1l396
  6118  05D4                     u249_20:
  6119  05D4                     i1l4304:
  6120                           
  6121                           ;mcc_generated_files/usb/usb_device.c: 1717:             {;mcc_generated_files/usb/usb_d
      +                          evice.c: 1718:                 USBCtrlEPAllowStatusStage();
  6122  05D4  318E  2614  3185   	fcall	_USBCtrlEPAllowStatusStage
  6123  05D7  2E09               	goto	i1l396
  6124  05D8                     i1l4306:
  6125                           
  6126                           ;mcc_generated_files/usb/usb_device.c: 1722:   {;mcc_generated_files/usb/usb_device.c: 1
      +                          733:    controlTransferState = 2;
  6127  05D8  3002               	movlw	2
  6128  05D9  00F5               	movwf	??_USBCtrlEPServiceComplete
  6129  05DA  0875               	movf	??_USBCtrlEPServiceComplete,w
  6130  05DB  00DB               	movwf	_controlTransferState	;volatile
  6131  05DC                     i1l4308:
  6132                           
  6133                           ;mcc_generated_files/usb/usb_device.c: 1736:    pBDTEntryEP0OutNext->CNT = 8;
  6134  05DC  0859               	movf	_pBDTEntryEP0OutNext,w
  6135  05DD  3E01               	addlw	1
  6136  05DE  00F5               	movwf	??_USBCtrlEPServiceComplete
  6137  05DF  3000               	movlw	0
  6138  05E0  3D5A               	addwfc	_pBDTEntryEP0OutNext+1,w
  6139  05E1  00F6               	movwf	??_USBCtrlEPServiceComplete+1
  6140  05E2  0875               	movf	??_USBCtrlEPServiceComplete,w
  6141  05E3  0086               	movwf	6
  6142  05E4  0876               	movf	??_USBCtrlEPServiceComplete+1,w
  6143  05E5  0087               	movwf	7
  6144  05E6  3008               	movlw	8
  6145  05E7  0081               	movwf	1
  6146  05E8                     i1l4310:
  6147                           
  6148                           ;mcc_generated_files/usb/usb_device.c: 1737:    pBDTEntryEP0OutNext->ADR = (((uint16_t)(
      +                          &SetupPkt)) & 0x7FFF);
  6149  05E8  3040               	movlw	64
  6150  05E9  00F5               	movwf	??_USBCtrlEPServiceComplete
  6151  05EA  3000               	movlw	0
  6152  05EB  00F6               	movwf	??_USBCtrlEPServiceComplete+1
  6153  05EC  0859               	movf	_pBDTEntryEP0OutNext,w
  6154  05ED  0086               	movwf	6
  6155  05EE  085A               	movf	_pBDTEntryEP0OutNext+1,w
  6156  05EF  0087               	movwf	7
  6157  05F0  3142               	addfsr 1,2
  6158  05F1  0875               	movf	??_USBCtrlEPServiceComplete,w
  6159  05F2  3FC0               	movwi [0]fsr1
  6160  05F3  0876               	movf	??_USBCtrlEPServiceComplete+1,w
  6161  05F4  3FC1               	movwi [1]fsr1
  6162  05F5                     i1l4312:
  6163                           
  6164                           ;mcc_generated_files/usb/usb_device.c: 1738:    pBDTEntryEP0OutNext->STAT.Val = 0x04;
  6165  05F5  0859               	movf	_pBDTEntryEP0OutNext,w
  6166  05F6  0086               	movwf	6
  6167  05F7  085A               	movf	_pBDTEntryEP0OutNext+1,w
  6168  05F8  0087               	movwf	7
  6169  05F9  3004               	movlw	4
  6170  05FA  0081               	movwf	1
  6171  05FB                     i1l4314:
  6172                           
  6173                           ;mcc_generated_files/usb/usb_device.c: 1739:             pBDTEntryEP0OutNext->STAT.Val |
      +                          = 0x80;
  6174  05FB  0859               	movf	_pBDTEntryEP0OutNext,w
  6175  05FC  0086               	movwf	6
  6176  05FD  085A               	movf	_pBDTEntryEP0OutNext+1,w
  6177  05FE  0087               	movwf	7
  6178  05FF  1781               	bsf	1,7
  6179  0600                     i1l4316:
  6180                           
  6181                           ;mcc_generated_files/usb/usb_device.c: 1742:             USBStatusStageEnabledFlag2 = 0;
  6182  0600  0021               	movlb	1	; select bank1
  6183  0601  01D7               	clrf	_USBStatusStageEnabledFlag2^(0+128)	;volatile
  6184  0602                     i1l4318:
  6185                           
  6186                           ;mcc_generated_files/usb/usb_device.c: 1743:             USBStatusStageEnabledFlag1 = 0;
  6187  0602  01D8               	clrf	_USBStatusStageEnabledFlag1^(0+128)	;volatile
  6188                           
  6189                           ;mcc_generated_files/usb/usb_device.c: 1744:    if(USBDeferStatusStagePacket == 0)
  6190  0603  0859               	movf	_USBDeferStatusStagePacket^(0+128),w	;volatile
  6191  0604  1D03               	btfss	3,2
  6192  0605  2E07               	goto	u250_21
  6193  0606  2E08               	goto	u250_20
  6194  0607                     u250_21:
  6195  0607  2E09               	goto	i1l396
  6196  0608                     u250_20:
  6197  0608  2DD4               	goto	i1l4304
  6198  0609                     i1l396:
  6199  0609  0008               	return
  6200  060A                     __end_of_USBCtrlEPServiceComplete:
  6201                           
  6202                           	psect	text22
  6203  0CEB                     __ptext22:	
  6204 ;; *************** function _USBCtrlEPAllowDataStage *****************
  6205 ;; Defined at:
  6206 ;;		line 1492 in file "mcc_generated_files/usb/usb_device.c"
  6207 ;; Parameters:    Size  Location     Type
  6208 ;;		None
  6209 ;; Auto vars:     Size  Location     Type
  6210 ;;		None
  6211 ;; Return value:  Size  Location     Type
  6212 ;;                  1    wreg      void 
  6213 ;; Registers used:
  6214 ;;		wreg, fsr0l, fsr0h, fsr1l, fsr1h, status,2, status,0, pclath, cstack
  6215 ;; Tracked objects:
  6216 ;;		On entry : 0/0
  6217 ;;		On exit  : 0/0
  6218 ;;		Unchanged: 0/0
  6219 ;; Data sizes:     COMMON  BANK0h   BANK1   BANK2   BANK3   BANK4   BANK5   BANK6   BANK7   BANK8   BANK9  BANK10  BANK1
      +1  BANK12
  6220 ;;      Params:         0       0       0       0       0       0       0       0       0       0       0       0       
      +0       0
  6221 ;;      Locals:         0       0       0       0       0       0       0       0       0       0       0       0       
      +0       0
  6222 ;;      Temps:          2       0       0       0       0       0       0       0       0       0       0       0       
      +0       0
  6223 ;;      Totals:         2       0       0       0       0       0       0       0       0       0       0       0       
      +0       0
  6224 ;;Total ram usage:        2 bytes
  6225 ;; Hardware stack levels used:    1
  6226 ;; Hardware stack levels required when called:    1
  6227 ;; This function calls:
  6228 ;;		_USBCtrlTrfTxService
  6229 ;; This function is called by:
  6230 ;;		_USBCtrlEPServiceComplete
  6231 ;; This function uses a non-reentrant model
  6232 ;;
  6233                           
  6234                           
  6235                           ;psect for function _USBCtrlEPAllowDataStage
  6236  0CEB                     _USBCtrlEPAllowDataStage:
  6237  0CEB                     i1l3988:	
  6238                           ;incstack = 0
  6239                           ; Regs used in _USBCtrlEPAllowDataStage: [wreg-fsr1h+status,2+status,0+pclath+cstack]
  6240                           
  6241                           
  6242                           ;mcc_generated_files/usb/usb_device.c: 1494:     USBDeferINDataStagePackets = 0;
  6243  0CEB  0021               	movlb	1	; select bank1
  6244  0CEC  01D6               	clrf	_USBDeferINDataStagePackets^(0+128)	;volatile
  6245                           
  6246                           ;mcc_generated_files/usb/usb_device.c: 1495:     USBDeferOUTDataStagePackets = 0;
  6247  0CED  01D5               	clrf	_USBDeferOUTDataStagePackets^(0+128)	;volatile
  6248  0CEE                     i1l3990:
  6249                           
  6250                           ;mcc_generated_files/usb/usb_device.c: 1497:     if(controlTransferState == 2)
  6251  0CEE  3002               	movlw	2
  6252  0CEF  0020               	movlb	0	; select bank0
  6253  0CF0  065B               	xorwf	_controlTransferState,w	;volatile
  6254  0CF1  1D03               	btfss	3,2
  6255  0CF2  2CF4               	goto	u212_21
  6256  0CF3  2CF5               	goto	u212_20
  6257  0CF4                     u212_21:
  6258  0CF4  2D1A               	goto	i1l4000
  6259  0CF5                     u212_20:
  6260  0CF5                     i1l3992:
  6261                           
  6262                           ;mcc_generated_files/usb/usb_device.c: 1498:     {;mcc_generated_files/usb/usb_device.c:
      +                           1500:         pBDTEntryEP0OutNext->CNT = 8;
  6263  0CF5  0859               	movf	_pBDTEntryEP0OutNext,w
  6264  0CF6  3E01               	addlw	1
  6265  0CF7  00F3               	movwf	??_USBCtrlEPAllowDataStage
  6266  0CF8  3000               	movlw	0
  6267  0CF9  3D5A               	addwfc	_pBDTEntryEP0OutNext+1,w
  6268  0CFA  00F4               	movwf	??_USBCtrlEPAllowDataStage+1
  6269  0CFB  0873               	movf	??_USBCtrlEPAllowDataStage,w
  6270  0CFC  0086               	movwf	6
  6271  0CFD  0874               	movf	??_USBCtrlEPAllowDataStage+1,w
  6272  0CFE  0087               	movwf	7
  6273  0CFF  3008               	movlw	8
  6274  0D00  0081               	movwf	1
  6275  0D01                     i1l3994:
  6276                           
  6277                           ;mcc_generated_files/usb/usb_device.c: 1501:         pBDTEntryEP0OutNext->ADR = (((uint1
      +                          6_t)(&CtrlTrfData)) & 0x7FFF);
  6278  0D01  3048               	movlw	72
  6279  0D02  00F3               	movwf	??_USBCtrlEPAllowDataStage
  6280  0D03  3000               	movlw	0
  6281  0D04  00F4               	movwf	??_USBCtrlEPAllowDataStage+1
  6282  0D05  0859               	movf	_pBDTEntryEP0OutNext,w
  6283  0D06  0086               	movwf	6
  6284  0D07  085A               	movf	_pBDTEntryEP0OutNext+1,w
  6285  0D08  0087               	movwf	7
  6286  0D09  3142               	addfsr 1,2
  6287  0D0A  0873               	movf	??_USBCtrlEPAllowDataStage,w
  6288  0D0B  3FC0               	movwi [0]fsr1
  6289  0D0C  0874               	movf	??_USBCtrlEPAllowDataStage+1,w
  6290  0D0D  3FC1               	movwi [1]fsr1
  6291  0D0E                     i1l3996:
  6292                           
  6293                           ;mcc_generated_files/usb/usb_device.c: 1502:         pBDTEntryEP0OutNext->STAT.Val = 0x4
      +                          0|(0x08 & 0x08);
  6294  0D0E  0859               	movf	_pBDTEntryEP0OutNext,w
  6295  0D0F  0086               	movwf	6
  6296  0D10  085A               	movf	_pBDTEntryEP0OutNext+1,w
  6297  0D11  0087               	movwf	7
  6298  0D12  3048               	movlw	72
  6299  0D13  0081               	movwf	1
  6300  0D14                     i1l3998:
  6301                           
  6302                           ;mcc_generated_files/usb/usb_device.c: 1503:         pBDTEntryEP0OutNext->STAT.Val |= 0x
      +                          80;
  6303  0D14  0859               	movf	_pBDTEntryEP0OutNext,w
  6304  0D15  0086               	movwf	6
  6305  0D16  085A               	movf	_pBDTEntryEP0OutNext+1,w
  6306  0D17  0087               	movwf	7
  6307  0D18  1781               	bsf	1,7
  6308                           
  6309                           ;mcc_generated_files/usb/usb_device.c: 1504:     }
  6310  0D19  2D44               	goto	i1l378
  6311  0D1A                     i1l4000:
  6312                           
  6313                           ;mcc_generated_files/usb/usb_device.c: 1506:     {;mcc_generated_files/usb/usb_device.c:
      +                           1509:   if(SetupPkt.wLength < inPipes[0].wCount.Val)
  6314  0D1A  0854               	movf	_inPipes+4,w	;volatile
  6315  0D1B  0247               	subwf	71,w	;volatile
  6316  0D1C  1D03               	skipz
  6317  0D1D  2D20               	goto	u213_25
  6318  0D1E  0853               	movf	_inPipes+3,w	;volatile
  6319  0D1F  0246               	subwf	70,w	;volatile
  6320  0D20                     u213_25:
  6321  0D20  1803               	skipnc
  6322  0D21  2D23               	goto	u213_21
  6323  0D22  2D24               	goto	u213_20
  6324  0D23                     u213_21:
  6325  0D23  2D28               	goto	i1l4004
  6326  0D24                     u213_20:
  6327  0D24                     i1l4002:
  6328                           
  6329                           ;mcc_generated_files/usb/usb_device.c: 1510:   {;mcc_generated_files/usb/usb_device.c: 1
      +                          511:    inPipes[0].wCount.Val = SetupPkt.wLength;
  6330  0D24  0847               	movf	71,w	;volatile
  6331  0D25  00D4               	movwf	_inPipes+4	;volatile
  6332  0D26  0846               	movf	70,w	;volatile
  6333  0D27  00D3               	movwf	_inPipes+3	;volatile
  6334  0D28                     i1l4004:
  6335                           
  6336                           ;mcc_generated_files/usb/usb_device.c: 1513:   USBCtrlTrfTxService();
  6337  0D28  3187  2731  318C   	fcall	_USBCtrlTrfTxService
  6338  0D2B                     i1l4006:
  6339                           
  6340                           ;mcc_generated_files/usb/usb_device.c: 1518:   pBDTEntryIn[0]->ADR = (((uint16_t)(&CtrlT
      +                          rfData)) & 0x7FFF);
  6341  0D2B  3048               	movlw	72
  6342  0D2C  00F3               	movwf	??_USBCtrlEPAllowDataStage
  6343  0D2D  3000               	movlw	0
  6344  0D2E  00F4               	movwf	??_USBCtrlEPAllowDataStage+1
  6345  0D2F  0020               	movlb	0	; select bank0
  6346  0D30  0855               	movf	_pBDTEntryIn,w
  6347  0D31  0086               	movwf	6
  6348  0D32  0856               	movf	_pBDTEntryIn+1,w
  6349  0D33  0087               	movwf	7
  6350  0D34  3142               	addfsr 1,2
  6351  0D35  0873               	movf	??_USBCtrlEPAllowDataStage,w
  6352  0D36  3FC0               	movwi [0]fsr1
  6353  0D37  0874               	movf	??_USBCtrlEPAllowDataStage+1,w
  6354  0D38  3FC1               	movwi [1]fsr1
  6355  0D39                     i1l4008:
  6356                           
  6357                           ;mcc_generated_files/usb/usb_device.c: 1519:   pBDTEntryIn[0]->STAT.Val = 0x40|(0x08 & 0
      +                          x08);
  6358  0D39  0855               	movf	_pBDTEntryIn,w
  6359  0D3A  0086               	movwf	6
  6360  0D3B  0856               	movf	_pBDTEntryIn+1,w
  6361  0D3C  0087               	movwf	7
  6362  0D3D  3048               	movlw	72
  6363  0D3E  0081               	movwf	1
  6364  0D3F                     i1l4010:
  6365                           
  6366                           ;mcc_generated_files/usb/usb_device.c: 1520:         pBDTEntryIn[0]->STAT.Val |= 0x80;
  6367  0D3F  0855               	movf	_pBDTEntryIn,w
  6368  0D40  0086               	movwf	6
  6369  0D41  0856               	movf	_pBDTEntryIn+1,w
  6370  0D42  0087               	movwf	7
  6371  0D43  1781               	bsf	1,7
  6372  0D44                     i1l378:
  6373  0D44  0008               	return
  6374  0D45                     __end_of_USBCtrlEPAllowDataStage:
  6375                           
  6376                           	psect	text23
  6377  0F84                     __ptext23:	
  6378 ;; *************** function _USBCheckStdRequest *****************
  6379 ;; Defined at:
  6380 ;;		line 2690 in file "mcc_generated_files/usb/usb_device.c"
  6381 ;; Parameters:    Size  Location     Type
  6382 ;;		None
  6383 ;; Auto vars:     Size  Location     Type
  6384 ;;		None
  6385 ;; Return value:  Size  Location     Type
  6386 ;;                  1    wreg      void 
  6387 ;; Registers used:
  6388 ;;		wreg, fsr0l, fsr0h, fsr1l, fsr1h, status,2, status,0, pclath, cstack
  6389 ;; Tracked objects:
  6390 ;;		On entry : 0/0
  6391 ;;		On exit  : 0/0
  6392 ;;		Unchanged: 0/0
  6393 ;; Data sizes:     COMMON  BANK0h   BANK1   BANK2   BANK3   BANK4   BANK5   BANK6   BANK7   BANK8   BANK9  BANK10  BANK1
      +1  BANK12
  6394 ;;      Params:         0       0       0       0       0       0       0       0       0       0       0       0       
      +0       0
  6395 ;;      Locals:         0       0       0       0       0       0       0       0       0       0       0       0       
      +0       0
  6396 ;;      Temps:          2       0       0       0       0       0       0       0       0       0       0       0       
      +0       0
  6397 ;;      Totals:         2       0       0       0       0       0       0       0       0       0       0       0       
      +0       0
  6398 ;;Total ram usage:        2 bytes
  6399 ;; Hardware stack levels used:    1
  6400 ;; Hardware stack levels required when called:    3
  6401 ;; This function calls:
  6402 ;;		_USBStdFeatureReqHandler
  6403 ;;		_USBStdGetDscHandler
  6404 ;;		_USBStdGetStatusHandler
  6405 ;;		_USBStdSetCfgHandler
  6406 ;;		_USER_USB_CALLBACK_EVENT_HANDLER
  6407 ;; This function is called by:
  6408 ;;		_USBCtrlTrfSetupHandler
  6409 ;; This function uses a non-reentrant model
  6410 ;;
  6411                           
  6412                           
  6413                           ;psect for function _USBCheckStdRequest
  6414  0F84                     _USBCheckStdRequest:
  6415  0F84                     i1l4364:	
  6416                           ;incstack = 0
  6417                           ; Regs used in _USBCheckStdRequest: [wreg-fsr1h+status,2+status,0+pclath+cstack]
  6418                           
  6419                           
  6420                           ;mcc_generated_files/usb/usb_device.c: 2692:     if(SetupPkt.RequestType != (0x00>>5)) r
      +                          eturn;
  6421  0F84  0020               	movlb	0	; select bank0
  6422  0F85  0E40               	swapf	64,w	;volatile
  6423  0F86  0C89               	rrf	9,f
  6424  0F87  3903               	andlw	3
  6425  0F88  3A00               	xorlw	0
  6426  0F89  1903               	skipnz
  6427  0F8A  2F8C               	goto	u256_21
  6428  0F8B  2F8D               	goto	u256_20
  6429  0F8C                     u256_21:
  6430  0F8C  2FD4               	goto	i1l4400
  6431  0F8D                     u256_20:
  6432  0F8D  2FFF               	goto	i1l513
  6433  0F8E                     i1l515:	
  6434                           ;mcc_generated_files/usb/usb_device.c: 2695:     {;mcc_generated_files/usb/usb_device.c:
      +                           2696:         case 5:
  6435                           
  6436                           
  6437                           ;mcc_generated_files/usb/usb_device.c: 2697:             inPipes[0].info.bits.busy = 1;
  6438  0F8E  17D2               	bsf	_inPipes+2,7	;volatile
  6439  0F8F                     i1l4368:
  6440                           
  6441                           ;mcc_generated_files/usb/usb_device.c: 2698:             USBDeviceState = ADR_PENDING_ST
      +                          ATE;
  6442  0F8F  3008               	movlw	8
  6443  0F90  00FB               	movwf	??_USBCheckStdRequest
  6444  0F91  087B               	movf	??_USBCheckStdRequest,w
  6445  0F92  00DD               	movwf	_USBDeviceState	;volatile
  6446                           
  6447                           ;mcc_generated_files/usb/usb_device.c: 2700:             break;
  6448  0F93  2FFF               	goto	i1l513
  6449  0F94                     i1l4370:
  6450                           
  6451                           ;mcc_generated_files/usb/usb_device.c: 2702:             USBStdGetDscHandler();
  6452  0F94  3186  260A  318F   	fcall	_USBStdGetDscHandler
  6453                           
  6454                           ;mcc_generated_files/usb/usb_device.c: 2703:             break;
  6455  0F97  2FFF               	goto	i1l513
  6456  0F98                     i1l4372:
  6457                           
  6458                           ;mcc_generated_files/usb/usb_device.c: 2705:             USBStdSetCfgHandler();
  6459  0F98  318E  268D  318F   	fcall	_USBStdSetCfgHandler
  6460                           
  6461                           ;mcc_generated_files/usb/usb_device.c: 2706:             break;
  6462  0F9B  2FFF               	goto	i1l513
  6463  0F9C                     i1l4374:
  6464                           
  6465                           ;mcc_generated_files/usb/usb_device.c: 2708:             inPipes[0].pSrc.bRam = (uint8_t
      +                          *)&USBActiveConfiguration;
  6466  0F9C  305F               	movlw	low _USBActiveConfiguration
  6467  0F9D  00D0               	movwf	_inPipes	;volatile
  6468  0F9E  3000               	movlw	high _USBActiveConfiguration
  6469  0F9F  00D1               	movwf	_inPipes+1	;volatile
  6470  0FA0                     i1l4376:
  6471                           
  6472                           ;mcc_generated_files/usb/usb_device.c: 2709:             inPipes[0].info.bits.ctrl_trf_m
      +                          em = 0x01;
  6473  0FA0  1452               	bsf	_inPipes+2,0	;volatile
  6474  0FA1                     i1l4378:
  6475                           
  6476                           ;mcc_generated_files/usb/usb_device.c: 2710:             inPipes[0].wCount.v[0] = 1;
  6477  0FA1  3001               	movlw	1
  6478  0FA2  00FB               	movwf	??_USBCheckStdRequest
  6479  0FA3  087B               	movf	??_USBCheckStdRequest,w
  6480  0FA4  00D3               	movwf	_inPipes+3	;volatile
  6481  0FA5                     i1l4380:
  6482                           
  6483                           ;mcc_generated_files/usb/usb_device.c: 2711:             inPipes[0].info.bits.busy = 1;
  6484  0FA5  17D2               	bsf	_inPipes+2,7	;volatile
  6485                           
  6486                           ;mcc_generated_files/usb/usb_device.c: 2712:             break;
  6487  0FA6  2FFF               	goto	i1l513
  6488  0FA7                     i1l4382:
  6489                           
  6490                           ;mcc_generated_files/usb/usb_device.c: 2714:             USBStdGetStatusHandler();
  6491  0FA7  318D  2545  318F   	fcall	_USBStdGetStatusHandler
  6492                           
  6493                           ;mcc_generated_files/usb/usb_device.c: 2715:             break;
  6494  0FAA  2FFF               	goto	i1l513
  6495  0FAB                     i1l4384:
  6496                           
  6497                           ;mcc_generated_files/usb/usb_device.c: 2718:             USBStdFeatureReqHandler();
  6498  0FAB  3180  2066  318F   	fcall	_USBStdFeatureReqHandler
  6499                           
  6500                           ;mcc_generated_files/usb/usb_device.c: 2719:             break;
  6501  0FAE  2FFF               	goto	i1l513
  6502  0FAF                     i1l4386:
  6503                           
  6504                           ;mcc_generated_files/usb/usb_device.c: 2721:             inPipes[0].pSrc.bRam = (uint8_t
      +                          *)&USBAlternateInterface[SetupPkt.bIntfID];
  6505  0FAF  0844               	movf	68,w	;volatile
  6506  0FB0  3EE1               	addlw	(low (_USBAlternateInterface| 0))& (0+255)
  6507  0FB1  00D0               	movwf	_inPipes	;volatile
  6508  0FB2  3000               	movlw	0
  6509  0FB3  00D1               	movwf	_inPipes+1	;volatile
  6510  0FB4                     i1l4388:
  6511                           
  6512                           ;mcc_generated_files/usb/usb_device.c: 2722:             inPipes[0].info.bits.ctrl_trf_m
      +                          em = 0x01;
  6513  0FB4  1452               	bsf	_inPipes+2,0	;volatile
  6514  0FB5                     i1l4390:
  6515                           
  6516                           ;mcc_generated_files/usb/usb_device.c: 2723:             inPipes[0].wCount.v[0] = 1;
  6517  0FB5  3001               	movlw	1
  6518  0FB6  00FB               	movwf	??_USBCheckStdRequest
  6519  0FB7  087B               	movf	??_USBCheckStdRequest,w
  6520  0FB8  00D3               	movwf	_inPipes+3	;volatile
  6521  0FB9                     i1l4392:
  6522                           
  6523                           ;mcc_generated_files/usb/usb_device.c: 2724:             inPipes[0].info.bits.busy = 1;
  6524  0FB9  17D2               	bsf	_inPipes+2,7	;volatile
  6525                           
  6526                           ;mcc_generated_files/usb/usb_device.c: 2725:             break;
  6527  0FBA  2FFF               	goto	i1l513
  6528  0FBB                     i1l524:	
  6529                           ;mcc_generated_files/usb/usb_device.c: 2726:         case 11:
  6530                           
  6531                           
  6532                           ;mcc_generated_files/usb/usb_device.c: 2727:             inPipes[0].info.bits.busy = 1;
  6533  0FBB  17D2               	bsf	_inPipes+2,7	;volatile
  6534  0FBC                     i1l4394:
  6535                           
  6536                           ;mcc_generated_files/usb/usb_device.c: 2728:             USBAlternateInterface[SetupPkt.
      +                          bIntfID] = SetupPkt.bAltID;
  6537  0FBC  0842               	movf	66,w	;volatile
  6538  0FBD  00FB               	movwf	??_USBCheckStdRequest
  6539  0FBE  0844               	movf	68,w	;volatile
  6540  0FBF  3EE1               	addlw	(low (_USBAlternateInterface| 0))& (0+255)
  6541  0FC0  0086               	movwf	6
  6542  0FC1  0187               	clrf	7
  6543  0FC2  087B               	movf	??_USBCheckStdRequest,w
  6544  0FC3  0081               	movwf	1
  6545                           
  6546                           ;mcc_generated_files/usb/usb_device.c: 2729:             break;
  6547  0FC4  2FFF               	goto	i1l513
  6548  0FC5                     i1l4396:
  6549                           
  6550                           ;mcc_generated_files/usb/usb_device.c: 2731:             USER_USB_CALLBACK_EVENT_HANDLER
      +                          ((USB_EVENT)EVENT_SET_DESCRIPTOR,0,0);
  6551  0FC5  3002               	movlw	2
  6552  0FC6  00F3               	movwf	USER_USB_CALLBACK_EVENT_HANDLER@event
  6553  0FC7  3000               	movlw	0
  6554  0FC8  00F4               	movwf	USER_USB_CALLBACK_EVENT_HANDLER@event+1
  6555  0FC9  3000               	movlw	0
  6556  0FCA  00F5               	movwf	USER_USB_CALLBACK_EVENT_HANDLER@pdata
  6557  0FCB  3000               	movlw	0
  6558  0FCC  00F6               	movwf	USER_USB_CALLBACK_EVENT_HANDLER@pdata+1
  6559  0FCD  3000               	movlw	0
  6560  0FCE  00F7               	movwf	USER_USB_CALLBACK_EVENT_HANDLER@size
  6561  0FCF  00F8               	movwf	USER_USB_CALLBACK_EVENT_HANDLER@size+1
  6562  0FD0  318B  2308  318F   	fcall	_USER_USB_CALLBACK_EVENT_HANDLER
  6563                           
  6564                           ;mcc_generated_files/usb/usb_device.c: 2732:             break;
  6565  0FD3  2FFF               	goto	i1l513
  6566  0FD4                     i1l4400:
  6567  0FD4  0841               	movf	65,w	;volatile
  6568  0FD5  00FB               	movwf	??_USBCheckStdRequest
  6569  0FD6  01FC               	clrf	??_USBCheckStdRequest+1
  6570                           
  6571                           ; Switch on 2 bytes has been partitioned into a top level switch of size 1, and 1 sub-sw
      +                          itches
  6572                           ; Switch size 1, requested type "simple"
  6573                           ; Number of cases is 1, Range of values is 0 to 0
  6574                           ; switch strategies available:
  6575                           ; Name         Instructions Cycles
  6576                           ; simple_byte            4     3 (average)
  6577                           ; direct_byte            8     6 (fixed)
  6578                           ; jumptable            260     6 (fixed)
  6579                           ;	Chosen strategy is simple_byte
  6580  0FD7  087C               	movf	??_USBCheckStdRequest+1,w
  6581  0FD8  3A00               	xorlw	0	; case 0
  6582  0FD9  1903               	skipnz
  6583  0FDA  2FDC               	goto	i1l6256
  6584  0FDB  2FFF               	goto	i1l513
  6585  0FDC                     i1l6256:
  6586                           
  6587                           ; Switch size 1, requested type "simple"
  6588                           ; Number of cases is 11, Range of values is 0 to 12
  6589                           ; switch strategies available:
  6590                           ; Name         Instructions Cycles
  6591                           ; direct_byte           32     6 (fixed)
  6592                           ; simple_byte           34    18 (average)
  6593                           ; jumptable            260     6 (fixed)
  6594                           ;	Chosen strategy is simple_byte
  6595  0FDC  087B               	movf	??_USBCheckStdRequest,w
  6596  0FDD  3A00               	xorlw	0	; case 0
  6597  0FDE  1903               	skipnz
  6598  0FDF  2FA7               	goto	i1l4382
  6599  0FE0  3A01               	xorlw	1	; case 1
  6600  0FE1  1903               	skipnz
  6601  0FE2  2FAB               	goto	i1l4384
  6602  0FE3  3A02               	xorlw	2	; case 3
  6603  0FE4  1903               	skipnz
  6604  0FE5  2FAB               	goto	i1l4384
  6605  0FE6  3A06               	xorlw	6	; case 5
  6606  0FE7  1903               	skipnz
  6607  0FE8  2F8E               	goto	i1l515
  6608  0FE9  3A03               	xorlw	3	; case 6
  6609  0FEA  1903               	skipnz
  6610  0FEB  2F94               	goto	i1l4370
  6611  0FEC  3A01               	xorlw	1	; case 7
  6612  0FED  1903               	skipnz
  6613  0FEE  2FC5               	goto	i1l4396
  6614  0FEF  3A0F               	xorlw	15	; case 8
  6615  0FF0  1903               	skipnz
  6616  0FF1  2F9C               	goto	i1l4374
  6617  0FF2  3A01               	xorlw	1	; case 9
  6618  0FF3  1903               	skipnz
  6619  0FF4  2F98               	goto	i1l4372
  6620  0FF5  3A03               	xorlw	3	; case 10
  6621  0FF6  1903               	skipnz
  6622  0FF7  2FAF               	goto	i1l4386
  6623  0FF8  3A01               	xorlw	1	; case 11
  6624  0FF9  1903               	skipnz
  6625  0FFA  2FBB               	goto	i1l524
  6626  0FFB  3A07               	xorlw	7	; case 12
  6627  0FFC  1903               	skipnz
  6628  0FFD  2FFF               	goto	i1l513
  6629  0FFE  2FFF               	goto	i1l513
  6630  0FFF                     i1l513:
  6631  0FFF  0008               	return
  6632  1000                     __end_of_USBCheckStdRequest:
  6633                           
  6634                           	psect	text24
  6635  0E8D                     __ptext24:	
  6636 ;; *************** function _USBStdSetCfgHandler *****************
  6637 ;; Defined at:
  6638 ;;		line 1972 in file "mcc_generated_files/usb/usb_device.c"
  6639 ;; Parameters:    Size  Location     Type
  6640 ;;		None
  6641 ;; Auto vars:     Size  Location     Type
  6642 ;;  p               2    0[BANK0h] PTR unsigned char 
  6643 ;;		 -> UEP1(1), 
  6644 ;;  i               1    2[BANK0h] unsigned char 
  6645 ;;  i               1    3[BANK0h] unsigned char 
  6646 ;; Return value:  Size  Location     Type
  6647 ;;                  1    wreg      void 
  6648 ;; Registers used:
  6649 ;;		wreg, fsr0l, fsr0h, fsr1l, fsr1h, status,2, status,0, pclath, cstack
  6650 ;; Tracked objects:
  6651 ;;		On entry : 0/0
  6652 ;;		On exit  : 0/0
  6653 ;;		Unchanged: 0/0
  6654 ;; Data sizes:     COMMON  BANK0h   BANK1   BANK2   BANK3   BANK4   BANK5   BANK6   BANK7   BANK8   BANK9  BANK10  BANK1
      +1  BANK12
  6655 ;;      Params:         0       0       0       0       0       0       0       0       0       0       0       0       
      +0       0
  6656 ;;      Locals:         0       4       0       0       0       0       0       0       0       0       0       0       
      +0       0
  6657 ;;      Temps:          1       0       0       0       0       0       0       0       0       0       0       0       
      +0       0
  6658 ;;      Totals:         1       4       0       0       0       0       0       0       0       0       0       0       
      +0       0
  6659 ;;Total ram usage:        5 bytes
  6660 ;; Hardware stack levels used:    1
  6661 ;; Hardware stack levels required when called:    2
  6662 ;; This function calls:
  6663 ;;		_USER_USB_CALLBACK_EVENT_HANDLER
  6664 ;;		_memset
  6665 ;; This function is called by:
  6666 ;;		_USBCheckStdRequest
  6667 ;; This function uses a non-reentrant model
  6668 ;;
  6669                           
  6670                           
  6671                           ;psect for function _USBStdSetCfgHandler
  6672  0E8D                     _USBStdSetCfgHandler:
  6673  0E8D                     i1l4012:	
  6674                           ;incstack = 0
  6675                           ; Regs used in _USBStdSetCfgHandler: [wreg-fsr1h+status,2+status,0+pclath+cstack]
  6676                           
  6677                           
  6678                           ;mcc_generated_files/usb/usb_device.c: 1974:     uint8_t i;;mcc_generated_files/usb/usb_
      +                          device.c: 1977:     inPipes[0].info.bits.busy = 1;
  6679  0E8D  0020               	movlb	0	; select bank0
  6680  0E8E  17D2               	bsf	_inPipes+2,7	;volatile
  6681                           
  6682                           ;mcc_generated_files/usb/usb_device.c: 1980:     { uint8_t i; uint8_t* p = (uint8_t*)&UE
      +                          P1; for(i=0;i<1;i++) *p++ = 0; };
  6683  0E8F  300E               	movlw	14
  6684  0E90  00E1               	movwf	USBStdSetCfgHandler@p+1
  6685  0E91  3099               	movlw	153
  6686  0E92  00E0               	movwf	USBStdSetCfgHandler@p
  6687  0E93                     i1l4014:
  6688  0E93  01E2               	clrf	USBStdSetCfgHandler@i_1885
  6689  0E94                     i1l4020:
  6690  0E94  0860               	movf	USBStdSetCfgHandler@p,w
  6691  0E95  0086               	movwf	6
  6692  0E96  0861               	movf	USBStdSetCfgHandler@p+1,w
  6693  0E97  0087               	movwf	7
  6694  0E98  0181               	clrf	1
  6695  0E99                     i1l4022:
  6696  0E99  3001               	movlw	1
  6697  0E9A  07E0               	addwf	USBStdSetCfgHandler@p,f
  6698  0E9B  3000               	movlw	0
  6699  0E9C  3DE1               	addwfc	USBStdSetCfgHandler@p+1,f
  6700  0E9D                     i1l4024:
  6701  0E9D  3001               	movlw	1
  6702  0E9E  00FA               	movwf	??_USBStdSetCfgHandler
  6703  0E9F  087A               	movf	??_USBStdSetCfgHandler,w
  6704  0EA0  07E2               	addwf	USBStdSetCfgHandler@i_1885,f
  6705  0EA1                     i1l4026:
  6706  0EA1  0862               	movf	USBStdSetCfgHandler@i_1885,w
  6707  0EA2  1903               	btfsc	3,2
  6708  0EA3  2EA5               	goto	u214_21
  6709  0EA4  2EA6               	goto	u214_20
  6710  0EA5                     u214_21:
  6711  0EA5  2E94               	goto	i1l4020
  6712  0EA6                     u214_20:
  6713  0EA6                     i1l4028:
  6714                           
  6715                           ;mcc_generated_files/usb/usb_device.c: 1983:     memset((void*)&BDT[0], 0x00, sizeof(BDT
      +                          ));
  6716  0EA6  3000               	movlw	0
  6717  0EA7  00F0               	movwf	memset@c
  6718  0EA8  00F1               	movwf	memset@c+1
  6719  0EA9  3020               	movlw	32
  6720  0EAA  00F2               	movwf	memset@n
  6721  0EAB  3000               	movlw	0
  6722  0EAC  00F3               	movwf	memset@n+1
  6723  0EAD  3020               	movlw	32
  6724  0EAE  3184  24C8  318E   	fcall	_memset
  6725  0EB1                     i1l4030:
  6726                           
  6727                           ;mcc_generated_files/usb/usb_device.c: 1986:     UCONbits.PPBRST = 1;
  6728  0EB1  003D               	movlb	29	; select bank29
  6729  0EB2  170E               	bsf	14,6	;volatile
  6730  0EB3                     i1l4032:
  6731                           
  6732                           ;mcc_generated_files/usb/usb_device.c: 1991:  for(i = 0; i < (uint8_t)(1 +1u); i++)
  6733  0EB3  0020               	movlb	0	; select bank0
  6734  0EB4  01E3               	clrf	USBStdSetCfgHandler@i
  6735  0EB5                     i1l4038:
  6736                           
  6737                           ;mcc_generated_files/usb/usb_device.c: 1992:  {;mcc_generated_files/usb/usb_device.c: 19
      +                          93:   ep_data_in[i].Val = 0u;
  6738  0EB5  0863               	movf	USBStdSetCfgHandler@i,w
  6739  0EB6  3ED0               	addlw	(low (_ep_data_in| 0))& (0+255)
  6740  0EB7  0086               	movwf	6
  6741  0EB8  0187               	clrf	7
  6742  0EB9  0181               	clrf	1
  6743                           
  6744                           ;mcc_generated_files/usb/usb_device.c: 1994:         ep_data_out[i].Val = 0u;
  6745  0EBA  0863               	movf	USBStdSetCfgHandler@i,w
  6746  0EBB  3ECE               	addlw	(low (_ep_data_out| 0))& (0+255)
  6747  0EBC  0086               	movwf	6
  6748  0EBD  0187               	clrf	7
  6749  0EBE  0181               	clrf	1
  6750  0EBF                     i1l4040:
  6751                           
  6752                           ;mcc_generated_files/usb/usb_device.c: 1995:  }
  6753  0EBF  3001               	movlw	1
  6754  0EC0  00FA               	movwf	??_USBStdSetCfgHandler
  6755  0EC1  087A               	movf	??_USBStdSetCfgHandler,w
  6756  0EC2  07E3               	addwf	USBStdSetCfgHandler@i,f
  6757  0EC3                     i1l4042:
  6758  0EC3  3002               	movlw	2
  6759  0EC4  0263               	subwf	USBStdSetCfgHandler@i,w
  6760  0EC5  1C03               	skipc
  6761  0EC6  2EC8               	goto	u215_21
  6762  0EC7  2EC9               	goto	u215_20
  6763  0EC8                     u215_21:
  6764  0EC8  2EB5               	goto	i1l4038
  6765  0EC9                     u215_20:
  6766  0EC9                     i1l4044:
  6767                           
  6768                           ;mcc_generated_files/usb/usb_device.c: 1998:     memset((void*)&USBAlternateInterface,0x
      +                          00,1);
  6769  0EC9  3000               	movlw	0
  6770  0ECA  00F0               	movwf	memset@c
  6771  0ECB  00F1               	movwf	memset@c+1
  6772  0ECC  3001               	movlw	1
  6773  0ECD  00F2               	movwf	memset@n
  6774  0ECE  3000               	movlw	0
  6775  0ECF  00F3               	movwf	memset@n+1
  6776  0ED0  30E1               	movlw	(low (_USBAlternateInterface| 0))& (0+255)
  6777  0ED1  3184  24C8  318E   	fcall	_memset
  6778  0ED4                     i1l4046:
  6779                           
  6780                           ;mcc_generated_files/usb/usb_device.c: 2001:     UCONbits.PPBRST = 0;
  6781  0ED4  003D               	movlb	29	; select bank29
  6782  0ED5  130E               	bcf	14,6	;volatile
  6783  0ED6                     i1l4048:
  6784                           
  6785                           ;mcc_generated_files/usb/usb_device.c: 2003:     pBDTEntryIn[0] = (volatile BDT_ENTRY*)&
      +                          BDT[2];
  6786  0ED6  3028               	movlw	40
  6787  0ED7  0020               	movlb	0	; select bank0
  6788  0ED8  00D5               	movwf	_pBDTEntryIn
  6789  0ED9  3000               	movlw	0
  6790  0EDA  00D6               	movwf	_pBDTEntryIn+1
  6791  0EDB                     i1l4050:
  6792                           
  6793                           ;mcc_generated_files/usb/usb_device.c: 2006:     pBDTEntryEP0OutCurrent = (volatile BDT_
      +                          ENTRY*)&BDT[0];
  6794  0EDB  3020               	movlw	32
  6795  0EDC  00FA               	movwf	??_USBStdSetCfgHandler
  6796  0EDD  087A               	movf	??_USBStdSetCfgHandler,w
  6797  0EDE  00DC               	movwf	_pBDTEntryEP0OutCurrent
  6798  0EDF                     i1l4052:
  6799                           
  6800                           ;mcc_generated_files/usb/usb_device.c: 2007:     pBDTEntryEP0OutNext = pBDTEntryEP0OutCu
      +                          rrent;
  6801  0EDF  085C               	movf	_pBDTEntryEP0OutCurrent,w
  6802  0EE0  00D9               	movwf	_pBDTEntryEP0OutNext
  6803  0EE1  39FF               	andlw	255
  6804  0EE2  1D03               	skipz
  6805  0EE3  3000               	movlw	0
  6806  0EE4  00DA               	movwf	_pBDTEntryEP0OutNext+1
  6807  0EE5                     i1l4054:
  6808                           
  6809                           ;mcc_generated_files/usb/usb_device.c: 2010:     USBActiveConfiguration = SetupPkt.bConf
      +                          igurationValue;
  6810  0EE5  0842               	movf	66,w	;volatile
  6811  0EE6  00FA               	movwf	??_USBStdSetCfgHandler
  6812  0EE7  087A               	movf	??_USBStdSetCfgHandler,w
  6813  0EE8  00DF               	movwf	_USBActiveConfiguration	;volatile
  6814  0EE9                     i1l4056:
  6815                           
  6816                           ;mcc_generated_files/usb/usb_device.c: 2013:     if(USBActiveConfiguration == 0)
  6817  0EE9  085F               	movf	_USBActiveConfiguration,w	;volatile
  6818  0EEA  1D03               	btfss	3,2
  6819  0EEB  2EED               	goto	u216_21
  6820  0EEC  2EEE               	goto	u216_20
  6821  0EED                     u216_21:
  6822  0EED  2EF3               	goto	i1l4060
  6823  0EEE                     u216_20:
  6824  0EEE                     i1l4058:
  6825                           
  6826                           ;mcc_generated_files/usb/usb_device.c: 2014:     {;mcc_generated_files/usb/usb_device.c:
      +                           2016:         USBDeviceState = ADDRESS_STATE;
  6827  0EEE  3010               	movlw	16
  6828  0EEF  00FA               	movwf	??_USBStdSetCfgHandler
  6829  0EF0  087A               	movf	??_USBStdSetCfgHandler,w
  6830  0EF1  00DD               	movwf	_USBDeviceState	;volatile
  6831                           
  6832                           ;mcc_generated_files/usb/usb_device.c: 2017:     }
  6833  0EF2  2F07               	goto	i1l433
  6834  0EF3                     i1l4060:
  6835                           
  6836                           ;mcc_generated_files/usb/usb_device.c: 2019:     {;mcc_generated_files/usb/usb_device.c:
      +                           2021:         USER_USB_CALLBACK_EVENT_HANDLER((USB_EVENT)EVENT_CONFIGURED,(void*)&USBAc
      +                          tiveConfiguration,1);
  6837  0EF3  3001               	movlw	1
  6838  0EF4  00F3               	movwf	USER_USB_CALLBACK_EVENT_HANDLER@event
  6839  0EF5  3000               	movlw	0
  6840  0EF6  00F4               	movwf	USER_USB_CALLBACK_EVENT_HANDLER@event+1
  6841  0EF7  305F               	movlw	low _USBActiveConfiguration
  6842  0EF8  00F5               	movwf	USER_USB_CALLBACK_EVENT_HANDLER@pdata
  6843  0EF9  3000               	movlw	high _USBActiveConfiguration
  6844  0EFA  00F6               	movwf	USER_USB_CALLBACK_EVENT_HANDLER@pdata+1
  6845  0EFB  3001               	movlw	1
  6846  0EFC  00F7               	movwf	USER_USB_CALLBACK_EVENT_HANDLER@size
  6847  0EFD  3000               	movlw	0
  6848  0EFE  00F8               	movwf	USER_USB_CALLBACK_EVENT_HANDLER@size+1
  6849  0EFF  318B  2308  318E   	fcall	_USER_USB_CALLBACK_EVENT_HANDLER
  6850  0F02                     i1l4062:
  6851                           
  6852                           ;mcc_generated_files/usb/usb_device.c: 2026:         USBDeviceState = CONFIGURED_STATE;
  6853  0F02  3020               	movlw	32
  6854  0F03  00FA               	movwf	??_USBStdSetCfgHandler
  6855  0F04  087A               	movf	??_USBStdSetCfgHandler,w
  6856  0F05  0020               	movlb	0	; select bank0
  6857  0F06  00DD               	movwf	_USBDeviceState	;volatile
  6858  0F07                     i1l433:
  6859  0F07  0008               	return
  6860  0F08                     __end_of_USBStdSetCfgHandler:
  6861                           
  6862                           	psect	text25
  6863  04C8                     __ptext25:	
  6864 ;; *************** function _memset *****************
  6865 ;; Defined at:
  6866 ;;		line 4 in file "C:\Program Files\Microchip\xc8\v2.31\pic\sources\c99\common\memset.c"
  6867 ;; Parameters:    Size  Location     Type
  6868 ;;  dest            1    wreg     PTR void 
  6869 ;;		 -> USBAlternateInterface(1), BDT(32), 
  6870 ;;  c               2    0[COMMON] int 
  6871 ;;  n               2    2[COMMON] unsigned int 
  6872 ;; Auto vars:     Size  Location     Type
  6873 ;;  dest            1    8[COMMON] PTR void 
  6874 ;;		 -> USBAlternateInterface(1), BDT(32), 
  6875 ;;  k               2    6[COMMON] unsigned int 
  6876 ;;  s               1    9[COMMON] PTR unsigned char 
  6877 ;;		 -> USBAlternateInterface(1), BDT(32), 
  6878 ;; Return value:  Size  Location     Type
  6879 ;;                  1    wreg      PTR void 
  6880 ;; Registers used:
  6881 ;;		wreg, fsr1l, fsr1h, status,2, status,0
  6882 ;; Tracked objects:
  6883 ;;		On entry : 0/0
  6884 ;;		On exit  : 0/0
  6885 ;;		Unchanged: 0/0
  6886 ;; Data sizes:     COMMON  BANK0h   BANK1   BANK2   BANK3   BANK4   BANK5   BANK6   BANK7   BANK8   BANK9  BANK10  BANK1
      +1  BANK12
  6887 ;;      Params:         4       0       0       0       0       0       0       0       0       0       0       0       
      +0       0
  6888 ;;      Locals:         4       0       0       0       0       0       0       0       0       0       0       0       
      +0       0
  6889 ;;      Temps:          2       0       0       0       0       0       0       0       0       0       0       0       
      +0       0
  6890 ;;      Totals:        10       0       0       0       0       0       0       0       0       0       0       0       
      +0       0
  6891 ;;Total ram usage:       10 bytes
  6892 ;; Hardware stack levels used:    1
  6893 ;; This function calls:
  6894 ;;		Nothing
  6895 ;; This function is called by:
  6896 ;;		_USBStdSetCfgHandler
  6897 ;; This function uses a non-reentrant model
  6898 ;;
  6899                           
  6900                           
  6901                           ;psect for function _memset
  6902  04C8                     _memset:
  6903                           
  6904                           ;incstack = 0
  6905                           ; Regs used in _memset: [wreg+fsr1l+fsr1h+status,2+status,0]
  6906                           ;memset@dest stored from wreg
  6907  04C8  00F8               	movwf	memset@dest
  6908  04C9                     i1l3892:
  6909  04C9  0878               	movf	memset@dest,w
  6910  04CA  00F4               	movwf	??_memset
  6911  04CB  0874               	movf	??_memset,w
  6912  04CC  00F9               	movwf	memset@s
  6913  04CD                     i1l3894:
  6914  04CD  0872               	movf	memset@n,w
  6915  04CE  0473               	iorwf	memset@n+1,w
  6916  04CF  1D03               	btfss	3,2
  6917  04D0  2CD2               	goto	u201_21
  6918  04D1  2CD3               	goto	u201_20
  6919  04D2                     u201_21:
  6920  04D2  2CD4               	goto	i1l3898
  6921  04D3                     u201_20:
  6922  04D3  2D6B               	goto	i1l1680
  6923  04D4                     i1l3898:
  6924  04D4  0870               	movf	memset@c,w
  6925  04D5  00F4               	movwf	??_memset
  6926  04D6  0879               	movf	memset@s,w
  6927  04D7  0086               	movwf	6
  6928  04D8  0187               	clrf	7
  6929  04D9  0874               	movf	??_memset,w
  6930  04DA  0081               	movwf	1
  6931  04DB                     i1l3900:
  6932  04DB  0870               	movf	memset@c,w
  6933  04DC  00F4               	movwf	??_memset
  6934  04DD  0872               	movf	memset@n,w
  6935  04DE  0779               	addwf	memset@s,w
  6936  04DF  00F5               	movwf	??_memset+1
  6937  04E0  0875               	movf	??_memset+1,w
  6938  04E1  3EFF               	addlw	255
  6939  04E2  0086               	movwf	6
  6940  04E3  0187               	clrf	7
  6941  04E4  0874               	movf	??_memset,w
  6942  04E5  0081               	movwf	1
  6943  04E6                     i1l3902:
  6944  04E6  3000               	movlw	0
  6945  04E7  0273               	subwf	memset@n+1,w
  6946  04E8  3003               	movlw	3
  6947  04E9  1903               	skipnz
  6948  04EA  0272               	subwf	memset@n,w
  6949  04EB  1803               	skipnc
  6950  04EC  2CEE               	goto	u202_21
  6951  04ED  2CEF               	goto	u202_20
  6952  04EE                     u202_21:
  6953  04EE  2CF0               	goto	i1l3906
  6954  04EF                     u202_20:
  6955  04EF  2D6B               	goto	i1l1680
  6956  04F0                     i1l3906:
  6957  04F0  0870               	movf	memset@c,w
  6958  04F1  00F4               	movwf	??_memset
  6959  04F2  0A79               	incf	memset@s,w
  6960  04F3  0086               	movwf	6
  6961  04F4  0187               	clrf	7
  6962  04F5  0874               	movf	??_memset,w
  6963  04F6  0081               	movwf	1
  6964  04F7                     i1l3908:
  6965  04F7  0870               	movf	memset@c,w
  6966  04F8  00F4               	movwf	??_memset
  6967  04F9  0879               	movf	memset@s,w
  6968  04FA  3E02               	addlw	2
  6969  04FB  0086               	movwf	6
  6970  04FC  0187               	clrf	7
  6971  04FD  0874               	movf	??_memset,w
  6972  04FE  0081               	movwf	1
  6973  04FF                     i1l3910:
  6974  04FF  0870               	movf	memset@c,w
  6975  0500  00F4               	movwf	??_memset
  6976  0501  0872               	movf	memset@n,w
  6977  0502  0779               	addwf	memset@s,w
  6978  0503  00F5               	movwf	??_memset+1
  6979  0504  0875               	movf	??_memset+1,w
  6980  0505  3EFE               	addlw	254
  6981  0506  0086               	movwf	6
  6982  0507  0187               	clrf	7
  6983  0508  0874               	movf	??_memset,w
  6984  0509  0081               	movwf	1
  6985  050A                     i1l3912:
  6986  050A  0870               	movf	memset@c,w
  6987  050B  00F4               	movwf	??_memset
  6988  050C  0872               	movf	memset@n,w
  6989  050D  0779               	addwf	memset@s,w
  6990  050E  00F5               	movwf	??_memset+1
  6991  050F  0875               	movf	??_memset+1,w
  6992  0510  3EFD               	addlw	253
  6993  0511  0086               	movwf	6
  6994  0512  0187               	clrf	7
  6995  0513  0874               	movf	??_memset,w
  6996  0514  0081               	movwf	1
  6997  0515                     i1l3914:
  6998  0515  3000               	movlw	0
  6999  0516  0273               	subwf	memset@n+1,w
  7000  0517  3007               	movlw	7
  7001  0518  1903               	skipnz
  7002  0519  0272               	subwf	memset@n,w
  7003  051A  1803               	skipnc
  7004  051B  2D1D               	goto	u203_21
  7005  051C  2D1E               	goto	u203_20
  7006  051D                     u203_21:
  7007  051D  2D1F               	goto	i1l3918
  7008  051E                     u203_20:
  7009  051E  2D6B               	goto	i1l1680
  7010  051F                     i1l3918:
  7011  051F  0870               	movf	memset@c,w
  7012  0520  00F4               	movwf	??_memset
  7013  0521  0879               	movf	memset@s,w
  7014  0522  3E03               	addlw	3
  7015  0523  0086               	movwf	6
  7016  0524  0187               	clrf	7
  7017  0525  0874               	movf	??_memset,w
  7018  0526  0081               	movwf	1
  7019  0527  0870               	movf	memset@c,w
  7020  0528  00F4               	movwf	??_memset
  7021  0529  0872               	movf	memset@n,w
  7022  052A  0779               	addwf	memset@s,w
  7023  052B  00F5               	movwf	??_memset+1
  7024  052C  0875               	movf	??_memset+1,w
  7025  052D  3EFC               	addlw	252
  7026  052E  0086               	movwf	6
  7027  052F  0187               	clrf	7
  7028  0530  0874               	movf	??_memset,w
  7029  0531  0081               	movwf	1
  7030  0532                     i1l3920:
  7031  0532  3000               	movlw	0
  7032  0533  0273               	subwf	memset@n+1,w
  7033  0534  3009               	movlw	9
  7034  0535  1903               	skipnz
  7035  0536  0272               	subwf	memset@n,w
  7036  0537  1803               	skipnc
  7037  0538  2D3A               	goto	u204_21
  7038  0539  2D3B               	goto	u204_20
  7039  053A                     u204_21:
  7040  053A  2D3C               	goto	i1l3924
  7041  053B                     u204_20:
  7042  053B  2D6B               	goto	i1l1680
  7043  053C                     i1l3924:
  7044  053C  0979               	comf	memset@s,w
  7045  053D  00F4               	movwf	??_memset
  7046  053E  097A               	comf	memset@s+1,w
  7047  053F  00F5               	movwf	??_memset+1
  7048  0540  0AF4               	incf	??_memset,f
  7049  0541  1903               	skipnz
  7050  0542  0AF5               	incf	??_memset+1,f
  7051  0543  3003               	movlw	3
  7052  0544  0574               	andwf	??_memset,w
  7053  0545  00F6               	movwf	memset@k
  7054  0546  3000               	movlw	0
  7055  0547  0575               	andwf	??_memset+1,w
  7056  0548  00F7               	movwf	memset@k+1
  7057  0549  0876               	movf	memset@k,w
  7058  054A  00F4               	movwf	??_memset
  7059  054B  0874               	movf	??_memset,w
  7060  054C  07F9               	addwf	memset@s,f
  7061  054D                     i1l3926:
  7062  054D  0876               	movf	memset@k,w
  7063  054E  02F2               	subwf	memset@n,f
  7064  054F  0877               	movf	memset@k+1,w
  7065  0550  3BF3               	subwfb	memset@n+1,f
  7066  0551                     i1l3928:
  7067  0551  30FC               	movlw	252
  7068  0552  05F2               	andwf	memset@n,f
  7069  0553  30FF               	movlw	255
  7070  0554  05F3               	andwf	memset@n+1,f
  7071  0555  2D65               	goto	i1l3936
  7072  0556                     i1l3930:
  7073  0556  0870               	movf	memset@c,w
  7074  0557  00F4               	movwf	??_memset
  7075  0558  0879               	movf	memset@s,w
  7076  0559  0086               	movwf	6
  7077  055A  0187               	clrf	7
  7078  055B  0874               	movf	??_memset,w
  7079  055C  0081               	movwf	1
  7080  055D                     i1l3932:
  7081  055D  3001               	movlw	1
  7082  055E  02F2               	subwf	memset@n,f
  7083  055F  3000               	movlw	0
  7084  0560  3BF3               	subwfb	memset@n+1,f
  7085  0561                     i1l3934:
  7086  0561  3001               	movlw	1
  7087  0562  00F4               	movwf	??_memset
  7088  0563  0874               	movf	??_memset,w
  7089  0564  07F9               	addwf	memset@s,f
  7090  0565                     i1l3936:
  7091  0565  0872               	movf	memset@n,w
  7092  0566  0473               	iorwf	memset@n+1,w
  7093  0567  1D03               	btfss	3,2
  7094  0568  2D6A               	goto	u205_21
  7095  0569  2D6B               	goto	u205_20
  7096  056A                     u205_21:
  7097  056A  2D56               	goto	i1l3930
  7098  056B                     u205_20:
  7099  056B                     i1l1680:
  7100  056B  0008               	return
  7101  056C                     __end_of_memset:
  7102                           
  7103                           	psect	text26
  7104  0D45                     __ptext26:	
  7105 ;; *************** function _USBStdGetStatusHandler *****************
  7106 ;; Defined at:
  7107 ;;		line 2133 in file "mcc_generated_files/usb/usb_device.c"
  7108 ;; Parameters:    Size  Location     Type
  7109 ;;		None
  7110 ;; Auto vars:     Size  Location     Type
  7111 ;;  p               2    2[COMMON] PTR struct __BDT
  7112 ;;		 -> RAM(4096), BDT(32), NULL(0), 
  7113 ;; Return value:  Size  Location     Type
  7114 ;;                  1    wreg      void 
  7115 ;; Registers used:
  7116 ;;		wreg, fsr0l, fsr0h, fsr1l, fsr1h, status,2, status,0
  7117 ;; Tracked objects:
  7118 ;;		On entry : 0/0
  7119 ;;		On exit  : 0/0
  7120 ;;		Unchanged: 0/0
  7121 ;; Data sizes:     COMMON  BANK0h   BANK1   BANK2   BANK3   BANK4   BANK5   BANK6   BANK7   BANK8   BANK9  BANK10  BANK1
      +1  BANK12
  7122 ;;      Params:         0       0       0       0       0       0       0       0       0       0       0       0       
      +0       0
  7123 ;;      Locals:         2       0       0       0       0       0       0       0       0       0       0       0       
      +0       0
  7124 ;;      Temps:          2       0       0       0       0       0       0       0       0       0       0       0       
      +0       0
  7125 ;;      Totals:         4       0       0       0       0       0       0       0       0       0       0       0       
      +0       0
  7126 ;;Total ram usage:        4 bytes
  7127 ;; Hardware stack levels used:    1
  7128 ;; This function calls:
  7129 ;;		Nothing
  7130 ;; This function is called by:
  7131 ;;		_USBCheckStdRequest
  7132 ;; This function uses a non-reentrant model
  7133 ;;
  7134                           
  7135                           
  7136                           ;psect for function _USBStdGetStatusHandler
  7137  0D45                     _USBStdGetStatusHandler:
  7138  0D45                     i1l4106:	
  7139                           ;incstack = 0
  7140                           ; Regs used in _USBStdGetStatusHandler: [wreg-fsr1h+status,2+status,0]
  7141                           
  7142                           
  7143                           ;mcc_generated_files/usb/usb_device.c: 2135:     CtrlTrfData[0] = 0;
  7144  0D45  0020               	movlb	0	; select bank0
  7145  0D46  01C8               	clrf	72	;volatile
  7146                           
  7147                           ;mcc_generated_files/usb/usb_device.c: 2136:     CtrlTrfData[1] = 0;
  7148  0D47  01C9               	clrf	73	;volatile
  7149                           
  7150                           ;mcc_generated_files/usb/usb_device.c: 2138:     switch(SetupPkt.Recipient)
  7151  0D48  2D84               	goto	i1l4126
  7152  0D49                     i1l453:	
  7153                           ;mcc_generated_files/usb/usb_device.c: 2139:     {;mcc_generated_files/usb/usb_device.c:
      +                           2140:         case (0x00):
  7154                           
  7155                           
  7156                           ;mcc_generated_files/usb/usb_device.c: 2141:             inPipes[0].info.bits.busy = 1;
  7157  0D49  17D2               	bsf	_inPipes+2,7	;volatile
  7158  0D4A                     i1l4110:	
  7159                           ;mcc_generated_files/usb/usb_device.c: 2146:             if(0 == 1)
  7160                           
  7161                           
  7162                           ;mcc_generated_files/usb/usb_device.c: 2151:             if(RemoteWakeup == 1)
  7163  0D4A  0021               	movlb	1	; select bank1
  7164  0D4B  035E               	decf	_RemoteWakeup^(0+128),w	;volatile
  7165  0D4C  1D03               	btfss	3,2
  7166  0D4D  2D4F               	goto	u221_21
  7167  0D4E  2D50               	goto	u221_20
  7168  0D4F                     u221_21:
  7169  0D4F  2D98               	goto	i1l456
  7170  0D50                     u221_20:
  7171  0D50                     i1l4112:
  7172                           
  7173                           ;mcc_generated_files/usb/usb_device.c: 2152:             {;mcc_generated_files/usb/usb_d
      +                          evice.c: 2153:                 CtrlTrfData[0]|=0x02;
  7174  0D50  0020               	movlb	0	; select bank0
  7175  0D51  14C8               	bsf	72,1	;volatile
  7176  0D52  2D98               	goto	i1l456
  7177  0D53                     i1l457:	
  7178                           ;mcc_generated_files/usb/usb_device.c: 2156:         case (0x01):
  7179                           
  7180                           
  7181                           ;mcc_generated_files/usb/usb_device.c: 2157:             inPipes[0].info.bits.busy = 1;
  7182  0D53  17D2               	bsf	_inPipes+2,7	;volatile
  7183                           
  7184                           ;mcc_generated_files/usb/usb_device.c: 2158:             break;
  7185  0D54  2D98               	goto	i1l456
  7186  0D55                     i1l458:	
  7187                           ;mcc_generated_files/usb/usb_device.c: 2159:         case (0x02):
  7188                           
  7189                           
  7190                           ;mcc_generated_files/usb/usb_device.c: 2160:             inPipes[0].info.bits.busy = 1;
  7191  0D55  17D2               	bsf	_inPipes+2,7	;volatile
  7192                           
  7193                           ;mcc_generated_files/usb/usb_device.c: 2164:             {;mcc_generated_files/usb/usb_d
      +                          evice.c: 2165:                 BDT_ENTRY *p;;mcc_generated_files/usb/usb_device.c: 2167:
      +                                           if(SetupPkt.EPDir == 0)
  7194  0D56  1BC4               	btfsc	68,7	;volatile
  7195  0D57  2D59               	goto	u222_21
  7196  0D58  2D5A               	goto	u222_20
  7197  0D59                     u222_21:
  7198  0D59  2D65               	goto	i1l4116
  7199  0D5A                     u222_20:
  7200  0D5A                     i1l4114:
  7201                           
  7202                           ;mcc_generated_files/usb/usb_device.c: 2168:                 {;mcc_generated_files/usb/u
      +                          sb_device.c: 2169:                     p = (BDT_ENTRY*)pBDTEntryOut[SetupPkt.EPNum];
  7203  0D5A  0844               	movf	68,w	;volatile
  7204  0D5B  390F               	andlw	15
  7205  0D5C  0709               	addwf	9,w
  7206  0D5D  3EC8               	addlw	(low (_pBDTEntryOut| 0))& (0+255)
  7207  0D5E  0086               	movwf	6
  7208  0D5F  0187               	clrf	7
  7209  0D60  3F40               	moviw [0]fsr1
  7210  0D61  00F2               	movwf	USBStdGetStatusHandler@p
  7211  0D62  3F41               	moviw [1]fsr1
  7212  0D63  00F3               	movwf	USBStdGetStatusHandler@p+1
  7213                           
  7214                           ;mcc_generated_files/usb/usb_device.c: 2170:                 }
  7215  0D64  2D6F               	goto	i1l4118
  7216  0D65                     i1l4116:
  7217                           
  7218                           ;mcc_generated_files/usb/usb_device.c: 2172:                 {;mcc_generated_files/usb/u
      +                          sb_device.c: 2173:                     p = (BDT_ENTRY*)pBDTEntryIn[SetupPkt.EPNum];
  7219  0D65  0844               	movf	68,w	;volatile
  7220  0D66  390F               	andlw	15
  7221  0D67  0709               	addwf	9,w
  7222  0D68  3E55               	addlw	(low (_pBDTEntryIn| 0))& (0+255)
  7223  0D69  0086               	movwf	6
  7224  0D6A  0187               	clrf	7
  7225  0D6B  3F40               	moviw [0]fsr1
  7226  0D6C  00F2               	movwf	USBStdGetStatusHandler@p
  7227  0D6D  3F41               	moviw [1]fsr1
  7228  0D6E  00F3               	movwf	USBStdGetStatusHandler@p+1
  7229  0D6F                     i1l4118:
  7230                           
  7231                           ;mcc_generated_files/usb/usb_device.c: 2176:                 if((p->STAT.UOWN == 1) && (
      +                          p->STAT.BSTALL == 1))
  7232  0D6F  0872               	movf	USBStdGetStatusHandler@p,w
  7233  0D70  0086               	movwf	6
  7234  0D71  0873               	movf	USBStdGetStatusHandler@p+1,w
  7235  0D72  0087               	movwf	7
  7236  0D73  1F81               	btfss	1,7
  7237  0D74  2D76               	goto	u223_21
  7238  0D75  2D77               	goto	u223_20
  7239  0D76                     u223_21:
  7240  0D76  2D98               	goto	i1l456
  7241  0D77                     u223_20:
  7242  0D77                     i1l4120:
  7243  0D77  0872               	movf	USBStdGetStatusHandler@p,w
  7244  0D78  0086               	movwf	6
  7245  0D79  0873               	movf	USBStdGetStatusHandler@p+1,w
  7246  0D7A  0087               	movwf	7
  7247  0D7B  1D01               	btfss	1,2
  7248  0D7C  2D7E               	goto	u224_21
  7249  0D7D  2D7F               	goto	u224_20
  7250  0D7E                     u224_21:
  7251  0D7E  2D98               	goto	i1l456
  7252  0D7F                     u224_20:
  7253  0D7F                     i1l4122:
  7254                           
  7255                           ;mcc_generated_files/usb/usb_device.c: 2177:                     CtrlTrfData[0]=0x01;
  7256  0D7F  3001               	movlw	1
  7257  0D80  00F0               	movwf	??_USBStdGetStatusHandler
  7258  0D81  0870               	movf	??_USBStdGetStatusHandler,w
  7259  0D82  00C8               	movwf	72	;volatile
  7260  0D83  2D98               	goto	i1l456
  7261  0D84                     i1l4126:
  7262  0D84  0840               	movf	64,w	;volatile
  7263  0D85  391F               	andlw	31
  7264  0D86  00F0               	movwf	??_USBStdGetStatusHandler
  7265  0D87  01F1               	clrf	??_USBStdGetStatusHandler+1
  7266                           
  7267                           ; Switch on 2 bytes has been partitioned into a top level switch of size 1, and 1 sub-sw
      +                          itches
  7268                           ; Switch size 1, requested type "simple"
  7269                           ; Number of cases is 1, Range of values is 0 to 0
  7270                           ; switch strategies available:
  7271                           ; Name         Instructions Cycles
  7272                           ; simple_byte            4     3 (average)
  7273                           ; direct_byte            8     6 (fixed)
  7274                           ; jumptable            260     6 (fixed)
  7275                           ;	Chosen strategy is simple_byte
  7276  0D88  0871               	movf	??_USBStdGetStatusHandler+1,w
  7277  0D89  3A00               	xorlw	0	; case 0
  7278  0D8A  1903               	skipnz
  7279  0D8B  2D8D               	goto	i1l6258
  7280  0D8C  2D98               	goto	i1l456
  7281  0D8D                     i1l6258:
  7282                           
  7283                           ; Switch size 1, requested type "simple"
  7284                           ; Number of cases is 3, Range of values is 0 to 2
  7285                           ; switch strategies available:
  7286                           ; Name         Instructions Cycles
  7287                           ; simple_byte           10     6 (average)
  7288                           ; direct_byte           12     6 (fixed)
  7289                           ; jumptable            260     6 (fixed)
  7290                           ;	Chosen strategy is simple_byte
  7291  0D8D  0870               	movf	??_USBStdGetStatusHandler,w
  7292  0D8E  3A00               	xorlw	0	; case 0
  7293  0D8F  1903               	skipnz
  7294  0D90  2D49               	goto	i1l453
  7295  0D91  3A01               	xorlw	1	; case 1
  7296  0D92  1903               	skipnz
  7297  0D93  2D53               	goto	i1l457
  7298  0D94  3A03               	xorlw	3	; case 2
  7299  0D95  1903               	skipnz
  7300  0D96  2D55               	goto	i1l458
  7301  0D97  2D98               	goto	i1l456
  7302  0D98                     i1l456:
  7303                           
  7304                           ;mcc_generated_files/usb/usb_device.c: 2182:     if(inPipes[0].info.bits.busy == 1)
  7305  0D98  0020               	movlb	0	; select bank0
  7306  0D99  1FD2               	btfss	_inPipes+2,7	;volatile
  7307  0D9A  2D9C               	goto	u225_21
  7308  0D9B  2D9D               	goto	u225_20
  7309  0D9C                     u225_21:
  7310  0D9C  2DA6               	goto	i1l463
  7311  0D9D                     u225_20:
  7312  0D9D                     i1l4128:
  7313                           
  7314                           ;mcc_generated_files/usb/usb_device.c: 2183:     {;mcc_generated_files/usb/usb_device.c:
      +                           2184:         inPipes[0].pSrc.bRam = (uint8_t*)&CtrlTrfData;
  7315  0D9D  3048               	movlw	72
  7316  0D9E  00D0               	movwf	_inPipes	;volatile
  7317  0D9F  3000               	movlw	0
  7318  0DA0  00D1               	movwf	_inPipes+1	;volatile
  7319  0DA1                     i1l4130:
  7320                           
  7321                           ;mcc_generated_files/usb/usb_device.c: 2185:         inPipes[0].info.bits.ctrl_trf_mem =
      +                           0x01;
  7322  0DA1  1452               	bsf	_inPipes+2,0	;volatile
  7323  0DA2                     i1l4132:
  7324                           
  7325                           ;mcc_generated_files/usb/usb_device.c: 2186:         inPipes[0].wCount.v[0] = 2;
  7326  0DA2  3002               	movlw	2
  7327  0DA3  00F0               	movwf	??_USBStdGetStatusHandler
  7328  0DA4  0870               	movf	??_USBStdGetStatusHandler,w
  7329  0DA5  00D3               	movwf	_inPipes+3	;volatile
  7330  0DA6                     i1l463:
  7331  0DA6  0008               	return
  7332  0DA7                     __end_of_USBStdGetStatusHandler:
  7333                           
  7334                           	psect	text27
  7335  060A                     __ptext27:	
  7336 ;; *************** function _USBStdGetDscHandler *****************
  7337 ;; Defined at:
  7338 ;;		line 2047 in file "mcc_generated_files/usb/usb_device.c"
  7339 ;; Parameters:    Size  Location     Type
  7340 ;;		None
  7341 ;; Auto vars:     Size  Location     Type
  7342 ;;		None
  7343 ;; Return value:  Size  Location     Type
  7344 ;;                  1    wreg      void 
  7345 ;; Registers used:
  7346 ;;		wreg, fsr0l, fsr0h, status,2, status,0, pclath
  7347 ;; Tracked objects:
  7348 ;;		On entry : 0/0
  7349 ;;		On exit  : 0/0
  7350 ;;		Unchanged: 0/0
  7351 ;; Data sizes:     COMMON  BANK0h   BANK1   BANK2   BANK3   BANK4   BANK5   BANK6   BANK7   BANK8   BANK9  BANK10  BANK1
      +1  BANK12
  7352 ;;      Params:         0       0       0       0       0       0       0       0       0       0       0       0       
      +0       0
  7353 ;;      Locals:         0       0       0       0       0       0       0       0       0       0       0       0       
      +0       0
  7354 ;;      Temps:          3       0       0       0       0       0       0       0       0       0       0       0       
      +0       0
  7355 ;;      Totals:         3       0       0       0       0       0       0       0       0       0       0       0       
      +0       0
  7356 ;;Total ram usage:        3 bytes
  7357 ;; Hardware stack levels used:    1
  7358 ;; This function calls:
  7359 ;;		Nothing
  7360 ;; This function is called by:
  7361 ;;		_USBCheckStdRequest
  7362 ;; This function uses a non-reentrant model
  7363 ;;
  7364                           
  7365                           
  7366                           ;psect for function _USBStdGetDscHandler
  7367  060A                     _USBStdGetDscHandler:
  7368  060A                     i1l4064:	
  7369                           ;incstack = 0
  7370                           ; Regs used in _USBStdGetDscHandler: [wreg-fsr0h+status,2+status,0+pclath]
  7371                           
  7372                           
  7373                           ;mcc_generated_files/usb/usb_device.c: 2049:     if(SetupPkt.bmRequestType == 0x80)
  7374  060A  3080               	movlw	128
  7375  060B  0020               	movlb	0	; select bank0
  7376  060C  0640               	xorwf	64,w	;volatile
  7377  060D  1D03               	btfss	3,2
  7378  060E  2E10               	goto	u217_21
  7379  060F  2E11               	goto	u217_20
  7380  0610                     u217_21:
  7381  0610  2EA2               	goto	i1l449
  7382  0611                     u217_20:
  7383  0611                     i1l4066:
  7384                           
  7385                           ;mcc_generated_files/usb/usb_device.c: 2050:     {;mcc_generated_files/usb/usb_device.c:
      +                           2051:         inPipes[0].info.Val = 0x00 | 0x80 | 0x40;
  7386  0611  30C0               	movlw	192
  7387  0612  00F0               	movwf	??_USBStdGetDscHandler
  7388  0613  0870               	movf	??_USBStdGetDscHandler,w
  7389  0614  00D2               	movwf	_inPipes+2	;volatile
  7390                           
  7391                           ;mcc_generated_files/usb/usb_device.c: 2053:         switch(SetupPkt.bDescriptorType)
  7392  0615  2E8F               	goto	i1l4100
  7393  0616                     i1l4068:
  7394                           
  7395                           ;mcc_generated_files/usb/usb_device.c: 2059:                     inPipes[0].pSrc.bRom = 
      +                          (const uint8_t*)&device_dsc;
  7396  0616  30C4               	movlw	low (_device_dsc| (0+32768))
  7397  0617  00D0               	movwf	_inPipes	;volatile
  7398  0618  3090               	movlw	high (_device_dsc| (0+32768))
  7399  0619  00D1               	movwf	_inPipes+1	;volatile
  7400  061A                     i1l4070:
  7401                           
  7402                           ;mcc_generated_files/usb/usb_device.c: 2061:                 inPipes[0].wCount.Val = siz
      +                          eof(device_dsc);
  7403  061A  3000               	movlw	0
  7404  061B  00D4               	movwf	_inPipes+4	;volatile
  7405  061C  3012               	movlw	18
  7406  061D  00D3               	movwf	_inPipes+3	;volatile
  7407                           
  7408                           ;mcc_generated_files/usb/usb_device.c: 2062:                 break;
  7409  061E  2EA2               	goto	i1l449
  7410  061F                     i1l4072:
  7411                           
  7412                           ;mcc_generated_files/usb/usb_device.c: 2067:                 if(SetupPkt.bDscIndex < 1)
  7413  061F  0842               	movf	66,w	;volatile
  7414  0620  1D03               	btfss	3,2
  7415  0621  2E23               	goto	u218_21
  7416  0622  2E24               	goto	u218_20
  7417  0623                     u218_21:
  7418  0623  2E52               	goto	i1l4080
  7419  0624                     u218_20:
  7420  0624                     i1l4074:
  7421                           
  7422                           ;mcc_generated_files/usb/usb_device.c: 2068:                 {;mcc_generated_files/usb/u
      +                          sb_device.c: 2072:                         inPipes[0].pSrc.bRom = *(USB_CD_Ptr+SetupPkt.
      +                          bDscIndex);
  7423  0624  0842               	movf	66,w	;volatile
  7424  0625  00F0               	movwf	??_USBStdGetDscHandler
  7425  0626  01F1               	clrf	??_USBStdGetDscHandler+1
  7426  0627  35F0               	lslf	??_USBStdGetDscHandler,f
  7427  0628  0DF1               	rlf	??_USBStdGetDscHandler+1,f
  7428  0629  30EA               	movlw	low (_USB_CD_Ptr| (0+32768))
  7429  062A  0770               	addwf	??_USBStdGetDscHandler,w
  7430  062B  0084               	movwf	4
  7431  062C  3090               	movlw	high (_USB_CD_Ptr| (0+32768))
  7432  062D  3D71               	addwfc	??_USBStdGetDscHandler+1,w
  7433  062E  0085               	movwf	5
  7434  062F  3F00               	moviw [0]fsr0
  7435  0630  00D0               	movwf	_inPipes	;volatile
  7436  0631  3F01               	moviw [1]fsr0
  7437  0632  00D1               	movwf	_inPipes+1	;volatile
  7438  0633                     i1l4076:
  7439                           
  7440                           ;mcc_generated_files/usb/usb_device.c: 2078:                     inPipes[0].wCount.byte.
      +                          LB = *(inPipes[0].pSrc.bRom+2);
  7441  0633  0851               	movf	_inPipes+1,w	;volatile
  7442  0634  00F1               	movwf	??_USBStdGetDscHandler+1
  7443  0635  0850               	movf	_inPipes,w	;volatile
  7444  0636  00F0               	movwf	??_USBStdGetDscHandler
  7445  0637  3002               	movlw	2
  7446  0638  0770               	addwf	??_USBStdGetDscHandler,w
  7447  0639  0084               	movwf	4
  7448  063A  0871               	movf	??_USBStdGetDscHandler+1,w
  7449  063B  1803               	skipnc
  7450  063C  0A71               	incf	??_USBStdGetDscHandler+1,w
  7451  063D  0085               	movwf	5
  7452  063E  0800               	movf	0,w	;code access
  7453  063F  00F2               	movwf	??_USBStdGetDscHandler+2
  7454  0640  0872               	movf	??_USBStdGetDscHandler+2,w
  7455  0641  00D3               	movwf	_inPipes+3	;volatile
  7456  0642                     i1l4078:
  7457                           
  7458                           ;mcc_generated_files/usb/usb_device.c: 2079:                     inPipes[0].wCount.byte.
      +                          HB = *(inPipes[0].pSrc.bRom+3);
  7459  0642  0851               	movf	_inPipes+1,w	;volatile
  7460  0643  00F1               	movwf	??_USBStdGetDscHandler+1
  7461  0644  0850               	movf	_inPipes,w	;volatile
  7462  0645  00F0               	movwf	??_USBStdGetDscHandler
  7463  0646  3003               	movlw	3
  7464  0647  0770               	addwf	??_USBStdGetDscHandler,w
  7465  0648  0084               	movwf	4
  7466  0649  0871               	movf	??_USBStdGetDscHandler+1,w
  7467  064A  1803               	skipnc
  7468  064B  0A71               	incf	??_USBStdGetDscHandler+1,w
  7469  064C  0085               	movwf	5
  7470  064D  0800               	movf	0,w	;code access
  7471  064E  00F2               	movwf	??_USBStdGetDscHandler+2
  7472  064F  0872               	movf	??_USBStdGetDscHandler+2,w
  7473  0650  00D4               	movwf	_inPipes+4	;volatile
  7474                           
  7475                           ;mcc_generated_files/usb/usb_device.c: 2080:                 }
  7476  0651  2EA2               	goto	i1l449
  7477  0652                     i1l4080:
  7478                           
  7479                           ;mcc_generated_files/usb/usb_device.c: 2082:     {;mcc_generated_files/usb/usb_device.c:
      +                           2083:      inPipes[0].info.Val = 0;
  7480  0652  01D2               	clrf	_inPipes+2	;volatile
  7481  0653  2EA2               	goto	i1l449
  7482  0654                     i1l4082:
  7483                           
  7484                           ;mcc_generated_files/usb/usb_device.c: 2090:                 if(SetupPkt.bDscIndex<4)
  7485  0654  3004               	movlw	4
  7486  0655  0242               	subwf	66,w	;volatile
  7487  0656  1803               	skipnc
  7488  0657  2E59               	goto	u219_21
  7489  0658  2E5A               	goto	u219_20
  7490  0659                     u219_21:
  7491  0659  2E75               	goto	i1l4088
  7492  065A                     u219_20:
  7493  065A                     i1l4084:
  7494                           
  7495                           ;mcc_generated_files/usb/usb_device.c: 2091:                 {;mcc_generated_files/usb/u
      +                          sb_device.c: 2093:                     inPipes[0].pSrc.bRom = *(USB_SD_Ptr+SetupPkt.bDsc
      +                          Index);
  7496  065A  0842               	movf	66,w	;volatile
  7497  065B  00F0               	movwf	??_USBStdGetDscHandler
  7498  065C  01F1               	clrf	??_USBStdGetDscHandler+1
  7499  065D  35F0               	lslf	??_USBStdGetDscHandler,f
  7500  065E  0DF1               	rlf	??_USBStdGetDscHandler+1,f
  7501  065F  30D6               	movlw	low (_USB_SD_Ptr| (0+32768))
  7502  0660  0770               	addwf	??_USBStdGetDscHandler,w
  7503  0661  0084               	movwf	4
  7504  0662  3090               	movlw	high (_USB_SD_Ptr| (0+32768))
  7505  0663  3D71               	addwfc	??_USBStdGetDscHandler+1,w
  7506  0664  0085               	movwf	5
  7507  0665  3F00               	moviw [0]fsr0
  7508  0666  00D0               	movwf	_inPipes	;volatile
  7509  0667  3F01               	moviw [1]fsr0
  7510  0668  00D1               	movwf	_inPipes+1	;volatile
  7511  0669                     i1l4086:
  7512                           
  7513                           ;mcc_generated_files/usb/usb_device.c: 2095:                     inPipes[0].wCount.Val =
      +                           *inPipes[0].pSrc.bRom;
  7514  0669  0850               	movf	_inPipes,w	;volatile
  7515  066A  0084               	movwf	4
  7516  066B  0851               	movf	_inPipes+1,w	;volatile
  7517  066C  0085               	movwf	5
  7518  066D  0800               	movf	0,w	;code access
  7519  066E  00F0               	movwf	??_USBStdGetDscHandler
  7520  066F  01F1               	clrf	??_USBStdGetDscHandler+1
  7521  0670  0870               	movf	??_USBStdGetDscHandler,w
  7522  0671  00D3               	movwf	_inPipes+3	;volatile
  7523  0672  0871               	movf	??_USBStdGetDscHandler+1,w
  7524  0673  00D4               	movwf	_inPipes+4	;volatile
  7525                           
  7526                           ;mcc_generated_files/usb/usb_device.c: 2096:                 }
  7527  0674  2EA2               	goto	i1l449
  7528  0675                     i1l4088:
  7529  0675  30EE               	movlw	238
  7530  0676  0642               	xorwf	66,w	;volatile
  7531  0677  1D03               	btfss	3,2
  7532  0678  2E7A               	goto	u220_21
  7533  0679  2E7B               	goto	u220_20
  7534  067A                     u220_21:
  7535  067A  2E8B               	goto	i1l4094
  7536  067B                     u220_20:
  7537  067B                     i1l4090:
  7538                           
  7539                           ;mcc_generated_files/usb/usb_device.c: 2099:                 {;mcc_generated_files/usb/u
      +                          sb_device.c: 2101:                     inPipes[0].pSrc.bRom = (const uint8_t*)&MSOSDescr
      +                          iptor;
  7540  067B  30B2               	movlw	low (_MSOSDescriptor| (0+32768))
  7541  067C  00D0               	movwf	_inPipes	;volatile
  7542  067D  3090               	movlw	high (_MSOSDescriptor| (0+32768))
  7543  067E  00D1               	movwf	_inPipes+1	;volatile
  7544  067F                     i1l4092:
  7545                           
  7546                           ;mcc_generated_files/usb/usb_device.c: 2103:                     inPipes[0].wCount.Val =
      +                           *inPipes[0].pSrc.bRom;
  7547  067F  0850               	movf	_inPipes,w	;volatile
  7548  0680  0084               	movwf	4
  7549  0681  0851               	movf	_inPipes+1,w	;volatile
  7550  0682  0085               	movwf	5
  7551  0683  0800               	movf	0,w	;code access
  7552  0684  00F0               	movwf	??_USBStdGetDscHandler
  7553  0685  01F1               	clrf	??_USBStdGetDscHandler+1
  7554  0686  0870               	movf	??_USBStdGetDscHandler,w
  7555  0687  00D3               	movwf	_inPipes+3	;volatile
  7556  0688  0871               	movf	??_USBStdGetDscHandler+1,w
  7557  0689  00D4               	movwf	_inPipes+4	;volatile
  7558                           
  7559                           ;mcc_generated_files/usb/usb_device.c: 2104:                 }
  7560  068A  2EA2               	goto	i1l449
  7561  068B                     i1l4094:
  7562                           
  7563                           ;mcc_generated_files/usb/usb_device.c: 2107:                 {;mcc_generated_files/usb/u
      +                          sb_device.c: 2108:                     inPipes[0].info.Val = 0;
  7564  068B  01D2               	clrf	_inPipes+2	;volatile
  7565  068C  2EA2               	goto	i1l449
  7566  068D                     i1l4096:
  7567                           
  7568                           ;mcc_generated_files/usb/usb_device.c: 2112:                 inPipes[0].info.Val = 0;
  7569  068D  01D2               	clrf	_inPipes+2	;volatile
  7570                           
  7571                           ;mcc_generated_files/usb/usb_device.c: 2113:                 break;
  7572  068E  2EA2               	goto	i1l449
  7573  068F                     i1l4100:
  7574  068F  0843               	movf	67,w	;volatile
  7575  0690  00F0               	movwf	??_USBStdGetDscHandler
  7576  0691  01F1               	clrf	??_USBStdGetDscHandler+1
  7577                           
  7578                           ; Switch on 2 bytes has been partitioned into a top level switch of size 1, and 1 sub-sw
      +                          itches
  7579                           ; Switch size 1, requested type "simple"
  7580                           ; Number of cases is 1, Range of values is 0 to 0
  7581                           ; switch strategies available:
  7582                           ; Name         Instructions Cycles
  7583                           ; simple_byte            4     3 (average)
  7584                           ; direct_byte            8     6 (fixed)
  7585                           ; jumptable            260     6 (fixed)
  7586                           ;	Chosen strategy is simple_byte
  7587  0692  0871               	movf	??_USBStdGetDscHandler+1,w
  7588  0693  3A00               	xorlw	0	; case 0
  7589  0694  1903               	skipnz
  7590  0695  2E97               	goto	i1l6260
  7591  0696  2E8D               	goto	i1l4096
  7592  0697                     i1l6260:
  7593                           
  7594                           ; Switch size 1, requested type "simple"
  7595                           ; Number of cases is 3, Range of values is 1 to 3
  7596                           ; switch strategies available:
  7597                           ; Name         Instructions Cycles
  7598                           ; simple_byte           10     6 (average)
  7599                           ; direct_byte           15     9 (fixed)
  7600                           ; jumptable            263     9 (fixed)
  7601                           ;	Chosen strategy is simple_byte
  7602  0697  0870               	movf	??_USBStdGetDscHandler,w
  7603  0698  3A01               	xorlw	1	; case 1
  7604  0699  1903               	skipnz
  7605  069A  2E16               	goto	i1l4068
  7606  069B  3A03               	xorlw	3	; case 2
  7607  069C  1903               	skipnz
  7608  069D  2E1F               	goto	i1l4072
  7609  069E  3A01               	xorlw	1	; case 3
  7610  069F  1903               	skipnz
  7611  06A0  2E54               	goto	i1l4082
  7612  06A1  2E8D               	goto	i1l4096
  7613  06A2                     i1l449:
  7614  06A2  0008               	return
  7615  06A3                     __end_of_USBStdGetDscHandler:
  7616                           
  7617                           	psect	text28
  7618  0066                     __ptext28:	
  7619 ;; *************** function _USBStdFeatureReqHandler *****************
  7620 ;; Defined at:
  7621 ;;		line 2758 in file "mcc_generated_files/usb/usb_device.c"
  7622 ;; Parameters:    Size  Location     Type
  7623 ;;		None
  7624 ;; Auto vars:     Size  Location     Type
  7625 ;;  p               2    3[BANK0h] PTR struct __BDT
  7626 ;;		 -> RAM(4096), BDT(32), NULL(0), 
  7627 ;;  pUEP            2    0[BANK0h] PTR unsigned char 
  7628 ;;		 -> UEP0(1), 
  7629 ;;  current_ep_d    1    2[BANK0h] struct .
  7630 ;; Return value:  Size  Location     Type
  7631 ;;                  1    wreg      void 
  7632 ;; Registers used:
  7633 ;;		wreg, fsr0l, fsr0h, fsr1l, fsr1h, status,2, status,0, pclath, cstack
  7634 ;; Tracked objects:
  7635 ;;		On entry : 0/0
  7636 ;;		On exit  : 0/0
  7637 ;;		Unchanged: 0/0
  7638 ;; Data sizes:     COMMON  BANK0h   BANK1   BANK2   BANK3   BANK4   BANK5   BANK6   BANK7   BANK8   BANK9  BANK10  BANK1
      +1  BANK12
  7639 ;;      Params:         0       0       0       0       0       0       0       0       0       0       0       0       
      +0       0
  7640 ;;      Locals:         0       5       0       0       0       0       0       0       0       0       0       0       
      +0       0
  7641 ;;      Temps:          2       0       0       0       0       0       0       0       0       0       0       0       
      +0       0
  7642 ;;      Totals:         2       5       0       0       0       0       0       0       0       0       0       0       
      +0       0
  7643 ;;Total ram usage:        7 bytes
  7644 ;; Hardware stack levels used:    1
  7645 ;; Hardware stack levels required when called:    2
  7646 ;; This function calls:
  7647 ;;		_USER_USB_CALLBACK_EVENT_HANDLER
  7648 ;; This function is called by:
  7649 ;;		_USBCheckStdRequest
  7650 ;; This function uses a non-reentrant model
  7651 ;;
  7652                           
  7653                           
  7654                           ;psect for function _USBStdFeatureReqHandler
  7655  0066                     _USBStdFeatureReqHandler:
  7656  0066                     i1l4138:	
  7657                           ;incstack = 0
  7658                           ; Regs used in _USBStdFeatureReqHandler: [wreg-fsr1h+status,2+status,0+pclath+cstack]
  7659                           
  7660                           
  7661                           ;mcc_generated_files/usb/usb_device.c: 2760:     BDT_ENTRY *p;;mcc_generated_files/usb/u
      +                          sb_device.c: 2761:     EP_STATUS current_ep_data;;mcc_generated_files/usb/usb_device.c: 
      +                          2765:         unsigned char* pUEP;;mcc_generated_files/usb/usb_device.c: 2803:     if((S
      +                          etupPkt.bFeature == 1)&&
  7662  0066  0020               	movlb	0	; select bank0
  7663  0067  0342               	decf	66,w	;volatile
  7664  0068  1D03               	btfss	3,2
  7665  0069  286B               	goto	u226_21
  7666  006A  286C               	goto	u226_20
  7667  006B                     u226_21:
  7668  006B  2882               	goto	i1l4150
  7669  006C                     u226_20:
  7670  006C                     i1l4140:
  7671  006C  0840               	movf	64,w	;volatile
  7672  006D  391F               	andlw	31
  7673  006E  3A00               	xorlw	0
  7674  006F  1D03               	skipz
  7675  0070  2872               	goto	u227_21
  7676  0071  2873               	goto	u227_20
  7677  0072                     u227_21:
  7678  0072  2882               	goto	i1l4150
  7679  0073                     u227_20:
  7680  0073                     i1l4142:
  7681                           
  7682                           ;mcc_generated_files/usb/usb_device.c: 2805:     {;mcc_generated_files/usb/usb_device.c:
      +                           2806:         inPipes[0].info.bits.busy = 1;
  7683  0073  17D2               	bsf	_inPipes+2,7	;volatile
  7684  0074                     i1l4144:
  7685                           
  7686                           ;mcc_generated_files/usb/usb_device.c: 2807:         if(SetupPkt.bRequest == 3)
  7687  0074  3003               	movlw	3
  7688  0075  0641               	xorwf	65,w	;volatile
  7689  0076  1D03               	btfss	3,2
  7690  0077  2879               	goto	u228_21
  7691  0078  287A               	goto	u228_20
  7692  0079                     u228_21:
  7693  0079  2880               	goto	i1l4148
  7694  007A                     u228_20:
  7695  007A                     i1l4146:
  7696                           
  7697                           ;mcc_generated_files/usb/usb_device.c: 2808:             RemoteWakeup = 1;
  7698  007A  3001               	movlw	1
  7699  007B  00F9               	movwf	??_USBStdFeatureReqHandler
  7700  007C  0879               	movf	??_USBStdFeatureReqHandler,w
  7701  007D  0021               	movlb	1	; select bank1
  7702  007E  00DE               	movwf	_RemoteWakeup^(0+128)	;volatile
  7703  007F  2882               	goto	i1l4150
  7704  0080                     i1l4148:
  7705                           
  7706                           ;mcc_generated_files/usb/usb_device.c: 2810:             RemoteWakeup = 0;
  7707  0080  0021               	movlb	1	; select bank1
  7708  0081  01DE               	clrf	_RemoteWakeup^(0+128)	;volatile
  7709  0082                     i1l4150:
  7710                           
  7711                           ;mcc_generated_files/usb/usb_device.c: 2814:     if((SetupPkt.bFeature == 0)&&
  7712  0082  0020               	movlb	0	; select bank0
  7713  0083  0842               	movf	66,w	;volatile
  7714  0084  1D03               	btfss	3,2
  7715  0085  2887               	goto	u229_21
  7716  0086  2888               	goto	u229_20
  7717  0087                     u229_21:
  7718  0087  29B1               	goto	i1l553
  7719  0088                     u229_20:
  7720  0088                     i1l4152:
  7721  0088  0840               	movf	64,w	;volatile
  7722  0089  391F               	andlw	31
  7723  008A  3A02               	xorlw	2
  7724  008B  1D03               	skipz
  7725  008C  288E               	goto	u230_21
  7726  008D  288F               	goto	u230_20
  7727  008E                     u230_21:
  7728  008E  29B1               	goto	i1l553
  7729  008F                     u230_20:
  7730  008F                     i1l4154:
  7731  008F  0844               	movf	68,w	;volatile
  7732  0090  390F               	andlw	15
  7733  0091  3A00               	xorlw	0
  7734  0092  1903               	skipnz
  7735  0093  2895               	goto	u231_21
  7736  0094  2896               	goto	u231_20
  7737  0095                     u231_21:
  7738  0095  29B1               	goto	i1l553
  7739  0096                     u231_20:
  7740  0096                     i1l4156:
  7741  0096  0844               	movf	68,w	;volatile
  7742  0097  390F               	andlw	15
  7743  0098  00F9               	movwf	??_USBStdFeatureReqHandler
  7744  0099  3002               	movlw	2
  7745  009A  0279               	subwf	??_USBStdFeatureReqHandler,w
  7746  009B  1803               	skipnc
  7747  009C  289E               	goto	u232_21
  7748  009D  289F               	goto	u232_20
  7749  009E                     u232_21:
  7750  009E  29B1               	goto	i1l553
  7751  009F                     u232_20:
  7752  009F                     i1l4158:
  7753  009F  3020               	movlw	32
  7754  00A0  065D               	xorwf	_USBDeviceState,w	;volatile
  7755  00A1  1D03               	btfss	3,2
  7756  00A2  28A4               	goto	u233_21
  7757  00A3  28A5               	goto	u233_20
  7758  00A4                     u233_21:
  7759  00A4  29B1               	goto	i1l553
  7760  00A5                     u233_20:
  7761  00A5                     i1l4160:
  7762                           
  7763                           ;mcc_generated_files/usb/usb_device.c: 2818:     {;mcc_generated_files/usb/usb_device.c:
      +                           2821:   inPipes[0].info.bits.busy = 1;
  7764  00A5  17D2               	bsf	_inPipes+2,7	;volatile
  7765                           
  7766                           ;mcc_generated_files/usb/usb_device.c: 2824:         if(SetupPkt.EPDir == 0)
  7767  00A6  1BC4               	btfsc	68,7	;volatile
  7768  00A7  28A9               	goto	u234_21
  7769  00A8  28AA               	goto	u234_20
  7770  00A9                     u234_21:
  7771  00A9  28BE               	goto	i1l4164
  7772  00AA                     u234_20:
  7773  00AA                     i1l4162:
  7774                           
  7775                           ;mcc_generated_files/usb/usb_device.c: 2825:         {;mcc_generated_files/usb/usb_devic
      +                          e.c: 2826:             p = (BDT_ENTRY*)pBDTEntryOut[SetupPkt.EPNum];
  7776  00AA  0844               	movf	68,w	;volatile
  7777  00AB  390F               	andlw	15
  7778  00AC  0709               	addwf	9,w
  7779  00AD  3EC8               	addlw	(low (_pBDTEntryOut| 0))& (0+255)
  7780  00AE  0086               	movwf	6
  7781  00AF  0187               	clrf	7
  7782  00B0  3F40               	moviw [0]fsr1
  7783  00B1  00E3               	movwf	USBStdFeatureReqHandler@p
  7784  00B2  3F41               	moviw [1]fsr1
  7785  00B3  00E4               	movwf	USBStdFeatureReqHandler@p+1
  7786                           
  7787                           ;mcc_generated_files/usb/usb_device.c: 2827:             current_ep_data.Val = ep_data_o
      +                          ut[SetupPkt.EPNum].Val;
  7788  00B4  0844               	movf	68,w	;volatile
  7789  00B5  390F               	andlw	15
  7790  00B6  3ECE               	addlw	(low (_ep_data_out| 0))& (0+255)
  7791  00B7  0086               	movwf	6
  7792  00B8  0187               	clrf	7
  7793  00B9  0801               	movf	1,w
  7794  00BA  00F9               	movwf	??_USBStdFeatureReqHandler
  7795  00BB  0879               	movf	??_USBStdFeatureReqHandler,w
  7796  00BC  00E2               	movwf	USBStdFeatureReqHandler@current_ep_data
  7797                           
  7798                           ;mcc_generated_files/usb/usb_device.c: 2828:         }
  7799  00BD  28D1               	goto	i1l4166
  7800  00BE                     i1l4164:
  7801                           
  7802                           ;mcc_generated_files/usb/usb_device.c: 2830:         {;mcc_generated_files/usb/usb_devic
      +                          e.c: 2831:             p = (BDT_ENTRY*)pBDTEntryIn[SetupPkt.EPNum];
  7803  00BE  0844               	movf	68,w	;volatile
  7804  00BF  390F               	andlw	15
  7805  00C0  0709               	addwf	9,w
  7806  00C1  3E55               	addlw	(low (_pBDTEntryIn| 0))& (0+255)
  7807  00C2  0086               	movwf	6
  7808  00C3  0187               	clrf	7
  7809  00C4  3F40               	moviw [0]fsr1
  7810  00C5  00E3               	movwf	USBStdFeatureReqHandler@p
  7811  00C6  3F41               	moviw [1]fsr1
  7812  00C7  00E4               	movwf	USBStdFeatureReqHandler@p+1
  7813                           
  7814                           ;mcc_generated_files/usb/usb_device.c: 2832:             current_ep_data.Val = ep_data_i
      +                          n[SetupPkt.EPNum].Val;
  7815  00C8  0844               	movf	68,w	;volatile
  7816  00C9  390F               	andlw	15
  7817  00CA  3ED0               	addlw	(low (_ep_data_in| 0))& (0+255)
  7818  00CB  0086               	movwf	6
  7819  00CC  0187               	clrf	7
  7820  00CD  0801               	movf	1,w
  7821  00CE  00F9               	movwf	??_USBStdFeatureReqHandler
  7822  00CF  0879               	movf	??_USBStdFeatureReqHandler,w
  7823  00D0  00E2               	movwf	USBStdFeatureReqHandler@current_ep_data
  7824  00D1                     i1l4166:
  7825                           
  7826                           ;mcc_generated_files/usb/usb_device.c: 2839:             if(current_ep_data.bits.ping_po
      +                          ng_state == 0)
  7827  00D1  1862               	btfsc	USBStdFeatureReqHandler@current_ep_data,0
  7828  00D2  28D4               	goto	u235_21
  7829  00D3  28D5               	goto	u235_20
  7830  00D4                     u235_21:
  7831  00D4  28E0               	goto	i1l4170
  7832  00D5                     u235_20:
  7833  00D5                     i1l4168:
  7834                           
  7835                           ;mcc_generated_files/usb/usb_device.c: 2840:             {;mcc_generated_files/usb/usb_d
      +                          evice.c: 2841:                 p = (BDT_ENTRY*)(((uint16_t)p) & (~0x0004));
  7836  00D5  30FB               	movlw	251
  7837  00D6  00F9               	movwf	??_USBStdFeatureReqHandler
  7838  00D7  30FF               	movlw	255
  7839  00D8  00FA               	movwf	??_USBStdFeatureReqHandler+1
  7840  00D9  0863               	movf	USBStdFeatureReqHandler@p,w
  7841  00DA  0579               	andwf	??_USBStdFeatureReqHandler,w
  7842  00DB  00E3               	movwf	USBStdFeatureReqHandler@p
  7843  00DC  0864               	movf	USBStdFeatureReqHandler@p+1,w
  7844  00DD  057A               	andwf	??_USBStdFeatureReqHandler+1,w
  7845  00DE  00E4               	movwf	USBStdFeatureReqHandler@p+1
  7846                           
  7847                           ;mcc_generated_files/usb/usb_device.c: 2842:             }
  7848  00DF  28E6               	goto	i1l4172
  7849  00E0                     i1l4170:
  7850                           
  7851                           ;mcc_generated_files/usb/usb_device.c: 2844:             {;mcc_generated_files/usb/usb_d
      +                          evice.c: 2845:                 p = (BDT_ENTRY*)(((uint16_t)p) | 0x0004);
  7852  00E0  3004               	movlw	4
  7853  00E1  0463               	iorwf	USBStdFeatureReqHandler@p,w
  7854  00E2  00E3               	movwf	USBStdFeatureReqHandler@p
  7855  00E3  3000               	movlw	0
  7856  00E4  0464               	iorwf	USBStdFeatureReqHandler@p+1,w
  7857  00E5  00E4               	movwf	USBStdFeatureReqHandler@p+1
  7858  00E6                     i1l4172:
  7859                           
  7860                           ;mcc_generated_files/usb/usb_device.c: 2851:         if(SetupPkt.EPDir == 0)
  7861  00E6  1BC4               	btfsc	68,7	;volatile
  7862  00E7  28E9               	goto	u236_21
  7863  00E8  28EA               	goto	u236_20
  7864  00E9                     u236_21:
  7865  00E9  28F5               	goto	i1l4176
  7866  00EA                     u236_20:
  7867  00EA                     i1l4174:
  7868                           
  7869                           ;mcc_generated_files/usb/usb_device.c: 2852:         {;mcc_generated_files/usb/usb_devic
      +                          e.c: 2853:             pBDTEntryOut[SetupPkt.EPNum] = (volatile BDT_ENTRY *)p;
  7870  00EA  0844               	movf	68,w	;volatile
  7871  00EB  390F               	andlw	15
  7872  00EC  0709               	addwf	9,w
  7873  00ED  3EC8               	addlw	(low (_pBDTEntryOut| 0))& (0+255)
  7874  00EE  0086               	movwf	6
  7875  00EF  0187               	clrf	7
  7876  00F0  0863               	movf	USBStdFeatureReqHandler@p,w
  7877  00F1  3FC0               	movwi [0]fsr1
  7878  00F2  0864               	movf	USBStdFeatureReqHandler@p+1,w
  7879  00F3  3FC1               	movwi [1]fsr1
  7880                           
  7881                           ;mcc_generated_files/usb/usb_device.c: 2854:         }
  7882  00F4  28FF               	goto	i1l4178
  7883  00F5                     i1l4176:
  7884                           
  7885                           ;mcc_generated_files/usb/usb_device.c: 2856:         {;mcc_generated_files/usb/usb_devic
      +                          e.c: 2857:             pBDTEntryIn[SetupPkt.EPNum] = (volatile BDT_ENTRY *)p;
  7886  00F5  0844               	movf	68,w	;volatile
  7887  00F6  390F               	andlw	15
  7888  00F7  0709               	addwf	9,w
  7889  00F8  3E55               	addlw	(low (_pBDTEntryIn| 0))& (0+255)
  7890  00F9  0086               	movwf	6
  7891  00FA  0187               	clrf	7
  7892  00FB  0863               	movf	USBStdFeatureReqHandler@p,w
  7893  00FC  3FC0               	movwi [0]fsr1
  7894  00FD  0864               	movf	USBStdFeatureReqHandler@p+1,w
  7895  00FE  3FC1               	movwi [1]fsr1
  7896  00FF                     i1l4178:
  7897                           
  7898                           ;mcc_generated_files/usb/usb_device.c: 2861:         if(SetupPkt.bRequest == 3)
  7899  00FF  3003               	movlw	3
  7900  0100  0641               	xorwf	65,w	;volatile
  7901  0101  1D03               	btfss	3,2
  7902  0102  2904               	goto	u237_21
  7903  0103  2905               	goto	u237_20
  7904  0104                     u237_21:
  7905  0104  2929               	goto	i1l4192
  7906  0105                     u237_20:
  7907  0105                     i1l4180:
  7908                           
  7909                           ;mcc_generated_files/usb/usb_device.c: 2862:         {;mcc_generated_files/usb/usb_devic
      +                          e.c: 2863:             if(p->STAT.UOWN == 1)
  7910  0105  0863               	movf	USBStdFeatureReqHandler@p,w
  7911  0106  0086               	movwf	6
  7912  0107  0864               	movf	USBStdFeatureReqHandler@p+1,w
  7913  0108  0087               	movwf	7
  7914  0109  1F81               	btfss	1,7
  7915  010A  290C               	goto	u238_21
  7916  010B  290D               	goto	u238_20
  7917  010C                     u238_21:
  7918  010C  291E               	goto	i1l4188
  7919  010D                     u238_20:
  7920  010D                     i1l4182:
  7921                           
  7922                           ;mcc_generated_files/usb/usb_device.c: 2864:             {;mcc_generated_files/usb/usb_d
      +                          evice.c: 2867:                 if(SetupPkt.EPDir == 0)
  7923  010D  1BC4               	btfsc	68,7	;volatile
  7924  010E  2910               	goto	u239_21
  7925  010F  2911               	goto	u239_20
  7926  0110                     u239_21:
  7927  0110  2918               	goto	i1l4186
  7928  0111                     u239_20:
  7929  0111                     i1l4184:
  7930                           
  7931                           ;mcc_generated_files/usb/usb_device.c: 2868:                 {;mcc_generated_files/usb/u
      +                          sb_device.c: 2869:                     ep_data_out[SetupPkt.EPNum].bits.transfer_termina
      +                          ted = 1;
  7932  0111  0844               	movf	68,w	;volatile
  7933  0112  390F               	andlw	15
  7934  0113  3ECE               	addlw	(low (_ep_data_out| 0))& (0+255)
  7935  0114  0086               	movwf	6
  7936  0115  0187               	clrf	7
  7937  0116  1481               	bsf	1,1
  7938                           
  7939                           ;mcc_generated_files/usb/usb_device.c: 2870:                 }
  7940  0117  291E               	goto	i1l4188
  7941  0118                     i1l4186:
  7942                           
  7943                           ;mcc_generated_files/usb/usb_device.c: 2872:                 {;mcc_generated_files/usb/u
      +                          sb_device.c: 2873:                     ep_data_in[SetupPkt.EPNum].bits.transfer_terminat
      +                          ed = 1;
  7944  0118  0844               	movf	68,w	;volatile
  7945  0119  390F               	andlw	15
  7946  011A  3ED0               	addlw	(low (_ep_data_in| 0))& (0+255)
  7947  011B  0086               	movwf	6
  7948  011C  0187               	clrf	7
  7949  011D  1481               	bsf	1,1
  7950  011E                     i1l4188:
  7951                           
  7952                           ;mcc_generated_files/usb/usb_device.c: 2878:             p->STAT.Val |= 0x04;
  7953  011E  0863               	movf	USBStdFeatureReqHandler@p,w
  7954  011F  0086               	movwf	6
  7955  0120  0864               	movf	USBStdFeatureReqHandler@p+1,w
  7956  0121  0087               	movwf	7
  7957  0122  1501               	bsf	1,2
  7958  0123                     i1l4190:
  7959                           
  7960                           ;mcc_generated_files/usb/usb_device.c: 2879:             p->STAT.Val |= 0x80;
  7961  0123  0863               	movf	USBStdFeatureReqHandler@p,w
  7962  0124  0086               	movwf	6
  7963  0125  0864               	movf	USBStdFeatureReqHandler@p+1,w
  7964  0126  0087               	movwf	7
  7965  0127  1781               	bsf	1,7
  7966                           
  7967                           ;mcc_generated_files/usb/usb_device.c: 2880:         }
  7968  0128  29B1               	goto	i1l553
  7969  0129                     i1l4192:
  7970                           
  7971                           ;mcc_generated_files/usb/usb_device.c: 2882:         {;mcc_generated_files/usb/usb_devic
      +                          e.c: 2886:                 p = (BDT_ENTRY*)(((uint16_t)p) ^ 0x0004);
  7972  0129  3004               	movlw	4
  7973  012A  0663               	xorwf	USBStdFeatureReqHandler@p,w
  7974  012B  00E3               	movwf	USBStdFeatureReqHandler@p
  7975  012C  3000               	movlw	0
  7976  012D  0664               	xorwf	USBStdFeatureReqHandler@p+1,w
  7977  012E  00E4               	movwf	USBStdFeatureReqHandler@p+1
  7978  012F                     i1l4194:
  7979                           
  7980                           ;mcc_generated_files/usb/usb_device.c: 2888:                 if(p->STAT.UOWN == 1)
  7981  012F  0863               	movf	USBStdFeatureReqHandler@p,w
  7982  0130  0086               	movwf	6
  7983  0131  0864               	movf	USBStdFeatureReqHandler@p+1,w
  7984  0132  0087               	movwf	7
  7985  0133  1F81               	btfss	1,7
  7986  0134  2936               	goto	u240_21
  7987  0135  2937               	goto	u240_20
  7988  0136                     u240_21:
  7989  0136  2954               	goto	i1l4202
  7990  0137                     u240_20:
  7991  0137                     i1l4196:
  7992                           
  7993                           ;mcc_generated_files/usb/usb_device.c: 2889:                 {;mcc_generated_files/usb/u
      +                          sb_device.c: 2892:                     p->STAT.Val &= (~0x80);
  7994  0137  307F               	movlw	127
  7995  0138  00F9               	movwf	??_USBStdFeatureReqHandler
  7996  0139  0863               	movf	USBStdFeatureReqHandler@p,w
  7997  013A  0086               	movwf	6
  7998  013B  0864               	movf	USBStdFeatureReqHandler@p+1,w
  7999  013C  0087               	movwf	7
  8000  013D  0879               	movf	??_USBStdFeatureReqHandler,w
  8001  013E  0581               	andwf	1,f
  8002  013F                     i1l4198:
  8003                           
  8004                           ;mcc_generated_files/usb/usb_device.c: 2893:                     p->STAT.Val |= 0x40;
  8005  013F  0863               	movf	USBStdFeatureReqHandler@p,w
  8006  0140  0086               	movwf	6
  8007  0141  0864               	movf	USBStdFeatureReqHandler@p+1,w
  8008  0142  0087               	movwf	7
  8009  0143  1701               	bsf	1,6
  8010  0144                     i1l4200:
  8011                           
  8012                           ;mcc_generated_files/usb/usb_device.c: 2894:                     USER_USB_CALLBACK_EVENT
      +                          _HANDLER((USB_EVENT)EVENT_TRANSFER_TERMINATED,p,sizeof(p));
  8013  0144  3005               	movlw	5
  8014  0145  00F3               	movwf	USER_USB_CALLBACK_EVENT_HANDLER@event
  8015  0146  3000               	movlw	0
  8016  0147  00F4               	movwf	USER_USB_CALLBACK_EVENT_HANDLER@event+1
  8017  0148  0864               	movf	USBStdFeatureReqHandler@p+1,w
  8018  0149  00F6               	movwf	USER_USB_CALLBACK_EVENT_HANDLER@pdata+1
  8019  014A  0863               	movf	USBStdFeatureReqHandler@p,w
  8020  014B  00F5               	movwf	USER_USB_CALLBACK_EVENT_HANDLER@pdata
  8021  014C  3002               	movlw	2
  8022  014D  00F7               	movwf	USER_USB_CALLBACK_EVENT_HANDLER@size
  8023  014E  3000               	movlw	0
  8024  014F  00F8               	movwf	USER_USB_CALLBACK_EVENT_HANDLER@size+1
  8025  0150  318B  2308  3180   	fcall	_USER_USB_CALLBACK_EVENT_HANDLER
  8026                           
  8027                           ;mcc_generated_files/usb/usb_device.c: 2895:                 }
  8028  0153  2959               	goto	i1l4204
  8029  0154                     i1l4202:
  8030                           
  8031                           ;mcc_generated_files/usb/usb_device.c: 2897:                 {;mcc_generated_files/usb/u
      +                          sb_device.c: 2899:      p->STAT.Val |= 0x40;
  8032  0154  0863               	movf	USBStdFeatureReqHandler@p,w
  8033  0155  0086               	movwf	6
  8034  0156  0864               	movf	USBStdFeatureReqHandler@p+1,w
  8035  0157  0087               	movwf	7
  8036  0158  1701               	bsf	1,6
  8037  0159                     i1l4204:
  8038                           
  8039                           ;mcc_generated_files/usb/usb_device.c: 2904:                 p = (BDT_ENTRY*)(((uint16_t
      +                          )p) ^ 0x0004);
  8040  0159  3004               	movlw	4
  8041  015A  0020               	movlb	0	; select bank0
  8042  015B  0663               	xorwf	USBStdFeatureReqHandler@p,w
  8043  015C  00E3               	movwf	USBStdFeatureReqHandler@p
  8044  015D  3000               	movlw	0
  8045  015E  0664               	xorwf	USBStdFeatureReqHandler@p+1,w
  8046  015F  00E4               	movwf	USBStdFeatureReqHandler@p+1
  8047  0160                     i1l4206:
  8048                           
  8049                           ;mcc_generated_files/usb/usb_device.c: 2910:                 if((current_ep_data.bits.tr
      +                          ansfer_terminated != 0) || (p->STAT.UOWN == 1))
  8050  0160  18E2               	btfsc	USBStdFeatureReqHandler@current_ep_data,1
  8051  0161  2963               	goto	u241_21
  8052  0162  2964               	goto	u241_20
  8053  0163                     u241_21:
  8054  0163  296C               	goto	i1l549
  8055  0164                     u241_20:
  8056  0164                     i1l4208:
  8057  0164  0863               	movf	USBStdFeatureReqHandler@p,w
  8058  0165  0086               	movwf	6
  8059  0166  0864               	movf	USBStdFeatureReqHandler@p+1,w
  8060  0167  0087               	movwf	7
  8061  0168  1F81               	btfss	1,7
  8062  0169  296B               	goto	u242_21
  8063  016A  296C               	goto	u242_20
  8064  016B                     u242_21:
  8065  016B  2995               	goto	i1l4216
  8066  016C                     u242_20:
  8067  016C                     i1l549:
  8068                           
  8069                           ;mcc_generated_files/usb/usb_device.c: 2911:                 {;mcc_generated_files/usb/u
      +                          sb_device.c: 2912:                     if(SetupPkt.EPDir == 0)
  8070  016C  1BC4               	btfsc	68,7	;volatile
  8071  016D  296F               	goto	u243_21
  8072  016E  2970               	goto	u243_20
  8073  016F                     u243_21:
  8074  016F  2977               	goto	i1l4212
  8075  0170                     u243_20:
  8076  0170                     i1l4210:
  8077                           
  8078                           ;mcc_generated_files/usb/usb_device.c: 2913:                     {;mcc_generated_files/u
      +                          sb/usb_device.c: 2914:                         ep_data_out[SetupPkt.EPNum].bits.transfer
      +                          _terminated = 0;
  8079  0170  0844               	movf	68,w	;volatile
  8080  0171  390F               	andlw	15
  8081  0172  3ECE               	addlw	(low (_ep_data_out| 0))& (0+255)
  8082  0173  0086               	movwf	6
  8083  0174  0187               	clrf	7
  8084  0175  1081               	bcf	1,1
  8085                           
  8086                           ;mcc_generated_files/usb/usb_device.c: 2915:                     }
  8087  0176  297D               	goto	i1l551
  8088  0177                     i1l4212:
  8089                           
  8090                           ;mcc_generated_files/usb/usb_device.c: 2917:                     {;mcc_generated_files/u
      +                          sb/usb_device.c: 2918:                         ep_data_in[SetupPkt.EPNum].bits.transfer_
      +                          terminated = 0;
  8091  0177  0844               	movf	68,w	;volatile
  8092  0178  390F               	andlw	15
  8093  0179  3ED0               	addlw	(low (_ep_data_in| 0))& (0+255)
  8094  017A  0086               	movwf	6
  8095  017B  0187               	clrf	7
  8096  017C  1081               	bcf	1,1
  8097  017D                     i1l551:	
  8098                           ;mcc_generated_files/usb/usb_device.c: 2919:                     }
  8099                           
  8100                           
  8101                           ;mcc_generated_files/usb/usb_device.c: 2921:                     p->STAT.Val &= ~(0x80 |
      +                           0x40 | 0x04);
  8102  017D  303B               	movlw	59
  8103  017E  00F9               	movwf	??_USBStdFeatureReqHandler
  8104  017F  0863               	movf	USBStdFeatureReqHandler@p,w
  8105  0180  0086               	movwf	6
  8106  0181  0864               	movf	USBStdFeatureReqHandler@p+1,w
  8107  0182  0087               	movwf	7
  8108  0183  0879               	movf	??_USBStdFeatureReqHandler,w
  8109  0184  0581               	andwf	1,f
  8110  0185                     i1l4214:
  8111                           
  8112                           ;mcc_generated_files/usb/usb_device.c: 2924:                     USER_USB_CALLBACK_EVENT
      +                          _HANDLER((USB_EVENT)EVENT_TRANSFER_TERMINATED,p,sizeof(p));
  8113  0185  3005               	movlw	5
  8114  0186  00F3               	movwf	USER_USB_CALLBACK_EVENT_HANDLER@event
  8115  0187  3000               	movlw	0
  8116  0188  00F4               	movwf	USER_USB_CALLBACK_EVENT_HANDLER@event+1
  8117  0189  0864               	movf	USBStdFeatureReqHandler@p+1,w
  8118  018A  00F6               	movwf	USER_USB_CALLBACK_EVENT_HANDLER@pdata+1
  8119  018B  0863               	movf	USBStdFeatureReqHandler@p,w
  8120  018C  00F5               	movwf	USER_USB_CALLBACK_EVENT_HANDLER@pdata
  8121  018D  3002               	movlw	2
  8122  018E  00F7               	movwf	USER_USB_CALLBACK_EVENT_HANDLER@size
  8123  018F  3000               	movlw	0
  8124  0190  00F8               	movwf	USER_USB_CALLBACK_EVENT_HANDLER@size+1
  8125  0191  318B  2308  3180   	fcall	_USER_USB_CALLBACK_EVENT_HANDLER
  8126                           
  8127                           ;mcc_generated_files/usb/usb_device.c: 2925:                 }
  8128  0194  299D               	goto	i1l4218
  8129  0195                     i1l4216:
  8130                           
  8131                           ;mcc_generated_files/usb/usb_device.c: 2927:                 {;mcc_generated_files/usb/u
      +                          sb_device.c: 2929:                     p->STAT.Val &= ~(0x80 | 0x40 | 0x04);
  8132  0195  303B               	movlw	59
  8133  0196  00F9               	movwf	??_USBStdFeatureReqHandler
  8134  0197  0863               	movf	USBStdFeatureReqHandler@p,w
  8135  0198  0086               	movwf	6
  8136  0199  0864               	movf	USBStdFeatureReqHandler@p+1,w
  8137  019A  0087               	movwf	7
  8138  019B  0879               	movf	??_USBStdFeatureReqHandler,w
  8139  019C  0581               	andwf	1,f
  8140  019D                     i1l4218:
  8141                           
  8142                           ;mcc_generated_files/usb/usb_device.c: 2977:                 pUEP = (unsigned char*)(&UE
      +                          P0+SetupPkt.EPNum);
  8143  019D  0020               	movlb	0	; select bank0
  8144  019E  0844               	movf	68,w	;volatile
  8145  019F  390F               	andlw	15
  8146  01A0  3E98               	addlw	152
  8147  01A1  00F9               	movwf	??_USBStdFeatureReqHandler
  8148  01A2  01FA               	clrf	??_USBStdFeatureReqHandler+1
  8149  01A3  300E               	movlw	14
  8150  01A4  3DFA               	addwfc	??_USBStdFeatureReqHandler+1,f
  8151  01A5  0879               	movf	??_USBStdFeatureReqHandler,w
  8152  01A6  00E0               	movwf	USBStdFeatureReqHandler@pUEP
  8153  01A7  087A               	movf	??_USBStdFeatureReqHandler+1,w
  8154  01A8  00E1               	movwf	USBStdFeatureReqHandler@pUEP+1
  8155  01A9                     i1l4220:
  8156                           
  8157                           ;mcc_generated_files/usb/usb_device.c: 2981:             *pUEP &= ~0x0001;
  8158  01A9  30FE               	movlw	254
  8159  01AA  00F9               	movwf	??_USBStdFeatureReqHandler
  8160  01AB  0860               	movf	USBStdFeatureReqHandler@pUEP,w
  8161  01AC  0086               	movwf	6
  8162  01AD  0861               	movf	USBStdFeatureReqHandler@pUEP+1,w
  8163  01AE  0087               	movwf	7
  8164  01AF  0879               	movf	??_USBStdFeatureReqHandler,w
  8165  01B0  0581               	andwf	1,f
  8166  01B1                     i1l553:
  8167  01B1  0008               	return
  8168  01B2                     __end_of_USBStdFeatureReqHandler:
  8169                           
  8170                           	psect	text29
  8171  0B08                     __ptext29:	
  8172 ;; *************** function _USER_USB_CALLBACK_EVENT_HANDLER *****************
  8173 ;; Defined at:
  8174 ;;		line 49 in file "mcc_generated_files/usb/usb_device_events.c"
  8175 ;; Parameters:    Size  Location     Type
  8176 ;;  event           2    3[COMMON] enum E46
  8177 ;;  pdata           2    5[COMMON] PTR void 
  8178 ;;		 -> RAM(4096), USTATcopy(1), USBActiveConfiguration(1), BDT(32), 
  8179 ;;		 -> NULL(0), 
  8180 ;;  size            2    7[COMMON] unsigned short 
  8181 ;; Auto vars:     Size  Location     Type
  8182 ;;		None
  8183 ;; Return value:  Size  Location     Type
  8184 ;;                  1    wreg      _Bool 
  8185 ;; Registers used:
  8186 ;;		wreg, fsr0l, fsr0h, status,2, status,0, pclath, cstack
  8187 ;; Tracked objects:
  8188 ;;		On entry : 0/0
  8189 ;;		On exit  : 0/0
  8190 ;;		Unchanged: 0/0
  8191 ;; Data sizes:     COMMON  BANK0h   BANK1   BANK2   BANK3   BANK4   BANK5   BANK6   BANK7   BANK8   BANK9  BANK10  BANK1
      +1  BANK12
  8192 ;;      Params:         6       0       0       0       0       0       0       0       0       0       0       0       
      +0       0
  8193 ;;      Locals:         0       0       0       0       0       0       0       0       0       0       0       0       
      +0       0
  8194 ;;      Temps:          0       0       0       0       0       0       0       0       0       0       0       0       
      +0       0
  8195 ;;      Totals:         6       0       0       0       0       0       0       0       0       0       0       0       
      +0       0
  8196 ;;Total ram usage:        6 bytes
  8197 ;; Hardware stack levels used:    1
  8198 ;; Hardware stack levels required when called:    1
  8199 ;; This function calls:
  8200 ;;		_USBCheckVendorRequest
  8201 ;; This function is called by:
  8202 ;;		_USBDeviceTasks
  8203 ;;		_USBStdSetCfgHandler
  8204 ;;		_USBSuspend
  8205 ;;		_USBWakeFromSuspend
  8206 ;;		_USBCtrlTrfSetupHandler
  8207 ;;		_USBCheckStdRequest
  8208 ;;		_USBStdFeatureReqHandler
  8209 ;; This function uses a non-reentrant model
  8210 ;;
  8211                           
  8212                           
  8213                           ;psect for function _USER_USB_CALLBACK_EVENT_HANDLER
  8214  0B08                     _USER_USB_CALLBACK_EVENT_HANDLER:
  8215  0B08                     i1l3836:	
  8216                           ;incstack = 0
  8217                           ; Regs used in _USER_USB_CALLBACK_EVENT_HANDLER: [wreg-fsr0h+status,2+status,0+pclath+cs
      +                          tack]
  8218                           
  8219                           
  8220                           ;mcc_generated_files/usb/usb_device_events.c: 49: _Bool USER_USB_CALLBACK_EVENT_HANDLER(
      +                          USB_EVENT event, void *pdata, uint16_t size);mcc_generated_files/usb/usb_device_events.c
      +                          : 50: {;mcc_generated_files/usb/usb_device_events.c: 51:     switch( (int) event )
  8221  0B08  2B0D               	goto	i1l3842
  8222  0B09                     i1l3838:
  8223                           
  8224                           ;mcc_generated_files/usb/usb_device_events.c: 84:             USBCheckVendorRequest();
  8225  0B09  318D  25A7  318B   	fcall	_USBCheckVendorRequest
  8226                           
  8227                           ;mcc_generated_files/usb/usb_device_events.c: 85:             break;
  8228  0B0C  2B34               	goto	i1l163
  8229  0B0D                     i1l3842:
  8230                           
  8231                           ; Switch on 2 bytes has been partitioned into a top level switch of size 1, and 2 sub-sw
      +                          itches
  8232                           ; Switch size 1, requested type "simple"
  8233                           ; Number of cases is 2, Range of values is 0 to 127
  8234                           ; switch strategies available:
  8235                           ; Name         Instructions Cycles
  8236                           ; simple_byte            7     4 (average)
  8237                           ; direct_byte          262     6 (fixed)
  8238                           ; jumptable            260     6 (fixed)
  8239                           ;	Chosen strategy is simple_byte
  8240  0B0D  0874               	movf	USER_USB_CALLBACK_EVENT_HANDLER@event+1,w
  8241  0B0E  3A00               	xorlw	0	; case 0
  8242  0B0F  1903               	skipnz
  8243  0B10  2B15               	goto	i1l6262
  8244  0B11  3A7F               	xorlw	127	; case 127
  8245  0B12  1903               	skipnz
  8246  0B13  2B2F               	goto	i1l6264
  8247  0B14  2B34               	goto	i1l163
  8248  0B15                     i1l6262:
  8249                           
  8250                           ; Switch size 1, requested type "simple"
  8251                           ; Number of cases is 8, Range of values is 1 to 117
  8252                           ; switch strategies available:
  8253                           ; Name         Instructions Cycles
  8254                           ; simple_byte           25    13 (average)
  8255                           ; direct_byte          243     9 (fixed)
  8256                           ; jumptable            263     9 (fixed)
  8257                           ;	Chosen strategy is simple_byte
  8258  0B15  0873               	movf	USER_USB_CALLBACK_EVENT_HANDLER@event,w
  8259  0B16  3A01               	xorlw	1	; case 1
  8260  0B17  1903               	skipnz
  8261  0B18  2B34               	goto	i1l163
  8262  0B19  3A03               	xorlw	3	; case 2
  8263  0B1A  1903               	skipnz
  8264  0B1B  2B34               	goto	i1l163
  8265  0B1C  3A01               	xorlw	1	; case 3
  8266  0B1D  1903               	skipnz
  8267  0B1E  2B09               	goto	i1l3838
  8268  0B1F  3A06               	xorlw	6	; case 5
  8269  0B20  1903               	skipnz
  8270  0B21  2B34               	goto	i1l163
  8271  0B22  3A77               	xorlw	119	; case 114
  8272  0B23  1903               	skipnz
  8273  0B24  2B34               	goto	i1l163
  8274  0B25  3A01               	xorlw	1	; case 115
  8275  0B26  1903               	skipnz
  8276  0B27  2B34               	goto	i1l163
  8277  0B28  3A07               	xorlw	7	; case 116
  8278  0B29  1903               	skipnz
  8279  0B2A  2B34               	goto	i1l163
  8280  0B2B  3A01               	xorlw	1	; case 117
  8281  0B2C  1903               	skipnz
  8282  0B2D  2B34               	goto	i1l163
  8283  0B2E  2B34               	goto	i1l163
  8284  0B2F                     i1l6264:
  8285                           
  8286                           ; Switch size 1, requested type "simple"
  8287                           ; Number of cases is 1, Range of values is 255 to 255
  8288                           ; switch strategies available:
  8289                           ; Name         Instructions Cycles
  8290                           ; simple_byte            4     3 (average)
  8291                           ; direct_byte            7     5 (fixed)
  8292                           ; jumptable            263     9 (fixed)
  8293                           ;	Chosen strategy is simple_byte
  8294  0B2F  0873               	movf	USER_USB_CALLBACK_EVENT_HANDLER@event,w
  8295  0B30  3AFF               	xorlw	255	; case 255
  8296  0B31  1903               	skipnz
  8297  0B32  2B34               	goto	i1l163
  8298  0B33  2B34               	goto	i1l163
  8299  0B34                     i1l163:
  8300  0B34  0008               	return
  8301  0B35                     __end_of_USER_USB_CALLBACK_EVENT_HANDLER:
  8302                           
  8303                           	psect	text30
  8304  0DA7                     __ptext30:	
  8305 ;; *************** function _USBCheckVendorRequest *****************
  8306 ;; Defined at:
  8307 ;;		line 187 in file "mcc_generated_files/usb/usb_device_generic.c"
  8308 ;; Parameters:    Size  Location     Type
  8309 ;;		None
  8310 ;; Auto vars:     Size  Location     Type
  8311 ;;  Length          2    1[COMMON] unsigned short 
  8312 ;; Return value:  Size  Location     Type
  8313 ;;                  1    wreg      void 
  8314 ;; Registers used:
  8315 ;;		wreg, fsr0l, fsr0h, status,2, status,0, pclath
  8316 ;; Tracked objects:
  8317 ;;		On entry : 0/0
  8318 ;;		On exit  : 0/0
  8319 ;;		Unchanged: 0/0
  8320 ;; Data sizes:     COMMON  BANK0h   BANK1   BANK2   BANK3   BANK4   BANK5   BANK6   BANK7   BANK8   BANK9  BANK10  BANK1
      +1  BANK12
  8321 ;;      Params:         0       0       0       0       0       0       0       0       0       0       0       0       
      +0       0
  8322 ;;      Locals:         2       0       0       0       0       0       0       0       0       0       0       0       
      +0       0
  8323 ;;      Temps:          1       0       0       0       0       0       0       0       0       0       0       0       
      +0       0
  8324 ;;      Totals:         3       0       0       0       0       0       0       0       0       0       0       0       
      +0       0
  8325 ;;Total ram usage:        3 bytes
  8326 ;; Hardware stack levels used:    1
  8327 ;; This function calls:
  8328 ;;		Nothing
  8329 ;; This function is called by:
  8330 ;;		_USER_USB_CALLBACK_EVENT_HANDLER
  8331 ;; This function uses a non-reentrant model
  8332 ;;
  8333                           
  8334                           
  8335                           ;psect for function _USBCheckVendorRequest
  8336  0DA7                     _USBCheckVendorRequest:
  8337  0DA7                     i1l3812:	
  8338                           ;incstack = 0
  8339                           ; Regs used in _USBCheckVendorRequest: [wreg-fsr0h+status,2+status,0+pclath]
  8340                           
  8341                           
  8342                           ;mcc_generated_files/usb/usb_device_generic.c: 190:         uint16_t Length;;mcc_generat
      +                          ed_files/usb/usb_device_generic.c: 193:         if(SetupPkt.bmRequestType == 0b11000000)
  8343  0DA7  30C0               	movlw	192
  8344  0DA8  0020               	movlb	0	; select bank0
  8345  0DA9  0640               	xorwf	64,w	;volatile
  8346  0DAA  1D03               	btfss	3,2
  8347  0DAB  2DAD               	goto	u187_21
  8348  0DAC  2DAE               	goto	u187_20
  8349  0DAD                     u187_21:
  8350  0DAD  2DDE               	goto	i1l3824
  8351  0DAE                     u187_20:
  8352  0DAE                     i1l3814:
  8353                           
  8354                           ;mcc_generated_files/usb/usb_device_generic.c: 194:         {;mcc_generated_files/usb/us
      +                          b_device_generic.c: 196:             if(SetupPkt.bRequest == (unsigned char)0xEE)
  8355  0DAE  30EE               	movlw	238
  8356  0DAF  0641               	xorwf	65,w	;volatile
  8357  0DB0  1D03               	btfss	3,2
  8358  0DB1  2DB3               	goto	u188_21
  8359  0DB2  2DB4               	goto	u188_20
  8360  0DB3                     u188_21:
  8361  0DB3  2E13               	goto	i1l146
  8362  0DB4                     u188_20:
  8363  0DB4                     i1l3816:
  8364                           
  8365                           ;mcc_generated_files/usb/usb_device_generic.c: 197:             {;mcc_generated_files/us
      +                          b/usb_device_generic.c: 199:                 if(SetupPkt.wIndex == (uint16_t)0x0004)
  8366  0DB4  3004               	movlw	4
  8367  0DB5  0644               	xorwf	68,w	;volatile
  8368  0DB6  0445               	iorwf	69,w	;volatile
  8369  0DB7  1D03               	btfss	3,2
  8370  0DB8  2DBA               	goto	u189_21
  8371  0DB9  2DBB               	goto	u189_20
  8372  0DBA                     u189_21:
  8373  0DBA  2E13               	goto	i1l146
  8374  0DBB                     u189_20:
  8375  0DBB                     i1l3818:
  8376                           
  8377                           ;mcc_generated_files/usb/usb_device_generic.c: 200:                 {;mcc_generated_file
      +                          s/usb/usb_device_generic.c: 203:                     Length = CompatIDFeatureDescriptor.
      +                          dwLength;
  8378  0DBB  3034               	movlw	low (_CompatIDFeatureDescriptor| (0+32768))
  8379  0DBC  0084               	movwf	4
  8380  0DBD  3090               	movlw	high (_CompatIDFeatureDescriptor| (0+32768))
  8381  0DBE  0085               	movwf	5
  8382  0DBF  3F00               	moviw [0]fsr0
  8383  0DC0  00F1               	movwf	USBCheckVendorRequest@Length
  8384  0DC1  3F01               	moviw [1]fsr0
  8385  0DC2  00F2               	movwf	USBCheckVendorRequest@Length+1
  8386  0DC3                     i1l3820:
  8387                           
  8388                           ;mcc_generated_files/usb/usb_device_generic.c: 204:                     if(SetupPkt.wLen
      +                          gth < Length)
  8389  0DC3  0872               	movf	USBCheckVendorRequest@Length+1,w
  8390  0DC4  0247               	subwf	71,w	;volatile
  8391  0DC5  1D03               	skipz
  8392  0DC6  2DC9               	goto	u190_25
  8393  0DC7  0871               	movf	USBCheckVendorRequest@Length,w
  8394  0DC8  0246               	subwf	70,w	;volatile
  8395  0DC9                     u190_25:
  8396  0DC9  1803               	skipnc
  8397  0DCA  2DCC               	goto	u190_21
  8398  0DCB  2DCD               	goto	u190_20
  8399  0DCC                     u190_21:
  8400  0DCC  2DD1               	goto	i1l140
  8401  0DCD                     u190_20:
  8402  0DCD                     i1l3822:
  8403                           
  8404                           ;mcc_generated_files/usb/usb_device_generic.c: 205:                     {;mcc_generated_
      +                          files/usb/usb_device_generic.c: 206:                         Length = SetupPkt.wLength;
  8405  0DCD  0847               	movf	71,w	;volatile
  8406  0DCE  00F2               	movwf	USBCheckVendorRequest@Length+1
  8407  0DCF  0846               	movf	70,w	;volatile
  8408  0DD0  00F1               	movwf	USBCheckVendorRequest@Length
  8409  0DD1                     i1l140:	
  8410                           ;mcc_generated_files/usb/usb_device_generic.c: 207:                     }
  8411                           
  8412                           
  8413                           ;mcc_generated_files/usb/usb_device_generic.c: 210:                     { inPipes[0].pSr
      +                          c.bRom = (const uint8_t*)&CompatIDFeatureDescriptor; inPipes[0].wCount.Val = Length; inP
      +                          ipes[0].info.Val = 0x00 | 0x40 | 0x80 | 0x00; };
  8414  0DD1  3034               	movlw	low (_CompatIDFeatureDescriptor| (0+32768))
  8415  0DD2  00D0               	movwf	_inPipes	;volatile
  8416  0DD3  3090               	movlw	high (_CompatIDFeatureDescriptor| (0+32768))
  8417  0DD4  00D1               	movwf	_inPipes+1	;volatile
  8418  0DD5  0872               	movf	USBCheckVendorRequest@Length+1,w
  8419  0DD6  00D4               	movwf	_inPipes+4	;volatile
  8420  0DD7  0871               	movf	USBCheckVendorRequest@Length,w
  8421  0DD8  00D3               	movwf	_inPipes+3	;volatile
  8422  0DD9  30C0               	movlw	192
  8423  0DDA  00F0               	movwf	??_USBCheckVendorRequest
  8424  0DDB  0870               	movf	??_USBCheckVendorRequest,w
  8425  0DDC  00D2               	movwf	_inPipes+2	;volatile
  8426  0DDD  2E13               	goto	i1l146
  8427  0DDE                     i1l3824:
  8428  0DDE  30C1               	movlw	193
  8429  0DDF  0640               	xorwf	64,w	;volatile
  8430  0DE0  1D03               	btfss	3,2
  8431  0DE1  2DE3               	goto	u191_21
  8432  0DE2  2DE4               	goto	u191_20
  8433  0DE3                     u191_21:
  8434  0DE3  2E13               	goto	i1l146
  8435  0DE4                     u191_20:
  8436  0DE4                     i1l3826:
  8437                           
  8438                           ;mcc_generated_files/usb/usb_device_generic.c: 215:         {;mcc_generated_files/usb/us
      +                          b_device_generic.c: 217:             if(SetupPkt.bRequest == (unsigned char)0xEE)
  8439  0DE4  30EE               	movlw	238
  8440  0DE5  0641               	xorwf	65,w	;volatile
  8441  0DE6  1D03               	btfss	3,2
  8442  0DE7  2DE9               	goto	u192_21
  8443  0DE8  2DEA               	goto	u192_20
  8444  0DE9                     u192_21:
  8445  0DE9  2E13               	goto	i1l146
  8446  0DEA                     u192_20:
  8447  0DEA                     i1l3828:
  8448                           
  8449                           ;mcc_generated_files/usb/usb_device_generic.c: 218:             {;mcc_generated_files/us
      +                          b/usb_device_generic.c: 220:                 if(SetupPkt.wIndex == (uint16_t)0x0005)
  8450  0DEA  3005               	movlw	5
  8451  0DEB  0644               	xorwf	68,w	;volatile
  8452  0DEC  0445               	iorwf	69,w	;volatile
  8453  0DED  1D03               	btfss	3,2
  8454  0DEE  2DF0               	goto	u193_21
  8455  0DEF  2DF1               	goto	u193_20
  8456  0DF0                     u193_21:
  8457  0DF0  2E13               	goto	i1l146
  8458  0DF1                     u193_20:
  8459  0DF1                     i1l3830:
  8460                           
  8461                           ;mcc_generated_files/usb/usb_device_generic.c: 221:                 {;mcc_generated_file
      +                          s/usb/usb_device_generic.c: 224:                     Length = ExtPropertyFeatureDescript
      +                          or.dwLength;
  8462  0DF1  30A3               	movlw	low (_ExtPropertyFeatureDescriptor| (0+32768))
  8463  0DF2  0084               	movwf	4
  8464  0DF3  3086               	movlw	high (_ExtPropertyFeatureDescriptor| (0+32768))
  8465  0DF4  0085               	movwf	5
  8466  0DF5  3F00               	moviw [0]fsr0
  8467  0DF6  00F1               	movwf	USBCheckVendorRequest@Length
  8468  0DF7  3F01               	moviw [1]fsr0
  8469  0DF8  00F2               	movwf	USBCheckVendorRequest@Length+1
  8470  0DF9                     i1l3832:
  8471                           
  8472                           ;mcc_generated_files/usb/usb_device_generic.c: 225:                     if(SetupPkt.wLen
      +                          gth < Length)
  8473  0DF9  0872               	movf	USBCheckVendorRequest@Length+1,w
  8474  0DFA  0247               	subwf	71,w	;volatile
  8475  0DFB  1D03               	skipz
  8476  0DFC  2DFF               	goto	u194_25
  8477  0DFD  0871               	movf	USBCheckVendorRequest@Length,w
  8478  0DFE  0246               	subwf	70,w	;volatile
  8479  0DFF                     u194_25:
  8480  0DFF  1803               	skipnc
  8481  0E00  2E02               	goto	u194_21
  8482  0E01  2E03               	goto	u194_20
  8483  0E02                     u194_21:
  8484  0E02  2E07               	goto	i1l145
  8485  0E03                     u194_20:
  8486  0E03                     i1l3834:
  8487                           
  8488                           ;mcc_generated_files/usb/usb_device_generic.c: 226:                     {;mcc_generated_
      +                          files/usb/usb_device_generic.c: 227:                         Length = SetupPkt.wLength;
  8489  0E03  0847               	movf	71,w	;volatile
  8490  0E04  00F2               	movwf	USBCheckVendorRequest@Length+1
  8491  0E05  0846               	movf	70,w	;volatile
  8492  0E06  00F1               	movwf	USBCheckVendorRequest@Length
  8493  0E07                     i1l145:	
  8494                           ;mcc_generated_files/usb/usb_device_generic.c: 228:                     }
  8495                           
  8496                           
  8497                           ;mcc_generated_files/usb/usb_device_generic.c: 231:                     { inPipes[0].pSr
      +                          c.bRom = (const uint8_t*)&ExtPropertyFeatureDescriptor; inPipes[0].wCount.Val = Length; 
      +                          inPipes[0].info.Val = 0x00 | 0x40 | 0x80 | 0x00; };
  8498  0E07  30A3               	movlw	low (_ExtPropertyFeatureDescriptor| (0+32768))
  8499  0E08  00D0               	movwf	_inPipes	;volatile
  8500  0E09  3086               	movlw	high (_ExtPropertyFeatureDescriptor| (0+32768))
  8501  0E0A  00D1               	movwf	_inPipes+1	;volatile
  8502  0E0B  0872               	movf	USBCheckVendorRequest@Length+1,w
  8503  0E0C  00D4               	movwf	_inPipes+4	;volatile
  8504  0E0D  0871               	movf	USBCheckVendorRequest@Length,w
  8505  0E0E  00D3               	movwf	_inPipes+3	;volatile
  8506  0E0F  30C0               	movlw	192
  8507  0E10  00F0               	movwf	??_USBCheckVendorRequest
  8508  0E11  0870               	movf	??_USBCheckVendorRequest,w
  8509  0E12  00D2               	movwf	_inPipes+2	;volatile
  8510  0E13                     i1l146:
  8511  0E13  0008               	return
  8512  0E14                     __end_of_USBCheckVendorRequest:
  8513                           
  8514                           	psect	text31
  8515  0BC0                     __ptext31:	
  8516 ;; *************** function _USBCtrlTrfOutHandler *****************
  8517 ;; Defined at:
  8518 ;;		line 2542 in file "mcc_generated_files/usb/usb_device.c"
  8519 ;; Parameters:    Size  Location     Type
  8520 ;;		None
  8521 ;; Auto vars:     Size  Location     Type
  8522 ;;		None
  8523 ;; Return value:  Size  Location     Type
  8524 ;;                  1    wreg      void 
  8525 ;; Registers used:
  8526 ;;		wreg, fsr1l, fsr1h, status,2, status,0, pclath, cstack
  8527 ;; Tracked objects:
  8528 ;;		On entry : 0/0
  8529 ;;		On exit  : 0/0
  8530 ;;		Unchanged: 0/0
  8531 ;; Data sizes:     COMMON  BANK0h   BANK1   BANK2   BANK3   BANK4   BANK5   BANK6   BANK7   BANK8   BANK9  BANK10  BANK1
      +1  BANK12
  8532 ;;      Params:         0       0       0       0       0       0       0       0       0       0       0       0       
      +0       0
  8533 ;;      Locals:         0       0       0       0       0       0       0       0       0       0       0       0       
      +0       0
  8534 ;;      Temps:          2       0       0       0       0       0       0       0       0       0       0       0       
      +0       0
  8535 ;;      Totals:         2       0       0       0       0       0       0       0       0       0       0       0       
      +0       0
  8536 ;;Total ram usage:        2 bytes
  8537 ;; Hardware stack levels used:    1
  8538 ;; Hardware stack levels required when called:    2
  8539 ;; This function calls:
  8540 ;;		_USBCtrlTrfRxService
  8541 ;; This function is called by:
  8542 ;;		_USBCtrlEPService
  8543 ;; This function uses a non-reentrant model
  8544 ;;
  8545                           
  8546                           
  8547                           ;psect for function _USBCtrlTrfOutHandler
  8548  0BC0                     _USBCtrlTrfOutHandler:
  8549  0BC0                     i1l4504:	
  8550                           ;incstack = 0
  8551                           ; Regs used in _USBCtrlTrfOutHandler: [wreg+fsr1l+fsr1h+status,2+status,0+pclath+cstack]
  8552                           
  8553                           
  8554                           ;mcc_generated_files/usb/usb_device.c: 2544:     if(controlTransferState == 2)
  8555  0BC0  3002               	movlw	2
  8556  0BC1  0020               	movlb	0	; select bank0
  8557  0BC2  065B               	xorwf	_controlTransferState,w	;volatile
  8558  0BC3  1D03               	btfss	3,2
  8559  0BC4  2BC6               	goto	u258_21
  8560  0BC5  2BC7               	goto	u258_20
  8561  0BC6                     u258_21:
  8562  0BC6  2BCB               	goto	i1l4508
  8563  0BC7                     u258_20:
  8564  0BC7                     i1l4506:
  8565                           
  8566                           ;mcc_generated_files/usb/usb_device.c: 2545:     {;mcc_generated_files/usb/usb_device.c:
      +                           2546:         USBCtrlTrfRxService();
  8567  0BC7  3183  2378  318B   	fcall	_USBCtrlTrfRxService
  8568                           
  8569                           ;mcc_generated_files/usb/usb_device.c: 2547:     }
  8570  0BCA  2BF9               	goto	i1l495
  8571  0BCB                     i1l4508:
  8572                           
  8573                           ;mcc_generated_files/usb/usb_device.c: 2549:     {;mcc_generated_files/usb/usb_device.c:
      +                           2552:         controlTransferState = 0;
  8574  0BCB  01DB               	clrf	_controlTransferState	;volatile
  8575  0BCC                     i1l4510:
  8576                           
  8577                           ;mcc_generated_files/usb/usb_device.c: 2559:         if(BothEP0OutUOWNsSet == 0)
  8578  0BCC  0021               	movlb	1	; select bank1
  8579  0BCD  085B               	movf	_BothEP0OutUOWNsSet^(0+128),w	;volatile
  8580  0BCE  1D03               	btfss	3,2
  8581  0BCF  2BD1               	goto	u259_21
  8582  0BD0  2BD2               	goto	u259_20
  8583  0BD1                     u259_21:
  8584  0BD1  2BF8               	goto	i1l4520
  8585  0BD2                     u259_20:
  8586  0BD2                     i1l4512:
  8587                           
  8588                           ;mcc_generated_files/usb/usb_device.c: 2560:         {;mcc_generated_files/usb/usb_devic
      +                          e.c: 2561:             pBDTEntryEP0OutNext->CNT = 8;
  8589  0BD2  0020               	movlb	0	; select bank0
  8590  0BD3  0859               	movf	_pBDTEntryEP0OutNext,w
  8591  0BD4  3E01               	addlw	1
  8592  0BD5  00F6               	movwf	??_USBCtrlTrfOutHandler
  8593  0BD6  3000               	movlw	0
  8594  0BD7  3D5A               	addwfc	_pBDTEntryEP0OutNext+1,w
  8595  0BD8  00F7               	movwf	??_USBCtrlTrfOutHandler+1
  8596  0BD9  0876               	movf	??_USBCtrlTrfOutHandler,w
  8597  0BDA  0086               	movwf	6
  8598  0BDB  0877               	movf	??_USBCtrlTrfOutHandler+1,w
  8599  0BDC  0087               	movwf	7
  8600  0BDD  3008               	movlw	8
  8601  0BDE  0081               	movwf	1
  8602  0BDF                     i1l4514:
  8603                           
  8604                           ;mcc_generated_files/usb/usb_device.c: 2562:             pBDTEntryEP0OutNext->ADR = (((u
      +                          int16_t)(&SetupPkt)) & 0x7FFF);
  8605  0BDF  3040               	movlw	64
  8606  0BE0  00F6               	movwf	??_USBCtrlTrfOutHandler
  8607  0BE1  3000               	movlw	0
  8608  0BE2  00F7               	movwf	??_USBCtrlTrfOutHandler+1
  8609  0BE3  0859               	movf	_pBDTEntryEP0OutNext,w
  8610  0BE4  0086               	movwf	6
  8611  0BE5  085A               	movf	_pBDTEntryEP0OutNext+1,w
  8612  0BE6  0087               	movwf	7
  8613  0BE7  3142               	addfsr 1,2
  8614  0BE8  0876               	movf	??_USBCtrlTrfOutHandler,w
  8615  0BE9  3FC0               	movwi [0]fsr1
  8616  0BEA  0877               	movf	??_USBCtrlTrfOutHandler+1,w
  8617  0BEB  3FC1               	movwi [1]fsr1
  8618  0BEC                     i1l4516:
  8619                           
  8620                           ;mcc_generated_files/usb/usb_device.c: 2563:             pBDTEntryEP0OutNext->STAT.Val =
      +                           0x00|(0x08 & 0x08)|0x04;
  8621  0BEC  0859               	movf	_pBDTEntryEP0OutNext,w
  8622  0BED  0086               	movwf	6
  8623  0BEE  085A               	movf	_pBDTEntryEP0OutNext+1,w
  8624  0BEF  0087               	movwf	7
  8625  0BF0  300C               	movlw	12
  8626  0BF1  0081               	movwf	1
  8627  0BF2                     i1l4518:
  8628                           
  8629                           ;mcc_generated_files/usb/usb_device.c: 2564:             pBDTEntryEP0OutNext->STAT.Val |
      +                          = 0x80;
  8630  0BF2  0859               	movf	_pBDTEntryEP0OutNext,w
  8631  0BF3  0086               	movwf	6
  8632  0BF4  085A               	movf	_pBDTEntryEP0OutNext+1,w
  8633  0BF5  0087               	movwf	7
  8634  0BF6  1781               	bsf	1,7
  8635                           
  8636                           ;mcc_generated_files/usb/usb_device.c: 2565:         }
  8637  0BF7  2BF9               	goto	i1l495
  8638  0BF8                     i1l4520:
  8639                           
  8640                           ;mcc_generated_files/usb/usb_device.c: 2567:         {;mcc_generated_files/usb/usb_devic
      +                          e.c: 2568:                 BothEP0OutUOWNsSet = 0;
  8641  0BF8  01DB               	clrf	_BothEP0OutUOWNsSet^(0+128)	;volatile
  8642  0BF9                     i1l495:
  8643  0BF9  0008               	return
  8644  0BFA                     __end_of_USBCtrlTrfOutHandler:
  8645                           
  8646                           	psect	text32
  8647  0378                     __ptext32:	
  8648 ;; *************** function _USBCtrlTrfRxService *****************
  8649 ;; Defined at:
  8650 ;;		line 1856 in file "mcc_generated_files/usb/usb_device.c"
  8651 ;; Parameters:    Size  Location     Type
  8652 ;;		None
  8653 ;; Auto vars:     Size  Location     Type
  8654 ;;  byteToRead      1    5[COMMON] unsigned char 
  8655 ;;  i               1    4[COMMON] unsigned char 
  8656 ;; Return value:  Size  Location     Type
  8657 ;;                  1    wreg      void 
  8658 ;; Registers used:
  8659 ;;		wreg, fsr1l, fsr1h, status,2, status,0, pclath, cstack
  8660 ;; Tracked objects:
  8661 ;;		On entry : 0/0
  8662 ;;		On exit  : 0/0
  8663 ;;		Unchanged: 0/0
  8664 ;; Data sizes:     COMMON  BANK0h   BANK1   BANK2   BANK3   BANK4   BANK5   BANK6   BANK7   BANK8   BANK9  BANK10  BANK1
      +1  BANK12
  8665 ;;      Params:         0       0       0       0       0       0       0       0       0       0       0       0       
      +0       0
  8666 ;;      Locals:         2       0       0       0       0       0       0       0       0       0       0       0       
      +0       0
  8667 ;;      Temps:          2       0       0       0       0       0       0       0       0       0       0       0       
      +0       0
  8668 ;;      Totals:         4       0       0       0       0       0       0       0       0       0       0       0       
      +0       0
  8669 ;;Total ram usage:        4 bytes
  8670 ;; Hardware stack levels used:    1
  8671 ;; Hardware stack levels required when called:    1
  8672 ;; This function calls:
  8673 ;;		_USBCtrlEPAllowStatusStage
  8674 ;; This function is called by:
  8675 ;;		_USBCtrlTrfOutHandler
  8676 ;; This function uses a non-reentrant model
  8677 ;;
  8678                           
  8679                           
  8680                           ;psect for function _USBCtrlTrfRxService
  8681  0378                     _USBCtrlTrfRxService:
  8682  0378                     i1l4322:	
  8683                           ;incstack = 0
  8684                           ; Regs used in _USBCtrlTrfRxService: [wreg+fsr1l+fsr1h+status,2+status,0+pclath+cstack]
  8685                           
  8686                           
  8687                           ;mcc_generated_files/usb/usb_device.c: 1858:     uint8_t byteToRead;;mcc_generated_files
      +                          /usb/usb_device.c: 1859:     uint8_t i;;mcc_generated_files/usb/usb_device.c: 1863:     
      +                          byteToRead = pBDTEntryEP0OutCurrent->CNT;
  8688  0378  0020               	movlb	0	; select bank0
  8689  0379  085C               	movf	_pBDTEntryEP0OutCurrent,w
  8690  037A  0086               	movwf	6
  8691  037B  0187               	clrf	7
  8692  037C  3F41               	moviw [1]fsr1
  8693  037D  00F5               	movwf	USBCtrlTrfRxService@byteToRead
  8694  037E                     i1l4324:
  8695                           
  8696                           ;mcc_generated_files/usb/usb_device.c: 1869:     if(byteToRead > outPipes[0].wCount.Val)
  8697  037E  0875               	movf	USBCtrlTrfRxService@byteToRead,w
  8698  037F  00F2               	movwf	??_USBCtrlTrfRxService
  8699  0380  01F3               	clrf	??_USBCtrlTrfRxService+1
  8700  0381  0873               	movf	??_USBCtrlTrfRxService+1,w
  8701  0382  0021               	movlb	1	; select bank1
  8702  0383  0241               	subwf	((_outPipes+1)^(0+128)+3),w	;volatile
  8703  0384  1D03               	skipz
  8704  0385  2B88               	goto	u251_25
  8705  0386  0872               	movf	??_USBCtrlTrfRxService,w
  8706  0387  0240               	subwf	(_outPipes^(0+128)+3),w	;volatile
  8707  0388                     u251_25:
  8708  0388  1803               	skipnc
  8709  0389  2B8B               	goto	u251_21
  8710  038A  2B8C               	goto	u251_20
  8711  038B                     u251_21:
  8712  038B  2B90               	goto	i1l414
  8713  038C                     u251_20:
  8714  038C                     i1l4326:
  8715                           
  8716                           ;mcc_generated_files/usb/usb_device.c: 1870:     {;mcc_generated_files/usb/usb_device.c:
      +                           1871:         byteToRead = outPipes[0].wCount.Val;
  8717  038C  0840               	movf	(_outPipes^(0+128)+3),w	;volatile
  8718  038D  00F2               	movwf	??_USBCtrlTrfRxService
  8719  038E  0872               	movf	??_USBCtrlTrfRxService,w
  8720  038F  00F5               	movwf	USBCtrlTrfRxService@byteToRead
  8721  0390                     i1l414:	
  8722                           ;mcc_generated_files/usb/usb_device.c: 1872:     }
  8723                           
  8724                           
  8725                           ;mcc_generated_files/usb/usb_device.c: 1874:     outPipes[0].wCount.Val -= byteToRead;
  8726  0390  0875               	movf	USBCtrlTrfRxService@byteToRead,w
  8727  0391  00F2               	movwf	??_USBCtrlTrfRxService
  8728  0392  01F3               	clrf	??_USBCtrlTrfRxService+1
  8729  0393  0872               	movf	??_USBCtrlTrfRxService,w
  8730  0394  02C0               	subwf	(_outPipes^(0+128)+3),f	;volatile
  8731  0395  0873               	movf	??_USBCtrlTrfRxService+1,w
  8732  0396  3BC1               	subwfb	((_outPipes+1)^(0+128)+3),f	;volatile
  8733  0397                     i1l4328:
  8734                           
  8735                           ;mcc_generated_files/usb/usb_device.c: 1878:     for(i=0;i<byteToRead;i++)
  8736  0397  01F4               	clrf	USBCtrlTrfRxService@i
  8737  0398  2BAC               	goto	i1l4336
  8738  0399                     i1l4330:
  8739                           
  8740                           ;mcc_generated_files/usb/usb_device.c: 1879:     {;mcc_generated_files/usb/usb_device.c:
      +                           1880:         *outPipes[0].pDst.bRam++ = CtrlTrfData[i];
  8741  0399  0874               	movf	USBCtrlTrfRxService@i,w
  8742  039A  3E48               	addlw	72
  8743  039B  0086               	movwf	6
  8744  039C  0187               	clrf	7
  8745  039D  0801               	movf	1,w
  8746  039E  00F2               	movwf	??_USBCtrlTrfRxService
  8747  039F  083D               	movf	_outPipes^(0+128),w	;volatile
  8748  03A0  0086               	movwf	6
  8749  03A1  0187               	clrf	7
  8750  03A2  0872               	movf	??_USBCtrlTrfRxService,w
  8751  03A3  0081               	movwf	1
  8752  03A4                     i1l4332:
  8753  03A4  3001               	movlw	1
  8754  03A5  00F2               	movwf	??_USBCtrlTrfRxService
  8755  03A6  0872               	movf	??_USBCtrlTrfRxService,w
  8756  03A7  07BD               	addwf	_outPipes^(0+128),f	;volatile
  8757  03A8                     i1l4334:
  8758                           
  8759                           ;mcc_generated_files/usb/usb_device.c: 1881:     }
  8760  03A8  3001               	movlw	1
  8761  03A9  00F2               	movwf	??_USBCtrlTrfRxService
  8762  03AA  0872               	movf	??_USBCtrlTrfRxService,w
  8763  03AB  07F4               	addwf	USBCtrlTrfRxService@i,f
  8764  03AC                     i1l4336:
  8765  03AC  0875               	movf	USBCtrlTrfRxService@byteToRead,w
  8766  03AD  0274               	subwf	USBCtrlTrfRxService@i,w
  8767  03AE  1C03               	skipc
  8768  03AF  2BB1               	goto	u252_21
  8769  03B0  2BB2               	goto	u252_20
  8770  03B1                     u252_21:
  8771  03B1  2B99               	goto	i1l4330
  8772  03B2                     u252_20:
  8773  03B2                     i1l4338:
  8774                           
  8775                           ;mcc_generated_files/usb/usb_device.c: 1885:     if(outPipes[0].wCount.Val > 0)
  8776  03B2  0840               	movf	(_outPipes^(0+128)+3),w	;volatile
  8777  03B3  0441               	iorwf	((_outPipes+1)^(0+128)+3),w	;volatile
  8778  03B4  1903               	btfsc	3,2
  8779  03B5  2BB7               	goto	u253_21
  8780  03B6  2BB8               	goto	u253_20
  8781  03B7                     u253_21:
  8782  03B7  2BF1               	goto	i1l4350
  8783  03B8                     u253_20:
  8784  03B8                     i1l4340:
  8785                           
  8786                           ;mcc_generated_files/usb/usb_device.c: 1886:     {;mcc_generated_files/usb/usb_device.c:
      +                           1887:         pBDTEntryEP0OutNext->CNT = 8;
  8787  03B8  0020               	movlb	0	; select bank0
  8788  03B9  0859               	movf	_pBDTEntryEP0OutNext,w
  8789  03BA  3E01               	addlw	1
  8790  03BB  00F2               	movwf	??_USBCtrlTrfRxService
  8791  03BC  3000               	movlw	0
  8792  03BD  3D5A               	addwfc	_pBDTEntryEP0OutNext+1,w
  8793  03BE  00F3               	movwf	??_USBCtrlTrfRxService+1
  8794  03BF  0872               	movf	??_USBCtrlTrfRxService,w
  8795  03C0  0086               	movwf	6
  8796  03C1  0873               	movf	??_USBCtrlTrfRxService+1,w
  8797  03C2  0087               	movwf	7
  8798  03C3  3008               	movlw	8
  8799  03C4  0081               	movwf	1
  8800  03C5                     i1l4342:
  8801                           
  8802                           ;mcc_generated_files/usb/usb_device.c: 1888:         pBDTEntryEP0OutNext->ADR = (((uint1
      +                          6_t)(&CtrlTrfData)) & 0x7FFF);
  8803  03C5  3048               	movlw	72
  8804  03C6  00F2               	movwf	??_USBCtrlTrfRxService
  8805  03C7  3000               	movlw	0
  8806  03C8  00F3               	movwf	??_USBCtrlTrfRxService+1
  8807  03C9  0859               	movf	_pBDTEntryEP0OutNext,w
  8808  03CA  0086               	movwf	6
  8809  03CB  085A               	movf	_pBDTEntryEP0OutNext+1,w
  8810  03CC  0087               	movwf	7
  8811  03CD  3142               	addfsr 1,2
  8812  03CE  0872               	movf	??_USBCtrlTrfRxService,w
  8813  03CF  3FC0               	movwi [0]fsr1
  8814  03D0  0873               	movf	??_USBCtrlTrfRxService+1,w
  8815  03D1  3FC1               	movwi [1]fsr1
  8816  03D2                     i1l4344:
  8817                           
  8818                           ;mcc_generated_files/usb/usb_device.c: 1889:         if(pBDTEntryEP0OutCurrent->STAT.DTS
      +                           == 0)
  8819  03D2  085C               	movf	_pBDTEntryEP0OutCurrent,w
  8820  03D3  0086               	movwf	6
  8821  03D4  0187               	clrf	7
  8822  03D5  1B01               	btfsc	1,6
  8823  03D6  2BD8               	goto	u254_21
  8824  03D7  2BD9               	goto	u254_20
  8825  03D8                     u254_21:
  8826  03D8  2BE5               	goto	i1l4348
  8827  03D9                     u254_20:
  8828  03D9                     i1l4346:
  8829                           
  8830                           ;mcc_generated_files/usb/usb_device.c: 1890:         {;mcc_generated_files/usb/usb_devic
      +                          e.c: 1891:             pBDTEntryEP0OutNext->STAT.Val = 0x40|(0x08 & 0x08);
  8831  03D9  0859               	movf	_pBDTEntryEP0OutNext,w
  8832  03DA  0086               	movwf	6
  8833  03DB  085A               	movf	_pBDTEntryEP0OutNext+1,w
  8834  03DC  0087               	movwf	7
  8835  03DD  3048               	movlw	72
  8836  03DE  0081               	movwf	1
  8837                           
  8838                           ;mcc_generated_files/usb/usb_device.c: 1892:             pBDTEntryEP0OutNext->STAT.Val |
      +                          = 0x80;
  8839  03DF  0859               	movf	_pBDTEntryEP0OutNext,w
  8840  03E0  0086               	movwf	6
  8841  03E1  085A               	movf	_pBDTEntryEP0OutNext+1,w
  8842  03E2  0087               	movwf	7
  8843  03E3  1781               	bsf	1,7
  8844                           
  8845                           ;mcc_generated_files/usb/usb_device.c: 1893:         }
  8846  03E4  2C22               	goto	i1l424
  8847  03E5                     i1l4348:
  8848                           
  8849                           ;mcc_generated_files/usb/usb_device.c: 1895:         {;mcc_generated_files/usb/usb_devic
      +                          e.c: 1896:             pBDTEntryEP0OutNext->STAT.Val = 0x00|(0x08 & 0x08);
  8850  03E5  0859               	movf	_pBDTEntryEP0OutNext,w
  8851  03E6  0086               	movwf	6
  8852  03E7  085A               	movf	_pBDTEntryEP0OutNext+1,w
  8853  03E8  0087               	movwf	7
  8854  03E9  3008               	movlw	8
  8855  03EA  0081               	movwf	1
  8856                           
  8857                           ;mcc_generated_files/usb/usb_device.c: 1897:             pBDTEntryEP0OutNext->STAT.Val |
      +                          = 0x80;
  8858  03EB  0859               	movf	_pBDTEntryEP0OutNext,w
  8859  03EC  0086               	movwf	6
  8860  03ED  085A               	movf	_pBDTEntryEP0OutNext+1,w
  8861  03EE  0087               	movwf	7
  8862  03EF  1781               	bsf	1,7
  8863  03F0  2C22               	goto	i1l424
  8864  03F1                     i1l4350:
  8865                           
  8866                           ;mcc_generated_files/usb/usb_device.c: 1901:     {;mcc_generated_files/usb/usb_device.c:
      +                           1905:         pBDTEntryEP0OutNext->CNT = 8;
  8867  03F1  0020               	movlb	0	; select bank0
  8868  03F2  0859               	movf	_pBDTEntryEP0OutNext,w
  8869  03F3  3E01               	addlw	1
  8870  03F4  00F2               	movwf	??_USBCtrlTrfRxService
  8871  03F5  3000               	movlw	0
  8872  03F6  3D5A               	addwfc	_pBDTEntryEP0OutNext+1,w
  8873  03F7  00F3               	movwf	??_USBCtrlTrfRxService+1
  8874  03F8  0872               	movf	??_USBCtrlTrfRxService,w
  8875  03F9  0086               	movwf	6
  8876  03FA  0873               	movf	??_USBCtrlTrfRxService+1,w
  8877  03FB  0087               	movwf	7
  8878  03FC  3008               	movlw	8
  8879  03FD  0081               	movwf	1
  8880  03FE                     i1l4352:
  8881                           
  8882                           ;mcc_generated_files/usb/usb_device.c: 1906:         pBDTEntryEP0OutNext->ADR = (((uint1
      +                          6_t)(&SetupPkt)) & 0x7FFF);
  8883  03FE  3040               	movlw	64
  8884  03FF  00F2               	movwf	??_USBCtrlTrfRxService
  8885  0400  3000               	movlw	0
  8886  0401  00F3               	movwf	??_USBCtrlTrfRxService+1
  8887  0402  0859               	movf	_pBDTEntryEP0OutNext,w
  8888  0403  0086               	movwf	6
  8889  0404  085A               	movf	_pBDTEntryEP0OutNext+1,w
  8890  0405  0087               	movwf	7
  8891  0406  3142               	addfsr 1,2
  8892  0407  0872               	movf	??_USBCtrlTrfRxService,w
  8893  0408  3FC0               	movwi [0]fsr1
  8894  0409  0873               	movf	??_USBCtrlTrfRxService+1,w
  8895  040A  3FC1               	movwi [1]fsr1
  8896  040B                     i1l4354:
  8897                           
  8898                           ;mcc_generated_files/usb/usb_device.c: 1910:         pBDTEntryEP0OutNext->STAT.Val = 0x0
      +                          4;
  8899  040B  0859               	movf	_pBDTEntryEP0OutNext,w
  8900  040C  0086               	movwf	6
  8901  040D  085A               	movf	_pBDTEntryEP0OutNext+1,w
  8902  040E  0087               	movwf	7
  8903  040F  3004               	movlw	4
  8904  0410  0081               	movwf	1
  8905  0411                     i1l4356:
  8906                           
  8907                           ;mcc_generated_files/usb/usb_device.c: 1911:         pBDTEntryEP0OutNext->STAT.Val |= 0x
      +                          80;
  8908  0411  0859               	movf	_pBDTEntryEP0OutNext,w
  8909  0412  0086               	movwf	6
  8910  0413  085A               	movf	_pBDTEntryEP0OutNext+1,w
  8911  0414  0087               	movwf	7
  8912  0415  1781               	bsf	1,7
  8913  0416                     i1l4358:
  8914                           
  8915                           ;mcc_generated_files/usb/usb_device.c: 1919:         {
  8916  0416  0021               	movlb	1	; select bank1
  8917  0417  0842               	movf	(low ((_outPipes| 0+5)))^(0+128),w	;volatile
  8918  0418  0843               	movf	((low ((_outPipes| 0+5))+1))^(0+128),w	;volatile
  8919  0419                     i1l422:
  8920  0419  13BF               	bcf	(_outPipes^(0+128)+2),7	;volatile
  8921  041A                     i1l4360:
  8922                           
  8923                           ;mcc_generated_files/usb/usb_device.c: 1945:         if(USBDeferStatusStagePacket == 0)
  8924  041A  0859               	movf	_USBDeferStatusStagePacket^(0+128),w	;volatile
  8925  041B  1D03               	btfss	3,2
  8926  041C  2C1E               	goto	u255_21
  8927  041D  2C1F               	goto	u255_20
  8928  041E                     u255_21:
  8929  041E  2C22               	goto	i1l424
  8930  041F                     u255_20:
  8931  041F                     i1l4362:
  8932                           
  8933                           ;mcc_generated_files/usb/usb_device.c: 1946:         {;mcc_generated_files/usb/usb_devic
      +                          e.c: 1947:             USBCtrlEPAllowStatusStage();
  8934  041F  318E  2614  3183   	fcall	_USBCtrlEPAllowStatusStage
  8935  0422                     i1l424:
  8936  0422  0008               	return
  8937  0423                     __end_of_USBCtrlTrfRxService:
  8938                           
  8939                           	psect	text33
  8940  0E14                     __ptext33:	
  8941 ;; *************** function _USBCtrlEPAllowStatusStage *****************
  8942 ;; Defined at:
  8943 ;;		line 1420 in file "mcc_generated_files/usb/usb_device.c"
  8944 ;; Parameters:    Size  Location     Type
  8945 ;;		None
  8946 ;; Auto vars:     Size  Location     Type
  8947 ;;		None
  8948 ;; Return value:  Size  Location     Type
  8949 ;;                  1    wreg      void 
  8950 ;; Registers used:
  8951 ;;		wreg, fsr1l, fsr1h, status,2, status,0
  8952 ;; Tracked objects:
  8953 ;;		On entry : 0/0
  8954 ;;		On exit  : 0/0
  8955 ;;		Unchanged: 0/0
  8956 ;; Data sizes:     COMMON  BANK0h   BANK1   BANK2   BANK3   BANK4   BANK5   BANK6   BANK7   BANK8   BANK9  BANK10  BANK1
      +1  BANK12
  8957 ;;      Params:         0       0       0       0       0       0       0       0       0       0       0       0       
      +0       0
  8958 ;;      Locals:         0       0       0       0       0       0       0       0       0       0       0       0       
      +0       0
  8959 ;;      Temps:          2       0       0       0       0       0       0       0       0       0       0       0       
      +0       0
  8960 ;;      Totals:         2       0       0       0       0       0       0       0       0       0       0       0       
      +0       0
  8961 ;;Total ram usage:        2 bytes
  8962 ;; Hardware stack levels used:    1
  8963 ;; This function calls:
  8964 ;;		Nothing
  8965 ;; This function is called by:
  8966 ;;		_USBDeviceTasks
  8967 ;;		_USBCtrlEPServiceComplete
  8968 ;;		_USBCtrlTrfRxService
  8969 ;; This function uses a non-reentrant model
  8970 ;;
  8971                           
  8972                           
  8973                           ;psect for function _USBCtrlEPAllowStatusStage
  8974  0E14                     _USBCtrlEPAllowStatusStage:
  8975  0E14                     i1l3952:	
  8976                           ;incstack = 0
  8977                           ; Regs used in _USBCtrlEPAllowStatusStage: [wreg+fsr1l+fsr1h+status,2+status,0]
  8978                           
  8979                           
  8980                           ;mcc_generated_files/usb/usb_device.c: 1427:     if(USBStatusStageEnabledFlag1 == 0)
  8981  0E14  0021               	movlb	1	; select bank1
  8982  0E15  0858               	movf	_USBStatusStageEnabledFlag1^(0+128),w	;volatile
  8983  0E16  1D03               	btfss	3,2
  8984  0E17  2E19               	goto	u208_21
  8985  0E18  2E1A               	goto	u208_20
  8986  0E19                     u208_21:
  8987  0E19  2E8C               	goto	i1l372
  8988  0E1A                     u208_20:
  8989  0E1A                     i1l3954:
  8990                           
  8991                           ;mcc_generated_files/usb/usb_device.c: 1428:     {;mcc_generated_files/usb/usb_device.c:
      +                           1429:         USBStatusStageEnabledFlag1 = 1;
  8992  0E1A  3001               	movlw	1
  8993  0E1B  00F0               	movwf	??_USBCtrlEPAllowStatusStage
  8994  0E1C  0870               	movf	??_USBCtrlEPAllowStatusStage,w
  8995  0E1D  00D8               	movwf	_USBStatusStageEnabledFlag1^(0+128)	;volatile
  8996  0E1E                     i1l3956:
  8997                           
  8998                           ;mcc_generated_files/usb/usb_device.c: 1430:         if(USBStatusStageEnabledFlag2 == 0)
  8999  0E1E  0857               	movf	_USBStatusStageEnabledFlag2^(0+128),w	;volatile
  9000  0E1F  1D03               	btfss	3,2
  9001  0E20  2E22               	goto	u209_21
  9002  0E21  2E23               	goto	u209_20
  9003  0E22                     u209_21:
  9004  0E22  2E8C               	goto	i1l372
  9005  0E23                     u209_20:
  9006  0E23                     i1l3958:
  9007                           
  9008                           ;mcc_generated_files/usb/usb_device.c: 1431:         {;mcc_generated_files/usb/usb_devic
      +                          e.c: 1432:             USBStatusStageEnabledFlag2 = 1;
  9009  0E23  3001               	movlw	1
  9010  0E24  00F0               	movwf	??_USBCtrlEPAllowStatusStage
  9011  0E25  0870               	movf	??_USBCtrlEPAllowStatusStage,w
  9012  0E26  00D7               	movwf	_USBStatusStageEnabledFlag2^(0+128)	;volatile
  9013  0E27                     i1l3960:
  9014                           
  9015                           ;mcc_generated_files/usb/usb_device.c: 1436:             if(controlTransferState == 2)
  9016  0E27  3002               	movlw	2
  9017  0E28  0020               	movlb	0	; select bank0
  9018  0E29  065B               	xorwf	_controlTransferState,w	;volatile
  9019  0E2A  1D03               	btfss	3,2
  9020  0E2B  2E2D               	goto	u210_21
  9021  0E2C  2E2E               	goto	u210_20
  9022  0E2D                     u210_21:
  9023  0E2D  2E40               	goto	i1l3968
  9024  0E2E                     u210_20:
  9025  0E2E                     i1l3962:
  9026                           
  9027                           ;mcc_generated_files/usb/usb_device.c: 1437:             {;mcc_generated_files/usb/usb_d
      +                          evice.c: 1438:                 pBDTEntryIn[0]->CNT = 0;
  9028  0E2E  0855               	movf	_pBDTEntryIn,w
  9029  0E2F  0086               	movwf	6
  9030  0E30  0856               	movf	_pBDTEntryIn+1,w
  9031  0E31  0087               	movwf	7
  9032  0E32  3141               	addfsr 1,1
  9033  0E33  0181               	clrf	1
  9034  0E34                     i1l3964:
  9035                           
  9036                           ;mcc_generated_files/usb/usb_device.c: 1439:                 pBDTEntryIn[0]->STAT.Val = 
      +                          0x40|(0x08 & 0x08);
  9037  0E34  0855               	movf	_pBDTEntryIn,w
  9038  0E35  0086               	movwf	6
  9039  0E36  0856               	movf	_pBDTEntryIn+1,w
  9040  0E37  0087               	movwf	7
  9041  0E38  3048               	movlw	72
  9042  0E39  0081               	movwf	1
  9043  0E3A                     i1l3966:
  9044                           
  9045                           ;mcc_generated_files/usb/usb_device.c: 1440:                 pBDTEntryIn[0]->STAT.Val |=
      +                           0x80;
  9046  0E3A  0855               	movf	_pBDTEntryIn,w
  9047  0E3B  0086               	movwf	6
  9048  0E3C  0856               	movf	_pBDTEntryIn+1,w
  9049  0E3D  0087               	movwf	7
  9050  0E3E  1781               	bsf	1,7
  9051                           
  9052                           ;mcc_generated_files/usb/usb_device.c: 1441:             }
  9053  0E3F  2E8C               	goto	i1l372
  9054  0E40                     i1l3968:
  9055  0E40  035B               	decf	_controlTransferState,w	;volatile
  9056  0E41  1D03               	btfss	3,2
  9057  0E42  2E44               	goto	u211_21
  9058  0E43  2E45               	goto	u211_20
  9059  0E44                     u211_21:
  9060  0E44  2E8C               	goto	i1l368
  9061  0E45                     u211_20:
  9062  0E45                     i1l3970:
  9063                           
  9064                           ;mcc_generated_files/usb/usb_device.c: 1443:             {;mcc_generated_files/usb/usb_d
      +                          evice.c: 1444:                 BothEP0OutUOWNsSet = 0;
  9065  0E45  0021               	movlb	1	; select bank1
  9066  0E46  01DB               	clrf	_BothEP0OutUOWNsSet^(0+128)	;volatile
  9067  0E47                     i1l3972:
  9068                           
  9069                           ;mcc_generated_files/usb/usb_device.c: 1449:                     pBDTEntryEP0OutCurrent-
      +                          >CNT = 8;
  9070  0E47  3008               	movlw	8
  9071  0E48  00F0               	movwf	??_USBCtrlEPAllowStatusStage
  9072  0E49  0020               	movlb	0	; select bank0
  9073  0E4A  0A5C               	incf	_pBDTEntryEP0OutCurrent,w
  9074  0E4B  0086               	movwf	6
  9075  0E4C  0187               	clrf	7
  9076  0E4D  0870               	movf	??_USBCtrlEPAllowStatusStage,w
  9077  0E4E  0081               	movwf	1
  9078  0E4F                     i1l3974:
  9079                           
  9080                           ;mcc_generated_files/usb/usb_device.c: 1450:                     pBDTEntryEP0OutCurrent-
      +                          >ADR = (((uint16_t)(&SetupPkt)) & 0x7FFF);
  9081  0E4F  3040               	movlw	64
  9082  0E50  00F0               	movwf	??_USBCtrlEPAllowStatusStage
  9083  0E51  3000               	movlw	0
  9084  0E52  00F1               	movwf	??_USBCtrlEPAllowStatusStage+1
  9085  0E53  085C               	movf	_pBDTEntryEP0OutCurrent,w
  9086  0E54  3E02               	addlw	2
  9087  0E55  0086               	movwf	6
  9088  0E56  0187               	clrf	7
  9089  0E57  0870               	movf	??_USBCtrlEPAllowStatusStage,w
  9090  0E58  3FC0               	movwi [0]fsr1
  9091  0E59  0871               	movf	??_USBCtrlEPAllowStatusStage+1,w
  9092  0E5A  3FC1               	movwi [1]fsr1
  9093  0E5B                     i1l3976:
  9094                           
  9095                           ;mcc_generated_files/usb/usb_device.c: 1451:                     pBDTEntryEP0OutCurrent-
      +                          >STAT.Val = 0x04;
  9096  0E5B  3004               	movlw	4
  9097  0E5C  00F0               	movwf	??_USBCtrlEPAllowStatusStage
  9098  0E5D  085C               	movf	_pBDTEntryEP0OutCurrent,w
  9099  0E5E  0086               	movwf	6
  9100  0E5F  0187               	clrf	7
  9101  0E60  0870               	movf	??_USBCtrlEPAllowStatusStage,w
  9102  0E61  0081               	movwf	1
  9103  0E62                     i1l3978:
  9104                           
  9105                           ;mcc_generated_files/usb/usb_device.c: 1452:                     pBDTEntryEP0OutCurrent-
      +                          >STAT.Val |= 0x80;
  9106  0E62  085C               	movf	_pBDTEntryEP0OutCurrent,w
  9107  0E63  0086               	movwf	6
  9108  0E64  0187               	clrf	7
  9109  0E65  1781               	bsf	1,7
  9110  0E66                     i1l3980:
  9111                           
  9112                           ;mcc_generated_files/usb/usb_device.c: 1453:                     BothEP0OutUOWNsSet = 1;
  9113  0E66  3001               	movlw	1
  9114  0E67  00F0               	movwf	??_USBCtrlEPAllowStatusStage
  9115  0E68  0870               	movf	??_USBCtrlEPAllowStatusStage,w
  9116  0E69  0021               	movlb	1	; select bank1
  9117  0E6A  00DB               	movwf	_BothEP0OutUOWNsSet^(0+128)	;volatile
  9118  0E6B                     i1l3982:
  9119                           
  9120                           ;mcc_generated_files/usb/usb_device.c: 1457:                 pBDTEntryEP0OutNext->CNT = 
      +                          8;
  9121  0E6B  0020               	movlb	0	; select bank0
  9122  0E6C  0859               	movf	_pBDTEntryEP0OutNext,w
  9123  0E6D  3E01               	addlw	1
  9124  0E6E  00F0               	movwf	??_USBCtrlEPAllowStatusStage
  9125  0E6F  3000               	movlw	0
  9126  0E70  3D5A               	addwfc	_pBDTEntryEP0OutNext+1,w
  9127  0E71  00F1               	movwf	??_USBCtrlEPAllowStatusStage+1
  9128  0E72  0870               	movf	??_USBCtrlEPAllowStatusStage,w
  9129  0E73  0086               	movwf	6
  9130  0E74  0871               	movf	??_USBCtrlEPAllowStatusStage+1,w
  9131  0E75  0087               	movwf	7
  9132  0E76  3008               	movlw	8
  9133  0E77  0081               	movwf	1
  9134  0E78                     i1l3984:
  9135                           
  9136                           ;mcc_generated_files/usb/usb_device.c: 1458:                 pBDTEntryEP0OutNext->ADR = 
      +                          (((uint16_t)(&SetupPkt)) & 0x7FFF);
  9137  0E78  3040               	movlw	64
  9138  0E79  00F0               	movwf	??_USBCtrlEPAllowStatusStage
  9139  0E7A  3000               	movlw	0
  9140  0E7B  00F1               	movwf	??_USBCtrlEPAllowStatusStage+1
  9141  0E7C  0859               	movf	_pBDTEntryEP0OutNext,w
  9142  0E7D  0086               	movwf	6
  9143  0E7E  085A               	movf	_pBDTEntryEP0OutNext+1,w
  9144  0E7F  0087               	movwf	7
  9145  0E80  3142               	addfsr 1,2
  9146  0E81  0870               	movf	??_USBCtrlEPAllowStatusStage,w
  9147  0E82  3FC0               	movwi [0]fsr1
  9148  0E83  0871               	movf	??_USBCtrlEPAllowStatusStage+1,w
  9149  0E84  3FC1               	movwi [1]fsr1
  9150  0E85                     i1l3986:
  9151                           
  9152                           ;mcc_generated_files/usb/usb_device.c: 1459:                 pBDTEntryEP0OutNext->STAT.V
      +                          al = 0x80;
  9153  0E85  0859               	movf	_pBDTEntryEP0OutNext,w
  9154  0E86  0086               	movwf	6
  9155  0E87  085A               	movf	_pBDTEntryEP0OutNext+1,w
  9156  0E88  0087               	movwf	7
  9157  0E89  3080               	movlw	128
  9158  0E8A  0081               	movwf	1
  9159  0E8B  2E8C               	goto	i1l372
  9160  0E8C                     i1l368:	
  9161                           ;mcc_generated_files/usb/usb_device.c: 1461:         }
  9162                           
  9163  0E8C                     i1l372:
  9164  0E8C  0008               	return
  9165  0E8D                     __end_of_USBCtrlEPAllowStatusStage:
  9166                           
  9167                           	psect	text34
  9168  0F08                     __ptext34:	
  9169 ;; *************** function _USBCtrlTrfInHandler *****************
  9170 ;; Defined at:
  9171 ;;		line 2596 in file "mcc_generated_files/usb/usb_device.c"
  9172 ;; Parameters:    Size  Location     Type
  9173 ;;		None
  9174 ;; Auto vars:     Size  Location     Type
  9175 ;;  lastDTS         1    5[COMMON] unsigned char 
  9176 ;; Return value:  Size  Location     Type
  9177 ;;                  1    wreg      void 
  9178 ;; Registers used:
  9179 ;;		wreg, fsr0l, fsr0h, fsr1l, fsr1h, status,2, status,0, pclath, cstack
  9180 ;; Tracked objects:
  9181 ;;		On entry : 0/0
  9182 ;;		On exit  : 0/0
  9183 ;;		Unchanged: 0/0
  9184 ;; Data sizes:     COMMON  BANK0h   BANK1   BANK2   BANK3   BANK4   BANK5   BANK6   BANK7   BANK8   BANK9  BANK10  BANK1
      +1  BANK12
  9185 ;;      Params:         0       0       0       0       0       0       0       0       0       0       0       0       
      +0       0
  9186 ;;      Locals:         1       0       0       0       0       0       0       0       0       0       0       0       
      +0       0
  9187 ;;      Temps:          2       0       0       0       0       0       0       0       0       0       0       0       
      +0       0
  9188 ;;      Totals:         3       0       0       0       0       0       0       0       0       0       0       0       
      +0       0
  9189 ;;Total ram usage:        3 bytes
  9190 ;; Hardware stack levels used:    1
  9191 ;; Hardware stack levels required when called:    1
  9192 ;; This function calls:
  9193 ;;		_USBCtrlTrfTxService
  9194 ;; This function is called by:
  9195 ;;		_USBCtrlEPService
  9196 ;; This function uses a non-reentrant model
  9197 ;;
  9198                           
  9199                           
  9200                           ;psect for function _USBCtrlTrfInHandler
  9201  0F08                     _USBCtrlTrfInHandler:
  9202  0F08                     i1l4522:	
  9203                           ;incstack = 0
  9204                           ; Regs used in _USBCtrlTrfInHandler: [wreg-fsr1h+status,2+status,0+pclath+cstack]
  9205                           
  9206                           
  9207                           ;mcc_generated_files/usb/usb_device.c: 2598:     uint8_t lastDTS;;mcc_generated_files/us
      +                          b/usb_device.c: 2600:     lastDTS = pBDTEntryIn[0]->STAT.DTS;
  9208  0F08  0020               	movlb	0	; select bank0
  9209  0F09  0855               	movf	_pBDTEntryIn,w
  9210  0F0A  0086               	movwf	6
  9211  0F0B  0856               	movf	_pBDTEntryIn+1,w
  9212  0F0C  0087               	movwf	7
  9213  0F0D  3000               	movlw	0
  9214  0F0E  1B01               	btfsc	1,6
  9215  0F0F  3001               	movlw	1
  9216  0F10  00F5               	movwf	USBCtrlTrfInHandler@lastDTS
  9217  0F11                     i1l4524:
  9218                           
  9219                           ;mcc_generated_files/usb/usb_device.c: 2603:     pBDTEntryIn[0] = (volatile BDT_ENTRY*)(
      +                          ((uint16_t)pBDTEntryIn[0]) ^ 0x0004);
  9220  0F11  3004               	movlw	4
  9221  0F12  0655               	xorwf	_pBDTEntryIn,w
  9222  0F13  00D5               	movwf	_pBDTEntryIn
  9223  0F14  3000               	movlw	0
  9224  0F15  0656               	xorwf	_pBDTEntryIn+1,w
  9225  0F16  00D6               	movwf	_pBDTEntryIn+1
  9226  0F17                     i1l4526:
  9227                           
  9228                           ;mcc_generated_files/usb/usb_device.c: 2608:     if(USBDeviceState == ADR_PENDING_STATE)
  9229  0F17  3008               	movlw	8
  9230  0F18  065D               	xorwf	_USBDeviceState,w	;volatile
  9231  0F19  1D03               	btfss	3,2
  9232  0F1A  2F1C               	goto	u260_21
  9233  0F1B  2F1D               	goto	u260_20
  9234  0F1C                     u260_21:
  9235  0F1C  2F31               	goto	i1l4536
  9236  0F1D                     u260_20:
  9237  0F1D                     i1l4528:
  9238                           
  9239                           ;mcc_generated_files/usb/usb_device.c: 2609:     {;mcc_generated_files/usb/usb_device.c:
      +                           2610:         UADDR = (SetupPkt.bDevADR & 0x7F);
  9240  0F1D  0842               	movf	66,w	;volatile
  9241  0F1E  397F               	andlw	127
  9242  0F1F  003D               	movlb	29	; select bank29
  9243  0F20  0096               	movwf	22	;volatile
  9244  0F21                     i1l4530:
  9245                           
  9246                           ;mcc_generated_files/usb/usb_device.c: 2611:         if(UADDR != 0u)
  9247  0F21  0816               	movf	22,w	;volatile
  9248  0F22  1903               	btfsc	3,2
  9249  0F23  2F25               	goto	u261_21
  9250  0F24  2F26               	goto	u261_20
  9251  0F25                     u261_21:
  9252  0F25  2F2C               	goto	i1l4534
  9253  0F26                     u261_20:
  9254  0F26                     i1l4532:
  9255                           
  9256                           ;mcc_generated_files/usb/usb_device.c: 2612:         {;mcc_generated_files/usb/usb_devic
      +                          e.c: 2613:             USBDeviceState=ADDRESS_STATE;
  9257  0F26  3010               	movlw	16
  9258  0F27  00F3               	movwf	??_USBCtrlTrfInHandler
  9259  0F28  0873               	movf	??_USBCtrlTrfInHandler,w
  9260  0F29  0020               	movlb	0	; select bank0
  9261  0F2A  00DD               	movwf	_USBDeviceState	;volatile
  9262                           
  9263                           ;mcc_generated_files/usb/usb_device.c: 2614:         }
  9264  0F2B  2F31               	goto	i1l4536
  9265  0F2C                     i1l4534:
  9266                           
  9267                           ;mcc_generated_files/usb/usb_device.c: 2616:         {;mcc_generated_files/usb/usb_devic
      +                          e.c: 2617:             USBDeviceState=DEFAULT_STATE;
  9268  0F2C  3004               	movlw	4
  9269  0F2D  00F3               	movwf	??_USBCtrlTrfInHandler
  9270  0F2E  0873               	movf	??_USBCtrlTrfInHandler,w
  9271  0F2F  0020               	movlb	0	; select bank0
  9272  0F30  00DD               	movwf	_USBDeviceState	;volatile
  9273  0F31                     i1l4536:
  9274                           
  9275                           ;mcc_generated_files/usb/usb_device.c: 2622:     if(controlTransferState == 1)
  9276  0F31  035B               	decf	_controlTransferState,w	;volatile
  9277  0F32  1D03               	btfss	3,2
  9278  0F33  2F35               	goto	u262_21
  9279  0F34  2F36               	goto	u262_20
  9280  0F35                     u262_21:
  9281  0F35  2F79               	goto	i1l501
  9282  0F36                     u262_20:
  9283  0F36                     i1l4538:
  9284                           
  9285                           ;mcc_generated_files/usb/usb_device.c: 2623:     {;mcc_generated_files/usb/usb_device.c:
      +                           2624:         pBDTEntryIn[0]->ADR = (((uint16_t)(CtrlTrfData)) & 0x7FFF);
  9286  0F36  3048               	movlw	72
  9287  0F37  00F3               	movwf	??_USBCtrlTrfInHandler
  9288  0F38  3000               	movlw	0
  9289  0F39  00F4               	movwf	??_USBCtrlTrfInHandler+1
  9290  0F3A  0855               	movf	_pBDTEntryIn,w
  9291  0F3B  0086               	movwf	6
  9292  0F3C  0856               	movf	_pBDTEntryIn+1,w
  9293  0F3D  0087               	movwf	7
  9294  0F3E  3142               	addfsr 1,2
  9295  0F3F  0873               	movf	??_USBCtrlTrfInHandler,w
  9296  0F40  3FC0               	movwi [0]fsr1
  9297  0F41  0874               	movf	??_USBCtrlTrfInHandler+1,w
  9298  0F42  3FC1               	movwi [1]fsr1
  9299  0F43                     i1l4540:
  9300                           
  9301                           ;mcc_generated_files/usb/usb_device.c: 2625:         USBCtrlTrfTxService();
  9302  0F43  3187  2731  318F   	fcall	_USBCtrlTrfTxService
  9303  0F46                     i1l4542:
  9304                           
  9305                           ;mcc_generated_files/usb/usb_device.c: 2631:         if(shortPacketStatus == 2)
  9306  0F46  3002               	movlw	2
  9307  0F47  0021               	movlb	1	; select bank1
  9308  0F48  0660               	xorwf	_shortPacketStatus^(0+128),w	;volatile
  9309  0F49  1D03               	btfss	3,2
  9310  0F4A  2F4C               	goto	u263_21
  9311  0F4B  2F4D               	goto	u263_20
  9312  0F4C                     u263_21:
  9313  0F4C  2F5A               	goto	i1l4546
  9314  0F4D                     u263_20:
  9315  0F4D                     i1l4544:
  9316                           
  9317                           ;mcc_generated_files/usb/usb_device.c: 2632:         {;mcc_generated_files/usb/usb_devic
      +                          e.c: 2635:             pBDTEntryIn[0]->STAT.Val = 0x04;
  9318  0F4D  0020               	movlb	0	; select bank0
  9319  0F4E  0855               	movf	_pBDTEntryIn,w
  9320  0F4F  0086               	movwf	6
  9321  0F50  0856               	movf	_pBDTEntryIn+1,w
  9322  0F51  0087               	movwf	7
  9323  0F52  3004               	movlw	4
  9324  0F53  0081               	movwf	1
  9325                           
  9326                           ;mcc_generated_files/usb/usb_device.c: 2636:             pBDTEntryIn[0]->STAT.Val |= 0x8
      +                          0;
  9327  0F54  0855               	movf	_pBDTEntryIn,w
  9328  0F55  0086               	movwf	6
  9329  0F56  0856               	movf	_pBDTEntryIn+1,w
  9330  0F57  0087               	movwf	7
  9331  0F58  1781               	bsf	1,7
  9332                           
  9333                           ;mcc_generated_files/usb/usb_device.c: 2637:         }
  9334  0F59  2F83               	goto	i1l509
  9335  0F5A                     i1l4546:
  9336                           
  9337                           ;mcc_generated_files/usb/usb_device.c: 2639:         {;mcc_generated_files/usb/usb_devic
      +                          e.c: 2640:             if(lastDTS == 0)
  9338  0F5A  0875               	movf	USBCtrlTrfInHandler@lastDTS,w
  9339  0F5B  1D03               	btfss	3,2
  9340  0F5C  2F5E               	goto	u264_21
  9341  0F5D  2F5F               	goto	u264_20
  9342  0F5E                     u264_21:
  9343  0F5E  2F6C               	goto	i1l4550
  9344  0F5F                     u264_20:
  9345  0F5F                     i1l4548:
  9346                           
  9347                           ;mcc_generated_files/usb/usb_device.c: 2641:             {;mcc_generated_files/usb/usb_d
      +                          evice.c: 2642:                 pBDTEntryIn[0]->STAT.Val = 0x40|(0x08 & 0x08);
  9348  0F5F  0020               	movlb	0	; select bank0
  9349  0F60  0855               	movf	_pBDTEntryIn,w
  9350  0F61  0086               	movwf	6
  9351  0F62  0856               	movf	_pBDTEntryIn+1,w
  9352  0F63  0087               	movwf	7
  9353  0F64  3048               	movlw	72
  9354  0F65  0081               	movwf	1
  9355                           
  9356                           ;mcc_generated_files/usb/usb_device.c: 2643:                 pBDTEntryIn[0]->STAT.Val |=
      +                           0x80;
  9357  0F66  0855               	movf	_pBDTEntryIn,w
  9358  0F67  0086               	movwf	6
  9359  0F68  0856               	movf	_pBDTEntryIn+1,w
  9360  0F69  0087               	movwf	7
  9361  0F6A  1781               	bsf	1,7
  9362                           
  9363                           ;mcc_generated_files/usb/usb_device.c: 2644:             }
  9364  0F6B  2F83               	goto	i1l509
  9365  0F6C                     i1l4550:
  9366                           
  9367                           ;mcc_generated_files/usb/usb_device.c: 2646:             {;mcc_generated_files/usb/usb_d
      +                          evice.c: 2647:                 pBDTEntryIn[0]->STAT.Val = 0x00|(0x08 & 0x08);
  9368  0F6C  0020               	movlb	0	; select bank0
  9369  0F6D  0855               	movf	_pBDTEntryIn,w
  9370  0F6E  0086               	movwf	6
  9371  0F6F  0856               	movf	_pBDTEntryIn+1,w
  9372  0F70  0087               	movwf	7
  9373  0F71  3008               	movlw	8
  9374  0F72  0081               	movwf	1
  9375                           
  9376                           ;mcc_generated_files/usb/usb_device.c: 2648:                 pBDTEntryIn[0]->STAT.Val |=
      +                           0x80;
  9377  0F73  0855               	movf	_pBDTEntryIn,w
  9378  0F74  0086               	movwf	6
  9379  0F75  0856               	movf	_pBDTEntryIn+1,w
  9380  0F76  0087               	movwf	7
  9381  0F77  1781               	bsf	1,7
  9382  0F78  2F83               	goto	i1l509
  9383  0F79                     i1l501:	
  9384                           ;mcc_generated_files/usb/usb_device.c: 2652:  else
  9385                           
  9386                           
  9387                           ;mcc_generated_files/usb/usb_device.c: 2653:  {;mcc_generated_files/usb/usb_device.c: 26
      +                          57:         if(outPipes[0].info.bits.busy == 1)
  9388  0F79  0021               	movlb	1	; select bank1
  9389  0F7A  1FBF               	btfss	(_outPipes^(0+128)+2),7	;volatile
  9390  0F7B  2F7D               	goto	u265_21
  9391  0F7C  2F7E               	goto	u265_20
  9392  0F7D                     u265_21:
  9393  0F7D  2F81               	goto	i1l4554
  9394  0F7E                     u265_20:
  9395  0F7E                     i1l4552:
  9396                           
  9397                           ;mcc_generated_files/usb/usb_device.c: 2660:             {;mcc_generated_files/usb/usb_d
      +                          evice.c: 2661:                 outPipes[0].pFunc();
  9398  0F7E  0842               	movf	(low ((_outPipes| 0+5)))^(0+128),w	;volatile
  9399  0F7F  0843               	movf	((low ((_outPipes| 0+5))+1))^(0+128),w	;volatile
  9400  0F80                     i1l508:	
  9401                           ;mcc_generated_files/usb/usb_device.c: 2662:             }
  9402                           
  9403                           
  9404                           ;mcc_generated_files/usb/usb_device.c: 2663:             outPipes[0].info.bits.busy = 0;
  9405  0F80  13BF               	bcf	(_outPipes^(0+128)+2),7	;volatile
  9406  0F81                     i1l4554:
  9407                           
  9408                           ;mcc_generated_files/usb/usb_device.c: 2666:         controlTransferState = 0;
  9409  0F81  0020               	movlb	0	; select bank0
  9410  0F82  01DB               	clrf	_controlTransferState	;volatile
  9411  0F83                     i1l509:
  9412  0F83  0008               	return
  9413  0F84                     __end_of_USBCtrlTrfInHandler:
  9414                           
  9415                           	psect	text35
  9416  0731                     __ptext35:	
  9417 ;; *************** function _USBCtrlTrfTxService *****************
  9418 ;; Defined at:
  9419 ;;		line 1775 in file "mcc_generated_files/usb/usb_device.c"
  9420 ;; Parameters:    Size  Location     Type
  9421 ;;		None
  9422 ;; Auto vars:     Size  Location     Type
  9423 ;;  byteToSend      1    2[COMMON] unsigned char 
  9424 ;; Return value:  Size  Location     Type
  9425 ;;                  1    wreg      void 
  9426 ;; Registers used:
  9427 ;;		wreg, fsr0l, fsr0h, fsr1l, fsr1h, status,2, status,0, pclath
  9428 ;; Tracked objects:
  9429 ;;		On entry : 0/0
  9430 ;;		On exit  : 0/0
  9431 ;;		Unchanged: 0/0
  9432 ;; Data sizes:     COMMON  BANK0h   BANK1   BANK2   BANK3   BANK4   BANK5   BANK6   BANK7   BANK8   BANK9  BANK10  BANK1
      +1  BANK12
  9433 ;;      Params:         0       0       0       0       0       0       0       0       0       0       0       0       
      +0       0
  9434 ;;      Locals:         1       0       0       0       0       0       0       0       0       0       0       0       
      +0       0
  9435 ;;      Temps:          2       0       0       0       0       0       0       0       0       0       0       0       
      +0       0
  9436 ;;      Totals:         3       0       0       0       0       0       0       0       0       0       0       0       
      +0       0
  9437 ;;Total ram usage:        3 bytes
  9438 ;; Hardware stack levels used:    1
  9439 ;; This function calls:
  9440 ;;		Nothing
  9441 ;; This function is called by:
  9442 ;;		_USBCtrlEPAllowDataStage
  9443 ;;		_USBCtrlTrfInHandler
  9444 ;; This function uses a non-reentrant model
  9445 ;;
  9446                           
  9447                           
  9448                           ;psect for function _USBCtrlTrfTxService
  9449  0731                     _USBCtrlTrfTxService:
  9450  0731                     i1l3852:	
  9451                           ;incstack = 0
  9452                           ; Regs used in _USBCtrlTrfTxService: [wreg-fsr1h+status,2+status,0+pclath]
  9453                           
  9454                           
  9455                           ;mcc_generated_files/usb/usb_device.c: 1777:     uint8_t byteToSend;;mcc_generated_files
      +                          /usb/usb_device.c: 1781:     byteToSend = 8;
  9456  0731  3008               	movlw	8
  9457  0732  00F0               	movwf	??_USBCtrlTrfTxService
  9458  0733  0870               	movf	??_USBCtrlTrfTxService,w
  9459  0734  00F2               	movwf	USBCtrlTrfTxService@byteToSend
  9460                           
  9461                           ;mcc_generated_files/usb/usb_device.c: 1782:     if(inPipes[0].wCount.Val < (uint8_t)8)
  9462  0735  3000               	movlw	0
  9463  0736  0020               	movlb	0	; select bank0
  9464  0737  0254               	subwf	_inPipes+4,w	;volatile
  9465  0738  3008               	movlw	8
  9466  0739  1903               	skipnz
  9467  073A  0253               	subwf	_inPipes+3,w	;volatile
  9468  073B  1803               	skipnc
  9469  073C  2F3E               	goto	u195_21
  9470  073D  2F3F               	goto	u195_20
  9471  073E                     u195_21:
  9472  073E  2F57               	goto	i1l399
  9473  073F                     u195_20:
  9474  073F                     i1l3854:
  9475                           
  9476                           ;mcc_generated_files/usb/usb_device.c: 1783:     {;mcc_generated_files/usb/usb_device.c:
      +                           1784:         byteToSend = inPipes[0].wCount.Val;
  9477  073F  0853               	movf	_inPipes+3,w	;volatile
  9478  0740  00F0               	movwf	??_USBCtrlTrfTxService
  9479  0741  0870               	movf	??_USBCtrlTrfTxService,w
  9480  0742  00F2               	movwf	USBCtrlTrfTxService@byteToSend
  9481  0743                     i1l3856:
  9482                           
  9483                           ;mcc_generated_files/usb/usb_device.c: 1791:         if(shortPacketStatus == 0)
  9484  0743  0021               	movlb	1	; select bank1
  9485  0744  0860               	movf	_shortPacketStatus^(0+128),w	;volatile
  9486  0745  1D03               	btfss	3,2
  9487  0746  2F48               	goto	u196_21
  9488  0747  2F49               	goto	u196_20
  9489  0748                     u196_21:
  9490  0748  2F4E               	goto	i1l3860
  9491  0749                     u196_20:
  9492  0749                     i1l3858:
  9493                           
  9494                           ;mcc_generated_files/usb/usb_device.c: 1792:         {;mcc_generated_files/usb/usb_devic
      +                          e.c: 1793:             shortPacketStatus = 1;
  9495  0749  3001               	movlw	1
  9496  074A  00F0               	movwf	??_USBCtrlTrfTxService
  9497  074B  0870               	movf	??_USBCtrlTrfTxService,w
  9498  074C  00E0               	movwf	_shortPacketStatus^(0+128)	;volatile
  9499                           
  9500                           ;mcc_generated_files/usb/usb_device.c: 1794:         }
  9501  074D  2F57               	goto	i1l399
  9502  074E                     i1l3860:
  9503  074E  0360               	decf	_shortPacketStatus^(0+128),w	;volatile
  9504  074F  1D03               	btfss	3,2
  9505  0750  2F52               	goto	u197_21
  9506  0751  2F53               	goto	u197_20
  9507  0752                     u197_21:
  9508  0752  2F57               	goto	i1l399
  9509  0753                     u197_20:
  9510  0753                     i1l3862:
  9511                           
  9512                           ;mcc_generated_files/usb/usb_device.c: 1796:         {;mcc_generated_files/usb/usb_devic
      +                          e.c: 1797:             shortPacketStatus = 2;
  9513  0753  3002               	movlw	2
  9514  0754  00F0               	movwf	??_USBCtrlTrfTxService
  9515  0755  0870               	movf	??_USBCtrlTrfTxService,w
  9516  0756  00E0               	movwf	_shortPacketStatus^(0+128)	;volatile
  9517  0757                     i1l399:	
  9518                           ;mcc_generated_files/usb/usb_device.c: 1799:     }
  9519                           
  9520                           
  9521                           ;mcc_generated_files/usb/usb_device.c: 1803:     inPipes[0].wCount.Val -= byteToSend;
  9522  0757  0872               	movf	USBCtrlTrfTxService@byteToSend,w
  9523  0758  00F0               	movwf	??_USBCtrlTrfTxService
  9524  0759  01F1               	clrf	??_USBCtrlTrfTxService+1
  9525  075A  0870               	movf	??_USBCtrlTrfTxService,w
  9526  075B  0020               	movlb	0	; select bank0
  9527  075C  02D3               	subwf	_inPipes+3,f	;volatile
  9528  075D  0871               	movf	??_USBCtrlTrfTxService+1,w
  9529  075E  3BD4               	subwfb	_inPipes+4,f	;volatile
  9530  075F                     i1l3864:
  9531                           
  9532                           ;mcc_generated_files/usb/usb_device.c: 1808:     pBDTEntryIn[0]->CNT = byteToSend;
  9533  075F  0855               	movf	_pBDTEntryIn,w
  9534  0760  3E01               	addlw	1
  9535  0761  00F0               	movwf	??_USBCtrlTrfTxService
  9536  0762  3000               	movlw	0
  9537  0763  3D56               	addwfc	_pBDTEntryIn+1,w
  9538  0764  00F1               	movwf	??_USBCtrlTrfTxService+1
  9539  0765  0870               	movf	??_USBCtrlTrfTxService,w
  9540  0766  0086               	movwf	6
  9541  0767  0871               	movf	??_USBCtrlTrfTxService+1,w
  9542  0768  0087               	movwf	7
  9543  0769  0872               	movf	USBCtrlTrfTxService@byteToSend,w
  9544  076A  0081               	movwf	1
  9545  076B                     i1l3866:
  9546                           
  9547                           ;mcc_generated_files/usb/usb_device.c: 1812:     pDst = (volatile uint8_t*)CtrlTrfData;
  9548  076B  3048               	movlw	72
  9549  076C  00F0               	movwf	??_USBCtrlTrfTxService
  9550  076D  0870               	movf	??_USBCtrlTrfTxService,w
  9551  076E  0021               	movlb	1	; select bank1
  9552  076F  00DF               	movwf	_pDst^(0+128)
  9553  0770                     i1l3868:
  9554                           
  9555                           ;mcc_generated_files/usb/usb_device.c: 1813:     if(inPipes[0].info.bits.ctrl_trf_mem ==
      +                           0x00)
  9556  0770  0020               	movlb	0	; select bank0
  9557  0771  1852               	btfsc	_inPipes+2,0	;volatile
  9558  0772  2F74               	goto	u198_21
  9559  0773  2F75               	goto	u198_20
  9560  0774                     u198_21:
  9561  0774  2FAE               	goto	i1l3890
  9562  0775                     u198_20:
  9563  0775  2F8F               	goto	i1l3880
  9564  0776                     i1l3872:
  9565                           
  9566                           ;mcc_generated_files/usb/usb_device.c: 1816:         {;mcc_generated_files/usb/usb_devic
      +                          e.c: 1817:             *pDst++ = *inPipes[0].pSrc.bRom++;
  9567  0776  0020               	movlb	0	; select bank0
  9568  0777  0850               	movf	_inPipes,w	;volatile
  9569  0778  0084               	movwf	4
  9570  0779  0851               	movf	_inPipes+1,w	;volatile
  9571  077A  0085               	movwf	5
  9572  077B  0800               	movf	0,w	;code access
  9573  077C  00F0               	movwf	??_USBCtrlTrfTxService
  9574  077D  0021               	movlb	1	; select bank1
  9575  077E  085F               	movf	_pDst^(0+128),w
  9576  077F  0086               	movwf	6
  9577  0780  0187               	clrf	7
  9578  0781  0870               	movf	??_USBCtrlTrfTxService,w
  9579  0782  0081               	movwf	1
  9580  0783                     i1l3874:
  9581  0783  3001               	movlw	1
  9582  0784  0020               	movlb	0	; select bank0
  9583  0785  07D0               	addwf	_inPipes,f	;volatile
  9584  0786  3000               	movlw	0
  9585  0787  3DD1               	addwfc	_inPipes+1,f	;volatile
  9586  0788                     i1l3876:
  9587  0788  3001               	movlw	1
  9588  0789  00F0               	movwf	??_USBCtrlTrfTxService
  9589  078A  0870               	movf	??_USBCtrlTrfTxService,w
  9590  078B  0021               	movlb	1	; select bank1
  9591  078C  07DF               	addwf	_pDst^(0+128),f
  9592  078D                     i1l3878:
  9593                           
  9594                           ;mcc_generated_files/usb/usb_device.c: 1818:             byteToSend--;
  9595  078D  3001               	movlw	1
  9596  078E  02F2               	subwf	USBCtrlTrfTxService@byteToSend,f
  9597  078F                     i1l3880:
  9598                           
  9599                           ;mcc_generated_files/usb/usb_device.c: 1815:         while(byteToSend)
  9600  078F  0872               	movf	USBCtrlTrfTxService@byteToSend,w
  9601  0790  1D03               	btfss	3,2
  9602  0791  2F93               	goto	u199_21
  9603  0792  2F94               	goto	u199_20
  9604  0793                     u199_21:
  9605  0793  2F76               	goto	i1l3872
  9606  0794                     u199_20:
  9607  0794  2FB3               	goto	i1l411
  9608  0795                     i1l3882:
  9609                           
  9610                           ;mcc_generated_files/usb/usb_device.c: 1824:         {;mcc_generated_files/usb/usb_devic
      +                          e.c: 1825:             *pDst++ = *inPipes[0].pSrc.bRam++;
  9611  0795  0020               	movlb	0	; select bank0
  9612  0796  0850               	movf	_inPipes,w	;volatile
  9613  0797  0084               	movwf	4
  9614  0798  0851               	movf	_inPipes+1,w	;volatile
  9615  0799  0085               	movwf	5
  9616  079A  0800               	movf	0,w	;code access
  9617  079B  00F0               	movwf	??_USBCtrlTrfTxService
  9618  079C  0021               	movlb	1	; select bank1
  9619  079D  085F               	movf	_pDst^(0+128),w
  9620  079E  0086               	movwf	6
  9621  079F  0187               	clrf	7
  9622  07A0  0870               	movf	??_USBCtrlTrfTxService,w
  9623  07A1  0081               	movwf	1
  9624  07A2                     i1l3884:
  9625  07A2  3001               	movlw	1
  9626  07A3  0020               	movlb	0	; select bank0
  9627  07A4  07D0               	addwf	_inPipes,f	;volatile
  9628  07A5  3000               	movlw	0
  9629  07A6  3DD1               	addwfc	_inPipes+1,f	;volatile
  9630  07A7                     i1l3886:
  9631  07A7  3001               	movlw	1
  9632  07A8  00F0               	movwf	??_USBCtrlTrfTxService
  9633  07A9  0870               	movf	??_USBCtrlTrfTxService,w
  9634  07AA  0021               	movlb	1	; select bank1
  9635  07AB  07DF               	addwf	_pDst^(0+128),f
  9636  07AC                     i1l3888:
  9637                           
  9638                           ;mcc_generated_files/usb/usb_device.c: 1826:             byteToSend--;
  9639  07AC  3001               	movlw	1
  9640  07AD  02F2               	subwf	USBCtrlTrfTxService@byteToSend,f
  9641  07AE                     i1l3890:
  9642                           
  9643                           ;mcc_generated_files/usb/usb_device.c: 1823:         while(byteToSend)
  9644  07AE  0872               	movf	USBCtrlTrfTxService@byteToSend,w
  9645  07AF  1D03               	btfss	3,2
  9646  07B0  2FB2               	goto	u200_21
  9647  07B1  2FB3               	goto	u200_20
  9648  07B2                     u200_21:
  9649  07B2  2F95               	goto	i1l3882
  9650  07B3                     u200_20:
  9651  07B3                     i1l411:
  9652  07B3  0008               	return
  9653  07B4                     __end_of_USBCtrlTrfTxService:
  9654                           
  9655                           	psect	text36
  9656  0911                     __ptext36:	
  9657 ;; *************** function _PIN_MANAGER_IOC *****************
  9658 ;; Defined at:
  9659 ;;		line 113 in file "mcc_generated_files/pin_manager.c"
  9660 ;; Parameters:    Size  Location     Type
  9661 ;;		None
  9662 ;; Auto vars:     Size  Location     Type
  9663 ;;		None
  9664 ;; Return value:  Size  Location     Type
  9665 ;;                  1    wreg      void 
  9666 ;; Registers used:
  9667 ;;		wreg, status,2, status,0, pclath, cstack
  9668 ;; Tracked objects:
  9669 ;;		On entry : 0/0
  9670 ;;		On exit  : 0/0
  9671 ;;		Unchanged: 0/0
  9672 ;; Data sizes:     COMMON  BANK0h   BANK1   BANK2   BANK3   BANK4   BANK5   BANK6   BANK7   BANK8   BANK9  BANK10  BANK1
      +1  BANK12
  9673 ;;      Params:         0       0       0       0       0       0       0       0       0       0       0       0       
      +0       0
  9674 ;;      Locals:         0       0       0       0       0       0       0       0       0       0       0       0       
      +0       0
  9675 ;;      Temps:          0       0       0       0       0       0       0       0       0       0       0       0       
      +0       0
  9676 ;;      Totals:         0       0       0       0       0       0       0       0       0       0       0       0       
      +0       0
  9677 ;;Total ram usage:        0 bytes
  9678 ;; Hardware stack levels used:    1
  9679 ;; Hardware stack levels required when called:    2
  9680 ;; This function calls:
  9681 ;;		_IOCAF5_ISR
  9682 ;; This function is called by:
  9683 ;;		_INTERRUPT_InterruptManager
  9684 ;; This function uses a non-reentrant model
  9685 ;;
  9686                           
  9687                           
  9688                           ;psect for function _PIN_MANAGER_IOC
  9689  0911                     _PIN_MANAGER_IOC:
  9690  0911                     i1l5160:	
  9691                           ;incstack = 0
  9692                           ; Regs used in _PIN_MANAGER_IOC: [wreg+status,2+status,0+pclath+cstack]
  9693                           
  9694                           
  9695                           ;mcc_generated_files/pin_manager.c: 116:     if(IOCAFbits.IOCAF5 == 1)
  9696  0911  0027               	movlb	7	; select bank7
  9697  0912  1E93               	btfss	19,5	;volatile
  9698  0913  2915               	goto	u318_21
  9699  0914  2916               	goto	u318_20
  9700  0915                     u318_21:
  9701  0915  2919               	goto	i1l612
  9702  0916                     u318_20:
  9703  0916                     i1l5162:
  9704                           
  9705                           ;mcc_generated_files/pin_manager.c: 117:     {;mcc_generated_files/pin_manager.c: 118:  
      +                                 IOCAF5_ISR();
  9706  0916  3189  214D  3189   	fcall	_IOCAF5_ISR
  9707  0919                     i1l612:
  9708  0919  0008               	return
  9709  091A                     __end_of_PIN_MANAGER_IOC:
  9710                           
  9711                           	psect	text37
  9712  094D                     __ptext37:	
  9713 ;; *************** function _IOCAF5_ISR *****************
  9714 ;; Defined at:
  9715 ;;		line 125 in file "mcc_generated_files/pin_manager.c"
  9716 ;; Parameters:    Size  Location     Type
  9717 ;;		None
  9718 ;; Auto vars:     Size  Location     Type
  9719 ;;		None
  9720 ;; Return value:  Size  Location     Type
  9721 ;;                  1    wreg      void 
  9722 ;; Registers used:
  9723 ;;		wreg, status,2, status,0, pclath, cstack
  9724 ;; Tracked objects:
  9725 ;;		On entry : 0/0
  9726 ;;		On exit  : 0/0
  9727 ;;		Unchanged: 0/0
  9728 ;; Data sizes:     COMMON  BANK0h   BANK1   BANK2   BANK3   BANK4   BANK5   BANK6   BANK7   BANK8   BANK9  BANK10  BANK1
      +1  BANK12
  9729 ;;      Params:         0       0       0       0       0       0       0       0       0       0       0       0       
      +0       0
  9730 ;;      Locals:         0       0       0       0       0       0       0       0       0       0       0       0       
      +0       0
  9731 ;;      Temps:          0       0       0       0       0       0       0       0       0       0       0       0       
      +0       0
  9732 ;;      Totals:         0       0       0       0       0       0       0       0       0       0       0       0       
      +0       0
  9733 ;;Total ram usage:        0 bytes
  9734 ;; Hardware stack levels used:    1
  9735 ;; Hardware stack levels required when called:    1
  9736 ;; This function calls:
  9737 ;;		Absolute function
  9738 ;;		_IOCAF5_DefaultInterruptHandler
  9739 ;; This function is called by:
  9740 ;;		_PIN_MANAGER_IOC
  9741 ;; This function uses a non-reentrant model
  9742 ;;
  9743                           
  9744                           
  9745                           ;psect for function _IOCAF5_ISR
  9746  094D                     _IOCAF5_ISR:
  9747  094D                     i1l4924:	
  9748                           ;incstack = 0
  9749                           ; Regs used in _IOCAF5_ISR: [wreg+status,2+status,0+pclath+cstack]
  9750                           
  9751                           
  9752                           ;mcc_generated_files/pin_manager.c: 130:     if(IOCAF5_InterruptHandler)
  9753  094D  0021               	movlb	1	; select bank1
  9754  094E  0867               	movf	_IOCAF5_InterruptHandler^(0+128),w
  9755  094F  0468               	iorwf	(_IOCAF5_InterruptHandler+1)^(0+128),w
  9756  0950  1903               	btfsc	3,2
  9757  0951  2953               	goto	u286_21
  9758  0952  2954               	goto	u286_20
  9759  0953                     u286_21:
  9760  0953  2959               	goto	i1l4928
  9761  0954                     u286_20:
  9762  0954                     i1l4926:
  9763                           
  9764                           ;mcc_generated_files/pin_manager.c: 131:     {;mcc_generated_files/pin_manager.c: 132:  
      +                                 IOCAF5_InterruptHandler();
  9765  0954  0868               	movf	(_IOCAF5_InterruptHandler+1)^(0+128),w
  9766  0955  008A               	movwf	10
  9767  0956  0867               	movf	_IOCAF5_InterruptHandler^(0+128),w
  9768  0957  000A               	callw
  9769  0958  3189               	pagesel	$
  9770  0959                     i1l4928:
  9771                           
  9772                           ;mcc_generated_files/pin_manager.c: 134:     IOCAFbits.IOCAF5 = 0;
  9773  0959  0027               	movlb	7	; select bank7
  9774  095A  1293               	bcf	19,5	;volatile
  9775  095B                     i1l616:
  9776  095B  0008               	return
  9777  095C                     __end_of_IOCAF5_ISR:
  9778                           
  9779                           	psect	text38
  9780  0886                     __ptext38:	
  9781 ;; *************** function _IOCAF5_DefaultInterruptHandler *****************
  9782 ;; Defined at:
  9783 ;;		line 147 in file "mcc_generated_files/pin_manager.c"
  9784 ;; Parameters:    Size  Location     Type
  9785 ;;		None
  9786 ;; Auto vars:     Size  Location     Type
  9787 ;;		None
  9788 ;; Return value:  Size  Location     Type
  9789 ;;                  1    wreg      void 
  9790 ;; Registers used:
  9791 ;;		None
  9792 ;; Tracked objects:
  9793 ;;		On entry : 0/0
  9794 ;;		On exit  : 0/0
  9795 ;;		Unchanged: 0/0
  9796 ;; Data sizes:     COMMON  BANK0h   BANK1   BANK2   BANK3   BANK4   BANK5   BANK6   BANK7   BANK8   BANK9  BANK10  BANK1
      +1  BANK12
  9797 ;;      Params:         0       0       0       0       0       0       0       0       0       0       0       0       
      +0       0
  9798 ;;      Locals:         0       0       0       0       0       0       0       0       0       0       0       0       
      +0       0
  9799 ;;      Temps:          0       0       0       0       0       0       0       0       0       0       0       0       
      +0       0
  9800 ;;      Totals:         0       0       0       0       0       0       0       0       0       0       0       0       
      +0       0
  9801 ;;Total ram usage:        0 bytes
  9802 ;; Hardware stack levels used:    1
  9803 ;; This function calls:
  9804 ;;		Nothing
  9805 ;; This function is called by:
  9806 ;;		_PIN_MANAGER_Initialize
  9807 ;;		_IOCAF5_ISR
  9808 ;; This function uses a non-reentrant model
  9809 ;;
  9810                           
  9811                           
  9812                           ;psect for function _IOCAF5_DefaultInterruptHandler
  9813  0886                     _IOCAF5_DefaultInterruptHandler:
  9814  0886                     i1l622:	
  9815                           ;incstack = 0
  9816                           ; Regs used in _IOCAF5_DefaultInterruptHandler: []
  9817                           
  9818  0886  0008               	return
  9819  0887                     __end_of_IOCAF5_DefaultInterruptHandler:
  9820                           
  9821                           	psect	text39
  9822  08A3                     __ptext39:	
  9823 ;; *************** function _I2C_MasterIsr *****************
  9824 ;; Defined at:
  9825 ;;		line 318 in file "mcc_generated_files/i2c_master.c"
  9826 ;; Parameters:    Size  Location     Type
  9827 ;;		None
  9828 ;; Auto vars:     Size  Location     Type
  9829 ;;		None
  9830 ;; Return value:  Size  Location     Type
  9831 ;;                  1    wreg      void 
  9832 ;; Registers used:
  9833 ;;		wreg, fsr0l, fsr0h, fsr1l, fsr1h, status,2, status,0, pclath, cstack
  9834 ;; Tracked objects:
  9835 ;;		On entry : 0/0
  9836 ;;		On exit  : 0/0
  9837 ;;		Unchanged: 0/0
  9838 ;; Data sizes:     COMMON  BANK0h   BANK1   BANK2   BANK3   BANK4   BANK5   BANK6   BANK7   BANK8   BANK9  BANK10  BANK1
      +1  BANK12
  9839 ;;      Params:         0       0       0       0       0       0       0       0       0       0       0       0       
      +0       0
  9840 ;;      Locals:         0       0       0       0       0       0       0       0       0       0       0       0       
      +0       0
  9841 ;;      Temps:          0       0       0       0       0       0       0       0       0       0       0       0       
      +0       0
  9842 ;;      Totals:         0       0       0       0       0       0       0       0       0       0       0       0       
      +0       0
  9843 ;;Total ram usage:        0 bytes
  9844 ;; Hardware stack levels used:    1
  9845 ;; Hardware stack levels required when called:    5
  9846 ;; This function calls:
  9847 ;;		_I2C_MasterFsm
  9848 ;; This function is called by:
  9849 ;;		_I2C_Open
  9850 ;;		_INTERRUPT_InterruptManager
  9851 ;; This function uses a non-reentrant model
  9852 ;;
  9853                           
  9854                           
  9855                           ;psect for function _I2C_MasterIsr
  9856  08A3                     _I2C_MasterIsr:
  9857  08A3                     i1l5164:	
  9858                           ;incstack = 0
  9859                           ; Regs used in _I2C_MasterIsr: [wreg-fsr1h+status,2+status,0+pclath+cstack]
  9860                           
  9861                           
  9862                           ;mcc_generated_files/i2c_master.c: 320:     I2C_MasterFsm();
  9863  08A3  318B  2335  3188   	fcall	_I2C_MasterFsm
  9864  08A6                     i1l784:
  9865  08A6  0008               	return
  9866  08A7                     __end_of_I2C_MasterIsr:
  9867                           
  9868                           	psect	text40
  9869  0B35                     __ptext40:	
  9870 ;; *************** function _I2C_MasterFsm *****************
  9871 ;; Defined at:
  9872 ;;		line 323 in file "mcc_generated_files/i2c_master.c"
  9873 ;; Parameters:    Size  Location     Type
  9874 ;;		None
  9875 ;; Auto vars:     Size  Location     Type
  9876 ;;		None
  9877 ;; Return value:  Size  Location     Type
  9878 ;;                  1    wreg      void 
  9879 ;; Registers used:
  9880 ;;		wreg, fsr0l, fsr0h, fsr1l, fsr1h, status,2, status,0, pclath, cstack
  9881 ;; Tracked objects:
  9882 ;;		On entry : 0/0
  9883 ;;		On exit  : 0/0
  9884 ;;		Unchanged: 0/0
  9885 ;; Data sizes:     COMMON  BANK0h   BANK1   BANK2   BANK3   BANK4   BANK5   BANK6   BANK7   BANK8   BANK9  BANK10  BANK1
      +1  BANK12
  9886 ;;      Params:         0       0       0       0       0       0       0       0       0       0       0       0       
      +0       0
  9887 ;;      Locals:         0       0       0       0       0       0       0       0       0       0       0       0       
      +0       0
  9888 ;;      Temps:          0       3       0       0       0       0       0       0       0       0       0       0       
      +0       0
  9889 ;;      Totals:         0       3       0       0       0       0       0       0       0       0       0       0       
      +0       0
  9890 ;;Total ram usage:        3 bytes
  9891 ;; Hardware stack levels used:    1
  9892 ;; Hardware stack levels required when called:    4
  9893 ;; This function calls:
  9894 ;;		_I2C_DO_ADDRESS_NACK
  9895 ;;		_I2C_DO_IDLE
  9896 ;;		_I2C_DO_RCEN
  9897 ;;		_I2C_DO_RESET
  9898 ;;		_I2C_DO_RX
  9899 ;;		_I2C_DO_RX_ACK
  9900 ;;		_I2C_DO_RX_NACK_RESTART
  9901 ;;		_I2C_DO_RX_NACK_STOP
  9902 ;;		_I2C_DO_SEND_ADR_READ
  9903 ;;		_I2C_DO_SEND_ADR_WRITE
  9904 ;;		_I2C_DO_SEND_RESTART
  9905 ;;		_I2C_DO_SEND_RESTART_READ
  9906 ;;		_I2C_DO_SEND_RESTART_WRITE
  9907 ;;		_I2C_DO_SEND_STOP
  9908 ;;		_I2C_DO_TX
  9909 ;;		_I2C_DO_TX_EMPTY
  9910 ;;		_I2C_MasterClearIrq
  9911 ;;		_I2C_MasterIsNack
  9912 ;; This function is called by:
  9913 ;;		_I2C_MasterIsr
  9914 ;; This function uses a non-reentrant model
  9915 ;;
  9916                           
  9917                           
  9918                           ;psect for function _I2C_MasterFsm
  9919  0B35                     _I2C_MasterFsm:
  9920  0B35                     i1l4938:	
  9921                           ;incstack = 0
  9922                           ; Regs used in _I2C_MasterFsm: [wreg-fsr1h+status,2+status,0+pclath+cstack]
  9923                           
  9924                           
  9925                           ;mcc_generated_files/i2c_master.c: 325:     I2C_MasterClearIrq();
  9926  0B35  3188  2098  318B   	fcall	_I2C_MasterClearIrq
  9927  0B38                     i1l4940:
  9928                           
  9929                           ;mcc_generated_files/i2c_master.c: 327:     if(I2C_Status.addressNackCheck && I2C_Master
      +                          IsNack())
  9930  0B38  0021               	movlb	1	; select bank1
  9931  0B39  1C3C               	btfss	(_I2C_Status^(0+128)+28),0
  9932  0B3A  2B3C               	goto	u287_21
  9933  0B3B  2B3D               	goto	u287_20
  9934  0B3C                     u287_21:
  9935  0B3C  2B4B               	goto	i1l4946
  9936  0B3D                     u287_20:
  9937  0B3D                     i1l4942:
  9938  0B3D  3188  20D9  318B   	fcall	_I2C_MasterIsNack
  9939  0B40  3A00               	xorlw	0
  9940  0B41  1903               	skipnz
  9941  0B42  2B44               	goto	u288_21
  9942  0B43  2B45               	goto	u288_20
  9943  0B44                     u288_21:
  9944  0B44  2B4B               	goto	i1l4946
  9945  0B45                     u288_20:
  9946  0B45                     i1l4944:
  9947                           
  9948                           ;mcc_generated_files/i2c_master.c: 328:     {;mcc_generated_files/i2c_master.c: 329:    
      +                               I2C_Status.state = I2C_ADDRESS_NACK;
  9949  0B45  300F               	movlw	15
  9950  0B46  0020               	movlb	0	; select bank0
  9951  0B47  00E0               	movwf	??_I2C_MasterFsm
  9952  0B48  0860               	movf	??_I2C_MasterFsm,w
  9953  0B49  0021               	movlb	1	; select bank1
  9954  0B4A  00BA               	movwf	(_I2C_Status^(0+128)+26)
  9955  0B4B                     i1l4946:
  9956                           
  9957                           ;mcc_generated_files/i2c_master.c: 331:     I2C_Status.state = i2c_fsmStateTable[I2C_Sta
      +                          tus.state]();
  9958  0B4B  0021               	movlb	1	; select bank1
  9959  0B4C  083A               	movf	(_I2C_Status^(0+128)+26),w
  9960  0B4D  0020               	movlb	0	; select bank0
  9961  0B4E  00E0               	movwf	??_I2C_MasterFsm
  9962  0B4F  01E1               	clrf	??_I2C_MasterFsm+1
  9963  0B50  35E0               	lslf	??_I2C_MasterFsm,f
  9964  0B51  0DE1               	rlf	??_I2C_MasterFsm+1,f
  9965  0B52  305C               	movlw	low (_i2c_fsmStateTable| (0+32768))
  9966  0B53  0760               	addwf	??_I2C_MasterFsm,w
  9967  0B54  0084               	movwf	4
  9968  0B55  3090               	movlw	high (_i2c_fsmStateTable| (0+32768))
  9969  0B56  3D61               	addwfc	??_I2C_MasterFsm+1,w
  9970  0B57  0085               	movwf	5
  9971  0B58  3F01               	moviw [1]fsr0
  9972  0B59  008A               	movwf	10
  9973  0B5A  3F00               	moviw [0]fsr0
  9974  0B5B  000A               	callw
  9975  0B5C  318B               	pagesel	$
  9976  0B5D  0020               	movlb	0	; select bank0
  9977  0B5E  00E2               	movwf	??_I2C_MasterFsm+2
  9978  0B5F  0862               	movf	??_I2C_MasterFsm+2,w
  9979  0B60  0021               	movlb	1	; select bank1
  9980  0B61  00BA               	movwf	(_I2C_Status^(0+128)+26)
  9981  0B62                     i1l788:
  9982  0B62  0008               	return
  9983  0B63                     __end_of_I2C_MasterFsm:
  9984                           
  9985                           	psect	text41
  9986  0898                     __ptext41:	
  9987 ;; *************** function _I2C_MasterClearIrq *****************
  9988 ;; Defined at:
  9989 ;;		line 642 in file "mcc_generated_files/i2c_master.c"
  9990 ;; Parameters:    Size  Location     Type
  9991 ;;		None
  9992 ;; Auto vars:     Size  Location     Type
  9993 ;;		None
  9994 ;; Return value:  Size  Location     Type
  9995 ;;                  1    wreg      void 
  9996 ;; Registers used:
  9997 ;;		None
  9998 ;; Tracked objects:
  9999 ;;		On entry : 0/0
 10000 ;;		On exit  : 0/0
 10001 ;;		Unchanged: 0/0
 10002 ;; Data sizes:     COMMON  BANK0h   BANK1   BANK2   BANK3   BANK4   BANK5   BANK6   BANK7   BANK8   BANK9  BANK10  BANK1
      +1  BANK12
 10003 ;;      Params:         0       0       0       0       0       0       0       0       0       0       0       0       
      +0       0
 10004 ;;      Locals:         0       0       0       0       0       0       0       0       0       0       0       0       
      +0       0
 10005 ;;      Temps:          0       0       0       0       0       0       0       0       0       0       0       0       
      +0       0
 10006 ;;      Totals:         0       0       0       0       0       0       0       0       0       0       0       0       
      +0       0
 10007 ;;Total ram usage:        0 bytes
 10008 ;; Hardware stack levels used:    1
 10009 ;; This function calls:
 10010 ;;		Nothing
 10011 ;; This function is called by:
 10012 ;;		_I2C_MasterFsm
 10013 ;;		_I2C_Open
 10014 ;;		_I2C_Close
 10015 ;; This function uses a non-reentrant model
 10016 ;;
 10017                           
 10018                           
 10019                           ;psect for function _I2C_MasterClearIrq
 10020  0898                     _I2C_MasterClearIrq:
 10021  0898                     i1l4558:	
 10022                           ;incstack = 0
 10023                           ; Regs used in _I2C_MasterClearIrq: []
 10024                           
 10025                           
 10026                           ;mcc_generated_files/i2c_master.c: 644:     PIR1bits.SSP1IF = 0;
 10027  0898  0020               	movlb	0	; select bank0
 10028  0899  1191               	bcf	17,3	;volatile
 10029  089A                     i1l951:
 10030  089A  0008               	return
 10031  089B                     __end_of_I2C_MasterClearIrq:
 10032                           
 10033                           	psect	text42
 10034  0ADC                     __ptext42:	
 10035 ;; *************** function _I2C_DO_ADDRESS_NACK *****************
 10036 ;; Defined at:
 10037 ;;		line 501 in file "mcc_generated_files/i2c_master.c"
 10038 ;; Parameters:    Size  Location     Type
 10039 ;;		None
 10040 ;; Auto vars:     Size  Location     Type
 10041 ;;		None
 10042 ;; Return value:  Size  Location     Type
 10043 ;;                  1    wreg      enum E2728
 10044 ;; Registers used:
 10045 ;;		wreg, fsr0l, fsr0h, fsr1l, fsr1h, status,2, status,0, pclath, cstack
 10046 ;; Tracked objects:
 10047 ;;		On entry : 0/0
 10048 ;;		On exit  : 0/0
 10049 ;;		Unchanged: 0/0
 10050 ;; Data sizes:     COMMON  BANK0h   BANK1   BANK2   BANK3   BANK4   BANK5   BANK6   BANK7   BANK8   BANK9  BANK10  BANK1
      +1  BANK12
 10051 ;;      Params:         0       0       0       0       0       0       0       0       0       0       0       0       
      +0       0
 10052 ;;      Locals:         0       0       0       0       0       0       0       0       0       0       0       0       
      +0       0
 10053 ;;      Temps:          3       0       0       0       0       0       0       0       0       0       0       0       
      +0       0
 10054 ;;      Totals:         3       0       0       0       0       0       0       0       0       0       0       0       
      +0       0
 10055 ;;Total ram usage:        3 bytes
 10056 ;; Hardware stack levels used:    1
 10057 ;; Hardware stack levels required when called:    3
 10058 ;; This function calls:
 10059 ;;		Absolute function
 10060 ;;		_I2C_CallbackReturnReset
 10061 ;;		_I2C_CallbackReturnStop
 10062 ;;		_I2C_DO_SEND_RESTART
 10063 ;;		_I2C_DO_SEND_STOP
 10064 ;;		_rd1RegCompleteHandler
 10065 ;;		_rd2RegCompleteHandler
 10066 ;;		_rdBlkRegCompleteHandler
 10067 ;;		_wr1RegCompleteHandler
 10068 ;;		_wr2RegCompleteHandler
 10069 ;; This function is called by:
 10070 ;;		_I2C_MasterFsm
 10071 ;; This function uses a non-reentrant model
 10072 ;;
 10073                           
 10074                           
 10075                           ;psect for function _I2C_DO_ADDRESS_NACK
 10076  0ADC                     _I2C_DO_ADDRESS_NACK:
 10077  0ADC                     i1l4698:	
 10078                           ;incstack = 0
 10079                           ; Regs used in _I2C_DO_ADDRESS_NACK: [wreg-fsr1h+status,2+status,0+pclath+cstack]
 10080                           
 10081                           
 10082                           ;mcc_generated_files/i2c_master.c: 503:     I2C_Status.addressNackCheck = 0;
 10083  0ADC  0021               	movlb	1	; select bank1
 10084  0ADD  103C               	bcf	(_I2C_Status^(0+128)+28),0
 10085  0ADE                     i1l4700:
 10086                           
 10087                           ;mcc_generated_files/i2c_master.c: 504:     I2C_Status.error = I2C_FAIL;
 10088  0ADE  3002               	movlw	2
 10089  0ADF  00FA               	movwf	??_I2C_DO_ADDRESS_NACK
 10090  0AE0  087A               	movf	??_I2C_DO_ADDRESS_NACK,w
 10091  0AE1  00BB               	movwf	(_I2C_Status^(0+128)+27)
 10092                           
 10093                           ;mcc_generated_files/i2c_master.c: 505:     switch(I2C_Status.callbackTable[I2C_ADDR_NAC
      +                          K](I2C_Status.callbackPayload[I2C_ADDR_NACK]))
 10094  0AE2  2AEB               	goto	i1l4712
 10095  0AE3                     i1l4702:
 10096                           
 10097                           ;mcc_generated_files/i2c_master.c: 509:             return I2C_DO_SEND_RESTART();
 10098  0AE3  3188  20BB  318A   	fcall	_I2C_DO_SEND_RESTART
 10099  0AE6  2B07               	goto	i1l879
 10100  0AE7                     i1l4706:
 10101                           
 10102                           ;mcc_generated_files/i2c_master.c: 511:             return I2C_DO_SEND_STOP();
 10103  0AE7  3188  20C0  318A   	fcall	_I2C_DO_SEND_STOP
 10104  0AEA  2B07               	goto	i1l879
 10105  0AEB                     i1l4712:
 10106  0AEB  082E               	movf	(low ((_I2C_Status| 0+14)))^(0+128),w
 10107  0AEC  00FA               	movwf	??_I2C_DO_ADDRESS_NACK
 10108  0AED  087A               	movf	??_I2C_DO_ADDRESS_NACK,w
 10109  0AEE  00F9               	movwf	I2C_CallbackReturnReset@funPtr
 10110  0AEF  3004               	movlw	4
 10111  0AF0  3EA0               	addlw	(low (_I2C_Status| 0))& (0+255)
 10112  0AF1  0086               	movwf	6
 10113  0AF2  0187               	clrf	7
 10114  0AF3  3F41               	moviw [1]fsr1
 10115  0AF4  008A               	movwf	10
 10116  0AF5  3F40               	moviw [0]fsr1
 10117  0AF6  000A               	callw
 10118  0AF7  318A               	pagesel	$
 10119  0AF8  00FB               	movwf	??_I2C_DO_ADDRESS_NACK+1
 10120  0AF9  01FC               	clrf	??_I2C_DO_ADDRESS_NACK+2
 10121                           
 10122                           ; Switch on 2 bytes has been partitioned into a top level switch of size 1, and 1 sub-sw
      +                          itches
 10123                           ; Switch size 1, requested type "simple"
 10124                           ; Number of cases is 1, Range of values is 0 to 0
 10125                           ; switch strategies available:
 10126                           ; Name         Instructions Cycles
 10127                           ; simple_byte            4     3 (average)
 10128                           ; direct_byte            8     6 (fixed)
 10129                           ; jumptable            260     6 (fixed)
 10130                           ;	Chosen strategy is simple_byte
 10131  0AFA  087C               	movf	??_I2C_DO_ADDRESS_NACK+2,w
 10132  0AFB  3A00               	xorlw	0	; case 0
 10133  0AFC  1903               	skipnz
 10134  0AFD  2AFF               	goto	i1l6266
 10135  0AFE  2AE7               	goto	i1l4706
 10136  0AFF                     i1l6266:
 10137                           
 10138                           ; Switch size 1, requested type "simple"
 10139                           ; Number of cases is 2, Range of values is 2 to 3
 10140                           ; switch strategies available:
 10141                           ; Name         Instructions Cycles
 10142                           ; simple_byte            7     4 (average)
 10143                           ; direct_byte           13     9 (fixed)
 10144                           ; jumptable            263     9 (fixed)
 10145                           ;	Chosen strategy is simple_byte
 10146  0AFF  087B               	movf	??_I2C_DO_ADDRESS_NACK+1,w
 10147  0B00  3A02               	xorlw	2	; case 2
 10148  0B01  1903               	skipnz
 10149  0B02  2AE3               	goto	i1l4702
 10150  0B03  3A01               	xorlw	1	; case 3
 10151  0B04  1903               	skipnz
 10152  0B05  2AE3               	goto	i1l4702
 10153  0B06  2AE7               	goto	i1l4706
 10154  0B07                     i1l879:
 10155  0B07  0008               	return
 10156  0B08                     __end_of_I2C_DO_ADDRESS_NACK:
 10157                           
 10158                           	psect	text43
 10159  08D4                     __ptext43:	
 10160 ;; *************** function _I2C_DO_RESET *****************
 10161 ;; Defined at:
 10162 ;;		line 495 in file "mcc_generated_files/i2c_master.c"
 10163 ;; Parameters:    Size  Location     Type
 10164 ;;		None
 10165 ;; Auto vars:     Size  Location     Type
 10166 ;;		None
 10167 ;; Return value:  Size  Location     Type
 10168 ;;                  1    wreg      enum E2728
 10169 ;; Registers used:
 10170 ;;		wreg, status,2
 10171 ;; Tracked objects:
 10172 ;;		On entry : 0/0
 10173 ;;		On exit  : 0/0
 10174 ;;		Unchanged: 0/0
 10175 ;; Data sizes:     COMMON  BANK0h   BANK1   BANK2   BANK3   BANK4   BANK5   BANK6   BANK7   BANK8   BANK9  BANK10  BANK1
      +1  BANK12
 10176 ;;      Params:         0       0       0       0       0       0       0       0       0       0       0       0       
      +0       0
 10177 ;;      Locals:         0       0       0       0       0       0       0       0       0       0       0       0       
      +0       0
 10178 ;;      Temps:          0       0       0       0       0       0       0       0       0       0       0       0       
      +0       0
 10179 ;;      Totals:         0       0       0       0       0       0       0       0       0       0       0       0       
      +0       0
 10180 ;;Total ram usage:        0 bytes
 10181 ;; Hardware stack levels used:    1
 10182 ;; This function calls:
 10183 ;;		Nothing
 10184 ;; This function is called by:
 10185 ;;		_I2C_MasterFsm
 10186 ;; This function uses a non-reentrant model
 10187 ;;
 10188                           
 10189                           
 10190                           ;psect for function _I2C_DO_RESET
 10191  08D4                     _I2C_DO_RESET:
 10192  08D4                     i1l4690:	
 10193                           ;incstack = 0
 10194                           ; Regs used in _I2C_DO_RESET: [wreg+status,2]
 10195                           
 10196                           
 10197                           ;mcc_generated_files/i2c_master.c: 497:     I2C_Status.busy = 0;
 10198  08D4  0021               	movlb	1	; select bank1
 10199  08D5  10BC               	bcf	(_I2C_Status^(0+128)+28),1
 10200  08D6                     i1l4692:
 10201                           
 10202                           ;mcc_generated_files/i2c_master.c: 498:     I2C_Status.error = I2C_NOERR;
 10203  08D6  01BB               	clrf	(_I2C_Status^(0+128)+27)
 10204  08D7                     i1l4694:
 10205                           
 10206                           ;mcc_generated_files/i2c_master.c: 499:     return I2C_RESET;
 10207  08D7  300E               	movlw	14
 10208  08D8                     i1l873:
 10209  08D8  0008               	return
 10210  08D9                     __end_of_I2C_DO_RESET:
 10211                           
 10212                           	psect	text44
 10213  08CF                     __ptext44:	
 10214 ;; *************** function _I2C_DO_RX_NACK_RESTART *****************
 10215 ;; Defined at:
 10216 ;;		line 489 in file "mcc_generated_files/i2c_master.c"
 10217 ;; Parameters:    Size  Location     Type
 10218 ;;		None
 10219 ;; Auto vars:     Size  Location     Type
 10220 ;;		None
 10221 ;; Return value:  Size  Location     Type
 10222 ;;                  1    wreg      enum E2728
 10223 ;; Registers used:
 10224 ;;		wreg, status,2, status,0, pclath, cstack
 10225 ;; Tracked objects:
 10226 ;;		On entry : 0/0
 10227 ;;		On exit  : 0/0
 10228 ;;		Unchanged: 0/0
 10229 ;; Data sizes:     COMMON  BANK0h   BANK1   BANK2   BANK3   BANK4   BANK5   BANK6   BANK7   BANK8   BANK9  BANK10  BANK1
      +1  BANK12
 10230 ;;      Params:         0       0       0       0       0       0       0       0       0       0       0       0       
      +0       0
 10231 ;;      Locals:         0       0       0       0       0       0       0       0       0       0       0       0       
      +0       0
 10232 ;;      Temps:          0       0       0       0       0       0       0       0       0       0       0       0       
      +0       0
 10233 ;;      Totals:         0       0       0       0       0       0       0       0       0       0       0       0       
      +0       0
 10234 ;;Total ram usage:        0 bytes
 10235 ;; Hardware stack levels used:    1
 10236 ;; Hardware stack levels required when called:    1
 10237 ;; This function calls:
 10238 ;;		_I2C_MasterSendNack
 10239 ;; This function is called by:
 10240 ;;		_I2C_DO_RX
 10241 ;;		_I2C_MasterFsm
 10242 ;; This function uses a non-reentrant model
 10243 ;;
 10244                           
 10245                           
 10246                           ;psect for function _I2C_DO_RX_NACK_RESTART
 10247  08CF                     _I2C_DO_RX_NACK_RESTART:
 10248  08CF                     i1l4436:	
 10249                           ;incstack = 0
 10250                           ; Regs used in _I2C_DO_RX_NACK_RESTART: [wreg+status,2+status,0+pclath+cstack]
 10251                           
 10252                           
 10253                           ;mcc_generated_files/i2c_master.c: 491:     I2C_MasterSendNack();
 10254  08CF  3188  209B  3188   	fcall	_I2C_MasterSendNack
 10255  08D2                     i1l4438:
 10256                           
 10257                           ;mcc_generated_files/i2c_master.c: 492:     return I2C_SEND_RESTART;
 10258  08D2  3009               	movlw	9
 10259  08D3                     i1l870:
 10260  08D3  0008               	return
 10261  08D4                     __end_of_I2C_DO_RX_NACK_RESTART:
 10262                           
 10263                           	psect	text45
 10264  08CA                     __ptext45:	
 10265 ;; *************** function _I2C_DO_RX_NACK_STOP *****************
 10266 ;; Defined at:
 10267 ;;		line 483 in file "mcc_generated_files/i2c_master.c"
 10268 ;; Parameters:    Size  Location     Type
 10269 ;;		None
 10270 ;; Auto vars:     Size  Location     Type
 10271 ;;		None
 10272 ;; Return value:  Size  Location     Type
 10273 ;;                  1    wreg      enum E2728
 10274 ;; Registers used:
 10275 ;;		wreg, status,2, status,0, pclath, cstack
 10276 ;; Tracked objects:
 10277 ;;		On entry : 0/0
 10278 ;;		On exit  : 0/0
 10279 ;;		Unchanged: 0/0
 10280 ;; Data sizes:     COMMON  BANK0h   BANK1   BANK2   BANK3   BANK4   BANK5   BANK6   BANK7   BANK8   BANK9  BANK10  BANK1
      +1  BANK12
 10281 ;;      Params:         0       0       0       0       0       0       0       0       0       0       0       0       
      +0       0
 10282 ;;      Locals:         0       0       0       0       0       0       0       0       0       0       0       0       
      +0       0
 10283 ;;      Temps:          0       0       0       0       0       0       0       0       0       0       0       0       
      +0       0
 10284 ;;      Totals:         0       0       0       0       0       0       0       0       0       0       0       0       
      +0       0
 10285 ;;Total ram usage:        0 bytes
 10286 ;; Hardware stack levels used:    1
 10287 ;; Hardware stack levels required when called:    1
 10288 ;; This function calls:
 10289 ;;		_I2C_MasterSendNack
 10290 ;; This function is called by:
 10291 ;;		_I2C_DO_RX
 10292 ;;		_I2C_MasterFsm
 10293 ;; This function uses a non-reentrant model
 10294 ;;
 10295                           
 10296                           
 10297                           ;psect for function _I2C_DO_RX_NACK_STOP
 10298  08CA                     _I2C_DO_RX_NACK_STOP:
 10299  08CA                     i1l4442:	
 10300                           ;incstack = 0
 10301                           ; Regs used in _I2C_DO_RX_NACK_STOP: [wreg+status,2+status,0+pclath+cstack]
 10302                           
 10303                           
 10304                           ;mcc_generated_files/i2c_master.c: 485:     I2C_MasterSendNack();
 10305  08CA  3188  209B  3188   	fcall	_I2C_MasterSendNack
 10306  08CD                     i1l4444:
 10307                           
 10308                           ;mcc_generated_files/i2c_master.c: 486:     return I2C_SEND_STOP;
 10309  08CD  300A               	movlw	10
 10310  08CE                     i1l867:
 10311  08CE  0008               	return
 10312  08CF                     __end_of_I2C_DO_RX_NACK_STOP:
 10313                           
 10314                           	psect	text46
 10315  08C5                     __ptext46:	
 10316 ;; *************** function _I2C_DO_RX_ACK *****************
 10317 ;; Defined at:
 10318 ;;		line 476 in file "mcc_generated_files/i2c_master.c"
 10319 ;; Parameters:    Size  Location     Type
 10320 ;;		None
 10321 ;; Auto vars:     Size  Location     Type
 10322 ;;		None
 10323 ;; Return value:  Size  Location     Type
 10324 ;;                  1    wreg      enum E2728
 10325 ;; Registers used:
 10326 ;;		wreg, status,2, status,0, pclath, cstack
 10327 ;; Tracked objects:
 10328 ;;		On entry : 0/0
 10329 ;;		On exit  : 0/0
 10330 ;;		Unchanged: 0/0
 10331 ;; Data sizes:     COMMON  BANK0h   BANK1   BANK2   BANK3   BANK4   BANK5   BANK6   BANK7   BANK8   BANK9  BANK10  BANK1
      +1  BANK12
 10332 ;;      Params:         0       0       0       0       0       0       0       0       0       0       0       0       
      +0       0
 10333 ;;      Locals:         0       0       0       0       0       0       0       0       0       0       0       0       
      +0       0
 10334 ;;      Temps:          0       0       0       0       0       0       0       0       0       0       0       0       
      +0       0
 10335 ;;      Totals:         0       0       0       0       0       0       0       0       0       0       0       0       
      +0       0
 10336 ;;Total ram usage:        0 bytes
 10337 ;; Hardware stack levels used:    1
 10338 ;; Hardware stack levels required when called:    1
 10339 ;; This function calls:
 10340 ;;		_I2C_MasterSendAck
 10341 ;; This function is called by:
 10342 ;;		_I2C_MasterFsm
 10343 ;; This function uses a non-reentrant model
 10344 ;;
 10345                           
 10346                           
 10347                           ;psect for function _I2C_DO_RX_ACK
 10348  08C5                     _I2C_DO_RX_ACK:
 10349  08C5                     i1l4684:	
 10350                           ;incstack = 0
 10351                           ; Regs used in _I2C_DO_RX_ACK: [wreg+status,2+status,0+pclath+cstack]
 10352                           
 10353                           
 10354                           ;mcc_generated_files/i2c_master.c: 478:     I2C_MasterSendAck();
 10355  08C5  3188  209F  3188   	fcall	_I2C_MasterSendAck
 10356  08C8                     i1l4686:
 10357                           
 10358                           ;mcc_generated_files/i2c_master.c: 479:     return I2C_RCEN;
 10359  08C8  3005               	movlw	5
 10360  08C9                     i1l864:
 10361  08C9  0008               	return
 10362  08CA                     __end_of_I2C_DO_RX_ACK:
 10363                           
 10364                           	psect	text47
 10365  08C0                     __ptext47:	
 10366 ;; *************** function _I2C_DO_SEND_STOP *****************
 10367 ;; Defined at:
 10368 ;;		line 470 in file "mcc_generated_files/i2c_master.c"
 10369 ;; Parameters:    Size  Location     Type
 10370 ;;		None
 10371 ;; Auto vars:     Size  Location     Type
 10372 ;;		None
 10373 ;; Return value:  Size  Location     Type
 10374 ;;                  1    wreg      enum E2728
 10375 ;; Registers used:
 10376 ;;		wreg, status,2, status,0, pclath, cstack
 10377 ;; Tracked objects:
 10378 ;;		On entry : 0/0
 10379 ;;		On exit  : 0/0
 10380 ;;		Unchanged: 0/0
 10381 ;; Data sizes:     COMMON  BANK0h   BANK1   BANK2   BANK3   BANK4   BANK5   BANK6   BANK7   BANK8   BANK9  BANK10  BANK1
      +1  BANK12
 10382 ;;      Params:         0       0       0       0       0       0       0       0       0       0       0       0       
      +0       0
 10383 ;;      Locals:         0       0       0       0       0       0       0       0       0       0       0       0       
      +0       0
 10384 ;;      Temps:          0       0       0       0       0       0       0       0       0       0       0       0       
      +0       0
 10385 ;;      Totals:         0       0       0       0       0       0       0       0       0       0       0       0       
      +0       0
 10386 ;;Total ram usage:        0 bytes
 10387 ;; Hardware stack levels used:    1
 10388 ;; Hardware stack levels required when called:    1
 10389 ;; This function calls:
 10390 ;;		_I2C_MasterStop
 10391 ;; This function is called by:
 10392 ;;		_I2C_DO_TX
 10393 ;;		_I2C_DO_TX_EMPTY
 10394 ;;		_I2C_DO_ADDRESS_NACK
 10395 ;;		_I2C_MasterFsm
 10396 ;; This function uses a non-reentrant model
 10397 ;;
 10398                           
 10399                           
 10400                           ;psect for function _I2C_DO_SEND_STOP
 10401  08C0                     _I2C_DO_SEND_STOP:
 10402  08C0                     i1l4424:	
 10403                           ;incstack = 0
 10404                           ; Regs used in _I2C_DO_SEND_STOP: [wreg+status,2+status,0+pclath+cstack]
 10405                           
 10406                           
 10407                           ;mcc_generated_files/i2c_master.c: 472:     I2C_MasterStop();
 10408  08C0  3188  208C  3188   	fcall	_I2C_MasterStop
 10409  08C3                     i1l4426:
 10410                           
 10411                           ;mcc_generated_files/i2c_master.c: 473:     return I2C_IDLE;
 10412  08C3  3000               	movlw	0
 10413  08C4                     i1l861:
 10414  08C4  0008               	return
 10415  08C5                     __end_of_I2C_DO_SEND_STOP:
 10416                           
 10417                           	psect	text48
 10418  08BB                     __ptext48:	
 10419 ;; *************** function _I2C_DO_SEND_RESTART *****************
 10420 ;; Defined at:
 10421 ;;		line 464 in file "mcc_generated_files/i2c_master.c"
 10422 ;; Parameters:    Size  Location     Type
 10423 ;;		None
 10424 ;; Auto vars:     Size  Location     Type
 10425 ;;		None
 10426 ;; Return value:  Size  Location     Type
 10427 ;;                  1    wreg      enum E2728
 10428 ;; Registers used:
 10429 ;;		wreg, status,2, status,0, pclath, cstack
 10430 ;; Tracked objects:
 10431 ;;		On entry : 0/0
 10432 ;;		On exit  : 0/0
 10433 ;;		Unchanged: 0/0
 10434 ;; Data sizes:     COMMON  BANK0h   BANK1   BANK2   BANK3   BANK4   BANK5   BANK6   BANK7   BANK8   BANK9  BANK10  BANK1
      +1  BANK12
 10435 ;;      Params:         0       0       0       0       0       0       0       0       0       0       0       0       
      +0       0
 10436 ;;      Locals:         0       0       0       0       0       0       0       0       0       0       0       0       
      +0       0
 10437 ;;      Temps:          0       0       0       0       0       0       0       0       0       0       0       0       
      +0       0
 10438 ;;      Totals:         0       0       0       0       0       0       0       0       0       0       0       0       
      +0       0
 10439 ;;Total ram usage:        0 bytes
 10440 ;; Hardware stack levels used:    1
 10441 ;; Hardware stack levels required when called:    1
 10442 ;; This function calls:
 10443 ;;		_I2C_MasterEnableRestart
 10444 ;; This function is called by:
 10445 ;;		_I2C_DO_TX_EMPTY
 10446 ;;		_I2C_DO_ADDRESS_NACK
 10447 ;;		_I2C_MasterFsm
 10448 ;; This function uses a non-reentrant model
 10449 ;;
 10450                           
 10451                           
 10452                           ;psect for function _I2C_DO_SEND_RESTART
 10453  08BB                     _I2C_DO_SEND_RESTART:
 10454  08BB                     i1l4450:	
 10455                           ;incstack = 0
 10456                           ; Regs used in _I2C_DO_SEND_RESTART: [wreg+status,2+status,0+pclath+cstack]
 10457                           
 10458                           
 10459                           ;mcc_generated_files/i2c_master.c: 466:     I2C_MasterEnableRestart();
 10460  08BB  3188  2089  3188   	fcall	_I2C_MasterEnableRestart
 10461  08BE                     i1l4452:
 10462                           
 10463                           ;mcc_generated_files/i2c_master.c: 467:     return I2C_SEND_ADR_READ;
 10464  08BE  3001               	movlw	1
 10465  08BF                     i1l858:
 10466  08BF  0008               	return
 10467  08C0                     __end_of_I2C_DO_SEND_RESTART:
 10468                           
 10469                           	psect	text49
 10470  08B6                     __ptext49:	
 10471 ;; *************** function _I2C_DO_SEND_RESTART_WRITE *****************
 10472 ;; Defined at:
 10473 ;;		line 457 in file "mcc_generated_files/i2c_master.c"
 10474 ;; Parameters:    Size  Location     Type
 10475 ;;		None
 10476 ;; Auto vars:     Size  Location     Type
 10477 ;;		None
 10478 ;; Return value:  Size  Location     Type
 10479 ;;                  1    wreg      enum E2728
 10480 ;; Registers used:
 10481 ;;		wreg, status,2, status,0, pclath, cstack
 10482 ;; Tracked objects:
 10483 ;;		On entry : 0/0
 10484 ;;		On exit  : 0/0
 10485 ;;		Unchanged: 0/0
 10486 ;; Data sizes:     COMMON  BANK0h   BANK1   BANK2   BANK3   BANK4   BANK5   BANK6   BANK7   BANK8   BANK9  BANK10  BANK1
      +1  BANK12
 10487 ;;      Params:         0       0       0       0       0       0       0       0       0       0       0       0       
      +0       0
 10488 ;;      Locals:         0       0       0       0       0       0       0       0       0       0       0       0       
      +0       0
 10489 ;;      Temps:          0       0       0       0       0       0       0       0       0       0       0       0       
      +0       0
 10490 ;;      Totals:         0       0       0       0       0       0       0       0       0       0       0       0       
      +0       0
 10491 ;;Total ram usage:        0 bytes
 10492 ;; Hardware stack levels used:    1
 10493 ;; Hardware stack levels required when called:    1
 10494 ;; This function calls:
 10495 ;;		_I2C_MasterEnableRestart
 10496 ;; This function is called by:
 10497 ;;		_I2C_DO_TX
 10498 ;;		_I2C_MasterFsm
 10499 ;; This function uses a non-reentrant model
 10500 ;;
 10501                           
 10502                           
 10503                           ;psect for function _I2C_DO_SEND_RESTART_WRITE
 10504  08B6                     _I2C_DO_SEND_RESTART_WRITE:
 10505  08B6                     i1l4418:	
 10506                           ;incstack = 0
 10507                           ; Regs used in _I2C_DO_SEND_RESTART_WRITE: [wreg+status,2+status,0+pclath+cstack]
 10508                           
 10509                           
 10510                           ;mcc_generated_files/i2c_master.c: 459:     I2C_MasterEnableRestart();
 10511  08B6  3188  2089  3188   	fcall	_I2C_MasterEnableRestart
 10512  08B9                     i1l4420:
 10513                           
 10514                           ;mcc_generated_files/i2c_master.c: 460:     return I2C_SEND_ADR_WRITE;
 10515  08B9  3002               	movlw	2
 10516  08BA                     i1l855:
 10517  08BA  0008               	return
 10518  08BB                     __end_of_I2C_DO_SEND_RESTART_WRITE:
 10519                           
 10520                           	psect	text50
 10521  08B1                     __ptext50:	
 10522 ;; *************** function _I2C_DO_SEND_RESTART_READ *****************
 10523 ;; Defined at:
 10524 ;;		line 451 in file "mcc_generated_files/i2c_master.c"
 10525 ;; Parameters:    Size  Location     Type
 10526 ;;		None
 10527 ;; Auto vars:     Size  Location     Type
 10528 ;;		None
 10529 ;; Return value:  Size  Location     Type
 10530 ;;                  1    wreg      enum E2728
 10531 ;; Registers used:
 10532 ;;		wreg, status,2, status,0, pclath, cstack
 10533 ;; Tracked objects:
 10534 ;;		On entry : 0/0
 10535 ;;		On exit  : 0/0
 10536 ;;		Unchanged: 0/0
 10537 ;; Data sizes:     COMMON  BANK0h   BANK1   BANK2   BANK3   BANK4   BANK5   BANK6   BANK7   BANK8   BANK9  BANK10  BANK1
      +1  BANK12
 10538 ;;      Params:         0       0       0       0       0       0       0       0       0       0       0       0       
      +0       0
 10539 ;;      Locals:         0       0       0       0       0       0       0       0       0       0       0       0       
      +0       0
 10540 ;;      Temps:          0       0       0       0       0       0       0       0       0       0       0       0       
      +0       0
 10541 ;;      Totals:         0       0       0       0       0       0       0       0       0       0       0       0       
      +0       0
 10542 ;;Total ram usage:        0 bytes
 10543 ;; Hardware stack levels used:    1
 10544 ;; Hardware stack levels required when called:    1
 10545 ;; This function calls:
 10546 ;;		_I2C_MasterEnableRestart
 10547 ;; This function is called by:
 10548 ;;		_I2C_DO_TX
 10549 ;;		_I2C_MasterFsm
 10550 ;; This function uses a non-reentrant model
 10551 ;;
 10552                           
 10553                           
 10554                           ;psect for function _I2C_DO_SEND_RESTART_READ
 10555  08B1                     _I2C_DO_SEND_RESTART_READ:
 10556  08B1                     i1l4412:	
 10557                           ;incstack = 0
 10558                           ; Regs used in _I2C_DO_SEND_RESTART_READ: [wreg+status,2+status,0+pclath+cstack]
 10559                           
 10560                           
 10561                           ;mcc_generated_files/i2c_master.c: 453:     I2C_MasterEnableRestart();
 10562  08B1  3188  2089  3188   	fcall	_I2C_MasterEnableRestart
 10563  08B4                     i1l4414:
 10564                           
 10565                           ;mcc_generated_files/i2c_master.c: 454:     return I2C_SEND_ADR_READ;
 10566  08B4  3001               	movlw	1
 10567  08B5                     i1l852:
 10568  08B5  0008               	return
 10569  08B6                     __end_of_I2C_DO_SEND_RESTART_READ:
 10570                           
 10571                           	psect	text51
 10572  08F1                     __ptext51:	
 10573 ;; *************** function _I2C_DO_RCEN *****************
 10574 ;; Defined at:
 10575 ;;		line 404 in file "mcc_generated_files/i2c_master.c"
 10576 ;; Parameters:    Size  Location     Type
 10577 ;;		None
 10578 ;; Auto vars:     Size  Location     Type
 10579 ;;		None
 10580 ;; Return value:  Size  Location     Type
 10581 ;;                  1    wreg      enum E2728
 10582 ;; Registers used:
 10583 ;;		wreg, status,2, status,0, pclath, cstack
 10584 ;; Tracked objects:
 10585 ;;		On entry : 0/0
 10586 ;;		On exit  : 0/0
 10587 ;;		Unchanged: 0/0
 10588 ;; Data sizes:     COMMON  BANK0h   BANK1   BANK2   BANK3   BANK4   BANK5   BANK6   BANK7   BANK8   BANK9  BANK10  BANK1
      +1  BANK12
 10589 ;;      Params:         0       0       0       0       0       0       0       0       0       0       0       0       
      +0       0
 10590 ;;      Locals:         0       0       0       0       0       0       0       0       0       0       0       0       
      +0       0
 10591 ;;      Temps:          0       0       0       0       0       0       0       0       0       0       0       0       
      +0       0
 10592 ;;      Totals:         0       0       0       0       0       0       0       0       0       0       0       0       
      +0       0
 10593 ;;Total ram usage:        0 bytes
 10594 ;; Hardware stack levels used:    1
 10595 ;; Hardware stack levels required when called:    1
 10596 ;; This function calls:
 10597 ;;		_I2C_MasterStartRx
 10598 ;; This function is called by:
 10599 ;;		_I2C_MasterFsm
 10600 ;; This function uses a non-reentrant model
 10601 ;;
 10602                           
 10603                           
 10604                           ;psect for function _I2C_DO_RCEN
 10605  08F1                     _I2C_DO_RCEN:
 10606  08F1                     i1l4650:	
 10607                           ;incstack = 0
 10608                           ; Regs used in _I2C_DO_RCEN: [wreg+status,2+status,0+pclath+cstack]
 10609                           
 10610                           
 10611                           ;mcc_generated_files/i2c_master.c: 406:     I2C_Status.addressNackCheck = 0;
 10612  08F1  0021               	movlb	1	; select bank1
 10613  08F2  103C               	bcf	(_I2C_Status^(0+128)+28),0
 10614  08F3                     i1l4652:
 10615                           
 10616                           ;mcc_generated_files/i2c_master.c: 407:     I2C_MasterStartRx();
 10617  08F3  3188  208F  3188   	fcall	_I2C_MasterStartRx
 10618  08F6                     i1l4654:
 10619                           
 10620                           ;mcc_generated_files/i2c_master.c: 408:     return I2C_RX;
 10621  08F6  3004               	movlw	4
 10622  08F7                     i1l828:
 10623  08F7  0008               	return
 10624  08F8                     __end_of_I2C_DO_RCEN:
 10625                           
 10626                           	psect	text52
 10627  0BFA                     __ptext52:	
 10628 ;; *************** function _I2C_DO_RX *****************
 10629 ;; Defined at:
 10630 ;;		line 380 in file "mcc_generated_files/i2c_master.c"
 10631 ;; Parameters:    Size  Location     Type
 10632 ;;		None
 10633 ;; Auto vars:     Size  Location     Type
 10634 ;;		None
 10635 ;; Return value:  Size  Location     Type
 10636 ;;                  1    wreg      enum E2728
 10637 ;; Registers used:
 10638 ;;		wreg, fsr0l, fsr0h, fsr1l, fsr1h, status,2, status,0, pclath, cstack
 10639 ;; Tracked objects:
 10640 ;;		On entry : 0/0
 10641 ;;		On exit  : 0/0
 10642 ;;		Unchanged: 0/0
 10643 ;; Data sizes:     COMMON  BANK0h   BANK1   BANK2   BANK3   BANK4   BANK5   BANK6   BANK7   BANK8   BANK9  BANK10  BANK1
      +1  BANK12
 10644 ;;      Params:         0       0       0       0       0       0       0       0       0       0       0       0       
      +0       0
 10645 ;;      Locals:         0       0       0       0       0       0       0       0       0       0       0       0       
      +0       0
 10646 ;;      Temps:          3       0       0       0       0       0       0       0       0       0       0       0       
      +0       0
 10647 ;;      Totals:         3       0       0       0       0       0       0       0       0       0       0       0       
      +0       0
 10648 ;;Total ram usage:        3 bytes
 10649 ;; Hardware stack levels used:    1
 10650 ;; Hardware stack levels required when called:    3
 10651 ;; This function calls:
 10652 ;;		Absolute function
 10653 ;;		_I2C_CallbackReturnReset
 10654 ;;		_I2C_CallbackReturnStop
 10655 ;;		_I2C_DO_RX_NACK_RESTART
 10656 ;;		_I2C_DO_RX_NACK_STOP
 10657 ;;		_I2C_MasterGetRxData
 10658 ;;		_I2C_MasterSendAck
 10659 ;;		_rd1RegCompleteHandler
 10660 ;;		_rd2RegCompleteHandler
 10661 ;;		_rdBlkRegCompleteHandler
 10662 ;;		_wr1RegCompleteHandler
 10663 ;;		_wr2RegCompleteHandler
 10664 ;; This function is called by:
 10665 ;;		_I2C_MasterFsm
 10666 ;; This function uses a non-reentrant model
 10667 ;;
 10668                           
 10669                           
 10670                           ;psect for function _I2C_DO_RX
 10671  0BFA                     _I2C_DO_RX:
 10672  0BFA                     i1l4618:	
 10673                           ;incstack = 0
 10674                           ; Regs used in _I2C_DO_RX: [wreg-fsr1h+status,2+status,0+pclath+cstack]
 10675                           
 10676                           
 10677                           ;mcc_generated_files/i2c_master.c: 382:     *I2C_Status.data_ptr++ = I2C_MasterGetRxData
      +                          ();
 10678  0BFA  3188  2092  318B   	fcall	_I2C_MasterGetRxData
 10679  0BFD  00FA               	movwf	??_I2C_DO_RX
 10680  0BFE  0021               	movlb	1	; select bank1
 10681  0BFF  0837               	movf	(low ((_I2C_Status| 0+23)))^(0+128),w
 10682  0C00  0086               	movwf	6
 10683  0C01  0187               	clrf	7
 10684  0C02  087A               	movf	??_I2C_DO_RX,w
 10685  0C03  0081               	movwf	1
 10686  0C04                     i1l4620:
 10687  0C04  3001               	movlw	1
 10688  0C05  00FA               	movwf	??_I2C_DO_RX
 10689  0C06  087A               	movf	??_I2C_DO_RX,w
 10690  0C07  07B7               	addwf	(low ((_I2C_Status| 0+23)))^(0+128),f
 10691  0C08                     i1l4622:
 10692                           
 10693                           ;mcc_generated_files/i2c_master.c: 383:     if(--I2C_Status.data_length)
 10694  0C08  3001               	movlw	1
 10695  0C09  02B8               	subwf	(_I2C_Status^(0+128)+24),f
 10696  0C0A  3000               	movlw	0
 10697  0C0B  3BB9               	subwfb	((_I2C_Status+1)^(0+128)+24),f
 10698  0C0C  0838               	movf	(_I2C_Status^(0+128)+24),w
 10699  0C0D  0439               	iorwf	((_I2C_Status+1)^(0+128)+24),w
 10700  0C0E  1903               	btfsc	3,2
 10701  0C0F  2C11               	goto	u268_21
 10702  0C10  2C12               	goto	u268_20
 10703  0C11                     u268_21:
 10704  0C11  2C17               	goto	i1l816
 10705  0C12                     u268_20:
 10706  0C12                     i1l4624:
 10707                           
 10708                           ;mcc_generated_files/i2c_master.c: 384:     {;mcc_generated_files/i2c_master.c: 385:    
      +                               I2C_MasterSendAck();
 10709  0C12  3188  209F  318B   	fcall	_I2C_MasterSendAck
 10710  0C15                     i1l4626:
 10711                           
 10712                           ;mcc_generated_files/i2c_master.c: 386:         return I2C_RCEN;
 10713  0C15  3005               	movlw	5
 10714  0C16  2C3F               	goto	i1l817
 10715  0C17                     i1l816:	
 10716                           ;mcc_generated_files/i2c_master.c: 388:     else
 10717                           
 10718                           
 10719                           ;mcc_generated_files/i2c_master.c: 389:     {;mcc_generated_files/i2c_master.c: 390:    
      +                               I2C_Status.bufferFree = 1;
 10720  0C17  15BC               	bsf	(_I2C_Status^(0+128)+28),3
 10721                           
 10722                           ;mcc_generated_files/i2c_master.c: 391:         switch(I2C_Status.callbackTable[I2C_DATA
      +                          _COMPLETE](I2C_Status.callbackPayload[I2C_DATA_COMPLETE]))
 10723  0C18  2C21               	goto	i1l4642
 10724  0C19                     i1l4632:
 10725                           
 10726                           ;mcc_generated_files/i2c_master.c: 395:                 return I2C_DO_RX_NACK_RESTART();
 10727  0C19  3188  20CF  318B   	fcall	_I2C_DO_RX_NACK_RESTART
 10728  0C1C  2C3F               	goto	i1l817
 10729  0C1D                     i1l4636:
 10730                           
 10731                           ;mcc_generated_files/i2c_master.c: 399:                 return I2C_DO_RX_NACK_STOP();
 10732  0C1D  3188  20CA  318B   	fcall	_I2C_DO_RX_NACK_STOP
 10733  0C20  2C3F               	goto	i1l817
 10734  0C21                     i1l4642:
 10735  0C21  082C               	movf	(low ((_I2C_Status| 0+12)))^(0+128),w
 10736  0C22  00FA               	movwf	??_I2C_DO_RX
 10737  0C23  087A               	movf	??_I2C_DO_RX,w
 10738  0C24  00F9               	movwf	I2C_CallbackReturnReset@funPtr
 10739  0C25  0821               	movf	(_I2C_Status+1)^(0+128),w
 10740  0C26  008A               	movwf	10
 10741  0C27  0820               	movf	_I2C_Status^(0+128),w
 10742  0C28  000A               	callw
 10743  0C29  318B               	pagesel	$
 10744  0C2A  00FB               	movwf	??_I2C_DO_RX+1
 10745  0C2B  01FC               	clrf	??_I2C_DO_RX+2
 10746                           
 10747                           ; Switch on 2 bytes has been partitioned into a top level switch of size 1, and 1 sub-sw
      +                          itches
 10748                           ; Switch size 1, requested type "simple"
 10749                           ; Number of cases is 1, Range of values is 0 to 0
 10750                           ; switch strategies available:
 10751                           ; Name         Instructions Cycles
 10752                           ; simple_byte            4     3 (average)
 10753                           ; direct_byte            8     6 (fixed)
 10754                           ; jumptable            260     6 (fixed)
 10755                           ;	Chosen strategy is simple_byte
 10756  0C2C  087C               	movf	??_I2C_DO_RX+2,w
 10757  0C2D  3A00               	xorlw	0	; case 0
 10758  0C2E  1903               	skipnz
 10759  0C2F  2C31               	goto	i1l6268
 10760  0C30  2C1D               	goto	i1l4636
 10761  0C31                     i1l6268:
 10762                           
 10763                           ; Switch size 1, requested type "simple"
 10764                           ; Number of cases is 4, Range of values is 1 to 4
 10765                           ; switch strategies available:
 10766                           ; Name         Instructions Cycles
 10767                           ; simple_byte           13     7 (average)
 10768                           ; direct_byte           17     9 (fixed)
 10769                           ; jumptable            263     9 (fixed)
 10770                           ;	Chosen strategy is simple_byte
 10771  0C31  087B               	movf	??_I2C_DO_RX+1,w
 10772  0C32  3A01               	xorlw	1	; case 1
 10773  0C33  1903               	skipnz
 10774  0C34  2C1D               	goto	i1l4636
 10775  0C35  3A03               	xorlw	3	; case 2
 10776  0C36  1903               	skipnz
 10777  0C37  2C19               	goto	i1l4632
 10778  0C38  3A01               	xorlw	1	; case 3
 10779  0C39  1903               	skipnz
 10780  0C3A  2C19               	goto	i1l4632
 10781  0C3B  3A07               	xorlw	7	; case 4
 10782  0C3C  1903               	skipnz
 10783  0C3D  2C1D               	goto	i1l4636
 10784  0C3E  2C1D               	goto	i1l4636
 10785  0C3F                     i1l817:
 10786  0C3F  0008               	return
 10787  0C40                     __end_of_I2C_DO_RX:
 10788                           
 10789                           	psect	text53
 10790  0C40                     __ptext53:	
 10791 ;; *************** function _I2C_DO_TX *****************
 10792 ;; Defined at:
 10793 ;;		line 356 in file "mcc_generated_files/i2c_master.c"
 10794 ;; Parameters:    Size  Location     Type
 10795 ;;		None
 10796 ;; Auto vars:     Size  Location     Type
 10797 ;;		None
 10798 ;; Return value:  Size  Location     Type
 10799 ;;                  1    wreg      enum E2728
 10800 ;; Registers used:
 10801 ;;		wreg, fsr0l, fsr0h, fsr1l, fsr1h, status,2, status,0, pclath, cstack
 10802 ;; Tracked objects:
 10803 ;;		On entry : 0/0
 10804 ;;		On exit  : 0/0
 10805 ;;		Unchanged: 0/0
 10806 ;; Data sizes:     COMMON  BANK0h   BANK1   BANK2   BANK3   BANK4   BANK5   BANK6   BANK7   BANK8   BANK9  BANK10  BANK1
      +1  BANK12
 10807 ;;      Params:         0       0       0       0       0       0       0       0       0       0       0       0       
      +0       0
 10808 ;;      Locals:         0       0       0       0       0       0       0       0       0       0       0       0       
      +0       0
 10809 ;;      Temps:          3       0       0       0       0       0       0       0       0       0       0       0       
      +0       0
 10810 ;;      Totals:         3       0       0       0       0       0       0       0       0       0       0       0       
      +0       0
 10811 ;;Total ram usage:        3 bytes
 10812 ;; Hardware stack levels used:    1
 10813 ;; Hardware stack levels required when called:    3
 10814 ;; This function calls:
 10815 ;;		Absolute function
 10816 ;;		_I2C_CallbackReturnReset
 10817 ;;		_I2C_CallbackReturnStop
 10818 ;;		_I2C_DO_SEND_RESTART_READ
 10819 ;;		_I2C_DO_SEND_RESTART_WRITE
 10820 ;;		_I2C_DO_SEND_STOP
 10821 ;;		_I2C_MasterIsNack
 10822 ;;		_I2C_MasterSendTxData
 10823 ;;		_rd1RegCompleteHandler
 10824 ;;		_rd2RegCompleteHandler
 10825 ;;		_rdBlkRegCompleteHandler
 10826 ;;		_wr1RegCompleteHandler
 10827 ;;		_wr2RegCompleteHandler
 10828 ;; This function is called by:
 10829 ;;		_I2C_MasterFsm
 10830 ;; This function uses a non-reentrant model
 10831 ;;
 10832                           
 10833                           
 10834                           ;psect for function _I2C_DO_TX
 10835  0C40                     _I2C_DO_TX:
 10836  0C40                     i1l4584:	
 10837                           ;incstack = 0
 10838                           ; Regs used in _I2C_DO_TX: [wreg-fsr1h+status,2+status,0+pclath+cstack]
 10839                           
 10840                           
 10841                           ;mcc_generated_files/i2c_master.c: 358:     if(I2C_MasterIsNack())
 10842  0C40  3188  20D9  318C   	fcall	_I2C_MasterIsNack
 10843  0C43  3A00               	xorlw	0
 10844  0C44  1903               	skipnz
 10845  0C45  2C47               	goto	u266_21
 10846  0C46  2C48               	goto	u266_20
 10847  0C47                     u266_21:
 10848  0C47  2C78               	goto	i1l800
 10849  0C48                     u266_20:
 10850  0C48  2C55               	goto	i1l4602
 10851  0C49                     i1l4588:
 10852                           
 10853                           ;mcc_generated_files/i2c_master.c: 363:                 return I2C_DO_SEND_RESTART_READ(
      +                          );
 10854  0C49  3188  20B1  318C   	fcall	_I2C_DO_SEND_RESTART_READ
 10855  0C4C  2C94               	goto	i1l803
 10856  0C4D                     i1l4592:
 10857                           
 10858                           ;mcc_generated_files/i2c_master.c: 365:                   return I2C_DO_SEND_RESTART_WRI
      +                          TE();
 10859  0C4D  3188  20B6  318C   	fcall	_I2C_DO_SEND_RESTART_WRITE
 10860  0C50  2C94               	goto	i1l803
 10861  0C51                     i1l4596:
 10862                           
 10863                           ;mcc_generated_files/i2c_master.c: 369:                 return I2C_DO_SEND_STOP();
 10864  0C51  3188  20C0  318C   	fcall	_I2C_DO_SEND_STOP
 10865  0C54  2C94               	goto	i1l803
 10866  0C55                     i1l4602:
 10867  0C55  0021               	movlb	1	; select bank1
 10868  0C56  082F               	movf	(low ((_I2C_Status| 0+15)))^(0+128),w
 10869  0C57  00FA               	movwf	??_I2C_DO_TX
 10870  0C58  087A               	movf	??_I2C_DO_TX,w
 10871  0C59  00F9               	movwf	I2C_CallbackReturnReset@funPtr
 10872  0C5A  3006               	movlw	6
 10873  0C5B  3EA0               	addlw	(low (_I2C_Status| 0))& (0+255)
 10874  0C5C  0086               	movwf	6
 10875  0C5D  0187               	clrf	7
 10876  0C5E  3F41               	moviw [1]fsr1
 10877  0C5F  008A               	movwf	10
 10878  0C60  3F40               	moviw [0]fsr1
 10879  0C61  000A               	callw
 10880  0C62  318C               	pagesel	$
 10881  0C63  00FB               	movwf	??_I2C_DO_TX+1
 10882  0C64  01FC               	clrf	??_I2C_DO_TX+2
 10883                           
 10884                           ; Switch on 2 bytes has been partitioned into a top level switch of size 1, and 1 sub-sw
      +                          itches
 10885                           ; Switch size 1, requested type "simple"
 10886                           ; Number of cases is 1, Range of values is 0 to 0
 10887                           ; switch strategies available:
 10888                           ; Name         Instructions Cycles
 10889                           ; simple_byte            4     3 (average)
 10890                           ; direct_byte            8     6 (fixed)
 10891                           ; jumptable            260     6 (fixed)
 10892                           ;	Chosen strategy is simple_byte
 10893  0C65  087C               	movf	??_I2C_DO_TX+2,w
 10894  0C66  3A00               	xorlw	0	; case 0
 10895  0C67  1903               	skipnz
 10896  0C68  2C6A               	goto	i1l6270
 10897  0C69  2C51               	goto	i1l4596
 10898  0C6A                     i1l6270:
 10899                           
 10900                           ; Switch size 1, requested type "simple"
 10901                           ; Number of cases is 4, Range of values is 1 to 4
 10902                           ; switch strategies available:
 10903                           ; Name         Instructions Cycles
 10904                           ; simple_byte           13     7 (average)
 10905                           ; direct_byte           17     9 (fixed)
 10906                           ; jumptable            263     9 (fixed)
 10907                           ;	Chosen strategy is simple_byte
 10908  0C6A  087B               	movf	??_I2C_DO_TX+1,w
 10909  0C6B  3A01               	xorlw	1	; case 1
 10910  0C6C  1903               	skipnz
 10911  0C6D  2C51               	goto	i1l4596
 10912  0C6E  3A03               	xorlw	3	; case 2
 10913  0C6F  1903               	skipnz
 10914  0C70  2C49               	goto	i1l4588
 10915  0C71  3A01               	xorlw	1	; case 3
 10916  0C72  1903               	skipnz
 10917  0C73  2C4D               	goto	i1l4592
 10918  0C74  3A07               	xorlw	7	; case 4
 10919  0C75  1903               	skipnz
 10920  0C76  2C51               	goto	i1l4596
 10921  0C77  2C51               	goto	i1l4596
 10922  0C78                     i1l800:	
 10923                           ;mcc_generated_files/i2c_master.c: 372:     else
 10924                           
 10925                           
 10926                           ;mcc_generated_files/i2c_master.c: 373:     {;mcc_generated_files/i2c_master.c: 374:    
      +                               I2C_Status.addressNackCheck = 0;
 10927  0C78  0021               	movlb	1	; select bank1
 10928  0C79  103C               	bcf	(_I2C_Status^(0+128)+28),0
 10929  0C7A                     i1l4604:
 10930                           
 10931                           ;mcc_generated_files/i2c_master.c: 375:         I2C_MasterSendTxData(*I2C_Status.data_pt
      +                          r++);
 10932  0C7A  3017               	movlw	23
 10933  0C7B  3EA0               	addlw	(low (_I2C_Status| 0))& (0+255)
 10934  0C7C  0086               	movwf	6
 10935  0C7D  0187               	clrf	7
 10936  0C7E  3F40               	moviw [0]fsr1
 10937  0C7F  0084               	movwf	4
 10938  0C80  0185               	clrf	5
 10939  0C81  0A81               	incf	1,f
 10940  0C82  0800               	movf	0,w
 10941  0C83  3188  20A7  318C   	fcall	_I2C_MasterSendTxData
 10942  0C86                     i1l4606:
 10943                           
 10944                           ;mcc_generated_files/i2c_master.c: 376:         return (--I2C_Status.data_length)?I2C_TX
      +                          :I2C_TX_EMPTY;
 10945  0C86  3001               	movlw	1
 10946  0C87  0021               	movlb	1	; select bank1
 10947  0C88  02B8               	subwf	(_I2C_Status^(0+128)+24),f
 10948  0C89  3000               	movlw	0
 10949  0C8A  3BB9               	subwfb	((_I2C_Status+1)^(0+128)+24),f
 10950  0C8B  0838               	movf	(_I2C_Status^(0+128)+24),w
 10951  0C8C  0439               	iorwf	((_I2C_Status+1)^(0+128)+24),w
 10952  0C8D  1D03               	btfss	3,2
 10953  0C8E  2C90               	goto	u267_21
 10954  0C8F  2C91               	goto	u267_20
 10955  0C90                     u267_21:
 10956  0C90  2C93               	goto	i1l4610
 10957  0C91                     u267_20:
 10958  0C91                     i1l4608:
 10959  0C91  3006               	movlw	6
 10960  0C92  2C94               	goto	i1l803
 10961  0C93                     i1l4610:
 10962  0C93  3003               	movlw	3
 10963  0C94                     i1l803:
 10964  0C94  0008               	return
 10965  0C95                     __end_of_I2C_DO_TX:
 10966                           
 10967                           	psect	text54
 10968  08F8                     __ptext54:	
 10969 ;; *************** function _I2C_DO_SEND_ADR_WRITE *****************
 10970 ;; Defined at:
 10971 ;;		line 349 in file "mcc_generated_files/i2c_master.c"
 10972 ;; Parameters:    Size  Location     Type
 10973 ;;		None
 10974 ;; Auto vars:     Size  Location     Type
 10975 ;;		None
 10976 ;; Return value:  Size  Location     Type
 10977 ;;                  1    wreg      enum E2728
 10978 ;; Registers used:
 10979 ;;		wreg, status,2, status,0, pclath, cstack
 10980 ;; Tracked objects:
 10981 ;;		On entry : 0/0
 10982 ;;		On exit  : 0/0
 10983 ;;		Unchanged: 0/0
 10984 ;; Data sizes:     COMMON  BANK0h   BANK1   BANK2   BANK3   BANK4   BANK5   BANK6   BANK7   BANK8   BANK9  BANK10  BANK1
      +1  BANK12
 10985 ;;      Params:         0       0       0       0       0       0       0       0       0       0       0       0       
      +0       0
 10986 ;;      Locals:         0       0       0       0       0       0       0       0       0       0       0       0       
      +0       0
 10987 ;;      Temps:          0       0       0       0       0       0       0       0       0       0       0       0       
      +0       0
 10988 ;;      Totals:         0       0       0       0       0       0       0       0       0       0       0       0       
      +0       0
 10989 ;;Total ram usage:        0 bytes
 10990 ;; Hardware stack levels used:    1
 10991 ;; Hardware stack levels required when called:    1
 10992 ;; This function calls:
 10993 ;;		_I2C_MasterSendTxData
 10994 ;; This function is called by:
 10995 ;;		_I2C_MasterFsm
 10996 ;; This function uses a non-reentrant model
 10997 ;;
 10998                           
 10999                           
 11000                           ;psect for function _I2C_DO_SEND_ADR_WRITE
 11001  08F8                     _I2C_DO_SEND_ADR_WRITE:
 11002  08F8                     i1l4576:	
 11003                           ;incstack = 0
 11004                           ; Regs used in _I2C_DO_SEND_ADR_WRITE: [wreg+status,2+status,0+pclath+cstack]
 11005                           
 11006                           
 11007                           ;mcc_generated_files/i2c_master.c: 351:     I2C_Status.addressNackCheck = 1;
 11008  08F8  0021               	movlb	1	; select bank1
 11009  08F9  143C               	bsf	(_I2C_Status^(0+128)+28),0
 11010  08FA                     i1l4578:
 11011                           
 11012                           ;mcc_generated_files/i2c_master.c: 352:     I2C_MasterSendTxData((uint8_t) (I2C_Status.a
      +                          ddress << 1));
 11013  08FA  3536               	lslf	(_I2C_Status^(0+128)+22),w
 11014  08FB  3188  20A7  3188   	fcall	_I2C_MasterSendTxData
 11015  08FE                     i1l4580:
 11016                           
 11017                           ;mcc_generated_files/i2c_master.c: 353:     return I2C_TX;
 11018  08FE  3003               	movlw	3
 11019  08FF                     i1l797:
 11020  08FF  0008               	return
 11021  0900                     __end_of_I2C_DO_SEND_ADR_WRITE:
 11022                           
 11023                           	psect	text55
 11024  0908                     __ptext55:	
 11025 ;; *************** function _I2C_DO_SEND_ADR_READ *****************
 11026 ;; Defined at:
 11027 ;;		line 342 in file "mcc_generated_files/i2c_master.c"
 11028 ;; Parameters:    Size  Location     Type
 11029 ;;		None
 11030 ;; Auto vars:     Size  Location     Type
 11031 ;;		None
 11032 ;; Return value:  Size  Location     Type
 11033 ;;                  1    wreg      enum E2728
 11034 ;; Registers used:
 11035 ;;		wreg, status,2, status,0, pclath, cstack
 11036 ;; Tracked objects:
 11037 ;;		On entry : 0/0
 11038 ;;		On exit  : 0/0
 11039 ;;		Unchanged: 0/0
 11040 ;; Data sizes:     COMMON  BANK0h   BANK1   BANK2   BANK3   BANK4   BANK5   BANK6   BANK7   BANK8   BANK9  BANK10  BANK1
      +1  BANK12
 11041 ;;      Params:         0       0       0       0       0       0       0       0       0       0       0       0       
      +0       0
 11042 ;;      Locals:         0       0       0       0       0       0       0       0       0       0       0       0       
      +0       0
 11043 ;;      Temps:          0       0       0       0       0       0       0       0       0       0       0       0       
      +0       0
 11044 ;;      Totals:         0       0       0       0       0       0       0       0       0       0       0       0       
      +0       0
 11045 ;;Total ram usage:        0 bytes
 11046 ;; Hardware stack levels used:    1
 11047 ;; Hardware stack levels required when called:    1
 11048 ;; This function calls:
 11049 ;;		_I2C_MasterSendTxData
 11050 ;; This function is called by:
 11051 ;;		_I2C_MasterFsm
 11052 ;; This function uses a non-reentrant model
 11053 ;;
 11054                           
 11055                           
 11056                           ;psect for function _I2C_DO_SEND_ADR_READ
 11057  0908                     _I2C_DO_SEND_ADR_READ:
 11058  0908                     i1l4568:	
 11059                           ;incstack = 0
 11060                           ; Regs used in _I2C_DO_SEND_ADR_READ: [wreg+status,2+status,0+pclath+cstack]
 11061                           
 11062                           
 11063                           ;mcc_generated_files/i2c_master.c: 344:     I2C_Status.addressNackCheck = 1;
 11064  0908  0021               	movlb	1	; select bank1
 11065  0909  143C               	bsf	(_I2C_Status^(0+128)+28),0
 11066  090A                     i1l4570:
 11067                           
 11068                           ;mcc_generated_files/i2c_master.c: 345:     I2C_MasterSendTxData((uint8_t) (I2C_Status.a
      +                          ddress << 1 | 1));
 11069  090A  1403               	setc
 11070  090B  0D36               	rlf	(_I2C_Status^(0+128)+22),w
 11071  090C  3188  20A7  3189   	fcall	_I2C_MasterSendTxData
 11072  090F                     i1l4572:
 11073                           
 11074                           ;mcc_generated_files/i2c_master.c: 346:     return I2C_RCEN;
 11075  090F  3005               	movlw	5
 11076  0910                     i1l794:
 11077  0910  0008               	return
 11078  0911                     __end_of_I2C_DO_SEND_ADR_READ:
 11079                           
 11080                           	psect	text56
 11081  08AC                     __ptext56:	
 11082 ;; *************** function _I2C_DO_IDLE *****************
 11083 ;; Defined at:
 11084 ;;		line 335 in file "mcc_generated_files/i2c_master.c"
 11085 ;; Parameters:    Size  Location     Type
 11086 ;;		None
 11087 ;; Auto vars:     Size  Location     Type
 11088 ;;		None
 11089 ;; Return value:  Size  Location     Type
 11090 ;;                  1    wreg      enum E2728
 11091 ;; Registers used:
 11092 ;;		wreg, status,2
 11093 ;; Tracked objects:
 11094 ;;		On entry : 0/0
 11095 ;;		On exit  : 0/0
 11096 ;;		Unchanged: 0/0
 11097 ;; Data sizes:     COMMON  BANK0h   BANK1   BANK2   BANK3   BANK4   BANK5   BANK6   BANK7   BANK8   BANK9  BANK10  BANK1
      +1  BANK12
 11098 ;;      Params:         0       0       0       0       0       0       0       0       0       0       0       0       
      +0       0
 11099 ;;      Locals:         0       0       0       0       0       0       0       0       0       0       0       0       
      +0       0
 11100 ;;      Temps:          0       0       0       0       0       0       0       0       0       0       0       0       
      +0       0
 11101 ;;      Totals:         0       0       0       0       0       0       0       0       0       0       0       0       
      +0       0
 11102 ;;Total ram usage:        0 bytes
 11103 ;; Hardware stack levels used:    1
 11104 ;; This function calls:
 11105 ;;		Nothing
 11106 ;; This function is called by:
 11107 ;;		_I2C_MasterFsm
 11108 ;; This function uses a non-reentrant model
 11109 ;;
 11110                           
 11111                           
 11112                           ;psect for function _I2C_DO_IDLE
 11113  08AC                     _I2C_DO_IDLE:
 11114  08AC                     i1l4560:	
 11115                           ;incstack = 0
 11116                           ; Regs used in _I2C_DO_IDLE: [wreg+status,2]
 11117                           
 11118                           
 11119                           ;mcc_generated_files/i2c_master.c: 337:     I2C_Status.busy = 0;
 11120  08AC  0021               	movlb	1	; select bank1
 11121  08AD  10BC               	bcf	(_I2C_Status^(0+128)+28),1
 11122  08AE                     i1l4562:
 11123                           
 11124                           ;mcc_generated_files/i2c_master.c: 338:     I2C_Status.error = I2C_NOERR;
 11125  08AE  01BB               	clrf	(_I2C_Status^(0+128)+27)
 11126  08AF                     i1l4564:
 11127                           
 11128                           ;mcc_generated_files/i2c_master.c: 339:     return I2C_RESET;
 11129  08AF  300E               	movlw	14
 11130  08B0                     i1l791:
 11131  08B0  0008               	return
 11132  08B1                     __end_of_I2C_DO_IDLE:
 11133                           
 11134                           	psect	text57
 11135  0B91                     __ptext57:	
 11136 ;; *************** function _I2C_DO_TX_EMPTY *****************
 11137 ;; Defined at:
 11138 ;;		line 411 in file "mcc_generated_files/i2c_master.c"
 11139 ;; Parameters:    Size  Location     Type
 11140 ;;		None
 11141 ;; Auto vars:     Size  Location     Type
 11142 ;;		None
 11143 ;; Return value:  Size  Location     Type
 11144 ;;                  1    wreg      enum E2728
 11145 ;; Registers used:
 11146 ;;		wreg, fsr0l, fsr0h, fsr1l, fsr1h, status,2, status,0, pclath, cstack
 11147 ;; Tracked objects:
 11148 ;;		On entry : 0/0
 11149 ;;		On exit  : 0/0
 11150 ;;		Unchanged: 0/0
 11151 ;; Data sizes:     COMMON  BANK0h   BANK1   BANK2   BANK3   BANK4   BANK5   BANK6   BANK7   BANK8   BANK9  BANK10  BANK1
      +1  BANK12
 11152 ;;      Params:         0       0       0       0       0       0       0       0       0       0       0       0       
      +0       0
 11153 ;;      Locals:         0       0       0       0       0       0       0       0       0       0       0       0       
      +0       0
 11154 ;;      Temps:          3       0       0       0       0       0       0       0       0       0       0       0       
      +0       0
 11155 ;;      Totals:         3       0       0       0       0       0       0       0       0       0       0       0       
      +0       0
 11156 ;;Total ram usage:        3 bytes
 11157 ;; Hardware stack levels used:    1
 11158 ;; Hardware stack levels required when called:    3
 11159 ;; This function calls:
 11160 ;;		Absolute function
 11161 ;;		_I2C_CallbackReturnReset
 11162 ;;		_I2C_CallbackReturnStop
 11163 ;;		_I2C_DO_SEND_RESTART
 11164 ;;		_I2C_DO_SEND_STOP
 11165 ;;		_I2C_MasterSetIrq
 11166 ;;		_rd1RegCompleteHandler
 11167 ;;		_rd2RegCompleteHandler
 11168 ;;		_rdBlkRegCompleteHandler
 11169 ;;		_wr1RegCompleteHandler
 11170 ;;		_wr2RegCompleteHandler
 11171 ;; This function is called by:
 11172 ;;		_I2C_MasterFsm
 11173 ;; This function uses a non-reentrant model
 11174 ;;
 11175                           
 11176                           
 11177                           ;psect for function _I2C_DO_TX_EMPTY
 11178  0B91                     _I2C_DO_TX_EMPTY:
 11179  0B91                     i1l4658:	
 11180                           ;incstack = 0
 11181                           ; Regs used in _I2C_DO_TX_EMPTY: [wreg-fsr1h+status,2+status,0+pclath+cstack]
 11182                           
 11183                           
 11184                           ;mcc_generated_files/i2c_master.c: 413:     I2C_Status.bufferFree = 1;
 11185  0B91  0021               	movlb	1	; select bank1
 11186  0B92  15BC               	bsf	(_I2C_Status^(0+128)+28),3
 11187                           
 11188                           ;mcc_generated_files/i2c_master.c: 414:     switch(I2C_Status.callbackTable[I2C_DATA_COM
      +                          PLETE](I2C_Status.callbackPayload[I2C_DATA_COMPLETE]))
 11189  0B93  2BA1               	goto	i1l4676
 11190  0B94                     i1l4660:
 11191                           
 11192                           ;mcc_generated_files/i2c_master.c: 418:             return I2C_DO_SEND_RESTART();
 11193  0B94  3188  20BB  318B   	fcall	_I2C_DO_SEND_RESTART
 11194  0B97  2BBF               	goto	i1l834
 11195  0B98                     i1l4664:
 11196                           
 11197                           ;mcc_generated_files/i2c_master.c: 420:             I2C_MasterSetIrq();
 11198  0B98  3188  2095  318B   	fcall	_I2C_MasterSetIrq
 11199  0B9B                     i1l4666:
 11200                           
 11201                           ;mcc_generated_files/i2c_master.c: 421:             return I2C_TX;
 11202  0B9B  3003               	movlw	3
 11203  0B9C  2BBF               	goto	i1l834
 11204  0B9D                     i1l4670:
 11205                           
 11206                           ;mcc_generated_files/i2c_master.c: 424:             return I2C_DO_SEND_STOP();
 11207  0B9D  3188  20C0  318B   	fcall	_I2C_DO_SEND_STOP
 11208  0BA0  2BBF               	goto	i1l834
 11209  0BA1                     i1l4676:
 11210  0BA1  082C               	movf	(low ((_I2C_Status| 0+12)))^(0+128),w
 11211  0BA2  00FA               	movwf	??_I2C_DO_TX_EMPTY
 11212  0BA3  087A               	movf	??_I2C_DO_TX_EMPTY,w
 11213  0BA4  00F9               	movwf	I2C_CallbackReturnReset@funPtr
 11214  0BA5  0821               	movf	(_I2C_Status+1)^(0+128),w
 11215  0BA6  008A               	movwf	10
 11216  0BA7  0820               	movf	_I2C_Status^(0+128),w
 11217  0BA8  000A               	callw
 11218  0BA9  318B               	pagesel	$
 11219  0BAA  00FB               	movwf	??_I2C_DO_TX_EMPTY+1
 11220  0BAB  01FC               	clrf	??_I2C_DO_TX_EMPTY+2
 11221                           
 11222                           ; Switch on 2 bytes has been partitioned into a top level switch of size 1, and 1 sub-sw
      +                          itches
 11223                           ; Switch size 1, requested type "simple"
 11224                           ; Number of cases is 1, Range of values is 0 to 0
 11225                           ; switch strategies available:
 11226                           ; Name         Instructions Cycles
 11227                           ; simple_byte            4     3 (average)
 11228                           ; direct_byte            8     6 (fixed)
 11229                           ; jumptable            260     6 (fixed)
 11230                           ;	Chosen strategy is simple_byte
 11231  0BAC  087C               	movf	??_I2C_DO_TX_EMPTY+2,w
 11232  0BAD  3A00               	xorlw	0	; case 0
 11233  0BAE  1903               	skipnz
 11234  0BAF  2BB1               	goto	i1l6272
 11235  0BB0  2B9D               	goto	i1l4670
 11236  0BB1                     i1l6272:
 11237                           
 11238                           ; Switch size 1, requested type "simple"
 11239                           ; Number of cases is 4, Range of values is 1 to 4
 11240                           ; switch strategies available:
 11241                           ; Name         Instructions Cycles
 11242                           ; simple_byte           13     7 (average)
 11243                           ; direct_byte           17     9 (fixed)
 11244                           ; jumptable            263     9 (fixed)
 11245                           ;	Chosen strategy is simple_byte
 11246  0BB1  087B               	movf	??_I2C_DO_TX_EMPTY+1,w
 11247  0BB2  3A01               	xorlw	1	; case 1
 11248  0BB3  1903               	skipnz
 11249  0BB4  2B9D               	goto	i1l4670
 11250  0BB5  3A03               	xorlw	3	; case 2
 11251  0BB6  1903               	skipnz
 11252  0BB7  2B94               	goto	i1l4660
 11253  0BB8  3A01               	xorlw	1	; case 3
 11254  0BB9  1903               	skipnz
 11255  0BBA  2B94               	goto	i1l4660
 11256  0BBB  3A07               	xorlw	7	; case 4
 11257  0BBC  1903               	skipnz
 11258  0BBD  2B98               	goto	i1l4664
 11259  0BBE  2B9D               	goto	i1l4670
 11260  0BBF                     i1l834:
 11261  0BBF  0008               	return
 11262  0BC0                     __end_of_I2C_DO_TX_EMPTY:
 11263                           
 11264                           	psect	text58
 11265  0895                     __ptext58:	
 11266 ;; *************** function _I2C_MasterSetIrq *****************
 11267 ;; Defined at:
 11268 ;;		line 647 in file "mcc_generated_files/i2c_master.c"
 11269 ;; Parameters:    Size  Location     Type
 11270 ;;		None
 11271 ;; Auto vars:     Size  Location     Type
 11272 ;;		None
 11273 ;; Return value:  Size  Location     Type
 11274 ;;                  1    wreg      void 
 11275 ;; Registers used:
 11276 ;;		None
 11277 ;; Tracked objects:
 11278 ;;		On entry : 0/0
 11279 ;;		On exit  : 0/0
 11280 ;;		Unchanged: 0/0
 11281 ;; Data sizes:     COMMON  BANK0h   BANK1   BANK2   BANK3   BANK4   BANK5   BANK6   BANK7   BANK8   BANK9  BANK10  BANK1
      +1  BANK12
 11282 ;;      Params:         0       0       0       0       0       0       0       0       0       0       0       0       
      +0       0
 11283 ;;      Locals:         0       0       0       0       0       0       0       0       0       0       0       0       
      +0       0
 11284 ;;      Temps:          0       0       0       0       0       0       0       0       0       0       0       0       
      +0       0
 11285 ;;      Totals:         0       0       0       0       0       0       0       0       0       0       0       0       
      +0       0
 11286 ;;Total ram usage:        0 bytes
 11287 ;; Hardware stack levels used:    1
 11288 ;; This function calls:
 11289 ;;		Nothing
 11290 ;; This function is called by:
 11291 ;;		_I2C_DO_TX_EMPTY
 11292 ;; This function uses a non-reentrant model
 11293 ;;
 11294                           
 11295                           
 11296                           ;psect for function _I2C_MasterSetIrq
 11297  0895                     _I2C_MasterSetIrq:
 11298  0895                     i1l4456:	
 11299                           ;incstack = 0
 11300                           ; Regs used in _I2C_MasterSetIrq: []
 11301                           
 11302                           
 11303                           ;mcc_generated_files/i2c_master.c: 649:     PIR1bits.SSP1IF = 1;
 11304  0895  0020               	movlb	0	; select bank0
 11305  0896  1591               	bsf	17,3	;volatile
 11306  0897                     i1l954:
 11307  0897  0008               	return
 11308  0898                     __end_of_I2C_MasterSetIrq:
 11309                           
 11310                           	psect	text59
 11311  08D9                     __ptext59:	
 11312 ;; *************** function _I2C_MasterIsNack *****************
 11313 ;; Defined at:
 11314 ;;		line 599 in file "mcc_generated_files/i2c_master.c"
 11315 ;; Parameters:    Size  Location     Type
 11316 ;;		None
 11317 ;; Auto vars:     Size  Location     Type
 11318 ;;		None
 11319 ;; Return value:  Size  Location     Type
 11320 ;;                  1    wreg      _Bool 
 11321 ;; Registers used:
 11322 ;;		wreg, status,2, status,0
 11323 ;; Tracked objects:
 11324 ;;		On entry : 0/0
 11325 ;;		On exit  : 0/0
 11326 ;;		Unchanged: 0/0
 11327 ;; Data sizes:     COMMON  BANK0h   BANK1   BANK2   BANK3   BANK4   BANK5   BANK6   BANK7   BANK8   BANK9  BANK10  BANK1
      +1  BANK12
 11328 ;;      Params:         0       0       0       0       0       0       0       0       0       0       0       0       
      +0       0
 11329 ;;      Locals:         0       0       0       0       0       0       0       0       0       0       0       0       
      +0       0
 11330 ;;      Temps:          0       0       0       0       0       0       0       0       0       0       0       0       
      +0       0
 11331 ;;      Totals:         0       0       0       0       0       0       0       0       0       0       0       0       
      +0       0
 11332 ;;Total ram usage:        0 bytes
 11333 ;; Hardware stack levels used:    1
 11334 ;; This function calls:
 11335 ;;		Nothing
 11336 ;; This function is called by:
 11337 ;;		_I2C_MasterFsm
 11338 ;;		_I2C_DO_TX
 11339 ;; This function uses a non-reentrant model
 11340 ;;
 11341                           
 11342                           
 11343                           ;psect for function _I2C_MasterIsNack
 11344  08D9                     _I2C_MasterIsNack:
 11345  08D9                     i1l4406:	
 11346                           ;incstack = 0
 11347                           ; Regs used in _I2C_MasterIsNack: [wreg+status,2+status,0]
 11348                           
 11349                           
 11350                           ;mcc_generated_files/i2c_master.c: 601:     return SSP1CON2bits.ACKSTAT;
 11351  08D9  0024               	movlb	4	; select bank4
 11352  08DA  0E16               	swapf	22,w	;volatile
 11353  08DB  0C89               	rrf	9,f
 11354  08DC  0C89               	rrf	9,f
 11355  08DD  3901               	andlw	1
 11356  08DE                     i1l927:
 11357  08DE  0008               	return
 11358  08DF                     __end_of_I2C_MasterIsNack:
 11359                           
 11360                           	psect	text60
 11361  08A7                     __ptext60:	
 11362 ;; *************** function _I2C_MasterSendTxData *****************
 11363 ;; Defined at:
 11364 ;;		line 569 in file "mcc_generated_files/i2c_master.c"
 11365 ;; Parameters:    Size  Location     Type
 11366 ;;  data            1    wreg     unsigned char 
 11367 ;; Auto vars:     Size  Location     Type
 11368 ;;  data            1    0[COMMON] unsigned char 
 11369 ;; Return value:  Size  Location     Type
 11370 ;;                  1    wreg      void 
 11371 ;; Registers used:
 11372 ;;		wreg
 11373 ;; Tracked objects:
 11374 ;;		On entry : 0/0
 11375 ;;		On exit  : 0/0
 11376 ;;		Unchanged: 0/0
 11377 ;; Data sizes:     COMMON  BANK0h   BANK1   BANK2   BANK3   BANK4   BANK5   BANK6   BANK7   BANK8   BANK9  BANK10  BANK1
      +1  BANK12
 11378 ;;      Params:         0       0       0       0       0       0       0       0       0       0       0       0       
      +0       0
 11379 ;;      Locals:         1       0       0       0       0       0       0       0       0       0       0       0       
      +0       0
 11380 ;;      Temps:          0       0       0       0       0       0       0       0       0       0       0       0       
      +0       0
 11381 ;;      Totals:         1       0       0       0       0       0       0       0       0       0       0       0       
      +0       0
 11382 ;;Total ram usage:        1 bytes
 11383 ;; Hardware stack levels used:    1
 11384 ;; This function calls:
 11385 ;;		Nothing
 11386 ;; This function is called by:
 11387 ;;		_I2C_DO_SEND_ADR_READ
 11388 ;;		_I2C_DO_SEND_ADR_WRITE
 11389 ;;		_I2C_DO_TX
 11390 ;; This function uses a non-reentrant model
 11391 ;;
 11392                           
 11393                           
 11394                           ;psect for function _I2C_MasterSendTxData
 11395  08A7                     _I2C_MasterSendTxData:
 11396                           
 11397                           ;incstack = 0
 11398                           ; Regs used in _I2C_MasterSendTxData: [wreg]
 11399                           ;I2C_MasterSendTxData@data stored from wreg
 11400  08A7  00F0               	movwf	I2C_MasterSendTxData@data
 11401  08A8                     i1l4410:
 11402                           
 11403                           ;mcc_generated_files/i2c_master.c: 569: static __attribute__((inline)) void I2C_MasterSe
      +                          ndTxData(uint8_t data);mcc_generated_files/i2c_master.c: 570: {;mcc_generated_files/i2c_
      +                          master.c: 571:     SSP1BUF = data;
 11404  08A8  0870               	movf	I2C_MasterSendTxData@data,w
 11405  08A9  0024               	movlb	4	; select bank4
 11406  08AA  0091               	movwf	17	;volatile
 11407  08AB                     i1l909:
 11408  08AB  0008               	return
 11409  08AC                     __end_of_I2C_MasterSendTxData:
 11410                           
 11411                           	psect	text61
 11412  089F                     __ptext61:	
 11413 ;; *************** function _I2C_MasterSendAck *****************
 11414 ;; Defined at:
 11415 ;;		line 604 in file "mcc_generated_files/i2c_master.c"
 11416 ;; Parameters:    Size  Location     Type
 11417 ;;		None
 11418 ;; Auto vars:     Size  Location     Type
 11419 ;;		None
 11420 ;; Return value:  Size  Location     Type
 11421 ;;                  1    wreg      void 
 11422 ;; Registers used:
 11423 ;;		None
 11424 ;; Tracked objects:
 11425 ;;		On entry : 0/0
 11426 ;;		On exit  : 0/0
 11427 ;;		Unchanged: 0/0
 11428 ;; Data sizes:     COMMON  BANK0h   BANK1   BANK2   BANK3   BANK4   BANK5   BANK6   BANK7   BANK8   BANK9  BANK10  BANK1
      +1  BANK12
 11429 ;;      Params:         0       0       0       0       0       0       0       0       0       0       0       0       
      +0       0
 11430 ;;      Locals:         0       0       0       0       0       0       0       0       0       0       0       0       
      +0       0
 11431 ;;      Temps:          0       0       0       0       0       0       0       0       0       0       0       0       
      +0       0
 11432 ;;      Totals:         0       0       0       0       0       0       0       0       0       0       0       0       
      +0       0
 11433 ;;Total ram usage:        0 bytes
 11434 ;; Hardware stack levels used:    1
 11435 ;; This function calls:
 11436 ;;		Nothing
 11437 ;; This function is called by:
 11438 ;;		_I2C_DO_RX
 11439 ;;		_I2C_DO_RX_ACK
 11440 ;; This function uses a non-reentrant model
 11441 ;;
 11442                           
 11443                           
 11444                           ;psect for function _I2C_MasterSendAck
 11445  089F                     _I2C_MasterSendAck:
 11446  089F                     i1l4434:	
 11447                           ;incstack = 0
 11448                           ; Regs used in _I2C_MasterSendAck: []
 11449                           
 11450                           
 11451                           ;mcc_generated_files/i2c_master.c: 606:     SSP1CON2bits.ACKDT = 0;
 11452  089F  0024               	movlb	4	; select bank4
 11453  08A0  1296               	bcf	22,5	;volatile
 11454                           
 11455                           ;mcc_generated_files/i2c_master.c: 607:     SSP1CON2bits.ACKEN = 1;
 11456  08A1  1616               	bsf	22,4	;volatile
 11457  08A2                     i1l930:
 11458  08A2  0008               	return
 11459  08A3                     __end_of_I2C_MasterSendAck:
 11460                           
 11461                           	psect	text62
 11462  0892                     __ptext62:	
 11463 ;; *************** function _I2C_MasterGetRxData *****************
 11464 ;; Defined at:
 11465 ;;		line 564 in file "mcc_generated_files/i2c_master.c"
 11466 ;; Parameters:    Size  Location     Type
 11467 ;;		None
 11468 ;; Auto vars:     Size  Location     Type
 11469 ;;		None
 11470 ;; Return value:  Size  Location     Type
 11471 ;;                  1    wreg      unsigned char 
 11472 ;; Registers used:
 11473 ;;		wreg
 11474 ;; Tracked objects:
 11475 ;;		On entry : 0/0
 11476 ;;		On exit  : 0/0
 11477 ;;		Unchanged: 0/0
 11478 ;; Data sizes:     COMMON  BANK0h   BANK1   BANK2   BANK3   BANK4   BANK5   BANK6   BANK7   BANK8   BANK9  BANK10  BANK1
      +1  BANK12
 11479 ;;      Params:         0       0       0       0       0       0       0       0       0       0       0       0       
      +0       0
 11480 ;;      Locals:         0       0       0       0       0       0       0       0       0       0       0       0       
      +0       0
 11481 ;;      Temps:          0       0       0       0       0       0       0       0       0       0       0       0       
      +0       0
 11482 ;;      Totals:         0       0       0       0       0       0       0       0       0       0       0       0       
      +0       0
 11483 ;;Total ram usage:        0 bytes
 11484 ;; Hardware stack levels used:    1
 11485 ;; This function calls:
 11486 ;;		Nothing
 11487 ;; This function is called by:
 11488 ;;		_I2C_DO_RX
 11489 ;; This function uses a non-reentrant model
 11490 ;;
 11491                           
 11492                           
 11493                           ;psect for function _I2C_MasterGetRxData
 11494  0892                     _I2C_MasterGetRxData:
 11495  0892                     i1l4430:	
 11496                           ;incstack = 0
 11497                           ; Regs used in _I2C_MasterGetRxData: [wreg]
 11498                           
 11499                           
 11500                           ;mcc_generated_files/i2c_master.c: 566:     return SSP1BUF;
 11501  0892  0024               	movlb	4	; select bank4
 11502  0893  0811               	movf	17,w	;volatile
 11503  0894                     i1l906:
 11504  0894  0008               	return
 11505  0895                     __end_of_I2C_MasterGetRxData:
 11506                           
 11507                           	psect	text63
 11508  089B                     __ptext63:	
 11509 ;; *************** function _I2C_MasterSendNack *****************
 11510 ;; Defined at:
 11511 ;;		line 610 in file "mcc_generated_files/i2c_master.c"
 11512 ;; Parameters:    Size  Location     Type
 11513 ;;		None
 11514 ;; Auto vars:     Size  Location     Type
 11515 ;;		None
 11516 ;; Return value:  Size  Location     Type
 11517 ;;                  1    wreg      void 
 11518 ;; Registers used:
 11519 ;;		None
 11520 ;; Tracked objects:
 11521 ;;		On entry : 0/0
 11522 ;;		On exit  : 0/0
 11523 ;;		Unchanged: 0/0
 11524 ;; Data sizes:     COMMON  BANK0h   BANK1   BANK2   BANK3   BANK4   BANK5   BANK6   BANK7   BANK8   BANK9  BANK10  BANK1
      +1  BANK12
 11525 ;;      Params:         0       0       0       0       0       0       0       0       0       0       0       0       
      +0       0
 11526 ;;      Locals:         0       0       0       0       0       0       0       0       0       0       0       0       
      +0       0
 11527 ;;      Temps:          0       0       0       0       0       0       0       0       0       0       0       0       
      +0       0
 11528 ;;      Totals:         0       0       0       0       0       0       0       0       0       0       0       0       
      +0       0
 11529 ;;Total ram usage:        0 bytes
 11530 ;; Hardware stack levels used:    1
 11531 ;; This function calls:
 11532 ;;		Nothing
 11533 ;; This function is called by:
 11534 ;;		_I2C_DO_RX_NACK_STOP
 11535 ;;		_I2C_DO_RX_NACK_RESTART
 11536 ;; This function uses a non-reentrant model
 11537 ;;
 11538                           
 11539                           
 11540                           ;psect for function _I2C_MasterSendNack
 11541  089B                     _I2C_MasterSendNack:
 11542  089B                     i1l4226:	
 11543                           ;incstack = 0
 11544                           ; Regs used in _I2C_MasterSendNack: []
 11545                           
 11546                           
 11547                           ;mcc_generated_files/i2c_master.c: 612:     SSP1CON2bits.ACKDT = 1;
 11548  089B  0024               	movlb	4	; select bank4
 11549  089C  1696               	bsf	22,5	;volatile
 11550                           
 11551                           ;mcc_generated_files/i2c_master.c: 613:     SSP1CON2bits.ACKEN = 1;
 11552  089D  1616               	bsf	22,4	;volatile
 11553  089E                     i1l933:
 11554  089E  0008               	return
 11555  089F                     __end_of_I2C_MasterSendNack:
 11556                           
 11557                           	psect	text64
 11558  088F                     __ptext64:	
 11559 ;; *************** function _I2C_MasterStartRx *****************
 11560 ;; Defined at:
 11561 ;;		line 584 in file "mcc_generated_files/i2c_master.c"
 11562 ;; Parameters:    Size  Location     Type
 11563 ;;		None
 11564 ;; Auto vars:     Size  Location     Type
 11565 ;;		None
 11566 ;; Return value:  Size  Location     Type
 11567 ;;                  1    wreg      void 
 11568 ;; Registers used:
 11569 ;;		None
 11570 ;; Tracked objects:
 11571 ;;		On entry : 0/0
 11572 ;;		On exit  : 0/0
 11573 ;;		Unchanged: 0/0
 11574 ;; Data sizes:     COMMON  BANK0h   BANK1   BANK2   BANK3   BANK4   BANK5   BANK6   BANK7   BANK8   BANK9  BANK10  BANK1
      +1  BANK12
 11575 ;;      Params:         0       0       0       0       0       0       0       0       0       0       0       0       
      +0       0
 11576 ;;      Locals:         0       0       0       0       0       0       0       0       0       0       0       0       
      +0       0
 11577 ;;      Temps:          0       0       0       0       0       0       0       0       0       0       0       0       
      +0       0
 11578 ;;      Totals:         0       0       0       0       0       0       0       0       0       0       0       0       
      +0       0
 11579 ;;Total ram usage:        0 bytes
 11580 ;; Hardware stack levels used:    1
 11581 ;; This function calls:
 11582 ;;		Nothing
 11583 ;; This function is called by:
 11584 ;;		_I2C_DO_RCEN
 11585 ;; This function uses a non-reentrant model
 11586 ;;
 11587                           
 11588                           
 11589                           ;psect for function _I2C_MasterStartRx
 11590  088F                     _I2C_MasterStartRx:
 11591  088F                     i1l4448:	
 11592                           ;incstack = 0
 11593                           ; Regs used in _I2C_MasterStartRx: []
 11594                           
 11595                           
 11596                           ;mcc_generated_files/i2c_master.c: 586:     SSP1CON2bits.RCEN = 1;
 11597  088F  0024               	movlb	4	; select bank4
 11598  0890  1596               	bsf	22,3	;volatile
 11599  0891                     i1l918:
 11600  0891  0008               	return
 11601  0892                     __end_of_I2C_MasterStartRx:
 11602                           
 11603                           	psect	text65
 11604  0002                     __ptext65:	
 11605 ;; *************** function _I2C_CallbackReturnReset *****************
 11606 ;; Defined at:
 11607 ;;		line 526 in file "mcc_generated_files/i2c_master.c"
 11608 ;; Parameters:    Size  Location     Type
 11609 ;;  funPtr          1    9[COMMON] PTR void 
 11610 ;;		 -> I2C_ReadDataBlock@bufferBlock(3), I2C_Write2ByteRegister@data(2), I2C_Write1ByteRegister@data(1), I2C_Read2ByteR
      +egister@returnValue(2), 
 11611 ;;		 -> NULL(0), I2C_Read1ByteRegister@returnValue(1), 
 11612 ;; Auto vars:     Size  Location     Type
 11613 ;;		None
 11614 ;; Return value:  Size  Location     Type
 11615 ;;                  1    wreg      enum E360
 11616 ;; Registers used:
 11617 ;;		wreg
 11618 ;; Tracked objects:
 11619 ;;		On entry : 0/0
 11620 ;;		On exit  : 0/0
 11621 ;;		Unchanged: 0/0
 11622 ;; Data sizes:     COMMON  BANK0h   BANK1   BANK2   BANK3   BANK4   BANK5   BANK6   BANK7   BANK8   BANK9  BANK10  BANK1
      +1  BANK12
 11623 ;;      Params:         1       0       0       0       0       0       0       0       0       0       0       0       
      +0       0
 11624 ;;      Locals:         0       0       0       0       0       0       0       0       0       0       0       0       
      +0       0
 11625 ;;      Temps:          0       0       0       0       0       0       0       0       0       0       0       0       
      +0       0
 11626 ;;      Totals:         1       0       0       0       0       0       0       0       0       0       0       0       
      +0       0
 11627 ;;Total ram usage:        1 bytes
 11628 ;; Hardware stack levels used:    1
 11629 ;; This function calls:
 11630 ;;		Nothing
 11631 ;; This function is called by:
 11632 ;;		_I2C_Open
 11633 ;;		_I2C_DO_TX
 11634 ;;		_I2C_DO_RX
 11635 ;;		_I2C_DO_TX_EMPTY
 11636 ;;		_I2C_DO_ADDRESS_NACK
 11637 ;;		_I2C_DO_RX_EMPTY
 11638 ;; This function uses a non-reentrant model
 11639 ;;
 11640                           
 11641                           
 11642                           ;psect for function _I2C_CallbackReturnReset
 11643  0002                     _I2C_CallbackReturnReset:
 11644  0002                     i1l4462:	
 11645                           ;incstack = 0
 11646                           ; Regs used in _I2C_CallbackReturnReset: [wreg]
 11647                           
 11648                           
 11649                           ;mcc_generated_files/i2c_master.c: 526: i2c_operations_t I2C_CallbackReturnReset(void *f
      +                          unPtr);mcc_generated_files/i2c_master.c: 527: {;mcc_generated_files/i2c_master.c: 528:  
      +                             return I2C_RESET_LINK;
 11650  0002  3005               	movlw	5
 11651  0003                     i1l890:
 11652  0003  0008               	return
 11653  0004                     __end_of_I2C_CallbackReturnReset:
 11654                           
 11655                           	psect	text66
 11656  0887                     __ptext66:	
 11657 ;; *************** function _I2C_CallbackReturnStop *****************
 11658 ;; Defined at:
 11659 ;;		line 521 in file "mcc_generated_files/i2c_master.c"
 11660 ;; Parameters:    Size  Location     Type
 11661 ;;  funPtr          1    9[COMMON] PTR void 
 11662 ;;		 -> I2C_ReadDataBlock@bufferBlock(3), I2C_Write2ByteRegister@data(2), I2C_Write1ByteRegister@data(1), I2C_Read2ByteR
      +egister@returnValue(2), 
 11663 ;;		 -> NULL(0), I2C_Read1ByteRegister@returnValue(1), 
 11664 ;; Auto vars:     Size  Location     Type
 11665 ;;		None
 11666 ;; Return value:  Size  Location     Type
 11667 ;;                  1    wreg      enum E360
 11668 ;; Registers used:
 11669 ;;		wreg
 11670 ;; Tracked objects:
 11671 ;;		On entry : 0/0
 11672 ;;		On exit  : 0/0
 11673 ;;		Unchanged: 0/0
 11674 ;; Data sizes:     COMMON  BANK0h   BANK1   BANK2   BANK3   BANK4   BANK5   BANK6   BANK7   BANK8   BANK9  BANK10  BANK1
      +1  BANK12
 11675 ;;      Params:         1       0       0       0       0       0       0       0       0       0       0       0       
      +0       0
 11676 ;;      Locals:         0       0       0       0       0       0       0       0       0       0       0       0       
      +0       0
 11677 ;;      Temps:          0       0       0       0       0       0       0       0       0       0       0       0       
      +0       0
 11678 ;;      Totals:         1       0       0       0       0       0       0       0       0       0       0       0       
      +0       0
 11679 ;;Total ram usage:        1 bytes
 11680 ;; Hardware stack levels used:    1
 11681 ;; This function calls:
 11682 ;;		Nothing
 11683 ;; This function is called by:
 11684 ;;		_I2C_SetCallback
 11685 ;;		_I2C_Open
 11686 ;;		_I2C_DO_TX
 11687 ;;		_I2C_DO_RX
 11688 ;;		_I2C_DO_TX_EMPTY
 11689 ;;		_I2C_DO_ADDRESS_NACK
 11690 ;;		_I2C_DO_RX_EMPTY
 11691 ;; This function uses a non-reentrant model
 11692 ;;
 11693                           
 11694                           
 11695                           ;psect for function _I2C_CallbackReturnStop
 11696  0887                     _I2C_CallbackReturnStop:
 11697  0887                     i1l4458:	
 11698                           ;incstack = 0
 11699                           ; Regs used in _I2C_CallbackReturnStop: [wreg]
 11700                           
 11701                           
 11702                           ;mcc_generated_files/i2c_master.c: 521: i2c_operations_t I2C_CallbackReturnStop(void *fu
      +                          nPtr);mcc_generated_files/i2c_master.c: 522: {;mcc_generated_files/i2c_master.c: 523:   
      +                            return I2C_STOP;
 11703  0887  3001               	movlw	1
 11704  0888                     i1l887:
 11705  0888  0008               	return
 11706  0889                     __end_of_I2C_CallbackReturnStop:
 11707                           
 11708                           	psect	text67
 11709  09D7                     __ptext67:	
 11710 ;; *************** function _rdBlkRegCompleteHandler *****************
 11711 ;; Defined at:
 11712 ;;		line 170 in file "mcc_generated_files/examples/i2c_master_example.c"
 11713 ;; Parameters:    Size  Location     Type
 11714 ;;  ptr             1    9[COMMON] PTR void 
 11715 ;;		 -> I2C_ReadDataBlock@bufferBlock(3), I2C_Write2ByteRegister@data(2), I2C_Write1ByteRegister@data(1), I2C_Read2ByteR
      +egister@returnValue(2), 
 11716 ;;		 -> NULL(0), I2C_Read1ByteRegister@returnValue(1), 
 11717 ;; Auto vars:     Size  Location     Type
 11718 ;;		None
 11719 ;; Return value:  Size  Location     Type
 11720 ;;                  1    wreg      enum E360
 11721 ;; Registers used:
 11722 ;;		wreg, fsr1l, fsr1h, status,2, status,0, pclath, cstack
 11723 ;; Tracked objects:
 11724 ;;		On entry : 0/0
 11725 ;;		On exit  : 0/0
 11726 ;;		Unchanged: 0/0
 11727 ;; Data sizes:     COMMON  BANK0h   BANK1   BANK2   BANK3   BANK4   BANK5   BANK6   BANK7   BANK8   BANK9  BANK10  BANK1
      +1  BANK12
 11728 ;;      Params:         1       0       0       0       0       0       0       0       0       0       0       0       
      +0       0
 11729 ;;      Locals:         0       0       0       0       0       0       0       0       0       0       0       0       
      +0       0
 11730 ;;      Temps:          0       0       0       0       0       0       0       0       0       0       0       0       
      +0       0
 11731 ;;      Totals:         1       0       0       0       0       0       0       0       0       0       0       0       
      +0       0
 11732 ;;Total ram usage:        1 bytes
 11733 ;; Hardware stack levels used:    1
 11734 ;; Hardware stack levels required when called:    2
 11735 ;; This function calls:
 11736 ;;		_I2C_SetBuffer
 11737 ;;		_I2C_SetDataCompleteCallback
 11738 ;; This function is called by:
 11739 ;;		_I2C_ReadDataBlock
 11740 ;;		_I2C_DO_TX
 11741 ;;		_I2C_DO_RX
 11742 ;;		_I2C_DO_TX_EMPTY
 11743 ;;		_I2C_DO_ADDRESS_NACK
 11744 ;;		_I2C_DO_RX_EMPTY
 11745 ;; This function uses a non-reentrant model
 11746 ;;
 11747                           
 11748                           
 11749                           ;psect for function _rdBlkRegCompleteHandler
 11750  09D7                     _rdBlkRegCompleteHandler:
 11751  09D7                     i1l4260:	
 11752                           ;incstack = 0
 11753                           ; Regs used in _rdBlkRegCompleteHandler: [wreg+fsr1l+fsr1h+status,2+status,0+pclath+csta
      +                          ck]
 11754                           
 11755                           
 11756                           ;mcc_generated_files/examples/i2c_master_example.c: 170: static i2c_operations_t rdBlkRe
      +                          gCompleteHandler(void *ptr);mcc_generated_files/examples/i2c_master_example.c: 171: {;mc
      +                          c_generated_files/examples/i2c_master_example.c: 172:     I2C_SetBuffer(((i2c_buffer_t *
      +                          )ptr)->data,((i2c_buffer_t*)ptr)->len);
 11757  09D7  0879               	movf	rdBlkRegCompleteHandler@ptr,w
 11758  09D8  0086               	movwf	6
 11759  09D9  0187               	clrf	7
 11760  09DA  3F40               	moviw [0]fsr1
 11761  09DB  00F0               	movwf	I2C_SetBuffer@bufferSize
 11762  09DC  3F41               	moviw [1]fsr1
 11763  09DD  00F1               	movwf	I2C_SetBuffer@bufferSize+1
 11764  09DE  0879               	movf	rdBlkRegCompleteHandler@ptr,w
 11765  09DF  3E02               	addlw	2
 11766  09E0  0086               	movwf	6
 11767  09E1  0187               	clrf	7
 11768  09E2  0801               	movf	1,w
 11769  09E3  3189  215C  3189   	fcall	_I2C_SetBuffer
 11770                           
 11771                           ;mcc_generated_files/examples/i2c_master_example.c: 173:     I2C_SetDataCompleteCallback
      +                          (((void*)0),((void*)0));
 11772  09E6  3000               	movlw	0
 11773  09E7  00F5               	movwf	I2C_SetDataCompleteCallback@cb
 11774  09E8  00F6               	movwf	I2C_SetDataCompleteCallback@cb+1
 11775  09E9  01F7               	clrf	I2C_SetDataCompleteCallback@ptr
 11776  09EA  3189  2123  3189   	fcall	_I2C_SetDataCompleteCallback
 11777  09ED                     i1l4262:
 11778                           
 11779                           ;mcc_generated_files/examples/i2c_master_example.c: 174:     return I2C_RESTART_READ;
 11780  09ED  3002               	movlw	2
 11781  09EE                     i1l104:
 11782  09EE  0008               	return
 11783  09EF                     __end_of_rdBlkRegCompleteHandler:
 11784                           
 11785                           	psect	text68
 11786  099F                     __ptext68:	
 11787 ;; *************** function _wr1RegCompleteHandler *****************
 11788 ;; Defined at:
 11789 ;;		line 156 in file "mcc_generated_files/examples/i2c_master_example.c"
 11790 ;; Parameters:    Size  Location     Type
 11791 ;;  ptr             1    9[COMMON] PTR void 
 11792 ;;		 -> I2C_ReadDataBlock@bufferBlock(3), I2C_Write2ByteRegister@data(2), I2C_Write1ByteRegister@data(1), I2C_Read2ByteR
      +egister@returnValue(2), 
 11793 ;;		 -> NULL(0), I2C_Read1ByteRegister@returnValue(1), 
 11794 ;; Auto vars:     Size  Location     Type
 11795 ;;		None
 11796 ;; Return value:  Size  Location     Type
 11797 ;;                  1    wreg      enum E360
 11798 ;; Registers used:
 11799 ;;		wreg, fsr1l, fsr1h, status,2, status,0, pclath, cstack
 11800 ;; Tracked objects:
 11801 ;;		On entry : 0/0
 11802 ;;		On exit  : 0/0
 11803 ;;		Unchanged: 0/0
 11804 ;; Data sizes:     COMMON  BANK0h   BANK1   BANK2   BANK3   BANK4   BANK5   BANK6   BANK7   BANK8   BANK9  BANK10  BANK1
      +1  BANK12
 11805 ;;      Params:         1       0       0       0       0       0       0       0       0       0       0       0       
      +0       0
 11806 ;;      Locals:         0       0       0       0       0       0       0       0       0       0       0       0       
      +0       0
 11807 ;;      Temps:          0       0       0       0       0       0       0       0       0       0       0       0       
      +0       0
 11808 ;;      Totals:         1       0       0       0       0       0       0       0       0       0       0       0       
      +0       0
 11809 ;;Total ram usage:        1 bytes
 11810 ;; Hardware stack levels used:    1
 11811 ;; Hardware stack levels required when called:    2
 11812 ;; This function calls:
 11813 ;;		_I2C_SetBuffer
 11814 ;;		_I2C_SetDataCompleteCallback
 11815 ;; This function is called by:
 11816 ;;		_I2C_Write1ByteRegister
 11817 ;;		_I2C_DO_TX
 11818 ;;		_I2C_DO_RX
 11819 ;;		_I2C_DO_TX_EMPTY
 11820 ;;		_I2C_DO_ADDRESS_NACK
 11821 ;;		_I2C_DO_RX_EMPTY
 11822 ;; This function uses a non-reentrant model
 11823 ;;
 11824                           
 11825                           
 11826                           ;psect for function _wr1RegCompleteHandler
 11827  099F                     _wr1RegCompleteHandler:
 11828  099F                     i1l4244:	
 11829                           ;incstack = 0
 11830                           ; Regs used in _wr1RegCompleteHandler: [wreg+fsr1l+fsr1h+status,2+status,0+pclath+cstack
      +                          ]
 11831                           
 11832                           
 11833                           ;mcc_generated_files/examples/i2c_master_example.c: 156: static i2c_operations_t wr1RegC
      +                          ompleteHandler(void *ptr);mcc_generated_files/examples/i2c_master_example.c: 157: {;mcc_
      +                          generated_files/examples/i2c_master_example.c: 158:     I2C_SetBuffer(ptr,1);
 11834  099F  3001               	movlw	1
 11835  09A0  00F0               	movwf	I2C_SetBuffer@bufferSize
 11836  09A1  3000               	movlw	0
 11837  09A2  00F1               	movwf	I2C_SetBuffer@bufferSize+1
 11838  09A3  0879               	movf	wr1RegCompleteHandler@ptr,w
 11839  09A4  3189  215C  3189   	fcall	_I2C_SetBuffer
 11840  09A7                     i1l4246:
 11841                           
 11842                           ;mcc_generated_files/examples/i2c_master_example.c: 159:     I2C_SetDataCompleteCallback
      +                          (((void*)0),((void*)0));
 11843  09A7  3000               	movlw	0
 11844  09A8  00F5               	movwf	I2C_SetDataCompleteCallback@cb
 11845  09A9  00F6               	movwf	I2C_SetDataCompleteCallback@cb+1
 11846  09AA  01F7               	clrf	I2C_SetDataCompleteCallback@ptr
 11847  09AB  3189  2123  3189   	fcall	_I2C_SetDataCompleteCallback
 11848  09AE                     i1l4248:
 11849                           
 11850                           ;mcc_generated_files/examples/i2c_master_example.c: 160:     return I2C_CONTINUE;
 11851  09AE  3004               	movlw	4
 11852  09AF                     i1l98:
 11853  09AF  0008               	return
 11854  09B0                     __end_of_wr1RegCompleteHandler:
 11855                           
 11856                           	psect	text69
 11857  098E                     __ptext69:	
 11858 ;; *************** function _rd2RegCompleteHandler *****************
 11859 ;; Defined at:
 11860 ;;		line 149 in file "mcc_generated_files/examples/i2c_master_example.c"
 11861 ;; Parameters:    Size  Location     Type
 11862 ;;  ptr             1    9[COMMON] PTR void 
 11863 ;;		 -> I2C_ReadDataBlock@bufferBlock(3), I2C_Write2ByteRegister@data(2), I2C_Write1ByteRegister@data(1), I2C_Read2ByteR
      +egister@returnValue(2), 
 11864 ;;		 -> NULL(0), I2C_Read1ByteRegister@returnValue(1), 
 11865 ;; Auto vars:     Size  Location     Type
 11866 ;;		None
 11867 ;; Return value:  Size  Location     Type
 11868 ;;                  1    wreg      enum E360
 11869 ;; Registers used:
 11870 ;;		wreg, fsr1l, fsr1h, status,2, status,0, pclath, cstack
 11871 ;; Tracked objects:
 11872 ;;		On entry : 0/0
 11873 ;;		On exit  : 0/0
 11874 ;;		Unchanged: 0/0
 11875 ;; Data sizes:     COMMON  BANK0h   BANK1   BANK2   BANK3   BANK4   BANK5   BANK6   BANK7   BANK8   BANK9  BANK10  BANK1
      +1  BANK12
 11876 ;;      Params:         1       0       0       0       0       0       0       0       0       0       0       0       
      +0       0
 11877 ;;      Locals:         0       0       0       0       0       0       0       0       0       0       0       0       
      +0       0
 11878 ;;      Temps:          0       0       0       0       0       0       0       0       0       0       0       0       
      +0       0
 11879 ;;      Totals:         1       0       0       0       0       0       0       0       0       0       0       0       
      +0       0
 11880 ;;Total ram usage:        1 bytes
 11881 ;; Hardware stack levels used:    1
 11882 ;; Hardware stack levels required when called:    2
 11883 ;; This function calls:
 11884 ;;		_I2C_SetBuffer
 11885 ;;		_I2C_SetDataCompleteCallback
 11886 ;; This function is called by:
 11887 ;;		_I2C_Read2ByteRegister
 11888 ;;		_I2C_DO_TX
 11889 ;;		_I2C_DO_RX
 11890 ;;		_I2C_DO_TX_EMPTY
 11891 ;;		_I2C_DO_ADDRESS_NACK
 11892 ;;		_I2C_DO_RX_EMPTY
 11893 ;; This function uses a non-reentrant model
 11894 ;;
 11895                           
 11896                           
 11897                           ;psect for function _rd2RegCompleteHandler
 11898  098E                     _rd2RegCompleteHandler:
 11899  098E                     i1l4236:	
 11900                           ;incstack = 0
 11901                           ; Regs used in _rd2RegCompleteHandler: [wreg+fsr1l+fsr1h+status,2+status,0+pclath+cstack
      +                          ]
 11902                           
 11903                           
 11904                           ;mcc_generated_files/examples/i2c_master_example.c: 149: static i2c_operations_t rd2RegC
      +                          ompleteHandler(void *ptr);mcc_generated_files/examples/i2c_master_example.c: 150: {;mcc_
      +                          generated_files/examples/i2c_master_example.c: 151:     I2C_SetBuffer(ptr,2);
 11905  098E  3002               	movlw	2
 11906  098F  00F0               	movwf	I2C_SetBuffer@bufferSize
 11907  0990  3000               	movlw	0
 11908  0991  00F1               	movwf	I2C_SetBuffer@bufferSize+1
 11909  0992  0879               	movf	rd2RegCompleteHandler@ptr,w
 11910  0993  3189  215C  3189   	fcall	_I2C_SetBuffer
 11911  0996                     i1l4238:
 11912                           
 11913                           ;mcc_generated_files/examples/i2c_master_example.c: 152:     I2C_SetDataCompleteCallback
      +                          (((void*)0),((void*)0));
 11914  0996  3000               	movlw	0
 11915  0997  00F5               	movwf	I2C_SetDataCompleteCallback@cb
 11916  0998  00F6               	movwf	I2C_SetDataCompleteCallback@cb+1
 11917  0999  01F7               	clrf	I2C_SetDataCompleteCallback@ptr
 11918  099A  3189  2123  3189   	fcall	_I2C_SetDataCompleteCallback
 11919  099D                     i1l4240:
 11920                           
 11921                           ;mcc_generated_files/examples/i2c_master_example.c: 153:     return I2C_RESTART_READ;
 11922  099D  3002               	movlw	2
 11923  099E                     i1l95:
 11924  099E  0008               	return
 11925  099F                     __end_of_rd2RegCompleteHandler:
 11926                           
 11927                           	psect	text70
 11928  097D                     __ptext70:	
 11929 ;; *************** function _rd1RegCompleteHandler *****************
 11930 ;; Defined at:
 11931 ;;		line 142 in file "mcc_generated_files/examples/i2c_master_example.c"
 11932 ;; Parameters:    Size  Location     Type
 11933 ;;  ptr             1    9[COMMON] PTR void 
 11934 ;;		 -> I2C_ReadDataBlock@bufferBlock(3), I2C_Write2ByteRegister@data(2), I2C_Write1ByteRegister@data(1), I2C_Read2ByteR
      +egister@returnValue(2), 
 11935 ;;		 -> NULL(0), I2C_Read1ByteRegister@returnValue(1), 
 11936 ;; Auto vars:     Size  Location     Type
 11937 ;;		None
 11938 ;; Return value:  Size  Location     Type
 11939 ;;                  1    wreg      enum E360
 11940 ;; Registers used:
 11941 ;;		wreg, fsr1l, fsr1h, status,2, status,0, pclath, cstack
 11942 ;; Tracked objects:
 11943 ;;		On entry : 0/0
 11944 ;;		On exit  : 0/0
 11945 ;;		Unchanged: 0/0
 11946 ;; Data sizes:     COMMON  BANK0h   BANK1   BANK2   BANK3   BANK4   BANK5   BANK6   BANK7   BANK8   BANK9  BANK10  BANK1
      +1  BANK12
 11947 ;;      Params:         1       0       0       0       0       0       0       0       0       0       0       0       
      +0       0
 11948 ;;      Locals:         0       0       0       0       0       0       0       0       0       0       0       0       
      +0       0
 11949 ;;      Temps:          0       0       0       0       0       0       0       0       0       0       0       0       
      +0       0
 11950 ;;      Totals:         1       0       0       0       0       0       0       0       0       0       0       0       
      +0       0
 11951 ;;Total ram usage:        1 bytes
 11952 ;; Hardware stack levels used:    1
 11953 ;; Hardware stack levels required when called:    2
 11954 ;; This function calls:
 11955 ;;		_I2C_SetBuffer
 11956 ;;		_I2C_SetDataCompleteCallback
 11957 ;; This function is called by:
 11958 ;;		_I2C_Read1ByteRegister
 11959 ;;		_I2C_DO_TX
 11960 ;;		_I2C_DO_RX
 11961 ;;		_I2C_DO_TX_EMPTY
 11962 ;;		_I2C_DO_ADDRESS_NACK
 11963 ;;		_I2C_DO_RX_EMPTY
 11964 ;; This function uses a non-reentrant model
 11965 ;;
 11966                           
 11967                           
 11968                           ;psect for function _rd1RegCompleteHandler
 11969  097D                     _rd1RegCompleteHandler:
 11970  097D                     i1l4228:	
 11971                           ;incstack = 0
 11972                           ; Regs used in _rd1RegCompleteHandler: [wreg+fsr1l+fsr1h+status,2+status,0+pclath+cstack
      +                          ]
 11973                           
 11974                           
 11975                           ;mcc_generated_files/examples/i2c_master_example.c: 142: static i2c_operations_t rd1RegC
      +                          ompleteHandler(void *ptr);mcc_generated_files/examples/i2c_master_example.c: 143: {;mcc_
      +                          generated_files/examples/i2c_master_example.c: 144:     I2C_SetBuffer(ptr,1);
 11976  097D  3001               	movlw	1
 11977  097E  00F0               	movwf	I2C_SetBuffer@bufferSize
 11978  097F  3000               	movlw	0
 11979  0980  00F1               	movwf	I2C_SetBuffer@bufferSize+1
 11980  0981  0879               	movf	rd1RegCompleteHandler@ptr,w
 11981  0982  3189  215C  3189   	fcall	_I2C_SetBuffer
 11982  0985                     i1l4230:
 11983                           
 11984                           ;mcc_generated_files/examples/i2c_master_example.c: 145:     I2C_SetDataCompleteCallback
      +                          (((void*)0),((void*)0));
 11985  0985  3000               	movlw	0
 11986  0986  00F5               	movwf	I2C_SetDataCompleteCallback@cb
 11987  0987  00F6               	movwf	I2C_SetDataCompleteCallback@cb+1
 11988  0988  01F7               	clrf	I2C_SetDataCompleteCallback@ptr
 11989  0989  3189  2123  3189   	fcall	_I2C_SetDataCompleteCallback
 11990  098C                     i1l4232:
 11991                           
 11992                           ;mcc_generated_files/examples/i2c_master_example.c: 146:     return I2C_RESTART_READ;
 11993  098C  3002               	movlw	2
 11994  098D                     i1l92:
 11995  098D  0008               	return
 11996  098E                     __end_of_rd1RegCompleteHandler:
 11997                           
 11998                           	psect	text71
 11999  096C                     __ptext71:	
 12000 ;; *************** function _wr2RegCompleteHandler *****************
 12001 ;; Defined at:
 12002 ;;		line 163 in file "mcc_generated_files/examples/i2c_master_example.c"
 12003 ;; Parameters:    Size  Location     Type
 12004 ;;  ptr             1    9[COMMON] PTR void 
 12005 ;;		 -> I2C_ReadDataBlock@bufferBlock(3), I2C_Write2ByteRegister@data(2), I2C_Write1ByteRegister@data(1), I2C_Read2ByteR
      +egister@returnValue(2), 
 12006 ;;		 -> NULL(0), I2C_Read1ByteRegister@returnValue(1), 
 12007 ;; Auto vars:     Size  Location     Type
 12008 ;;		None
 12009 ;; Return value:  Size  Location     Type
 12010 ;;                  1    wreg      enum E360
 12011 ;; Registers used:
 12012 ;;		wreg, fsr1l, fsr1h, status,2, status,0, pclath, cstack
 12013 ;; Tracked objects:
 12014 ;;		On entry : 0/0
 12015 ;;		On exit  : 0/0
 12016 ;;		Unchanged: 0/0
 12017 ;; Data sizes:     COMMON  BANK0h   BANK1   BANK2   BANK3   BANK4   BANK5   BANK6   BANK7   BANK8   BANK9  BANK10  BANK1
      +1  BANK12
 12018 ;;      Params:         1       0       0       0       0       0       0       0       0       0       0       0       
      +0       0
 12019 ;;      Locals:         0       0       0       0       0       0       0       0       0       0       0       0       
      +0       0
 12020 ;;      Temps:          0       0       0       0       0       0       0       0       0       0       0       0       
      +0       0
 12021 ;;      Totals:         1       0       0       0       0       0       0       0       0       0       0       0       
      +0       0
 12022 ;;Total ram usage:        1 bytes
 12023 ;; Hardware stack levels used:    1
 12024 ;; Hardware stack levels required when called:    2
 12025 ;; This function calls:
 12026 ;;		_I2C_SetBuffer
 12027 ;;		_I2C_SetDataCompleteCallback
 12028 ;; This function is called by:
 12029 ;;		_I2C_Write2ByteRegister
 12030 ;;		_I2C_DO_TX
 12031 ;;		_I2C_DO_RX
 12032 ;;		_I2C_DO_TX_EMPTY
 12033 ;;		_I2C_DO_ADDRESS_NACK
 12034 ;;		_I2C_DO_RX_EMPTY
 12035 ;; This function uses a non-reentrant model
 12036 ;;
 12037                           
 12038                           
 12039                           ;psect for function _wr2RegCompleteHandler
 12040  096C                     _wr2RegCompleteHandler:
 12041  096C                     i1l4252:	
 12042                           ;incstack = 0
 12043                           ; Regs used in _wr2RegCompleteHandler: [wreg+fsr1l+fsr1h+status,2+status,0+pclath+cstack
      +                          ]
 12044                           
 12045                           
 12046                           ;mcc_generated_files/examples/i2c_master_example.c: 163: static i2c_operations_t wr2RegC
      +                          ompleteHandler(void *ptr);mcc_generated_files/examples/i2c_master_example.c: 164: {;mcc_
      +                          generated_files/examples/i2c_master_example.c: 165:     I2C_SetBuffer(ptr,2);
 12047  096C  3002               	movlw	2
 12048  096D  00F0               	movwf	I2C_SetBuffer@bufferSize
 12049  096E  3000               	movlw	0
 12050  096F  00F1               	movwf	I2C_SetBuffer@bufferSize+1
 12051  0970  0879               	movf	wr2RegCompleteHandler@ptr,w
 12052  0971  3189  215C  3189   	fcall	_I2C_SetBuffer
 12053  0974                     i1l4254:
 12054                           
 12055                           ;mcc_generated_files/examples/i2c_master_example.c: 166:     I2C_SetDataCompleteCallback
      +                          (((void*)0),((void*)0));
 12056  0974  3000               	movlw	0
 12057  0975  00F5               	movwf	I2C_SetDataCompleteCallback@cb
 12058  0976  00F6               	movwf	I2C_SetDataCompleteCallback@cb+1
 12059  0977  01F7               	clrf	I2C_SetDataCompleteCallback@ptr
 12060  0978  3189  2123  3189   	fcall	_I2C_SetDataCompleteCallback
 12061  097B                     i1l4256:
 12062                           
 12063                           ;mcc_generated_files/examples/i2c_master_example.c: 167:     return I2C_CONTINUE;
 12064  097B  3004               	movlw	4
 12065  097C                     i1l101:
 12066  097C  0008               	return
 12067  097D                     __end_of_wr2RegCompleteHandler:
 12068                           
 12069                           	psect	text72
 12070  0923                     __ptext72:	
 12071 ;; *************** function _I2C_SetDataCompleteCallback *****************
 12072 ;; Defined at:
 12073 ;;		line 274 in file "mcc_generated_files/i2c_master.c"
 12074 ;; Parameters:    Size  Location     Type
 12075 ;;  cb              2    5[COMMON] PTR FTN(PTR void ,)enum 
 12076 ;;		 -> Absolute function(1), rdBlkRegCompleteHandler(1), wr2RegCompleteHandler(1), wr1RegCompleteHandler(1), 
 12077 ;;		 -> rd2RegCompleteHandler(1), rd1RegCompleteHandler(1), 
 12078 ;;  ptr             1    7[COMMON] PTR void 
 12079 ;;		 -> I2C_ReadDataBlock@bufferBlock(3), I2C_Write2ByteRegister@data(2), I2C_Write1ByteRegister@data(1), I2C_Read2ByteR
      +egister@returnValue(2), 
 12080 ;;		 -> NULL(0), I2C_Read1ByteRegister@returnValue(1), 
 12081 ;; Auto vars:     Size  Location     Type
 12082 ;;		None
 12083 ;; Return value:  Size  Location     Type
 12084 ;;                  1    wreg      void 
 12085 ;; Registers used:
 12086 ;;		wreg, fsr1l, fsr1h, status,2, status,0, pclath, cstack
 12087 ;; Tracked objects:
 12088 ;;		On entry : 0/0
 12089 ;;		On exit  : 0/0
 12090 ;;		Unchanged: 0/0
 12091 ;; Data sizes:     COMMON  BANK0h   BANK1   BANK2   BANK3   BANK4   BANK5   BANK6   BANK7   BANK8   BANK9  BANK10  BANK1
      +1  BANK12
 12092 ;;      Params:         3       0       0       0       0       0       0       0       0       0       0       0       
      +0       0
 12093 ;;      Locals:         0       0       0       0       0       0       0       0       0       0       0       0       
      +0       0
 12094 ;;      Temps:          1       0       0       0       0       0       0       0       0       0       0       0       
      +0       0
 12095 ;;      Totals:         4       0       0       0       0       0       0       0       0       0       0       0       
      +0       0
 12096 ;;Total ram usage:        4 bytes
 12097 ;; Hardware stack levels used:    1
 12098 ;; Hardware stack levels required when called:    1
 12099 ;; This function calls:
 12100 ;;		_I2C_SetCallback
 12101 ;; This function is called by:
 12102 ;;		_rd1RegCompleteHandler
 12103 ;;		_rd2RegCompleteHandler
 12104 ;;		_wr1RegCompleteHandler
 12105 ;;		_wr2RegCompleteHandler
 12106 ;;		_rdBlkRegCompleteHandler
 12107 ;;		_I2C_Read1ByteRegister
 12108 ;;		_I2C_Read2ByteRegister
 12109 ;;		_I2C_Write1ByteRegister
 12110 ;;		_I2C_Write2ByteRegister
 12111 ;;		_I2C_ReadDataBlock
 12112 ;; This function uses a non-reentrant model
 12113 ;;
 12114                           
 12115                           
 12116                           ;psect for function _I2C_SetDataCompleteCallback
 12117  0923                     _I2C_SetDataCompleteCallback:
 12118  0923                     i1l3944:	
 12119                           ;incstack = 0
 12120                           ; Regs used in _I2C_SetDataCompleteCallback: [wreg+fsr1l+fsr1h+status,2+status,0+pclath+
      +                          cstack]
 12121                           
 12122                           
 12123                           ;mcc_generated_files/i2c_master.c: 274: void I2C_SetDataCompleteCallback(i2c_callback_t 
      +                          cb, void *ptr);mcc_generated_files/i2c_master.c: 275: {;mcc_generated_files/i2c_master.c
      +                          : 276:     I2C_SetCallback(I2C_DATA_COMPLETE, cb, ptr);
 12124  0923  0876               	movf	I2C_SetDataCompleteCallback@cb+1,w
 12125  0924  00F1               	movwf	I2C_SetCallback@cb+1
 12126  0925  0875               	movf	I2C_SetDataCompleteCallback@cb,w
 12127  0926  00F0               	movwf	I2C_SetCallback@cb
 12128  0927  0877               	movf	I2C_SetDataCompleteCallback@ptr,w
 12129  0928  00F8               	movwf	??_I2C_SetDataCompleteCallback
 12130  0929  0878               	movf	??_I2C_SetDataCompleteCallback,w
 12131  092A  00F2               	movwf	I2C_SetCallback@ptr
 12132  092B  3000               	movlw	0
 12133  092C  318A  2265  3189   	fcall	_I2C_SetCallback
 12134  092F                     i1l761:
 12135  092F  0008               	return
 12136  0930                     __end_of_I2C_SetDataCompleteCallback:
 12137                           
 12138                           	psect	text73
 12139  0A65                     __ptext73:	
 12140 ;; *************** function _I2C_SetCallback *****************
 12141 ;; Defined at:
 12142 ;;		line 304 in file "mcc_generated_files/i2c_master.c"
 12143 ;; Parameters:    Size  Location     Type
 12144 ;;  idx             1    wreg     enum E2746
 12145 ;;  cb              2    0[COMMON] PTR FTN(PTR void ,)enum 
 12146 ;;		 -> Absolute function(1), rdBlkRegCompleteHandler(1), wr2RegCompleteHandler(1), wr1RegCompleteHandler(1), 
 12147 ;;		 -> rd2RegCompleteHandler(1), rd1RegCompleteHandler(1), 
 12148 ;;  ptr             1    2[COMMON] PTR void 
 12149 ;;		 -> I2C_ReadDataBlock@bufferBlock(3), I2C_Write2ByteRegister@data(2), I2C_Write1ByteRegister@data(1), I2C_Read2ByteR
      +egister@returnValue(2), 
 12150 ;;		 -> NULL(0), I2C_Read1ByteRegister@returnValue(1), 
 12151 ;; Auto vars:     Size  Location     Type
 12152 ;;  idx             1    4[COMMON] enum E2746
 12153 ;; Return value:  Size  Location     Type
 12154 ;;                  1    wreg      void 
 12155 ;; Registers used:
 12156 ;;		wreg, fsr1l, fsr1h, status,2, status,0
 12157 ;; Tracked objects:
 12158 ;;		On entry : 0/0
 12159 ;;		On exit  : 0/0
 12160 ;;		Unchanged: 0/0
 12161 ;; Data sizes:     COMMON  BANK0h   BANK1   BANK2   BANK3   BANK4   BANK5   BANK6   BANK7   BANK8   BANK9  BANK10  BANK1
      +1  BANK12
 12162 ;;      Params:         3       0       0       0       0       0       0       0       0       0       0       0       
      +0       0
 12163 ;;      Locals:         1       0       0       0       0       0       0       0       0       0       0       0       
      +0       0
 12164 ;;      Temps:          1       0       0       0       0       0       0       0       0       0       0       0       
      +0       0
 12165 ;;      Totals:         5       0       0       0       0       0       0       0       0       0       0       0       
      +0       0
 12166 ;;Total ram usage:        5 bytes
 12167 ;; Hardware stack levels used:    1
 12168 ;; This function calls:
 12169 ;;		Nothing
 12170 ;; This function is called by:
 12171 ;;		_I2C_SetDataCompleteCallback
 12172 ;;		_I2C_SetWriteCollisionCallback
 12173 ;;		_I2C_SetAddressNackCallback
 12174 ;;		_I2C_SetDataNackCallback
 12175 ;;		_I2C_SetTimeoutCallback
 12176 ;; This function uses a non-reentrant model
 12177 ;;
 12178                           
 12179                           
 12180                           ;psect for function _I2C_SetCallback
 12181  0A65                     _I2C_SetCallback:
 12182                           
 12183                           ;incstack = 0
 12184                           ; Regs used in _I2C_SetCallback: [wreg+fsr1l+fsr1h+status,2+status,0]
 12185                           ;I2C_SetCallback@idx stored from wreg
 12186  0A65  00F4               	movwf	I2C_SetCallback@idx
 12187  0A66                     i1l3938:
 12188                           
 12189                           ;mcc_generated_files/i2c_master.c: 304: static void I2C_SetCallback(i2c_callbackIndex_t 
      +                          idx, i2c_callback_t cb, void *ptr);mcc_generated_files/i2c_master.c: 305: {;mcc_generate
      +                          d_files/i2c_master.c: 306:     if(cb)
 12190  0A66  0870               	movf	I2C_SetCallback@cb,w
 12191  0A67  0471               	iorwf	I2C_SetCallback@cb+1,w
 12192  0A68  1903               	btfsc	3,2
 12193  0A69  2A6B               	goto	u206_21
 12194  0A6A  2A6C               	goto	u206_20
 12195  0A6B                     u206_21:
 12196  0A6B  2A7D               	goto	i1l3942
 12197  0A6C                     u206_20:
 12198  0A6C                     i1l3940:
 12199                           
 12200                           ;mcc_generated_files/i2c_master.c: 307:     {;mcc_generated_files/i2c_master.c: 308:    
      +                               I2C_Status.callbackTable[idx] = cb;
 12201  0A6C  3574               	lslf	I2C_SetCallback@idx,w
 12202  0A6D  3EA0               	addlw	(low (_I2C_Status| 0))& (0+255)
 12203  0A6E  0086               	movwf	6
 12204  0A6F  0187               	clrf	7
 12205  0A70  0870               	movf	I2C_SetCallback@cb,w
 12206  0A71  3FC0               	movwi [0]fsr1
 12207  0A72  0871               	movf	I2C_SetCallback@cb+1,w
 12208  0A73  3FC1               	movwi [1]fsr1
 12209                           
 12210                           ;mcc_generated_files/i2c_master.c: 309:         I2C_Status.callbackPayload[idx] = ptr;
 12211  0A74  0872               	movf	I2C_SetCallback@ptr,w
 12212  0A75  00F3               	movwf	??_I2C_SetCallback
 12213  0A76  0874               	movf	I2C_SetCallback@idx,w
 12214  0A77  3EAC               	addlw	(low ((_I2C_Status| 0+12)))& (0+255)
 12215  0A78  0086               	movwf	6
 12216  0A79  0187               	clrf	7
 12217  0A7A  0873               	movf	??_I2C_SetCallback,w
 12218  0A7B  0081               	movwf	1
 12219                           
 12220                           ;mcc_generated_files/i2c_master.c: 310:     }
 12221  0A7C  2A8A               	goto	i1l781
 12222  0A7D                     i1l3942:
 12223                           
 12224                           ;mcc_generated_files/i2c_master.c: 312:     {;mcc_generated_files/i2c_master.c: 313:    
      +                               I2C_Status.callbackTable[idx] = I2C_CallbackReturnStop;
 12225  0A7D  3574               	lslf	I2C_SetCallback@idx,w
 12226  0A7E  3EA0               	addlw	(low (_I2C_Status| 0))& (0+255)
 12227  0A7F  0086               	movwf	6
 12228  0A80  0187               	clrf	7
 12229  0A81  3087               	movlw	low _I2C_CallbackReturnStop
 12230  0A82  3FC0               	movwi [0]fsr1
 12231  0A83  3008               	movlw	high _I2C_CallbackReturnStop
 12232  0A84  3FC1               	movwi [1]fsr1
 12233                           
 12234                           ;mcc_generated_files/i2c_master.c: 314:         I2C_Status.callbackPayload[idx] = ((void
      +                          *)0);
 12235  0A85  0874               	movf	I2C_SetCallback@idx,w
 12236  0A86  3EAC               	addlw	(low ((_I2C_Status| 0+12)))& (0+255)
 12237  0A87  0086               	movwf	6
 12238  0A88  0187               	clrf	7
 12239  0A89  0181               	clrf	1
 12240  0A8A                     i1l781:
 12241  0A8A  0008               	return
 12242  0A8B                     __end_of_I2C_SetCallback:
 12243                           
 12244                           	psect	text74
 12245  095C                     __ptext74:	
 12246 ;; *************** function _I2C_SetBuffer *****************
 12247 ;; Defined at:
 12248 ;;		line 264 in file "mcc_generated_files/i2c_master.c"
 12249 ;; Parameters:    Size  Location     Type
 12250 ;;  buffer          1    wreg     PTR void 
 12251 ;;		 -> I2C_ReadDataBlock@reg(1), I2C_ReadDataBlock@bufferBlock(3), I2C_Write2ByteRegister@reg(1), I2C_Write2ByteRegiste
      +r@data(2), 
 12252 ;;		 -> I2C_Write1ByteRegister@reg(1), I2C_Write1ByteRegister@data(1), I2C_Read2ByteRegister@reg(1), I2C_Read2ByteRegist
      +er@returnValue(2), 
 12253 ;;		 -> NULL(0), I2C_Read1ByteRegister@reg(1), I2C_Read1ByteRegister@returnValue(1), 
 12254 ;;  bufferSize      2    0[COMMON] unsigned int 
 12255 ;; Auto vars:     Size  Location     Type
 12256 ;;  buffer          1    3[COMMON] PTR void 
 12257 ;;		 -> I2C_ReadDataBlock@reg(1), I2C_ReadDataBlock@bufferBlock(3), I2C_Write2ByteRegister@reg(1), I2C_Write2ByteRegiste
      +r@data(2), 
 12258 ;;		 -> I2C_Write1ByteRegister@reg(1), I2C_Write1ByteRegister@data(1), I2C_Read2ByteRegister@reg(1), I2C_Read2ByteRegist
      +er@returnValue(2), 
 12259 ;;		 -> NULL(0), I2C_Read1ByteRegister@reg(1), I2C_Read1ByteRegister@returnValue(1), 
 12260 ;; Return value:  Size  Location     Type
 12261 ;;                  1    wreg      void 
 12262 ;; Registers used:
 12263 ;;		wreg
 12264 ;; Tracked objects:
 12265 ;;		On entry : 0/0
 12266 ;;		On exit  : 0/0
 12267 ;;		Unchanged: 0/0
 12268 ;; Data sizes:     COMMON  BANK0h   BANK1   BANK2   BANK3   BANK4   BANK5   BANK6   BANK7   BANK8   BANK9  BANK10  BANK1
      +1  BANK12
 12269 ;;      Params:         2       0       0       0       0       0       0       0       0       0       0       0       
      +0       0
 12270 ;;      Locals:         1       0       0       0       0       0       0       0       0       0       0       0       
      +0       0
 12271 ;;      Temps:          1       0       0       0       0       0       0       0       0       0       0       0       
      +0       0
 12272 ;;      Totals:         4       0       0       0       0       0       0       0       0       0       0       0       
      +0       0
 12273 ;;Total ram usage:        4 bytes
 12274 ;; Hardware stack levels used:    1
 12275 ;; This function calls:
 12276 ;;		Nothing
 12277 ;; This function is called by:
 12278 ;;		_rd1RegCompleteHandler
 12279 ;;		_rd2RegCompleteHandler
 12280 ;;		_wr1RegCompleteHandler
 12281 ;;		_wr2RegCompleteHandler
 12282 ;;		_rdBlkRegCompleteHandler
 12283 ;;		_I2C_Read1ByteRegister
 12284 ;;		_I2C_Read2ByteRegister
 12285 ;;		_I2C_Write1ByteRegister
 12286 ;;		_I2C_Write2ByteRegister
 12287 ;;		_I2C_WriteNBytes
 12288 ;;		_I2C_ReadNBytes
 12289 ;;		_I2C_ReadDataBlock
 12290 ;; This function uses a non-reentrant model
 12291 ;;
 12292                           
 12293                           
 12294                           ;psect for function _I2C_SetBuffer
 12295  095C                     _I2C_SetBuffer:
 12296                           
 12297                           ;incstack = 0
 12298                           ; Regs used in _I2C_SetBuffer: [wreg]
 12299                           ;I2C_SetBuffer@buffer stored from wreg
 12300  095C  00F3               	movwf	I2C_SetBuffer@buffer
 12301  095D                     i1l3946:
 12302                           
 12303                           ;mcc_generated_files/i2c_master.c: 264: void I2C_SetBuffer(void *buffer, size_t bufferSi
      +                          ze);mcc_generated_files/i2c_master.c: 265: {;mcc_generated_files/i2c_master.c: 266:     
      +                          if(I2C_Status.bufferFree)
 12304  095D  0021               	movlb	1	; select bank1
 12305  095E  1DBC               	btfss	(_I2C_Status^(0+128)+28),3
 12306  095F  2961               	goto	u207_21
 12307  0960  2962               	goto	u207_20
 12308  0961                     u207_21:
 12309  0961  296B               	goto	i1l758
 12310  0962                     u207_20:
 12311  0962                     i1l3948:
 12312                           
 12313                           ;mcc_generated_files/i2c_master.c: 267:     {;mcc_generated_files/i2c_master.c: 268:    
      +                               I2C_Status.data_ptr = buffer;
 12314  0962  0873               	movf	I2C_SetBuffer@buffer,w
 12315  0963  00F2               	movwf	??_I2C_SetBuffer
 12316  0964  0872               	movf	??_I2C_SetBuffer,w
 12317  0965  00B7               	movwf	(low ((_I2C_Status| 0+23)))^(0+128)
 12318                           
 12319                           ;mcc_generated_files/i2c_master.c: 269:         I2C_Status.data_length = bufferSize;
 12320  0966  0871               	movf	I2C_SetBuffer@bufferSize+1,w
 12321  0967  00B9               	movwf	((_I2C_Status+1)^(0+128)+24)
 12322  0968  0870               	movf	I2C_SetBuffer@bufferSize,w
 12323  0969  00B8               	movwf	(_I2C_Status^(0+128)+24)
 12324  096A                     i1l3950:
 12325                           
 12326                           ;mcc_generated_files/i2c_master.c: 270:         I2C_Status.bufferFree = 0;
 12327  096A  11BC               	bcf	(_I2C_Status^(0+128)+28),3
 12328  096B                     i1l758:
 12329  096B  0008               	return
 12330  096C                     __end_of_I2C_SetBuffer:
 12331                           
 12332                           	psect	text75
 12333  088C                     __ptext75:	
 12334 ;; *************** function _I2C_MasterStop *****************
 12335 ;; Defined at:
 12336 ;;		line 594 in file "mcc_generated_files/i2c_master.c"
 12337 ;; Parameters:    Size  Location     Type
 12338 ;;		None
 12339 ;; Auto vars:     Size  Location     Type
 12340 ;;		None
 12341 ;; Return value:  Size  Location     Type
 12342 ;;                  1    wreg      void 
 12343 ;; Registers used:
 12344 ;;		None
 12345 ;; Tracked objects:
 12346 ;;		On entry : 0/0
 12347 ;;		On exit  : 0/0
 12348 ;;		Unchanged: 0/0
 12349 ;; Data sizes:     COMMON  BANK0h   BANK1   BANK2   BANK3   BANK4   BANK5   BANK6   BANK7   BANK8   BANK9  BANK10  BANK1
      +1  BANK12
 12350 ;;      Params:         0       0       0       0       0       0       0       0       0       0       0       0       
      +0       0
 12351 ;;      Locals:         0       0       0       0       0       0       0       0       0       0       0       0       
      +0       0
 12352 ;;      Temps:          0       0       0       0       0       0       0       0       0       0       0       0       
      +0       0
 12353 ;;      Totals:         0       0       0       0       0       0       0       0       0       0       0       0       
      +0       0
 12354 ;;Total ram usage:        0 bytes
 12355 ;; Hardware stack levels used:    1
 12356 ;; This function calls:
 12357 ;;		Nothing
 12358 ;; This function is called by:
 12359 ;;		_I2C_DO_SEND_STOP
 12360 ;; This function uses a non-reentrant model
 12361 ;;
 12362                           
 12363                           
 12364                           ;psect for function _I2C_MasterStop
 12365  088C                     _I2C_MasterStop:
 12366  088C                     i1l4224:	
 12367                           ;incstack = 0
 12368                           ; Regs used in _I2C_MasterStop: []
 12369                           
 12370                           
 12371                           ;mcc_generated_files/i2c_master.c: 596:     SSP1CON2bits.PEN = 1;
 12372  088C  0024               	movlb	4	; select bank4
 12373  088D  1516               	bsf	22,2	;volatile
 12374  088E                     i1l924:
 12375  088E  0008               	return
 12376  088F                     __end_of_I2C_MasterStop:
 12377                           
 12378                           	psect	text76
 12379  0889                     __ptext76:	
 12380 ;; *************** function _I2C_MasterEnableRestart *****************
 12381 ;; Defined at:
 12382 ;;		line 574 in file "mcc_generated_files/i2c_master.c"
 12383 ;; Parameters:    Size  Location     Type
 12384 ;;		None
 12385 ;; Auto vars:     Size  Location     Type
 12386 ;;		None
 12387 ;; Return value:  Size  Location     Type
 12388 ;;                  1    wreg      void 
 12389 ;; Registers used:
 12390 ;;		None
 12391 ;; Tracked objects:
 12392 ;;		On entry : 0/0
 12393 ;;		On exit  : 0/0
 12394 ;;		Unchanged: 0/0
 12395 ;; Data sizes:     COMMON  BANK0h   BANK1   BANK2   BANK3   BANK4   BANK5   BANK6   BANK7   BANK8   BANK9  BANK10  BANK1
      +1  BANK12
 12396 ;;      Params:         0       0       0       0       0       0       0       0       0       0       0       0       
      +0       0
 12397 ;;      Locals:         0       0       0       0       0       0       0       0       0       0       0       0       
      +0       0
 12398 ;;      Temps:          0       0       0       0       0       0       0       0       0       0       0       0       
      +0       0
 12399 ;;      Totals:         0       0       0       0       0       0       0       0       0       0       0       0       
      +0       0
 12400 ;;Total ram usage:        0 bytes
 12401 ;; Hardware stack levels used:    1
 12402 ;; This function calls:
 12403 ;;		Nothing
 12404 ;; This function is called by:
 12405 ;;		_I2C_DO_SEND_RESTART_READ
 12406 ;;		_I2C_DO_SEND_RESTART_WRITE
 12407 ;;		_I2C_DO_SEND_RESTART
 12408 ;;		_I2C_DO_RX_EMPTY
 12409 ;; This function uses a non-reentrant model
 12410 ;;
 12411                           
 12412                           
 12413                           ;psect for function _I2C_MasterEnableRestart
 12414  0889                     _I2C_MasterEnableRestart:
 12415  0889                     i1l4222:	
 12416                           ;incstack = 0
 12417                           ; Regs used in _I2C_MasterEnableRestart: []
 12418                           
 12419                           
 12420                           ;mcc_generated_files/i2c_master.c: 576:     SSP1CON2bits.RSEN = 1;
 12421  0889  0024               	movlb	4	; select bank4
 12422  088A  1496               	bsf	22,1	;volatile
 12423  088B                     i1l912:
 12424  088B  0008               	return
 12425  088C                     __end_of_I2C_MasterEnableRestart:
 12426                           
 12427                           	psect	text77
 12428  093E                     __ptext77:	
 12429 ;; *************** function _ADC_ISR *****************
 12430 ;; Defined at:
 12431 ;;		line 148 in file "mcc_generated_files/adc.c"
 12432 ;; Parameters:    Size  Location     Type
 12433 ;;		None
 12434 ;; Auto vars:     Size  Location     Type
 12435 ;;		None
 12436 ;; Return value:  Size  Location     Type
 12437 ;;                  1    wreg      void 
 12438 ;; Registers used:
 12439 ;;		wreg, status,2, status,0, pclath, cstack
 12440 ;; Tracked objects:
 12441 ;;		On entry : 0/0
 12442 ;;		On exit  : 0/0
 12443 ;;		Unchanged: 0/0
 12444 ;; Data sizes:     COMMON  BANK0h   BANK1   BANK2   BANK3   BANK4   BANK5   BANK6   BANK7   BANK8   BANK9  BANK10  BANK1
      +1  BANK12
 12445 ;;      Params:         0       0       0       0       0       0       0       0       0       0       0       0       
      +0       0
 12446 ;;      Locals:         0       0       0       0       0       0       0       0       0       0       0       0       
      +0       0
 12447 ;;      Temps:          0       0       0       0       0       0       0       0       0       0       0       0       
      +0       0
 12448 ;;      Totals:         0       0       0       0       0       0       0       0       0       0       0       0       
      +0       0
 12449 ;;Total ram usage:        0 bytes
 12450 ;; Hardware stack levels used:    1
 12451 ;; Hardware stack levels required when called:    1
 12452 ;; This function calls:
 12453 ;;		Absolute function
 12454 ;;		_ADC_DefaultInterruptHandler
 12455 ;; This function is called by:
 12456 ;;		_INTERRUPT_InterruptManager
 12457 ;; This function uses a non-reentrant model
 12458 ;;
 12459                           
 12460                           
 12461                           ;psect for function _ADC_ISR
 12462  093E                     _ADC_ISR:
 12463  093E                     i1l5174:	
 12464                           ;incstack = 0
 12465                           ; Regs used in _ADC_ISR: [wreg+status,2+status,0+pclath+cstack]
 12466                           
 12467                           
 12468                           ;mcc_generated_files/adc.c: 151:     PIR1bits.ADIF = 0;
 12469  093E  0020               	movlb	0	; select bank0
 12470  093F  1311               	bcf	17,6	;volatile
 12471  0940                     i1l5176:
 12472                           
 12473                           ;mcc_generated_files/adc.c: 153:  if(ADC_InterruptHandler)
 12474  0940  0021               	movlb	1	; select bank1
 12475  0941  084C               	movf	_ADC_InterruptHandler^(0+128),w
 12476  0942  044D               	iorwf	(_ADC_InterruptHandler+1)^(0+128),w
 12477  0943  1903               	btfsc	3,2
 12478  0944  2946               	goto	u319_21
 12479  0945  2947               	goto	u319_20
 12480  0946                     u319_21:
 12481  0946  294C               	goto	i1l1126
 12482  0947                     u319_20:
 12483  0947                     i1l5178:
 12484                           
 12485                           ;mcc_generated_files/adc.c: 154:     {;mcc_generated_files/adc.c: 155:         ADC_Inter
      +                          ruptHandler();
 12486  0947  084D               	movf	(_ADC_InterruptHandler+1)^(0+128),w
 12487  0948  008A               	movwf	10
 12488  0949  084C               	movf	_ADC_InterruptHandler^(0+128),w
 12489  094A  000A               	callw
 12490  094B  3189               	pagesel	$
 12491  094C                     i1l1126:
 12492  094C  0008               	return
 12493  094D                     __end_of_ADC_ISR:
 12494                           
 12495                           	psect	text78
 12496  0885                     __ptext78:	
 12497 ;; *************** function _ADC_DefaultInterruptHandler *****************
 12498 ;; Defined at:
 12499 ;;		line 163 in file "mcc_generated_files/adc.c"
 12500 ;; Parameters:    Size  Location     Type
 12501 ;;		None
 12502 ;; Auto vars:     Size  Location     Type
 12503 ;;		None
 12504 ;; Return value:  Size  Location     Type
 12505 ;;                  1    wreg      void 
 12506 ;; Registers used:
 12507 ;;		None
 12508 ;; Tracked objects:
 12509 ;;		On entry : 0/0
 12510 ;;		On exit  : 0/0
 12511 ;;		Unchanged: 0/0
 12512 ;; Data sizes:     COMMON  BANK0h   BANK1   BANK2   BANK3   BANK4   BANK5   BANK6   BANK7   BANK8   BANK9  BANK10  BANK1
      +1  BANK12
 12513 ;;      Params:         0       0       0       0       0       0       0       0       0       0       0       0       
      +0       0
 12514 ;;      Locals:         0       0       0       0       0       0       0       0       0       0       0       0       
      +0       0
 12515 ;;      Temps:          0       0       0       0       0       0       0       0       0       0       0       0       
      +0       0
 12516 ;;      Totals:         0       0       0       0       0       0       0       0       0       0       0       0       
      +0       0
 12517 ;;Total ram usage:        0 bytes
 12518 ;; Hardware stack levels used:    1
 12519 ;; This function calls:
 12520 ;;		Nothing
 12521 ;; This function is called by:
 12522 ;;		_ADC_Initialize
 12523 ;;		_ADC_ISR
 12524 ;; This function uses a non-reentrant model
 12525 ;;
 12526                           
 12527                           
 12528                           ;psect for function _ADC_DefaultInterruptHandler
 12529  0885                     _ADC_DefaultInterruptHandler:
 12530  0885                     i1l1132:	
 12531                           ;incstack = 0
 12532                           ; Regs used in _ADC_DefaultInterruptHandler: []
 12533                           
 12534  0885  0008               	return
 12535  0886                     __end_of_ADC_DefaultInterruptHandler:
 12536  007E                     btemp	set	126	;btemp
 12537  007E                     int$flags	set	126
 12538  007E                     wtemp0	set	126
 12539                           
 12540                           	psect	config
 12541                           
 12542                           ;Config register CONFIG1 @ 0x8007
 12543                           ;	Oscillator Selection Bits
 12544                           ;	FOSC = INTOSC, INTOSC oscillator: I/O function on CLKIN pin
 12545                           ;	Watchdog Timer Enable
 12546                           ;	WDTE = OFF, WDT disabled
 12547                           ;	Power-up Timer Enable
 12548                           ;	PWRTE = OFF, PWRT disabled
 12549                           ;	MCLR Pin Function Select
 12550                           ;	MCLRE = ON, MCLR/VPP pin function is MCLR
 12551                           ;	Flash Program Memory Code Protection
 12552                           ;	CP = OFF, Program memory code protection is disabled
 12553                           ;	Brown-out Reset Enable
 12554                           ;	BOREN = ON, Brown-out Reset enabled
 12555                           ;	Clock Out Enable
 12556                           ;	CLKOUTEN = OFF, CLKOUT function is disabled. I/O or oscillator function on the CLKOUT 
      +                          pin
 12557                           ;	Internal/External Switchover Mode
 12558                           ;	IESO = ON, Internal/External Switchover Mode is enabled
 12559                           ;	Fail-Safe Clock Monitor Enable
 12560                           ;	FCMEN = ON, Fail-Safe Clock Monitor is enabled
 12561  8007                     	org	32775
 12562  8007  3FE4               	dw	16356
 12563                           
 12564                           ;Config register CONFIG2 @ 0x8008
 12565                           ;	Flash Memory Self-Write Protection
 12566                           ;	WRT = OFF, Write protection off
 12567                           ;	CPU System Clock Selection Bit
 12568                           ;	CPUDIV = NOCLKDIV, NO CPU system divide
 12569                           ;	USB Low SPeed Clock Selection bit
 12570                           ;	USBLSCLK = 24MHz, System clock expects 24 MHz, FS/LS USB CLKENs divide-by is set to 4.
 12571                           ;	PLL Multipler Selection Bit
 12572                           ;	PLLMULT = 3x, 3x Output Frequency Selected
 12573                           ;	PLL Enable Bit
 12574                           ;	PLLEN = ENABLED, 3x or 4x PLL Enabled
 12575                           ;	Stack Overflow/Underflow Reset Enable
 12576                           ;	STVREN = ON, Stack Overflow or Underflow will cause a Reset
 12577                           ;	Brown-out Reset Voltage Selection
 12578                           ;	BORV = LO, Brown-out Reset Voltage (Vbor), low trip point selected.
 12579                           ;	Low-Power Brown Out Reset
 12580                           ;	LPBOR = OFF, Low-Power BOR is disabled
 12581                           ;	Low-Voltage Programming Enable
 12582                           ;	LVP = ON, Low-voltage programming enabled
 12583  8008                     	org	32776
 12584  8008  3F8F               	dw	16271

Data Sizes:
    Strings     0
    Constant    378
    Data        0
    BSS         82
    Persistent  34
    Stack       0

Auto Spaces:
    Space          Size  Autos    Used
    COMMON           14     14      14
    BANK0h           32     10      26
    BANK1            80      5      73
    BANK2            80      0       0
    BANK3            80      0       0
    BANK4            80      0       0
    BANK5            80      0       0
    BANK6            80      0       0
    BANK7            80      0       0
    BANK8            80      0       0
    BANK9            80      0       0
    BANK10           80      0       0
    BANK11           80      0       0
    BANK12           48      0       0

Pointer List with Targets:

    I2C_Read1ByteRegister@returnValue.data	PTR unsigned char  size(1) Largest target is 0

    I2C_Read2ByteRegister@returnValue.data	PTR unsigned char  size(1) Largest target is 0

    I2C_Write1ByteRegister@data.data	PTR unsigned char  size(1) Largest target is 0

    I2C_Write2ByteRegister@data.data	PTR unsigned char  size(1) Largest target is 0

    I2C_DO_TX$3806$0	PTR void  size(1) Largest target is 4
		 -> I2C_ReadDataBlock@bufferBlock(COMMON[3]), I2C_Write2ByteRegister@data(COMMON[2]), I2C_Write1ByteRegister@data(COMMON[1]), I2C_Read2ByteRegister@returnValue(COMMON[2]), 
		 -> NULL(NULL[0]), I2C_Read1ByteRegister@returnValue(COMMON[1]), 

    I2C_DO_TX$3811	PTR void  size(1) Largest target is 4
		 -> I2C_ReadDataBlock@bufferBlock(COMMON[3]), I2C_Write2ByteRegister@data(COMMON[2]), I2C_Write1ByteRegister@data(COMMON[1]), I2C_Read2ByteRegister@returnValue(COMMON[2]), 
		 -> NULL(NULL[0]), I2C_Read1ByteRegister@returnValue(COMMON[1]), 

    I2C_DO_TX$3806	PTR FTN(PTR void ,)enum E360 size(2) Largest target is 1
		 -> I2C_CallbackReturnReset(), I2C_CallbackReturnStop(), Absolute function(), rdBlkRegCompleteHandler(), 
		 -> wr2RegCompleteHandler(), wr1RegCompleteHandler(), rd2RegCompleteHandler(), rd1RegCompleteHandler(), 

    I2C_MasterFsm$3805	const PTR FTN()enum E2728 size(2) Largest target is 1
		 -> I2C_DO_ADDRESS_NACK(), I2C_DO_RESET(), I2C_DO_RX_NACK_RESTART(), I2C_DO_RX_NACK_STOP(), 
		 -> I2C_DO_RX_ACK(), I2C_DO_SEND_STOP(), I2C_DO_SEND_RESTART(), I2C_DO_SEND_RESTART_WRITE(), 
		 -> I2C_DO_SEND_RESTART_READ(), I2C_DO_TX_EMPTY(), I2C_DO_RCEN(), I2C_DO_RX(), 
		 -> I2C_DO_TX(), I2C_DO_SEND_ADR_WRITE(), I2C_DO_SEND_ADR_READ(), I2C_DO_IDLE(), 

    I2C_CallbackReturnStop@funPtr	PTR void  size(1) Largest target is 4
		 -> I2C_ReadDataBlock@bufferBlock(COMMON[3]), I2C_Write2ByteRegister@data(COMMON[2]), I2C_Write1ByteRegister@data(COMMON[1]), I2C_Read2ByteRegister@returnValue(COMMON[2]), 
		 -> NULL(NULL[0]), I2C_Read1ByteRegister@returnValue(COMMON[1]), 

    I2C_CallbackReturnReset@funPtr	PTR void  size(1) Largest target is 4
		 -> I2C_ReadDataBlock@bufferBlock(COMMON[3]), I2C_Write2ByteRegister@data(COMMON[2]), I2C_Write1ByteRegister@data(COMMON[1]), I2C_Read2ByteRegister@returnValue(COMMON[2]), 
		 -> NULL(NULL[0]), I2C_Read1ByteRegister@returnValue(COMMON[1]), 

    cb$0	PTR void  size(1) Largest target is 4
		 -> I2C_ReadDataBlock@bufferBlock(COMMON[3]), I2C_Write2ByteRegister@data(COMMON[2]), I2C_Write1ByteRegister@data(COMMON[1]), I2C_Read2ByteRegister@returnValue(COMMON[2]), 
		 -> NULL(NULL[0]), I2C_Read1ByteRegister@returnValue(COMMON[1]), 

    cb$0	PTR void  size(1) Largest target is 4
		 -> I2C_ReadDataBlock@bufferBlock(COMMON[3]), I2C_Write2ByteRegister@data(COMMON[2]), I2C_Write1ByteRegister@data(COMMON[1]), I2C_Read2ByteRegister@returnValue(COMMON[2]), 
		 -> NULL(NULL[0]), I2C_Read1ByteRegister@returnValue(COMMON[1]), 

    S2376$0$0	PTR void  size(1) Largest target is 4
		 -> I2C_ReadDataBlock@bufferBlock(COMMON[3]), I2C_Write2ByteRegister@data(COMMON[2]), I2C_Write1ByteRegister@data(COMMON[1]), I2C_Read2ByteRegister@returnValue(COMMON[2]), 
		 -> NULL(NULL[0]), I2C_Read1ByteRegister@returnValue(COMMON[1]), 

    USER_USB_CALLBACK_EVENT_HANDLER@pdata	PTR void  size(2) Largest target is 4096
		 -> RAM(DATA[4096]), USTATcopy(BANK0h[1]), USBActiveConfiguration(BANK0h[1]), BDT(ABS[32]), 
		 -> NULL(NULL[0]), 

    memset@dest	PTR void  size(1) Largest target is 32
		 -> USBAlternateInterface(BANK1[1]), BDT(ABS[32]), 

    memset@s	PTR unsigned char  size(1) Largest target is 32
		 -> USBAlternateInterface(BANK1[1]), BDT(ABS[32]), 

    memcpy@d1	PTR void  size(1) Largest target is 8
		 -> SetupPkt(ABS[8]), 

    memcpy@d	PTR unsigned char  size(1) Largest target is 8
		 -> SetupPkt(ABS[8]), 

    memcpy@s1	PTR const void  size(2) Largest target is 4096
		 -> CtrlTrfData(BANK0h[8]), RAM(DATA[4096]), SetupPkt(ABS[8]), 

    memcpy@s	PTR const unsigned char  size(2) Largest target is 4096
		 -> CtrlTrfData(BANK0h[8]), RAM(DATA[4096]), SetupPkt(ABS[8]), 

    ADC_SetInterruptHandler@InterruptHandler	PTR FTN()void  size(2) Largest target is 1
		 -> ADC_DefaultInterruptHandler(), 

    ADC_InterruptHandler	PTR FTN()void  size(2) Largest target is 1
		 -> ADC_DefaultInterruptHandler(), Absolute function(), 

    I2C_SetCallback@ptr	PTR void  size(1) Largest target is 4
		 -> I2C_ReadDataBlock@bufferBlock(COMMON[3]), I2C_Write2ByteRegister@data(COMMON[2]), I2C_Write1ByteRegister@data(COMMON[1]), I2C_Read2ByteRegister@returnValue(COMMON[2]), 
		 -> NULL(NULL[0]), I2C_Read1ByteRegister@returnValue(COMMON[1]), 

    I2C_SetCallback@cb	PTR FTN(PTR void ,)enum E360 size(2) Largest target is 1
		 -> Absolute function(), rdBlkRegCompleteHandler(), wr2RegCompleteHandler(), wr1RegCompleteHandler(), 
		 -> rd2RegCompleteHandler(), rd1RegCompleteHandler(), 

    MSSP_InterruptHandler	PTR FTN()void  size(2) Largest target is 1
		 -> I2C_MasterIsr(), Absolute function(), 

    I2C_SetDataCompleteCallback@ptr	PTR void  size(1) Largest target is 4
		 -> I2C_ReadDataBlock@bufferBlock(COMMON[3]), I2C_Write2ByteRegister@data(COMMON[2]), I2C_Write1ByteRegister@data(COMMON[1]), I2C_Read2ByteRegister@returnValue(COMMON[2]), 
		 -> NULL(NULL[0]), I2C_Read1ByteRegister@returnValue(COMMON[1]), 

    I2C_SetDataCompleteCallback@cb	PTR FTN(PTR void ,)enum E360 size(2) Largest target is 1
		 -> Absolute function(), rdBlkRegCompleteHandler(), wr2RegCompleteHandler(), wr1RegCompleteHandler(), 
		 -> rd2RegCompleteHandler(), rd1RegCompleteHandler(), 

    I2C_SetBuffer@buffer	PTR void  size(1) Largest target is 4
		 -> I2C_ReadDataBlock@reg(COMMON[1]), I2C_ReadDataBlock@bufferBlock(COMMON[3]), I2C_Write2ByteRegister@reg(COMMON[1]), I2C_Write2ByteRegister@data(COMMON[2]), 
		 -> I2C_Write1ByteRegister@reg(COMMON[1]), I2C_Write1ByteRegister@data(COMMON[1]), I2C_Read2ByteRegister@reg(COMMON[1]), I2C_Read2ByteRegister@returnValue(COMMON[2]), 
		 -> NULL(NULL[0]), I2C_Read1ByteRegister@reg(COMMON[1]), I2C_Read1ByteRegister@returnValue(COMMON[1]), 

    S2376$data_ptr	PTR unsigned char  size(1) Largest target is 4
		 -> I2C_ReadDataBlock@reg(COMMON[1]), I2C_ReadDataBlock@bufferBlock(COMMON[3]), I2C_Write2ByteRegister@reg(COMMON[1]), I2C_Write2ByteRegister@data(COMMON[2]), 
		 -> I2C_Write1ByteRegister@reg(COMMON[1]), I2C_Write1ByteRegister@data(COMMON[1]), I2C_Read2ByteRegister@reg(COMMON[1]), I2C_Read2ByteRegister@returnValue(COMMON[2]), 
		 -> NULL(NULL[0]), I2C_Read1ByteRegister@reg(COMMON[1]), I2C_Read1ByteRegister@returnValue(COMMON[1]), 

    I2C_Status.data_ptr	PTR unsigned char  size(1) Largest target is 4
		 -> I2C_ReadDataBlock@reg(COMMON[1]), I2C_ReadDataBlock@bufferBlock(COMMON[3]), I2C_Write2ByteRegister@reg(COMMON[1]), I2C_Write2ByteRegister@data(COMMON[2]), 
		 -> I2C_Write1ByteRegister@reg(COMMON[1]), I2C_Write1ByteRegister@data(COMMON[1]), I2C_Read2ByteRegister@reg(COMMON[1]), I2C_Read2ByteRegister@returnValue(COMMON[2]), 
		 -> NULL(NULL[0]), I2C_Read1ByteRegister@reg(COMMON[1]), I2C_Read1ByteRegister@returnValue(COMMON[1]), 

    S2376$callbackPayload	PTR void [6] size(1) Largest target is 4
		 -> I2C_ReadDataBlock@bufferBlock(COMMON[3]), I2C_Write2ByteRegister@data(COMMON[2]), I2C_Write1ByteRegister@data(COMMON[1]), I2C_Read2ByteRegister@returnValue(COMMON[2]), 
		 -> NULL(NULL[0]), I2C_Read1ByteRegister@returnValue(COMMON[1]), 

    I2C_Status.callbackPayload	PTR void [6] size(1) Largest target is 4
		 -> I2C_ReadDataBlock@bufferBlock(COMMON[3]), I2C_Write2ByteRegister@data(COMMON[2]), I2C_Write1ByteRegister@data(COMMON[1]), I2C_Read2ByteRegister@returnValue(COMMON[2]), 
		 -> NULL(NULL[0]), I2C_Read1ByteRegister@returnValue(COMMON[1]), 

    S2376$callbackTable	PTR FTN(PTR void ,)enum E360[6] size(2) Largest target is 1
		 -> I2C_CallbackReturnReset(), I2C_CallbackReturnStop(), Absolute function(), rdBlkRegCompleteHandler(), 
		 -> wr2RegCompleteHandler(), wr1RegCompleteHandler(), rd2RegCompleteHandler(), rd1RegCompleteHandler(), 

    I2C_Status.callbackTable	PTR FTN(PTR void ,)enum E360[6] size(2) Largest target is 1
		 -> I2C_CallbackReturnReset(), I2C_CallbackReturnStop(), Absolute function(), rdBlkRegCompleteHandler(), 
		 -> wr2RegCompleteHandler(), wr1RegCompleteHandler(), rd2RegCompleteHandler(), rd1RegCompleteHandler(), 

    i2c_fsmStateTable	const PTR FTN()enum E2728[16] size(2) Largest target is 1
		 -> I2C_DO_ADDRESS_NACK(), I2C_DO_RESET(), I2C_DO_RX_NACK_RESTART(), I2C_DO_RX_NACK_STOP(), 
		 -> I2C_DO_RX_ACK(), I2C_DO_SEND_STOP(), I2C_DO_SEND_RESTART(), I2C_DO_SEND_RESTART_WRITE(), 
		 -> I2C_DO_SEND_RESTART_READ(), I2C_DO_TX_EMPTY(), I2C_DO_RCEN(), I2C_DO_RX(), 
		 -> I2C_DO_TX(), I2C_DO_SEND_ADR_WRITE(), I2C_DO_SEND_ADR_READ(), I2C_DO_IDLE(), 

    IOCAF5_SetInterruptHandler@InterruptHandler	PTR FTN()void  size(2) Largest target is 1
		 -> IOCAF5_DefaultInterruptHandler(), 

    IOCAF5_InterruptHandler	PTR FTN()void  size(2) Largest target is 1
		 -> Absolute function(), IOCAF5_DefaultInterruptHandler(), 

    USBStdFeatureReqHandler@pUEP	PTR unsigned char  size(2) Largest target is 1
		 -> UEP0(SFR29[1]), 

    USBStdFeatureReqHandler@p	PTR struct __BDT size(2) Largest target is 4096
		 -> RAM(DATA[4096]), BDT(ABS[32]), NULL(NULL[0]), 

    sp__memcpy	PTR void  size(1) Largest target is 8
		 -> SetupPkt(ABS[8]), 

    USBStdGetStatusHandler@p	PTR struct __BDT size(2) Largest target is 4096
		 -> RAM(DATA[4096]), BDT(ABS[32]), NULL(NULL[0]), 

    sp__memset	PTR void  size(1) Largest target is 32
		 -> USBAlternateInterface(BANK1[1]), BDT(ABS[32]), 

    USBStdSetCfgHandler@p	PTR unsigned char  size(2) Largest target is 1
		 -> UEP1(SFR29[1]), 

    pDst	PTR volatile unsigned char  size(1) Largest target is 8
		 -> CtrlTrfData(BANK0h[8]), NULL(NULL[0]), 

    pBDTEntryEP0OutCurrent	PTR volatile struct __BDT size(1) Largest target is 32
		 -> BDT(ABS[32]), NULL(NULL[0]), 

    pBDTEntryEP0OutNext	PTR volatile struct __BDT size(2) Largest target is 4096
		 -> RAM(DATA[4096]), BDT(ABS[32]), NULL(NULL[0]), 

    sp__USBTransferOnePacket	PTR void  size(2) Largest target is 4096
		 -> RAM(DATA[4096]), BDT(ABS[32]), NULL(NULL[0]), 

    pBDTEntryOut	PTR volatile struct __BDT[2] size(2) Largest target is 4096
		 -> RAM(DATA[4096]), BDT(ABS[32]), NULL(NULL[0]), 

    pBDTEntryIn	PTR volatile struct __BDT[2] size(2) Largest target is 4096
		 -> RAM(DATA[4096]), BDT(ABS[32]), NULL(NULL[0]), 

    S722$pFunc	PTR FTN()void  size(2) Largest target is 0

    outPipes.pFunc	PTR FTN()void  size(2) Largest target is 0

    S712$wRam	PTR unsigned short  size(1) Largest target is 0

    outPipes.pDst.wRam	PTR unsigned short  size(1) Largest target is 0

    S712$bRam	PTR unsigned char  size(1) Largest target is 0

    outPipes.pDst.bRam	PTR unsigned char  size(1) Largest target is 0

    USBDeviceInit@p	PTR unsigned char  size(2) Largest target is 1
		 -> UEP1(SFR29[1]), 

    S510$wRom	PTR const unsigned short  size(1) Largest target is 0

    inPipes.pSrc.wRom	PTR const unsigned short  size(1) Largest target is 0

    S510$wRam	PTR unsigned short  size(1) Largest target is 0

    inPipes.pSrc.wRam	PTR unsigned short  size(1) Largest target is 0

    S510$bRom	PTR const unsigned char  size(1) Largest target is 0

    inPipes.pSrc.bRom	PTR const unsigned char  size(1) Largest target is 0

    S510$bRam	PTR unsigned char  size(1) Largest target is 0

    inPipes.pSrc.bRam	PTR unsigned char  size(1) Largest target is 0

    USB_SD_Ptr	const PTR const unsigned char [4] size(2) Largest target is 52
		 -> sd003(CODE[8]), sd002(CODE[22]), sd001(CODE[52]), sd000(CODE[4]), 

    USB_CD_Ptr	const PTR const unsigned char [1] size(2) Largest target is 32
		 -> configDescriptor1(CODE[32]), 

    rdBlkRegCompleteHandler@ptr.data	PTR unsigned char  size(1) Largest target is 0

    rdBlkRegCompleteHandler@ptr	PTR void  size(1) Largest target is 4
		 -> I2C_ReadDataBlock@bufferBlock(COMMON[3]), I2C_Write2ByteRegister@data(COMMON[2]), I2C_Write1ByteRegister@data(COMMON[1]), I2C_Read2ByteRegister@returnValue(COMMON[2]), 
		 -> NULL(NULL[0]), I2C_Read1ByteRegister@returnValue(COMMON[1]), 

    wr2RegCompleteHandler@ptr	PTR void  size(1) Largest target is 4
		 -> I2C_ReadDataBlock@bufferBlock(COMMON[3]), I2C_Write2ByteRegister@data(COMMON[2]), I2C_Write1ByteRegister@data(COMMON[1]), I2C_Read2ByteRegister@returnValue(COMMON[2]), 
		 -> NULL(NULL[0]), I2C_Read1ByteRegister@returnValue(COMMON[1]), 

    wr1RegCompleteHandler@ptr	PTR void  size(1) Largest target is 4
		 -> I2C_ReadDataBlock@bufferBlock(COMMON[3]), I2C_Write2ByteRegister@data(COMMON[2]), I2C_Write1ByteRegister@data(COMMON[1]), I2C_Read2ByteRegister@returnValue(COMMON[2]), 
		 -> NULL(NULL[0]), I2C_Read1ByteRegister@returnValue(COMMON[1]), 

    rd2RegCompleteHandler@ptr	PTR void  size(1) Largest target is 4
		 -> I2C_ReadDataBlock@bufferBlock(COMMON[3]), I2C_Write2ByteRegister@data(COMMON[2]), I2C_Write1ByteRegister@data(COMMON[1]), I2C_Read2ByteRegister@returnValue(COMMON[2]), 
		 -> NULL(NULL[0]), I2C_Read1ByteRegister@returnValue(COMMON[1]), 

    rd1RegCompleteHandler@ptr	PTR void  size(1) Largest target is 4
		 -> I2C_ReadDataBlock@bufferBlock(COMMON[3]), I2C_Write2ByteRegister@data(COMMON[2]), I2C_Write1ByteRegister@data(COMMON[1]), I2C_Read2ByteRegister@returnValue(COMMON[2]), 
		 -> NULL(NULL[0]), I2C_Read1ByteRegister@returnValue(COMMON[1]), 

    S95$data	PTR unsigned char  size(1) Largest target is 0

    bufferBlock.data	PTR unsigned char  size(1) Largest target is 0


Critical Paths under _main in COMMON

    None.

Critical Paths under _INTERRUPT_InterruptManager in COMMON

    _USBWakeFromSuspend->_USER_USB_CALLBACK_EVENT_HANDLER
    _USBSuspend->_USER_USB_CALLBACK_EVENT_HANDLER
    _USBCtrlEPService->_USBCtrlTrfSetupHandler
    _USBCtrlTrfSetupHandler->_USBCheckStdRequest
    _USBCtrlEPServiceComplete->_USBCtrlEPAllowDataStage
    _USBCtrlEPAllowDataStage->_USBCtrlTrfTxService
    _USBCheckStdRequest->_USBStdFeatureReqHandler
    _USBCheckStdRequest->_USBStdSetCfgHandler
    _USBStdSetCfgHandler->_memset
    _USBStdFeatureReqHandler->_USER_USB_CALLBACK_EVENT_HANDLER
    _USER_USB_CALLBACK_EVENT_HANDLER->_USBCheckVendorRequest
    _USBCtrlTrfOutHandler->_USBCtrlTrfRxService
    _USBCtrlTrfRxService->_USBCtrlEPAllowStatusStage
    _USBCtrlTrfInHandler->_USBCtrlTrfTxService
    _I2C_MasterFsm->_I2C_DO_ADDRESS_NACK
    _I2C_MasterFsm->_I2C_DO_RX
    _I2C_MasterFsm->_I2C_DO_TX
    _I2C_MasterFsm->_I2C_DO_TX_EMPTY
    _I2C_DO_TX_EMPTY->_I2C_CallbackReturnReset
    _I2C_DO_TX_EMPTY->_I2C_CallbackReturnStop
    _I2C_DO_TX_EMPTY->_rd1RegCompleteHandler
    _I2C_DO_TX_EMPTY->_rd2RegCompleteHandler
    _I2C_DO_TX_EMPTY->_rdBlkRegCompleteHandler
    _I2C_DO_TX_EMPTY->_wr1RegCompleteHandler
    _I2C_DO_TX_EMPTY->_wr2RegCompleteHandler
    _I2C_DO_TX->_I2C_CallbackReturnReset
    _I2C_DO_TX->_I2C_CallbackReturnStop
    _I2C_DO_TX->_rd1RegCompleteHandler
    _I2C_DO_TX->_rd2RegCompleteHandler
    _I2C_DO_TX->_rdBlkRegCompleteHandler
    _I2C_DO_TX->_wr1RegCompleteHandler
    _I2C_DO_TX->_wr2RegCompleteHandler
    _I2C_DO_SEND_ADR_WRITE->_I2C_MasterSendTxData
    _I2C_DO_RX->_I2C_CallbackReturnReset
    _I2C_DO_RX->_I2C_CallbackReturnStop
    _I2C_DO_RX->_rd1RegCompleteHandler
    _I2C_DO_RX->_rd2RegCompleteHandler
    _I2C_DO_RX->_rdBlkRegCompleteHandler
    _I2C_DO_RX->_wr1RegCompleteHandler
    _I2C_DO_RX->_wr2RegCompleteHandler
    _I2C_DO_ADDRESS_NACK->_I2C_CallbackReturnReset
    _I2C_DO_ADDRESS_NACK->_I2C_CallbackReturnStop
    _I2C_DO_ADDRESS_NACK->_rd1RegCompleteHandler
    _I2C_DO_ADDRESS_NACK->_rd2RegCompleteHandler
    _I2C_DO_ADDRESS_NACK->_rdBlkRegCompleteHandler
    _I2C_DO_ADDRESS_NACK->_wr1RegCompleteHandler
    _I2C_DO_ADDRESS_NACK->_wr2RegCompleteHandler
    _wr2RegCompleteHandler->_I2C_SetDataCompleteCallback
    _wr1RegCompleteHandler->_I2C_SetDataCompleteCallback
    _rdBlkRegCompleteHandler->_I2C_SetDataCompleteCallback
    _rd2RegCompleteHandler->_I2C_SetDataCompleteCallback
    _rd1RegCompleteHandler->_I2C_SetDataCompleteCallback
    _I2C_SetDataCompleteCallback->_I2C_SetCallback

Critical Paths under _main in BANK0h

    None.

Critical Paths under _INTERRUPT_InterruptManager in BANK0h

    _INTERRUPT_InterruptManager->_USBDeviceTasks
    _USBDeviceTasks->_USBCtrlEPService
    _USBCheckStdRequest->_USBStdFeatureReqHandler
    _I2C_MasterIsr->_I2C_MasterFsm

Critical Paths under _main in BANK1

    _SYSTEM_Initialize->_USBDeviceInit
    _PIN_MANAGER_Initialize->_IOCAF5_SetInterruptHandler
    _ADC_Initialize->_ADC_SetInterruptHandler

Critical Paths under _INTERRUPT_InterruptManager in BANK1

    None.

Critical Paths under _main in BANK2

    None.

Critical Paths under _INTERRUPT_InterruptManager in BANK2

    None.

Critical Paths under _main in BANK3

    None.

Critical Paths under _INTERRUPT_InterruptManager in BANK3

    None.

Critical Paths under _main in BANK4

    None.

Critical Paths under _INTERRUPT_InterruptManager in BANK4

    None.

Critical Paths under _main in BANK5

    None.

Critical Paths under _INTERRUPT_InterruptManager in BANK5

    None.

Critical Paths under _main in BANK6

    None.

Critical Paths under _INTERRUPT_InterruptManager in BANK6

    None.

Critical Paths under _main in BANK7

    None.

Critical Paths under _INTERRUPT_InterruptManager in BANK7

    None.

Critical Paths under _main in BANK8

    None.

Critical Paths under _INTERRUPT_InterruptManager in BANK8

    None.

Critical Paths under _main in BANK9

    None.

Critical Paths under _INTERRUPT_InterruptManager in BANK9

    None.

Critical Paths under _main in BANK10

    None.

Critical Paths under _INTERRUPT_InterruptManager in BANK10

    None.

Critical Paths under _main in BANK11

    None.

Critical Paths under _INTERRUPT_InterruptManager in BANK11

    None.

Critical Paths under _main in BANK12

    None.

Critical Paths under _INTERRUPT_InterruptManager in BANK12

    None.

Call Graph Tables:

 ---------------------------------------------------------------------------------
 (Depth) Function   	        Calls       Base Space   Used Autos Params    Refs
 ---------------------------------------------------------------------------------
 (0) _main                                                 0     0      0     666
                  _SYSTEM_Initialize
 ---------------------------------------------------------------------------------
 (1) _SYSTEM_Initialize                                    0     0      0     666
                     _ADC_Initialize
                     _I2C_Initialize
              _OSCILLATOR_Initialize
             _PIN_MANAGER_Initialize
                    _USBDeviceAttach
                      _USBDeviceInit
                     _WDT_Initialize
 ---------------------------------------------------------------------------------
 (2) _WDT_Initialize                                       0     0      0       0
 ---------------------------------------------------------------------------------
 (2) _USBDeviceInit                                        5     5      0     396
                                              0 BANK1      5     5      0
 ---------------------------------------------------------------------------------
 (2) _USBDeviceAttach                                      1     1      0       0
                                              0 BANK1      1     1      0
 ---------------------------------------------------------------------------------
 (2) _PIN_MANAGER_Initialize                               0     0      0     135
         _IOCAF5_SetInterruptHandler
 ---------------------------------------------------------------------------------
 (3) _IOCAF5_SetInterruptHandler                           2     0      2     135
                                              0 BANK1      2     0      2
 ---------------------------------------------------------------------------------
 (2) _OSCILLATOR_Initialize                                0     0      0       0
 ---------------------------------------------------------------------------------
 (2) _I2C_Initialize                                       0     0      0       0
 ---------------------------------------------------------------------------------
 (2) _ADC_Initialize                                       0     0      0     135
            _ADC_SetInterruptHandler
 ---------------------------------------------------------------------------------
 (3) _ADC_SetInterruptHandler                              2     0      2     135
                                              0 BANK1      2     0      2
 ---------------------------------------------------------------------------------
 Estimated maximum stack depth 3
 ---------------------------------------------------------------------------------
 (Depth) Function   	        Calls       Base Space   Used Autos Params    Refs
 ---------------------------------------------------------------------------------
 (4) _INTERRUPT_InterruptManager                           0     0      0  112450
                   Absolute function *
                            _ADC_ISR
                      _I2C_MasterIsr *
                    _PIN_MANAGER_IOC
                     _USBDeviceTasks
 ---------------------------------------------------------------------------------
 (5) _USBDeviceTasks                                       3     3      0   22336
                                              7 BANK0h     3     3      0
          _USBCtrlEPAllowStatusStage
                   _USBCtrlEPService
      _USBIncrement1msInternalTimers
                    _USBStallHandler
                         _USBSuspend
                 _USBWakeFromSuspend
    _USER_USB_CALLBACK_EVENT_HANDLER
                    i1_USBDeviceInit
 ---------------------------------------------------------------------------------
 (6) i1_USBDeviceInit                                      5     5      0     272
                                              0 COMMON     5     5      0
 ---------------------------------------------------------------------------------
 (6) _USBWakeFromSuspend                                   1     1      0    2784
                                              9 COMMON     1     1      0
    _USER_USB_CALLBACK_EVENT_HANDLER
 ---------------------------------------------------------------------------------
 (6) _USBSuspend                                           1     1      0    2784
                                              9 COMMON     1     1      0
    _USER_USB_CALLBACK_EVENT_HANDLER
 ---------------------------------------------------------------------------------
 (6) _USBStallHandler                                      1     1      0       0
                                              0 COMMON     1     1      0
 ---------------------------------------------------------------------------------
 (6) _USBIncrement1msInternalTimers                        1     1      0       0
                                              0 COMMON     1     1      0
 ---------------------------------------------------------------------------------
 (6) _USBCtrlEPService                                     2     2      0   13644
                                              5 BANK0h     2     2      0
                _USBCtrlTrfInHandler
               _USBCtrlTrfOutHandler
             _USBCtrlTrfSetupHandler
                             _memcpy
 ---------------------------------------------------------------------------------
 (7) _memcpy                                              10     6      4     363
                                              0 COMMON    10     6      4
 ---------------------------------------------------------------------------------
 (7) _USBCtrlTrfSetupHandler                               1     1      0   13052
                                             13 COMMON     1     1      0
                 _USBCheckStdRequest
           _USBCtrlEPServiceComplete
    _USER_USB_CALLBACK_EVENT_HANDLER
 ---------------------------------------------------------------------------------
 (8) _USBCtrlEPServiceComplete                             2     2      0      92
                                              5 COMMON     2     2      0
            _USBCtrlEPAllowDataStage
          _USBCtrlEPAllowStatusStage
 ---------------------------------------------------------------------------------
 (9) _USBCtrlEPAllowDataStage                              2     2      0      92
                                              3 COMMON     2     2      0
                _USBCtrlTrfTxService
 ---------------------------------------------------------------------------------
 (8) _USBCheckStdRequest                                   2     2      0   10176
                                             11 COMMON     2     2      0
            _USBStdFeatureReqHandler
                _USBStdGetDscHandler
             _USBStdGetStatusHandler
                _USBStdSetCfgHandler
    _USER_USB_CALLBACK_EVENT_HANDLER
 ---------------------------------------------------------------------------------
 (9) _USBStdSetCfgHandler                                  5     5      0    4091
                                             10 COMMON     1     1      0
                                              0 BANK0h     4     4      0
    _USER_USB_CALLBACK_EVENT_HANDLER
                             _memset
 ---------------------------------------------------------------------------------
 (10) _memset                                             10     6      4    1147
                                              0 COMMON    10     6      4
 ---------------------------------------------------------------------------------
 (9) _USBStdGetStatusHandler                               4     4      0      46
                                              0 COMMON     4     4      0
 ---------------------------------------------------------------------------------
 (9) _USBStdGetDscHandler                                  3     3      0       0
                                              0 COMMON     3     3      0
 ---------------------------------------------------------------------------------
 (9) _USBStdFeatureReqHandler                              7     7      0    3255
                                              9 COMMON     2     2      0
                                              0 BANK0h     5     5      0
    _USER_USB_CALLBACK_EVENT_HANDLER
 ---------------------------------------------------------------------------------
 (6) _USER_USB_CALLBACK_EVENT_HANDLER                      6     0      6    2784
                                              3 COMMON     6     0      6
              _USBCheckVendorRequest
 ---------------------------------------------------------------------------------
 (7) _USBCheckVendorRequest                                3     3      0      92
                                              0 COMMON     3     3      0
 ---------------------------------------------------------------------------------
 (7) _USBCtrlTrfOutHandler                                 2     2      0     114
                                              6 COMMON     2     2      0
                _USBCtrlTrfRxService
 ---------------------------------------------------------------------------------
 (8) _USBCtrlTrfRxService                                  4     4      0     114
                                              2 COMMON     4     4      0
          _USBCtrlEPAllowStatusStage
 ---------------------------------------------------------------------------------
 (9) _USBCtrlEPAllowStatusStage                            2     2      0       0
                                              0 COMMON     2     2      0
 ---------------------------------------------------------------------------------
 (7) _USBCtrlTrfInHandler                                  3     3      0     115
                                              3 COMMON     3     3      0
                _USBCtrlTrfTxService
 ---------------------------------------------------------------------------------
 (10) _USBCtrlTrfTxService                                 3     3      0      92
                                              0 COMMON     3     3      0
 ---------------------------------------------------------------------------------
 (5) _PIN_MANAGER_IOC                                      0     0      0       0
                         _IOCAF5_ISR
 ---------------------------------------------------------------------------------
 (6) _IOCAF5_ISR                                           0     0      0       0
                   Absolute function *
     _IOCAF5_DefaultInterruptHandler *
 ---------------------------------------------------------------------------------
 (7) _IOCAF5_DefaultInterruptHandler                       0     0      0       0
 ---------------------------------------------------------------------------------
 (5) _I2C_MasterIsr                                        0     0      0   90114
                      _I2C_MasterFsm
 ---------------------------------------------------------------------------------
 (6) _I2C_MasterFsm                                        3     3      0   90114
                                              0 BANK0h     3     3      0
                _I2C_DO_ADDRESS_NACK *
                        _I2C_DO_IDLE *
                        _I2C_DO_RCEN *
                       _I2C_DO_RESET *
                          _I2C_DO_RX *
                      _I2C_DO_RX_ACK *
             _I2C_DO_RX_NACK_RESTART *
                _I2C_DO_RX_NACK_STOP *
               _I2C_DO_SEND_ADR_READ *
              _I2C_DO_SEND_ADR_WRITE *
                _I2C_DO_SEND_RESTART *
           _I2C_DO_SEND_RESTART_READ *
          _I2C_DO_SEND_RESTART_WRITE *
                   _I2C_DO_SEND_STOP *
                          _I2C_DO_TX *
                    _I2C_DO_TX_EMPTY *
                 _I2C_MasterClearIrq
                   _I2C_MasterIsNack
 ---------------------------------------------------------------------------------
 (7) _I2C_MasterClearIrq                                   0     0      0       0
 ---------------------------------------------------------------------------------
 (7) _I2C_DO_TX_EMPTY                                      3     3      0   22512
                                             10 COMMON     3     3      0
                   Absolute function *
            _I2C_CallbackReturnReset *
             _I2C_CallbackReturnStop *
                _I2C_DO_SEND_RESTART
                   _I2C_DO_SEND_STOP
                   _I2C_MasterSetIrq
              _rd1RegCompleteHandler *
              _rd2RegCompleteHandler *
            _rdBlkRegCompleteHandler *
              _wr1RegCompleteHandler *
              _wr2RegCompleteHandler *
 ---------------------------------------------------------------------------------
 (8) _I2C_MasterSetIrq                                     0     0      0       0
 ---------------------------------------------------------------------------------
 (7) _I2C_DO_TX                                            3     3      0   22534
                                             10 COMMON     3     3      0
                   Absolute function *
            _I2C_CallbackReturnReset *
             _I2C_CallbackReturnStop *
           _I2C_DO_SEND_RESTART_READ
          _I2C_DO_SEND_RESTART_WRITE
                   _I2C_DO_SEND_STOP
                   _I2C_MasterIsNack
               _I2C_MasterSendTxData
              _rd1RegCompleteHandler *
              _rd2RegCompleteHandler *
            _rdBlkRegCompleteHandler *
              _wr1RegCompleteHandler *
              _wr2RegCompleteHandler *
 ---------------------------------------------------------------------------------
 (7) _I2C_MasterIsNack                                     0     0      0       0
 ---------------------------------------------------------------------------------
 (8) _I2C_DO_SEND_RESTART_WRITE                            0     0      0       0
            _I2C_MasterEnableRestart
 ---------------------------------------------------------------------------------
 (8) _I2C_DO_SEND_RESTART_READ                             0     0      0       0
            _I2C_MasterEnableRestart
 ---------------------------------------------------------------------------------
 (7) _I2C_DO_SEND_ADR_WRITE                                0     0      0      22
               _I2C_MasterSendTxData
 ---------------------------------------------------------------------------------
 (7) _I2C_DO_SEND_ADR_READ                                 0     0      0      22
               _I2C_MasterSendTxData
 ---------------------------------------------------------------------------------
 (8) _I2C_MasterSendTxData                                 1     1      0      22
                                              0 COMMON     1     1      0
 ---------------------------------------------------------------------------------
 (7) _I2C_DO_RX_ACK                                        0     0      0       0
                  _I2C_MasterSendAck
 ---------------------------------------------------------------------------------
 (7) _I2C_DO_RX                                            3     3      0   22512
                                             10 COMMON     3     3      0
                   Absolute function *
            _I2C_CallbackReturnReset *
             _I2C_CallbackReturnStop *
             _I2C_DO_RX_NACK_RESTART
                _I2C_DO_RX_NACK_STOP
                _I2C_MasterGetRxData
                  _I2C_MasterSendAck
              _rd1RegCompleteHandler *
              _rd2RegCompleteHandler *
            _rdBlkRegCompleteHandler *
              _wr1RegCompleteHandler *
              _wr2RegCompleteHandler *
 ---------------------------------------------------------------------------------
 (8) _I2C_MasterSendAck                                    0     0      0       0
 ---------------------------------------------------------------------------------
 (8) _I2C_MasterGetRxData                                  0     0      0       0
 ---------------------------------------------------------------------------------
 (7) _I2C_DO_RX_NACK_STOP                                  0     0      0       0
                 _I2C_MasterSendNack
 ---------------------------------------------------------------------------------
 (7) _I2C_DO_RX_NACK_RESTART                               0     0      0       0
                 _I2C_MasterSendNack
 ---------------------------------------------------------------------------------
 (8) _I2C_MasterSendNack                                   0     0      0       0
 ---------------------------------------------------------------------------------
 (7) _I2C_DO_RESET                                         0     0      0       0
 ---------------------------------------------------------------------------------
 (7) _I2C_DO_RCEN                                          0     0      0       0
                  _I2C_MasterStartRx
 ---------------------------------------------------------------------------------
 (8) _I2C_MasterStartRx                                    0     0      0       0
 ---------------------------------------------------------------------------------
 (7) _I2C_DO_IDLE                                          0     0      0       0
 ---------------------------------------------------------------------------------
 (7) _I2C_DO_ADDRESS_NACK                                  3     3      0   22512
                                             10 COMMON     3     3      0
                   Absolute function *
            _I2C_CallbackReturnReset *
             _I2C_CallbackReturnStop *
                _I2C_DO_SEND_RESTART
                   _I2C_DO_SEND_STOP
              _rd1RegCompleteHandler *
              _rd2RegCompleteHandler *
            _rdBlkRegCompleteHandler *
              _wr1RegCompleteHandler *
              _wr2RegCompleteHandler *
 ---------------------------------------------------------------------------------
 (8) _wr2RegCompleteHandler                                1     0      1    4434
                                              9 COMMON     1     0      1
                      _I2C_SetBuffer
        _I2C_SetDataCompleteCallback
 ---------------------------------------------------------------------------------
 (8) _wr1RegCompleteHandler                                1     0      1    4434
                                              9 COMMON     1     0      1
                      _I2C_SetBuffer
        _I2C_SetDataCompleteCallback
 ---------------------------------------------------------------------------------
 (8) _rdBlkRegCompleteHandler                              1     0      1    4456
                                              9 COMMON     1     0      1
                      _I2C_SetBuffer
        _I2C_SetDataCompleteCallback
 ---------------------------------------------------------------------------------
 (8) _rd2RegCompleteHandler                                1     0      1    4434
                                              9 COMMON     1     0      1
                      _I2C_SetBuffer
        _I2C_SetDataCompleteCallback
 ---------------------------------------------------------------------------------
 (8) _rd1RegCompleteHandler                                1     0      1    4434
                                              9 COMMON     1     0      1
                      _I2C_SetBuffer
        _I2C_SetDataCompleteCallback
 ---------------------------------------------------------------------------------
 (9) _I2C_SetDataCompleteCallback                          4     1      3    2868
                                              5 COMMON     4     1      3
                    _I2C_SetCallback
 ---------------------------------------------------------------------------------
 (10) _I2C_SetCallback                                     5     2      3    1044
                                              0 COMMON     5     2      3
 ---------------------------------------------------------------------------------
 (9) _I2C_SetBuffer                                        4     2      2    1544
                                              0 COMMON     4     2      2
 ---------------------------------------------------------------------------------
 (8) _I2C_DO_SEND_STOP                                     0     0      0       0
                     _I2C_MasterStop
 ---------------------------------------------------------------------------------
 (9) _I2C_MasterStop                                       0     0      0       0
 ---------------------------------------------------------------------------------
 (8) _I2C_DO_SEND_RESTART                                  0     0      0       0
            _I2C_MasterEnableRestart
 ---------------------------------------------------------------------------------
 (9) _I2C_MasterEnableRestart                              0     0      0       0
 ---------------------------------------------------------------------------------
 (8) _I2C_CallbackReturnStop                               1     0      1       0
                                              9 COMMON     1     0      1
 ---------------------------------------------------------------------------------
 (8) _I2C_CallbackReturnReset                              1     0      1     320
                                              9 COMMON     1     0      1
 ---------------------------------------------------------------------------------
 (5) _ADC_ISR                                              0     0      0       0
                   Absolute function *
        _ADC_DefaultInterruptHandler *
 ---------------------------------------------------------------------------------
 (6) _ADC_DefaultInterruptHandler                          0     0      0       0
 ---------------------------------------------------------------------------------
 (7) Absolute function(Fake)                               0     0      0       0
 ---------------------------------------------------------------------------------
 Estimated maximum stack depth 10
 ---------------------------------------------------------------------------------

 Call Graph Graphs:

 _main (ROOT)
   _SYSTEM_Initialize
     _ADC_Initialize
       _ADC_SetInterruptHandler
     _I2C_Initialize
     _OSCILLATOR_Initialize
     _PIN_MANAGER_Initialize
       _IOCAF5_SetInterruptHandler
     _USBDeviceAttach
     _USBDeviceInit
     _WDT_Initialize

 _INTERRUPT_InterruptManager (ROOT)
   Absolute function(Fake) *
   _ADC_ISR *
     Absolute function(Fake) *
     _ADC_DefaultInterruptHandler *
   _I2C_MasterIsr *
     _I2C_MasterFsm
       _I2C_DO_ADDRESS_NACK *
         Absolute function(Fake) *
         _I2C_CallbackReturnReset *
         _I2C_CallbackReturnStop *
         _I2C_DO_SEND_RESTART *
           _I2C_MasterEnableRestart
         _I2C_DO_SEND_STOP *
           _I2C_MasterStop
         _rd1RegCompleteHandler *
           _I2C_SetBuffer
           _I2C_SetDataCompleteCallback
             _I2C_SetCallback
         _rd2RegCompleteHandler *
           _I2C_SetBuffer
           _I2C_SetDataCompleteCallback
             _I2C_SetCallback
         _rdBlkRegCompleteHandler *
           _I2C_SetBuffer
           _I2C_SetDataCompleteCallback
             _I2C_SetCallback
         _wr1RegCompleteHandler *
           _I2C_SetBuffer
           _I2C_SetDataCompleteCallback
             _I2C_SetCallback
         _wr2RegCompleteHandler *
           _I2C_SetBuffer
           _I2C_SetDataCompleteCallback
             _I2C_SetCallback
       _I2C_DO_IDLE *
       _I2C_DO_RCEN *
         _I2C_MasterStartRx
       _I2C_DO_RESET *
       _I2C_DO_RX *
         Absolute function(Fake) *
         _I2C_CallbackReturnReset *
         _I2C_CallbackReturnStop *
         _I2C_DO_RX_NACK_RESTART *
           _I2C_MasterSendNack
         _I2C_DO_RX_NACK_STOP *
           _I2C_MasterSendNack
         _I2C_MasterGetRxData *
         _I2C_MasterSendAck *
         _rd1RegCompleteHandler *
           _I2C_SetBuffer
           _I2C_SetDataCompleteCallback
             _I2C_SetCallback
         _rd2RegCompleteHandler *
           _I2C_SetBuffer
           _I2C_SetDataCompleteCallback
             _I2C_SetCallback
         _rdBlkRegCompleteHandler *
           _I2C_SetBuffer
           _I2C_SetDataCompleteCallback
             _I2C_SetCallback
         _wr1RegCompleteHandler *
           _I2C_SetBuffer
           _I2C_SetDataCompleteCallback
             _I2C_SetCallback
         _wr2RegCompleteHandler *
           _I2C_SetBuffer
           _I2C_SetDataCompleteCallback
             _I2C_SetCallback
       _I2C_DO_RX_ACK *
         _I2C_MasterSendAck
       _I2C_DO_RX_NACK_RESTART *
         _I2C_MasterSendNack
       _I2C_DO_RX_NACK_STOP *
         _I2C_MasterSendNack
       _I2C_DO_SEND_ADR_READ *
         _I2C_MasterSendTxData
       _I2C_DO_SEND_ADR_WRITE *
         _I2C_MasterSendTxData
       _I2C_DO_SEND_RESTART *
         _I2C_MasterEnableRestart
       _I2C_DO_SEND_RESTART_READ *
         _I2C_MasterEnableRestart
       _I2C_DO_SEND_RESTART_WRITE *
         _I2C_MasterEnableRestart
       _I2C_DO_SEND_STOP *
         _I2C_MasterStop
       _I2C_DO_TX *
         Absolute function(Fake) *
         _I2C_CallbackReturnReset *
         _I2C_CallbackReturnStop *
         _I2C_DO_SEND_RESTART_READ *
           _I2C_MasterEnableRestart
         _I2C_DO_SEND_RESTART_WRITE *
           _I2C_MasterEnableRestart
         _I2C_DO_SEND_STOP *
           _I2C_MasterStop
         _I2C_MasterIsNack *
         _I2C_MasterSendTxData *
         _rd1RegCompleteHandler *
           _I2C_SetBuffer
           _I2C_SetDataCompleteCallback
             _I2C_SetCallback
         _rd2RegCompleteHandler *
           _I2C_SetBuffer
           _I2C_SetDataCompleteCallback
             _I2C_SetCallback
         _rdBlkRegCompleteHandler *
           _I2C_SetBuffer
           _I2C_SetDataCompleteCallback
             _I2C_SetCallback
         _wr1RegCompleteHandler *
           _I2C_SetBuffer
           _I2C_SetDataCompleteCallback
             _I2C_SetCallback
         _wr2RegCompleteHandler *
           _I2C_SetBuffer
           _I2C_SetDataCompleteCallback
             _I2C_SetCallback
       _I2C_DO_TX_EMPTY *
         Absolute function(Fake) *
         _I2C_CallbackReturnReset *
         _I2C_CallbackReturnStop *
         _I2C_DO_SEND_RESTART *
           _I2C_MasterEnableRestart
         _I2C_DO_SEND_STOP *
           _I2C_MasterStop
         _I2C_MasterSetIrq *
         _rd1RegCompleteHandler *
           _I2C_SetBuffer
           _I2C_SetDataCompleteCallback
             _I2C_SetCallback
         _rd2RegCompleteHandler *
           _I2C_SetBuffer
           _I2C_SetDataCompleteCallback
             _I2C_SetCallback
         _rdBlkRegCompleteHandler *
           _I2C_SetBuffer
           _I2C_SetDataCompleteCallback
             _I2C_SetCallback
         _wr1RegCompleteHandler *
           _I2C_SetBuffer
           _I2C_SetDataCompleteCallback
             _I2C_SetCallback
         _wr2RegCompleteHandler *
           _I2C_SetBuffer
           _I2C_SetDataCompleteCallback
             _I2C_SetCallback
       _I2C_MasterClearIrq *
       _I2C_MasterIsNack *
   _PIN_MANAGER_IOC *
     _IOCAF5_ISR
       Absolute function(Fake) *
       _IOCAF5_DefaultInterruptHandler *
   _USBDeviceTasks *
     _USBCtrlEPAllowStatusStage
     _USBCtrlEPService
       _USBCtrlTrfInHandler
         _USBCtrlTrfTxService
       _USBCtrlTrfOutHandler
         _USBCtrlTrfRxService
           _USBCtrlEPAllowStatusStage
       _USBCtrlTrfSetupHandler
         _USBCheckStdRequest
           _USBStdFeatureReqHandler
             _USER_USB_CALLBACK_EVENT_HANDLER
               _USBCheckVendorRequest
           _USBStdGetDscHandler
           _USBStdGetStatusHandler
           _USBStdSetCfgHandler
             _USER_USB_CALLBACK_EVENT_HANDLER
               _USBCheckVendorRequest
             _memset
           _USER_USB_CALLBACK_EVENT_HANDLER
             _USBCheckVendorRequest
         _USBCtrlEPServiceComplete
           _USBCtrlEPAllowDataStage
             _USBCtrlTrfTxService
           _USBCtrlEPAllowStatusStage
         _USER_USB_CALLBACK_EVENT_HANDLER
           _USBCheckVendorRequest
       _memcpy
     _USBIncrement1msInternalTimers
     _USBStallHandler
     _USBSuspend
       _USER_USB_CALLBACK_EVENT_HANDLER
         _USBCheckVendorRequest
     _USBWakeFromSuspend
       _USER_USB_CALLBACK_EVENT_HANDLER
         _USBCheckVendorRequest
     _USER_USB_CALLBACK_EVENT_HANDLER
       _USBCheckVendorRequest
     i1_USBDeviceInit

 Address spaces:
Name               Size   Autos  Total    Cost      Usage
BIGRAM             3F0      0       0       0        0.0%
NULL                 0      0       0       0        0.0%
CODE                 0      0       0       0        0.0%
BITCOMMON            E      0       0       1        0.0%
BITSFR0              0      0       0       1        0.0%
SFR0                 0      0       0       1        0.0%
COMMON               E      E       E       2      100.0%
BITSFR1              0      0       0       2        0.0%
SFR1                 0      0       0       2        0.0%
BITSFR2              0      0       0       3        0.0%
SFR2                 0      0       0       3        0.0%
STACK                0      0       0       3        0.0%
BITBANK0h           20      0       0       4        0.0%
BITSFR3              0      0       0       4        0.0%
SFR3                 0      0       0       4        0.0%
BANK0h              20      A      1A       5       81.2%
BITSFR4              0      0       0       5        0.0%
SFR4                 0      0       0       5        0.0%
BITBANK1            50      0       0       6        0.0%
BITSFR5              0      0       0       6        0.0%
SFR5                 0      0       0       6        0.0%
BANK1               50      5      49       7       91.2%
BITSFR6              0      0       0       7        0.0%
SFR6                 0      0       0       7        0.0%
BITBANK2            50      0       0       8        0.0%
BITSFR7              0      0       0       8        0.0%
SFR7                 0      0       0       8        0.0%
BANK2               50      0       0       9        0.0%
BITSFR8              0      0       0       9        0.0%
SFR8                 0      0       0       9        0.0%
BITBANK3            50      0       0      10        0.0%
BITSFR9              0      0       0      10        0.0%
SFR9                 0      0       0      10        0.0%
BANK3               50      0       0      11        0.0%
BITSFR10             0      0       0      11        0.0%
SFR10                0      0       0      11        0.0%
BITBANK4            50      0       0      12        0.0%
BITSFR11             0      0       0      12        0.0%
SFR11                0      0       0      12        0.0%
BANK4               50      0       0      13        0.0%
BITSFR12             0      0       0      13        0.0%
SFR12                0      0       0      13        0.0%
BITBANK5            50      0       0      14        0.0%
BITSFR13             0      0       0      14        0.0%
SFR13                0      0       0      14        0.0%
BANK5               50      0       0      15        0.0%
BITSFR14             0      0       0      15        0.0%
SFR14                0      0       0      15        0.0%
BITBANK6            50      0       0      16        0.0%
BITSFR15             0      0       0      16        0.0%
SFR15                0      0       0      16        0.0%
BANK6               50      0       0      17        0.0%
BITSFR16             0      0       0      17        0.0%
SFR16                0      0       0      17        0.0%
BITBANK7            50      0       0      18        0.0%
BITSFR17             0      0       0      18        0.0%
SFR17                0      0       0      18        0.0%
BANK7               50      0       0      19        0.0%
BITSFR18             0      0       0      19        0.0%
SFR18                0      0       0      19        0.0%
BITSFR19             0      0       0      20        0.0%
SFR19                0      0       0      20        0.0%
ABS                  0      0      71      20        0.0%
BITBANK8            50      0       0      21        0.0%
BITSFR20             0      0       0      21        0.0%
SFR20                0      0       0      21        0.0%
BANK8               50      0       0      22        0.0%
BITSFR21             0      0       0      22        0.0%
SFR21                0      0       0      22        0.0%
BITBANK9            50      0       0      23        0.0%
BITSFR22             0      0       0      23        0.0%
SFR22                0      0       0      23        0.0%
BANK9               50      0       0      24        0.0%
BITSFR23             0      0       0      24        0.0%
SFR23                0      0       0      24        0.0%
BITBANK10           50      0       0      25        0.0%
BITSFR24             0      0       0      25        0.0%
SFR24                0      0       0      25        0.0%
BANK10              50      0       0      26        0.0%
BITSFR25             0      0       0      26        0.0%
SFR25                0      0       0      26        0.0%
BITBANK11           50      0       0      27        0.0%
BITSFR26             0      0       0      27        0.0%
SFR26                0      0       0      27        0.0%
BANK11              50      0       0      28        0.0%
BITSFR27             0      0       0      28        0.0%
SFR27                0      0       0      28        0.0%
BITBANK12           30      0       0      29        0.0%
BITSFR28             0      0       0      29        0.0%
SFR28                0      0       0      29        0.0%
BANK12              30      0       0      30        0.0%
BITSFR29             0      0       0      30        0.0%
SFR29                0      0       0      30        0.0%
BITSFR30             0      0       0      31        0.0%
SFR30                0      0       0      31        0.0%
DATA                 0      0      71      31        0.0%
BITSFR31             0      0       0      32        0.0%
SFR31                0      0       0      32        0.0%


Microchip Technology PIC Macro Assembler V2.31 build 20201012212115 
Symbol Table                                                                                   Thu Mar 25 18:44:56 2021

                    ??_I2C_DO_SEND_ADR_READ 0070                 __size_of_I2C_MasterSendNack 0004  
                                _USB_SD_Ptr 10D6                     ??_I2C_DO_SEND_ADR_WRITE 0071  
                    ?_USBCheckVendorRequest 0070                               _USBDeviceInit 02CD  
                     ??_I2C_DO_SEND_RESTART 0070        USER_USB_CALLBACK_EVENT_HANDLER@event 0073  
      USER_USB_CALLBACK_EVENT_HANDLER@pdata 0075                                         l301 030F  
             __size_of_I2C_MasterSendTxData 0005                                         l306 0377  
               __end_of_USBStdGetDscHandler 06A3                                         l361 0A59  
                                       l362 0A58                                         l364 0A64  
                                       l608 0AB0                                         l731 0922  
                                       l619 08EA                                         _BDT 0020  
                                       l992 09D6                                         l995 0938  
                                       l998 093D                                         _UIE 0E92  
                                       _UIR 0E90                             __end_of_ADC_ISR 094D  
                                _USBSuspend 0A0B             __end_of_ADC_SetInterruptHandler 08E5  
                      USBStdSetCfgHandler@i 0063                        USBStdSetCfgHandler@p 0060  
                                       wreg 0009                              _USBDeviceTasks 01B2  
                            _USBDeviceState 005D          __end_of_IOCAF5_SetInterruptHandler 08EB  
                _IOCAF5_SetInterruptHandler 08E5                ?_ADC_DefaultInterruptHandler 0070  
                     ??_USBCtrlTrfRxService 0072                   _CompatIDFeatureDescriptor 1034  
                  ??_I2C_CallbackReturnStop 007A                                _I2C_DO_RESET 08D4  
                                      l1001 07FF                                        l1101 09C0  
                   ??_rd2RegCompleteHandler 007A                                        l1143 0905  
                                      l1144 0905                                        l1129 08E4  
                                      l6010 09CD                                        l6012 09D0  
                                      l6014 09D3                                        l6008 09C1  
                                      l6040 0900                                        l6042 0903  
                                      l6044 0904                                        l5800 0374  
                                      l5720 02CF                                        l5714 08E5  
                                      l5802 0375                                        l5730 02DE  
                                      l5722 02D3                                        l5716 08DF  
                                      l5900 09B6                                        l5732 02E2  
                                      l5902 09B8                                        l5830 0A4F  
                                      l5750 0311                                        l5734 02E6  
                                      l5718 02CD                                        l5904 09B9  
                                      l5840 0A8B                                        l5832 0A51  
                                      l5760 031C                                        l5752 0312  
                                      l5744 02F4                                        l5736 02EB  
                                      l5728 02D9                                        l5850 0A97  
                                      l5842 0A8E                                        l5834 0A53  
                                      l5826 0A46                                        l5770 032F  
                                      l5762 031E                                        l5754 0313  
                                      l5746 0305                                        l5738 02F2  
                                      l5860 0A9F                                        l5852 0A9A  
                                      l5844 0A90                                        l5836 0A55  
                                      l5828 0A4C                                        l5780 034A  
                                      l5772 0330                                        l5764 0320  
                                      l5756 0314                                        l5748 0309  
                                      l5870 0AA7                                        l5862 0AA1  
                                      l5854 0A9B                                        l5846 0A93  
                                      l5838 0A5E                                        l5790 0361  
                                      l5782 034E                                        l5774 0331  
                                      l5766 0325                                        l5758 031A  
                                      l5880 0921                                        l5872 0AAF  
                                      l5864 0AA3                                        l5856 0A9C  
                                      l5848 0A95                                        l5792 0363  
                                      l5784 0354                                        l5768 032E  
                                      l5874 091A                                        l5882 0930  
                                      l5866 0AA5                                        l5858 0A9E  
                                      l5794 0369                                        l5786 0359  
                                      l5778 0332                                        l5890 07FC  
                                      l5892 09B0                                        l5876 091C  
                                      l5884 0933                                        l5868 0AA6  
                                      l5796 036A                                        l5788 035C  
                                      l5894 09B3                                        l5878 091E  
                                      l5886 0934                                        l5798 036B  
                                      l5896 09B4                                        l5888 0936  
                                      l5898 09B5                                        _LATA 010C  
                                      _LATB 010D                                        _LATC 010E  
                                      u3640 02EB                                        u3641 02EA  
                                      u3730 0A4C                                        u3731 0A4B  
                                      u3740 0A5E                                        u3660 030F  
                                      u3741 0A5D                                        u3661 030E  
                                      u3750 093D                                        u3670 0325  
                                      u3751 093C                                        u3671 0324  
                                      u3655 02F7                                        u3680 0354  
                                      u3681 0353                                        i1l92 098D  
                                      i1l95 099E                       ??_USBCtrlTrfTxService 0070  
                                      i1l98 09AF                                        _UCFG 0E91  
                                      _UEP0 0E98                                        _UEP1 0E99  
                                      _UEIE 0E97                                        _UEIR 0E93  
                                      _UCON 0E8E                                        _WPUA 020C  
                                      _WPUB 020D                     ??_wr2RegCompleteHandler 007A  
    USBStdFeatureReqHandler@current_ep_data 0062                                        _pDst 00DF  
                                      _main 0900                    ?_I2C_CallbackReturnReset 0079  
                                      fsr0h 0005                                        fsr1h 0007  
                                      indf0 0000                                        fsr0l 0004  
                                      indf1 0001                                        fsr1l 0006  
                           _USBDeviceAttach 0A46                                        btemp 007E  
                                      start 0050                  __end_of_USBCheckStdRequest 1000  
                    ??_USBCtrlTrfOutHandler 0076                         USBDeviceInit@i_1171 00E5  
                 ??_USBStdFeatureReqHandler 0079            __size_of_rdBlkRegCompleteHandler 0018  
                  ??_USBStdGetStatusHandler 0070                              ?_USBDeviceInit 0070  
            __size_of_OSCILLATOR_Initialize 000E                         __size_of_IOCAF5_ISR 000F  
                             _I2C_DO_RX_ACK 08C5               __end_of_OSCILLATOR_Initialize 093E  
                                     ?_main 0070           __size_of_USBCtrlEPServiceComplete 009E  
                    __end_of_USBDeviceTasks 02CD                   ?_USBCtrlEPServiceComplete 0070  
                                     i1l101 097C                                       i1l104 09EE  
                                     i1l140 0DD1                                       i1l301 0463  
                                     i1l312 01DF                                       i1l145 0E07  
                                     i1l313 02CC                                       i1l146 0E13  
                                     i1l306 04C7                                       i1l322 0261  
                                     i1l411 07B3                                       i1l163 0B34  
                                     i1l323 02CA                                       i1l324 0268  
                                     i1l501 0F79                                       i1l422 0419  
                                     i1l414 0390                                       i1l318 022A  
                                     i1l424 0422                                       i1l433 0F07  
                                     i1l513 0FFF                                       i1l515 0F8E  
                                     i1l612 0919                                       i1l508 0F80  
                                     i1l372 0E8C                                       i1l524 0FBB  
                                     i1l509 0F83                                       i1l453 0D49  
                                     i1l622 0886                                       i1l551 017D  
                                     i1l463 0DA6                                       i1l471 0A26  
                                     i1l800 0C78                                       i1l616 095B  
                                     i1l368 0E8C                                       i1l456 0D98  
                                     i1l553 01B1                                       i1l449 06A2  
                                     i1l457 0D53                                       i1l458 0D55  
                                     i1l378 0D44                                       i1l386 05BB  
                                     i1l803 0C94                                       i1l396 0609  
                                     i1l468 0ADB                                       i1l549 016C  
                                     i1l485 0CEA                                       i1l477 0A45  
                                     i1l558 0A0A                                       i1l399 0757  
                                     i1l495 0BF9                                       i1l912 088B  
                                     i1l816 0C17                                       i1l488 07FB  
                                     i1l761 092F                                       i1l817 0C3F  
                                     i1l906 0894                                       i1l930 08A2  
                                     i1l834 0BBF                                       i1l924 088E  
                                     i1l828 08F7                                       i1l852 08B5  
                                     i1l781 0A8A                                       i1l933 089E  
                                     i1l909 08AB                                       i1l861 08C4  
                                     i1l758 096B                                       i1l918 0891  
                                     i1l870 08D3                                       i1l927 08DE  
                                     i1l791 08B0                                       i1l855 08BA  
                                     i1l951 089A                                       i1l864 08C9  
                                     i1l784 08A6                                       i1l873 08D8  
                                     i1l890 0003                                       i1l954 0897  
                                     i1l794 0910                                       i1l858 08BF  
                                     i1l867 08CE                                       i1l788 0B62  
                                     i1l797 08FF                                       i1l887 0888  
                                     i1l879 0B07                                       _UADDR 0E96  
              __size_of_I2C_DO_RX_NACK_STOP 0005                           ??_I2C_DO_TX_EMPTY 007A  
                                     _TRISA 008C                                       _TRISB 008D  
                                     _TRISC 008E                                       _USTAT 0E8F  
        __size_of_USBCtrlEPAllowStatusStage 0079             __end_of_USBCtrlEPAllowDataStage 0D45  
                         __end_of_I2C_DO_RX 0C40                           __end_of_I2C_DO_TX 0C95  
                                     _sd000 10E6                                       _sd001 1000  
                                     _sd002 109C                                       _sd003 10DE  
            ?_USBIncrement1msInternalTimers 0070                 USBCheckVendorRequest@Length 0071  
                   __end_of_PIN_MANAGER_IOC 091A                              _WDT_Initialize 07FC  
                    __size_of_I2C_MasterFsm 002E                      __size_of_I2C_MasterIsr 0004  
                   _I2C_MasterEnableRestart 0889                                       pclath 000A  
                          ?_I2C_SetCallback 0070                                       status 0003  
                                     wtemp0 007E                           ?_I2C_DO_SEND_STOP 0070  
                    __size_of_I2C_SetBuffer 0010                          ??_I2C_DO_SEND_STOP 0070  
              __size_of_USBStdSetCfgHandler 007B                             __initialization 0052  
                              __end_of_main 0908           __size_of_I2C_DO_SEND_RESTART_READ 0005  
                 ?_I2C_DO_SEND_RESTART_READ 0070                              ?_I2C_DO_RX_ACK 0070  
                                 ??_ADC_ISR 0070                 ?_INTERRUPT_InterruptManager 0070  
                 __size_of_USBCtrlEPService 0056                                      ??_main 00E7  
                         ?_I2C_MasterIsNack 0070                             ?_USBDeviceTasks 0070  
                         ?_I2C_MasterSetIrq 0070                                 ?_USBSuspend 0070  
                        ??_I2C_MasterIsNack 0070                             i1_USBDeviceInit 0423  
                    __end_of_WDT_Initialize 0800                          ??_I2C_MasterSetIrq 0070  
                   __end_of_USBDeviceAttach 0A65                                      _ADCON0 009D  
                                    _ADCON1 009E                                      _ADCON2 009F  
           __end_of_I2C_CallbackReturnReset 0004                                      _ACTCON 039B  
                                    _ADRESH 009C                                      _ADRESL 009B  
           __size_of_I2C_CallbackReturnStop 0002                                      _APFCON 011D  
             I2C_SetDataCompleteCallback@cb 0075                                      _ANSELA 018C  
                                    _ANSELB 018D                                      _ANSELC 018E  
                                    _BORCON 0116                                      i1l1030 004E  
                                    i1l1031 0043                                      i1l1024 0012  
                                    i1l1027 0024                                      i1l1132 0885  
                                    i1l1036 004E                                      i1l1029 0032  
                                    i1l1126 094C                                      u200_20 07B3  
                                    i1l4000 0D1A                                      u200_21 07B2  
                                    i1l4010 0D3F                                      i1l4002 0D24  
                                    i1l4100 068F                                      i1l4020 0E94  
                                    i1l4012 0E8D                                      i1l4004 0D28  
                                    i1l4110 0D4A                                      i1l4030 0EB1  
                                    i1l4022 0E99                                      i1l4014 0E93  
                                    i1l4006 0D2B                                      i1l4200 0144  
                                    i1l4120 0D77                                      i1l4112 0D50  
                                    u201_20 04D3                                      i1l4040 0EBF  
                                    i1l4032 0EB3                                      i1l4024 0E9D  
                                    i1l4008 0D39                                      i1l5000 0459  
                                    u201_21 04D2                                      i1l4210 0170  
                                    i1l4202 0154                                      i1l4130 0DA1  
                                    i1l4122 0D7F                                      i1l4114 0D5A  
                                    i1l4106 0D45                                      i1l4050 0EDB  
                                    i1l4042 0EC3                                      i1l4026 0EA1  
                                    i1l5010 0468                                      i1l5002 045D  
                                    i1l4220 01A9                                      i1l4212 0177  
                                    i1l4204 0159                                      i1l4140 006C  
                                    i1l4132 0DA2                                      i1l4116 0D65  
                                    i1l4060 0EF3                                      i1l4052 0EDF  
                                    i1l4044 0EC9                                      i1l4028 0EA6  
                                    i1l4300 05CE                                      i1l5020 0477  
                                    i1l5012 046C                                      i1l5004 0465  
                                    i1l4222 0889                                      i1l4230 0985  
                                    i1l4214 0185                                      i1l4206 0160  
                                    i1l4142 0073                                      i1l4150 0082  
                                    i1l4070 061A                                      i1l4118 0D6F  
                                    i1l4126 0D84                                      i1l4062 0F02  
                                    i1l4054 0EE5                                      i1l4046 0ED4  
                                    i1l4038 0EB5                                      i1l4310 05E8  
                                    i1l4302 05CF                                      i1l5022 0480  
                                    i1l5014 046E                                      i1l5006 0466  
                                    i1l4224 088C                                      i1l4232 098C  
                                    i1l4240 099D                                      u210_20 0E2E  
                                    i1l4216 0195                                      i1l4208 0164  
                                    i1l4160 00A5                                      i1l4152 0088  
                                    i1l4144 0074                                      i1l4080 0652  
                                    i1l4072 061F                                      i1l4064 060A  
                                    i1l4128 0D9D                                      u202_20 04EF  
                                    i1l1680 056B                                      i1l4056 0EE9  
                                    i1l4048 0ED6                                      i1l4400 0FD4  
                                    i1l4312 05F5                                      i1l4304 05D4  
                                    i1l5040 04AB                                      i1l5032 0484  
                                    i1l5024 0481                                      i1l5016 0470  
                                    i1l5008 0467                                      i1l6000 02AD  
                                    u210_21 0E2D                                      u202_21 04EE  
                                    i1l4226 089B                                      i1l4410 08A8  
                                    i1l4330 0399                                      i1l4322 0378  
                                    i1l4218 019D                                      i1l4170 00E0  
                                    i1l4162 00AA                                      i1l4154 008F  
                                    i1l4146 007A                                      i1l4138 0066  
                                    i1l4090 067B                                      i1l4082 0654  
                                    i1l4074 0624                                      i1l4066 0611  
                                    i1l4058 0EEE                                      i1l4314 05FB  
                                    i1l4306 05D8                                      i1l5050 04BA  
                                    i1l5042 04AE                                      i1l5034 049C  
                                    i1l5026 0482                                      i1l5018 0472  
                                    i1l6002 02B1                                      i1l4252 096C  
                                    i1l4228 097D                                      i1l4236 098E  
                                    i1l4244 099F                                      i1l4260 09D7  
                                    i1l4412 08B1                                      i1l4420 08B9  
                                    i1l4340 03B8                                      i1l4332 03A4  
                                    i1l4324 037E                                      i1l4180 0105  
                                    i1l4172 00E6                                      i1l4164 00BE  
                                    i1l4156 0096                                      i1l4148 0080  
                                    i1l4092 067F                                      i1l4084 065A  
                                    i1l4076 0633                                      i1l4068 0616  
                                    i1l4316 0600                                      i1l4308 05DC  
                                    i1l1676 0B90                                      i1l5052 04BB  
                                    i1l5044 04B3                                      i1l5036 04A0  
                                    i1l5028 0483                                      i1l6004 02BF  
                                    i1l6020 000E                                      i1l4254 0974  
                                    i1l4238 0996                                      i1l4246 09A7  
                                    i1l4262 09ED                                      i1l4430 0892  
                                    i1l4406 08D9                                      i1l4414 08B4  
                                    i1l4342 03C5                                      i1l4350 03F1  
                                    i1l4334 03A8                                      i1l4326 038C  
                                    i1l4510 0BCC                                      i1l4190 0123  
                                    i1l4182 010D                                      i1l4174 00EA  
                                    i1l4166 00D1                                      i1l4158 009F  
                                    i1l4094 068B                                      i1l4086 0669  
                                    i1l4078 0642                                      i1l4318 0602  
                                    i1l4270 0578                                      i1l5054 04C4  
                                    i1l5046 04B5                                      i1l5038 04A6  
                                    i1l6006 02C4                                      i1l6030 002E  
                                    i1l6022 0016                                      i1l4256 097B  
                                    i1l4248 09AE                                      i1l4424 08C0  
                                    i1l5160 0911                                      u211_20 0E45  
                                    i1l4360 041A                                      i1l4352 03FE  
                                    i1l4344 03D2                                      i1l4336 03AC  
                                    i1l4328 0397                                      i1l4512 0BD2  
                                    i1l4520 0BF8                                      i1l4504 0BC0  
                                    i1l4184 0111                                      i1l4192 0129  
                                    i1l4176 00F5                                      i1l4168 00D5  
                                    i1l4096 068D                                      i1l4088 0675  
                                    u203_20 051E                                      i1l4272 057D  
                                    i1l4280 058A                                      i1l5056 04C5  
                                    i1l5048 04B9                                      i1l6032 0037  
                                    i1l6024 001B                                      i1l6016 0006  
                                    u211_21 0E44                                      u203_21 051D  
                                    i1l4434 089F                                      i1l4610 0C93  
                                    i1l4602 0C55                                      i1l4418 08B6  
                                    i1l4450 08BB                                      i1l4426 08C3  
                                    i1l4442 08CA                                      i1l5162 0916  
                                    i1l4530 0F21                                      i1l4522 0F08  
                                    i1l4362 041F                                      i1l4354 040B  
                                    i1l4346 03D9                                      i1l4338 03B2  
                                    i1l4514 0BDF                                      i1l4506 0BC7  
                                    i1l4194 012F                                      i1l4186 0118  
                                    i1l4178 00FF                                      i1l4370 0F94  
                                    i1l4290 05B5                                      i1l4282 0597  
                                    i1l4274 0583                                      i1l4266 056C  
                                    i1l6034 003C                                      i1l6026 0020  
                                    i1l6018 000A                                      i1l4604 0C7A  
                                    i1l4620 0C04                                      i1l4452 08BE  
                                    i1l4444 08CD                                      i1l4436 08CF  
                                    i1l4700 0ADE                                      i1l5164 08A3  
                                    i1l4540 0F43                                      i1l4532 0F26  
                                    i1l4524 0F11                                      i1l4356 0411  
                                    i1l4348 03E5                                      i1l4516 0BEC  
                                    i1l4508 0BCB                                      i1l3820 0DC3  
                                    i1l3812 0DA7                                      i1l4196 0137  
                                    i1l4188 011E                                      i1l3900 04DB  
                                    i1l4380 0FA5                                      i1l4372 0F98  
                                    i1l4364 0F84                                      i1l4292 05BF  
                                    i1l4284 05A4                                      i1l4276 0586  
                                    i1l4268 0573                                      i1l6036 0048  
                                    i1l6028 0029                                      i1l5174 093E  
                                    i1l4462 0002                                      i1l4606 0C86  
                                    i1l4622 0C08                                      i1l4438 08D2  
                                    i1l4702 0AE3                                      i1l4550 0F6C  
                                    i1l4542 0F46                                      i1l4534 0F2C  
                                    i1l4526 0F17                                      i1l4358 0416  
                                    i1l4518 0BF2                                      i1l3830 0DF1  
                                    i1l3822 0DCD                                      i1l3814 0DAE  
                                    i1l4198 013F                                      i1l3910 04FF  
                                    i1l3902 04E6                                      i1l4390 0FB5  
                                    i1l4382 0FA7                                      i1l4374 0F9C  
                                    i1l4294 05C3                                      i1l4286 05AA  
                                    i1l4278 0588                                      i1l4470 0B75  
                                    i1l5176 0940                                      i1l4448 088F  
                                    i1l4456 0895                                      i1l4560 08AC  
                                    i1l4608 0C91                                      i1l4632 0C19  
                                    i1l4624 0C12                                      i1l4712 0AEB  
                                    i1l4552 0F7E                                      i1l4544 0F4D  
                                    i1l4528 0F1D                                      i1l4536 0F31  
                                    i1l3832 0DF9                                      i1l3816 0DB4  
                                    i1l3824 0DDE                                      u220_20 067B  
                                    u204_20 053B                                      i1l3920 0532  
                                    i1l3912 050A                                      i1l4392 0FB9  
                                    i1l4384 0FAB                                      i1l4376 0FA0  
                                    i1l4368 0F8F                                      u212_20 0CF5  
                                    i1l4296 05C9                                      i1l4288 05AF  
                                    i1l4472 0B79                                      u220_21 067A  
                                    u204_21 053A                                      u212_21 0CF4  
                                    i1l5178 0947                                      i1l4458 0887  
                                    i1l4562 08AE                                      i1l4570 090A  
                                    i1l4642 0C21                                      i1l4626 0C15  
                                    i1l4618 0BFA                                      i1l4650 08F1  
                                    i1l4706 0AE7                                      i1l4554 0F81  
                                    i1l4546 0F5A                                      i1l4538 0F36  
                                    i1l3834 0E03                                      i1l3826 0DE4  
                                    i1l3818 0DBB                                      i1l3842 0B0D  
                                    i1l3930 0556                                      i1l3914 0515  
                                    i1l3906 04F0                                      i1l4394 0FBC  
                                    i1l4386 0FAF                                      i1l4378 0FA1  
                                    i1l4298 05CC                                      i1l4474 0B80  
                                    i1l4466 0B64                                      i1l4810 0A29  
                                    i1l3940 0A6C                                      i1l4660 0B94  
                                    i1l4564 08AF                                      i1l4572 090F  
                                    i1l4580 08FE                                      i1l4636 0C1D  
                                    i1l4652 08F3                                      i1l3860 074E  
                                    i1l3852 0731                                      i1l4548 0F5F  
                                    i1l3828 0DEA                                      i1l3836 0B08  
                                    i1l6260 0697                                      i1l3932 055D  
                                    i1l3924 053C                                      i1l3908 04F7  
                                    i1l4396 0FC5                                      i1l4388 0FB4  
                                    i1l5700 07E0                                      i1l4468 0B6D  
                                    i1l4476 0B84                                      i1l4820 0A43  
                                    i1l4812 0A37                                      i1l3950 096A  
                                    i1l3942 0A7D                                      i1l4670 0B9D  
                                    i1l6270 0C6A                                      i1l4654 08F6  
                                    i1l4558 0898                                      i1l3862 0753  
                                    i1l3854 073F                                      i1l6262 0B15  
                                    i1l3838 0B09                                      i1l3934 0561  
                                    i1l3926 054D                                      i1l3918 051F  
                                    i1l5710 07EA                                      i1l5702 07E1  
                                    i1l4830 0A17                                      i1l4822 0A0B  
                                    i1l4814 0A39                                      i1l3944 0923  
                                    i1l6272 0BB1                                      i1l4664 0B98  
                                    i1l4568 0908                                      i1l4576 08F8  
                                    i1l4592 0C4D                                      i1l4584 0C40  
                                    i1l3872 0776                                      i1l3880 078F  
                                    i1l3864 075F                                      i1l3856 0743  
                                    i1l3960 0E27                                      i1l3952 0E14  
                                    i1l6264 0B2F                                      u221_20 0D50  
                                    u205_20 056B                                      i1l3936 0565  
                                    i1l3928 0551                                      i1l6256 0FDC  
                                    u213_20 0D24                                      i1l5712 07F8  
                                    i1l5704 07E3                                      i1l4840 0A06  
                                    i1l4832 0A18                                      i1l4824 0A0D  
                                    i1l4816 0A3B                                      i1l4808 0A27  
                                    u221_21 0D4F                                      u205_21 056A  
                                    u213_21 0D23                                      i1l3946 095D  
                                    i1l3938 0A66                                      i1l4666 0B9B  
                                    i1l4658 0B91                                      i1l4578 08FA  
                                    i1l4690 08D4                                      i1l6266 0AFF  
                                    i1l3882 0795                                      i1l3874 0783  
                                    i1l3890 07AE                                      i1l3866 076B  
                                    i1l3858 0749                                      i1l3970 0E45  
                                    i1l3962 0E2E                                      i1l3954 0E1A  
                                    i1l6258 0D8D                                      i1l5706 07E5  
                                    i1l5810 0CAF                                      i1l4834 09EF  
                                    i1l4850 0AD5                                      i1l4842 0AB1  
                                    i1l4826 0A11                                      i1l4818 0A3F  
                                    i1l3948 0962                                      i1l4676 0BA1  
                                    i1l4596 0C51                                      i1l4588 0C49  
                                    i1l6268 0C31                                      i1l4684 08C5  
                                    i1l4692 08D6                                      i1l4940 0B38  
                                    i1l4924 094D                                      i1l3884 07A2  
                                    i1l3876 0788                                      i1l3868 0770  
                                    i1l3980 0E66                                      i1l3972 0E47  
                                    i1l3964 0E34                                      i1l3956 0E1E  
                                    i1l3892 04C9                                      i1l5708 07E7  
                                    i1l5820 0CDA                                      i1l5812 0CB5  
                                    i1l5804 0C95                                      i1l4836 09F8  
                                    i1l4844 0AB6                                      i1l4852 0AD7  
                                    i1l4828 0A12                                      u213_25 0D20  
                                    i1l4686 08C8                                      i1l4694 08D7  
                                    i1l4942 0B3D                                      i1l4926 0954  
                                    i1l3886 07A7                                      i1l3878 078D  
                                    i1l3982 0E6B                                      i1l3974 0E4F  
                                    i1l3966 0E3A                                      i1l3958 0E23  
                                    i1l3894 04CD                                      i1l3990 0CEE  
                                    i1l5814 0CBB                                      i1l5822 0CDE  
                                    i1l5806 0C9B                                      i1l4838 09FD  
                                    i1l4846 0AC0                                      i1l5910 01BD  
                                    u206_20 0A6C                                      i1l4944 0B45  
                                    i1l4928 0959                                      i1l3888 07AC  
                                    i1l3984 0E78                                      i1l3976 0E5B  
                                    i1l3968 0E40                                      u230_20 008F  
                                    u222_20 0D5A                                      u214_20 0EA6  
                                    i1l3992 0CF5                                      i1l5824 0CE7  
                                    i1l5816 0CC6                                      i1l5808 0CA2  
                                    i1l4848 0ACA                                      i1l5920 01CA  
                                    i1l5912 01BE                                      u206_21 0A6B  
                                    u230_21 008E                                      u222_21 0D59  
                                    u214_21 0EA5                                      i1l4698 0ADC  
                                    i1l4946 0B4B                                      i1l4938 0B35  
                                    i1l3986 0E85                                      i1l3978 0E62  
                                    i1l3898 04D4                                      i1l3994 0D01  
                                    i1l5690 07BC                                      i1l5818 0CD6  
                                    i1l5930 01E3                                      i1l5922 01CE  
                                    i1l5914 01BF                                      i1l5906 01B2  
                                    i1l3996 0D0E                                      i1l3988 0CEB  
                                    i1l5692 07C4                                      i1l4972 0423  
                                    i1l5932 01E7                                      i1l5940 01F6  
                                    i1l5924 01D4                                      i1l5916 01C0  
                                    i1l5908 01B8                                      i1l3998 0D14  
                                    i1l5694 07CA                                      i1l4990 0440  
                                    i1l4982 042E                                      i1l4974 0425  
                                    i1l5950 020A                                      i1l5942 01FA  
                                    i1l5934 01EA                                      i1l5926 01D7  
                                    i1l5918 01C5                                      u207_20 0962  
                                    u231_20 0096                                      u223_20 0D77  
                                    u215_20 0EC9                                      i1l5696 07D2  
                                    i1l5688 07B4                                      i1l4992 0447  
                                    i1l4984 0433                                      i1l4976 0429  
                                    i1l5960 022F                                      i1l5952 0219  
                                    i1l5944 01FE                                      i1l5936 01EC  
                                    i1l5928 01DC                                      u207_21 0961  
                                    u231_21 0095                                      u223_21 0D76  
                                    u215_21 0EC8                                      i1l5698 07D8  
                                    i1l4986 0437                                      i1l5970 0243  
                                    i1l5954 021F                                      i1l5962 0232  
                                    i1l5946 0201                                      i1l5938 01F1  
                                    i1l4988 043B                                      i1l5980 0266  
                                    i1l5972 0247                                      i1l5964 0237  
                                    i1l5956 0222                                      i1l5948 0206  
                                    i1l4998 0448                                      i1l5990 027B  
                                    i1l5974 0256                                      i1l5966 023B  
                                    i1l5958 0228                                      u208_20 0E1A  
                                    u240_20 0137                                      u232_20 009F  
                                    u224_20 0D7F                                      u216_20 0EEE  
                                    i1l5992 0281                                      i1l5976 0258  
                                    i1l5968 023E                                      u400_20 000E  
                                    u208_21 0E19                                      u240_21 0136  
                                    u232_21 009E                                      u224_21 0D7E  
                                    u216_21 0EED                                      u400_21 000D  
                                    i1l5994 0286                                      i1l5986 026D  
                                    i1l5978 025F                                      i1l5996 0297  
                                    i1l5988 0272                                      i1l5998 02A7  
                                    u209_20 0E23                                      u241_20 0164  
                                    u233_20 00A5                                      u217_20 0611  
                                    u225_20 0D9D                                      u401_20 0016  
                                    u209_21 0E22                                      u241_21 0163  
                                    u233_21 00A4                                      u217_21 0610  
                                    u225_21 0D9C                                      u401_21 0015  
                                    u242_20 016C                                      u234_20 00AA  
                                    u226_20 006C                                      u218_20 0624  
                                    u250_20 0608                                      u402_20 001B  
                                    u242_21 016B                                      u234_21 00A9  
                                    u226_21 006B                                      u218_21 0623  
                                    u250_21 0607                                      u402_21 001A  
                                    u251_20 038C                                      u243_20 0170  
                                    u235_20 00D5                                      u227_20 0073  
                                    u219_20 065A                                      u403_20 0020  
                                    u251_21 038B                                      u243_21 016F  
                                    u235_21 00D4                                      u227_21 0072  
                                    u219_21 0659                                      u403_21 001F  
                                    u251_25 0388                                      u260_20 0F1D  
                                    u252_20 03B2                                      u236_20 00EA  
                                    u228_20 007A                                      u244_20 0573  
                                    u404_20 0029                                      u260_21 0F1C  
                                    u252_21 03B1                                      u236_21 00E9  
                                    u228_21 0079                                      u244_21 0572  
                                    u404_21 0028                                      u261_20 0F26  
                                    u253_20 03B8                                      u237_20 0105  
                                    u229_20 0088                                      u245_20 0578  
                                    u405_20 002E                                      u261_21 0F25  
                                    u253_21 03B7                                      u237_21 0104  
                                    u229_21 0087                                      u245_21 0577  
                                    u405_21 002D                                      u318_20 0916  
                                    u262_20 0F36                                      u254_20 03D9  
                                    u190_20 0DCD                                      u238_20 010D  
                                    u246_20 0583                                      u406_20 0037  
                                    u318_21 0915                                      u262_21 0F35  
                                    u254_21 03D8                                      u190_21 0DCC  
                                    u238_21 010C                                      u246_21 0582  
                                    u406_21 0036                                      u190_25 0DC9  
                                    u319_20 0947                                      u263_20 0F4D  
                                    u255_20 041F                                      u191_20 0DE4  
                                    u239_20 0111                                      u247_20 05BF  
                                    u407_20 003C                                      u319_21 0946  
                                    u263_21 0F4C                                      u255_21 041E  
                                    u191_21 0DE3                                      u239_21 0110  
                                    u247_21 05BE                                      u407_21 003B  
                                    u264_20 0F5F                                      u192_20 0DEA  
                                    u256_20 0F8D                                      u248_20 05C9  
                                    u408_20 0048                                      u264_21 0F5E  
                                    u192_21 0DE9                                      u256_21 0F8C  
                                    u248_21 05C8                                      u408_21 0047  
                                    _PMADRH 0192                                      u265_20 0F7E  
                                    u193_20 0DF1                                      u249_20 05D4  
                                    u257_20 0B90                                      u409_20 004D  
                                    _PMADRL 0191                                      u265_21 0F7D  
                                    u193_21 0DF0                                      u249_21 05D3  
                                    u257_21 0B8F                                      u409_21 004C  
                                    u266_20 0C48                                      u258_20 0BC7  
                                    u194_20 0E03                                      u274_20 0A43  
                                    u290_20 0440                                      u266_21 0C47  
                                    u258_21 0BC6                                      u194_21 0E02  
                                    u274_21 0A42                                      u290_21 043F  
                                    _PMDATH 0194                                      u194_25 0DFF  
                                    u370_25 0CA6                                      u267_20 0C91  
                                    u195_20 073F                                      u259_20 0BD2  
                                    u187_20 0DAE                                      u371_20 0CC6  
                                    u275_20 09FD                                      _PMDATL 0193  
                                    u267_21 0C90                                      u195_21 073E  
                                    u259_21 0BD1                                      u187_21 0DAD  
                                    u371_21 0CC5                                      u275_21 09FC  
                                    u291_25 044B                                      u268_20 0C12  
                                    u196_20 0749                                      u188_20 0DB4  
                                    u372_20 0CE7                                      u276_20 0A06  
                                    u292_20 0463                                      u380_20 01DC  
                                    u268_21 0C11                                      u196_21 0748  
                                    u188_21 0DB3                                      u372_21 0CE6  
                                    u276_21 0A05                                      u292_21 0462  
                                    u380_21 01DB                                      _PMCON2 0196  
                                    u197_20 0753                                      u189_20 0DBB  
                                    u277_20 0AB6                                      u293_20 0477  
                                    u381_20 01E3                                      u197_21 0752  
                                    u189_21 0DBA                                      u277_21 0AB5  
                                    u293_21 0476                                      u381_21 01E2  
                                    u286_20 0954                                      u198_20 0775  
                                    u278_20 0AC0                                      u294_20 04A6  
                                    u390_20 023B                                      u382_20 01E7  
                                    u286_21 0953                                      u198_21 0774  
                                    u278_21 0ABF                                      u294_21 04A5  
                                    u390_21 023A                                      u382_21 01E6  
                                    u287_20 0B3D                                      u199_20 0794  
                                    u279_20 0ACA                                      u391_20 0243  
                                    u383_20 01FA                                      u287_21 0B3C  
                                    u199_21 0793                                      u279_21 0AC9  
                                    u391_21 0242                                      u383_21 01F9  
                                    u288_20 0B45                                      u392_20 0247  
                                    u384_20 01FE                                      u376_20 01B8  
                                    u288_21 0B44                                      u392_21 0246  
                                    u384_21 01FD                                      u376_21 01B7  
                                    u369_20 0CA2                                      u393_20 025F  
                                    u385_20 0206                                      u377_20 01BD  
                                    u369_21 0CA1                                      u393_21 025E  
                                    u385_21 0205                                      u377_21 01BC  
                                    u394_20 0266                                      u386_20 020A  
                                    u378_20 01CA                                      _OSCCON 0099  
                                    u394_21 0265                                      u386_21 0209  
                                    u378_21 01C9                                      u395_20 026D  
                                    u387_20 0228                                      u379_20 01CE  
                                    u395_21 026C                                      u387_21 0227  
                                    u379_21 01CD                                      u396_20 0286  
                                    u388_20 022F                                      u396_21 0285  
                                    u388_21 022E                                      u397_20 02AD  
                                    u389_20 0237                                      u397_21 02AC  
                                    u389_21 0236                                      u398_20 02CA  
                                    u398_21 02C9                                      u399_20 000A  
                                    u399_21 0009                                      _PLLRDY 04D6  
                                    _WDTCON 0097                         _I2C_MasterGetRxData 0892  
                         _shortPacketStatus 00E0                             USBDeviceTasks@i 0069  
      __size_of_ADC_DefaultInterruptHandler 0001                 USBStdFeatureReqHandler@pUEP 0060  
          __size_of_ADC_SetInterruptHandler 0006                  USBCtrlTrfInHandler@lastDTS 0075  
                           ??_USBDeviceInit 00E2                               _I2C_MasterFsm 0B35  
                             _I2C_MasterIsr 08A3             __size_of_USBStdGetStatusHandler 0062  
                                    _memcpy 0B63                                      _memset 04C8  
                         I2C_SetCallback@cb 0070                     __size_of_I2C_MasterStop 0003  
                   __size_of_I2C_Initialize 0009                               _I2C_SetBuffer 095C  
                       _I2C_DO_ADDRESS_NACK 0ADC                        ?_I2C_MasterGetRxData 0070  
                           ?_WDT_Initialize 0070                   ??_I2C_MasterEnableRestart 0070  
   ADC_SetInterruptHandler@InterruptHandler 00E2  IOCAF5_SetInterruptHandler@InterruptHandler 00E2  
                          ?_PIN_MANAGER_IOC 0070                                 _CtrlTrfData 0048  
                              ??_IOCAF5_ISR 0070                        _controlTransferState 005B  
                         _SYSTEM_Initialize 09C1                     __end_of__initialization 0062  
                        ?_SYSTEM_Initialize 0070                        ?_I2C_DO_ADDRESS_NACK 0070  
                  __size_of_USBStallHandler 002B                              __pcstackBANK0h 0060  
                       __size_of_USBSuspend 001C                     _rdBlkRegCompleteHandler 09D7  
                   ??_USBCheckVendorRequest 0070                              __pcstackCOMMON 0070  
                            ?_I2C_MasterFsm 0070                              ?_I2C_MasterIsr 0070  
                             __end_of_sd000 10EA                               __end_of_sd001 1034  
                             __end_of_sd002 10B2                               __end_of_sd003 10E6  
                           ??_I2C_DO_RX_ACK 0070                      _I2C_CallbackReturnStop 0887  
                       ??_SYSTEM_Initialize 00E7            __size_of_USBCtrlEPAllowDataStage 005A  
                   __end_ofi1_USBDeviceInit 04C8                 __end_of_USBCtrlTrfInHandler 0F84  
                            ?_I2C_SetBuffer 0070              __size_of_I2C_DO_SEND_ADR_WRITE 0008  
        __size_of_I2C_DO_SEND_RESTART_WRITE 0005               __end_of_I2C_DO_SEND_ADR_WRITE 0900  
                ?_I2C_DO_SEND_RESTART_WRITE 0070                          __end_of_IOCAF5_ISR 095C  
                     ??_I2C_MasterGetRxData 0070                              _OPTION_REGbits 0095  
                __end_of_I2C_MasterClearIrq 089B                 ?_IOCAF5_SetInterruptHandler 00E2  
                  ??_USBCtrlTrfSetupHandler 007D                     _USBTicksSinceSuspendEnd 00D4  
                          ?_USBDeviceAttach 0070                   __end_of_SYSTEM_Initialize 09D7  
                    _USBStdGetStatusHandler 0D45                           _I2C_MasterSendAck 089F  
                                __pbssBANK1 00A0                               ??_I2C_DO_IDLE 0070  
            __size_of_rd2RegCompleteHandler 0011                               ??_I2C_DO_RCEN 0070  
             __end_of_rd2RegCompleteHandler 099F                __end_of_I2C_MasterSendTxData 08AC  
                        ?_I2C_MasterSendAck 0070                           _I2C_MasterStartRx 088F  
            __size_of_wr2RegCompleteHandler 0011                       ??_I2C_DO_ADDRESS_NACK 007A  
             __end_of_wr2RegCompleteHandler 097D            ??_IOCAF5_DefaultInterruptHandler 0070  
           ?_IOCAF5_DefaultInterruptHandler 0070                         _I2C_DO_RX_NACK_STOP 08CA  
                            _MSOSDescriptor 10B2                       _rd1RegCompleteHandler 097D  
               __size_of_USBWakeFromSuspend 001F                                 _pBDTEntryIn 0055  
                        ?_I2C_MasterStartRx 0070                     _IOCAF5_InterruptHandler 00E7  
                __end_of_I2C_MasterSendNack 089F            __end_of_USBCtrlEPServiceComplete 060A  
                     _wr1RegCompleteHandler 099F                                  __pmaintext 0900  
                       ??_I2C_MasterSendAck 0070                    rd1RegCompleteHandler@ptr 0079  
                      USBCtrlTrfRxService@i 0074                 __end_of_I2C_DO_SEND_RESTART 08C0  
                           _I2C_DO_TX_EMPTY 0B91                         I2C_SetBuffer@buffer 0073  
                                __pintentry 0004                         ??_I2C_MasterStartRx 0070  
             __size_of_I2C_DO_SEND_ADR_READ 0009                                     ?_memcpy 0070  
                                   _ADC_ISR 093E                                     ?_memset 0070  
          __size_of_I2C_CallbackReturnReset 0002                                  _device_dsc 10C4  
                          _USBCtrlEPService 0C95                                  _ep_data_in 00D0  
            I2C_SetDataCompleteCallback@ptr 0077                     __size_of_ADC_Initialize 0011  
                  ??_I2C_DO_RX_NACK_RESTART 0070                 __end_of_USBCtrlTrfRxService 0423  
         __end_of_I2C_DO_SEND_RESTART_WRITE 08BB                        ?_I2C_DO_RX_NACK_STOP 0070  
                        _USBCheckStdRequest 0F84                           _configDescriptor1 107C  
               __end_of_USBCtrlTrfTxService 07B4                         _USBStdSetCfgHandler 0E8D  
                 __end_of_I2C_MasterSendAck 08A3                                     _OSCTUNE 0098  
                                   _SSP1ADD 0212                                     _SSP1BUF 0211  
                       ?_USBCheckStdRequest 0070                __size_of_USBStdGetDscHandler 0099  
                                   _UIEbits 0E92                   __end_of_I2C_MasterStartRx 0892  
                                   _UIRbits 0E90                ?_I2C_SetDataCompleteCallback 0075  
                                 _I2C_DO_RX 0BFA                                   _I2C_DO_TX 0C40  
          __end_of_I2C_DO_SEND_RESTART_READ 08B6                      __end_of_MSOSDescriptor 10C4  
                 ??_rdBlkRegCompleteHandler 007A                             ??_I2C_MasterFsm 0060  
                           ??_I2C_MasterIsr 007D                        _ADC_InterruptHandler 00CC  
           ??_USBIncrement1msInternalTimers 0070                        ?_USBStdSetCfgHandler 0070  
                   _ADC_SetInterruptHandler 08DF                         __end_of_I2C_DO_IDLE 08B1  
                       __end_of_I2C_DO_RCEN 08F8                        ??_USBCheckStdRequest 007B  
             __size_of_USBCtrlTrfOutHandler 003A                            ??_USBDeviceTasks 0067  
                           ??_I2C_SetBuffer 0072                           ??_USBStallHandler 0070  
                   I2C_SetBuffer@bufferSize 0070                            ?i1_USBDeviceInit 0070  
                            _I2C_MasterStop 088C                             __size_of_memcpy 002E  
                            _I2C_Initialize 091A                             __size_of_memset 00A4  
                 __end_of_configDescriptor1 109C                   __size_of_I2C_DO_SEND_STOP 0005  
                                   __ptext1 09C1                                     __ptext2 07FC  
                                   __ptext3 02CD                                     __ptext4 0A46  
                                   __ptext5 0A8B                                     __ptext6 08E5  
                                   __ptext7 0930                                     __ptext8 091A  
                                   __ptext9 09B0                                     _inPipes 0050  
                     ??_I2C_DO_RX_NACK_STOP 0070                 _USBDeferOUTDataStagePackets 00D5  
                     _OSCILLATOR_Initialize 0930                                ??_USBSuspend 0079  
                        I2C_SetCallback@idx 0074                    ??_PIN_MANAGER_Initialize 00E4  
             I2C_CallbackReturnReset@funPtr 0079                                   _IOCAFbits 0393  
                        I2C_SetCallback@ptr 0072                    wr1RegCompleteHandler@ptr 0079  
                                 _IOCANbits 0392                                   _IOCAPbits 0391  
                        __end_of_USB_CD_Ptr 10EC                  __size_of_SYSTEM_Initialize 0016  
           __size_of_USBCtrlTrfSetupHandler 0048                                     clrloop0 08EC  
                      end_of_initialization 0062                                  ?_I2C_DO_RX 0070  
                                ?_I2C_DO_TX 0070                          __end_of_USB_SD_Ptr 10DE  
                                   memcpy@d 0079                                     memcpy@n 0072  
                                   memcpy@s 0075                         _pBDTEntryEP0OutNext 0059  
                 __size_of_I2C_MasterIsNack 0006                                     memset@c 0070  
                                   memset@k 0076                                     memset@n 0072  
                                   memset@s 0079                      ?_rd1RegCompleteHandler 0079  
                           _USB1msTickCount 00C4                     __end_of_I2C_DO_TX_EMPTY 0BC0  
                 __size_of_I2C_MasterSetIrq 0003                    ?_USBStdFeatureReqHandler 0070  
                    ?_wr1RegCompleteHandler 0079                       ??_USBStdSetCfgHandler 007A  
                  __size_of_I2C_SetCallback 0026                          __end_of_USBSuspend 0A27  
                   _USBCtrlEPAllowDataStage 0CEB                      __end_of_I2C_MasterStop 088F  
                    __end_of_I2C_Initialize 0923                    _USBCtrlEPServiceComplete 056C  
                _USBStatusStageEnabledFlag1 00D8                  _USBStatusStageEnabledFlag2 00D7  
                          ??_WDT_Initialize 00E2             __end_of_rdBlkRegCompleteHandler 09EF  
                      _I2C_MasterSendTxData 08A7             __size_of_I2C_DO_RX_NACK_RESTART 0005  
       __end_of_ADC_DefaultInterruptHandler 0886                 _ADC_DefaultInterruptHandler 0885  
                        _BothEP0OutUOWNsSet 00DB                  __size_of_I2C_MasterSendAck 0004  
                 USBStdSetCfgHandler@i_1885 0062                  ?_USBCtrlEPAllowStatusStage 0070  
                __size_of_I2C_MasterStartRx 0003         USER_USB_CALLBACK_EVENT_HANDLER@size 0077  
                                 _USTATcopy 005E               ??_ADC_DefaultInterruptHandler 0070  
                               _I2C_DO_IDLE 08AC                                 _I2C_DO_RCEN 08F1  
                rdBlkRegCompleteHandler@ptr 0079                   ??_ADC_SetInterruptHandler 00E4  
                   ?_I2C_CallbackReturnStop 0079                    _I2C_DO_SEND_RESTART_READ 08B1  
                     i1USBDeviceInit@i_1171 0073                I2C_CallbackReturnStop@funPtr 0079  
                    _USBCtrlTrfSetupHandler 07B4              __size_of_USBCheckVendorRequest 006D  
                           ?_I2C_MasterStop 0070                             ?_I2C_Initialize 0070  
             __end_of_USBCheckVendorRequest 0E14                     _I2C_CallbackReturnReset 0002  
                     __end_of_USBDeviceInit 0378       __end_of_USBIncrement1msInternalTimers 0A0B  
    __size_of_USBIncrement1msInternalTimers 001C               _USBIncrement1msInternalTimers 09EF  
      __size_of_I2C_SetDataCompleteCallback 000D                              _ADC_Initialize 09B0  
                     ?_I2C_MasterSendTxData 0070                              __end_of_memcpy 0B91  
                    ?_OSCILLATOR_Initialize 0070                              __end_of_memset 056C  
               ??_I2C_DO_SEND_RESTART_WRITE 0070                           _USBBusIsSuspended 00DD  
                       start_initialization 0052                     ?_USBStdGetStatusHandler 0070  
             USBCtrlTrfRxService@byteToRead 0075             __size_of_PIN_MANAGER_Initialize 0026  
                             ?_I2C_DO_RESET 0070             __end_of_USBStdFeatureReqHandler 01B2  
                               ??_I2C_DO_RX 007A                                 ??_I2C_DO_TX 007A  
         __end_of_USBCtrlEPAllowStatusStage 0E8D                    __end_of_USBCtrlEPService 0CEB  
            __end_of_I2C_CallbackReturnStop 0889                      _I2C_DO_RX_NACK_RESTART 08CF  
                          ?_I2C_DO_TX_EMPTY 0070                   ??_USBCtrlEPAllowDataStage 0073  
                        _I2C_MasterClearIrq 0898                    __size_of_PIN_MANAGER_IOC 0009  
                            USBDeviceInit@i 00E6                              USBDeviceInit@p 00E3  
                    _pBDTEntryEP0OutCurrent 005C                         _USBStdGetDscHandler 060A  
                       ?_I2C_MasterClearIrq 0070                      __end_of_ADC_Initialize 09C1  
               __end_of_I2C_MasterGetRxData 0895                       __end_of_I2C_DO_RX_ACK 08CA  
                                  ??_memcpy 0074                                    ?_ADC_ISR 0070  
                                  ??_memset 0074                            _I2C_DO_SEND_STOP 08C0  
                                memset@dest 0078                           ??_I2C_SetCallback 0073  
    __end_of_IOCAF5_DefaultInterruptHandler 0887     __size_of_IOCAF5_DefaultInterruptHandler 0001  
            _IOCAF5_DefaultInterruptHandler 0886                          _I2C_MasterSendNack 089B  
                  ?_I2C_MasterEnableRestart 0070                           _i2c_fsmStateTable 105C  
                    _USBActiveConfiguration 005F              __end_of_USBStdGetStatusHandler 0DA7  
                               __pbssBANK0h 0050                       _I2C_DO_SEND_ADR_WRITE 08F8  
                                 ___latbits 0002                               __pcstackBANK1 00E2  
              __size_of_USBCtrlTrfInHandler 007C                              ??_I2C_DO_RESET 0070  
                       ?_I2C_MasterSendNack 0070                        ?_USBStdGetDscHandler 0070  
              __end_of_I2C_DO_SEND_ADR_READ 0911                        ??_I2C_MasterClearIrq 0070  
               __end_of_I2C_DO_ADDRESS_NACK 0B08                            _I2C_MasterIsNack 08D9  
                __end_of_USBWakeFromSuspend 0A46                   _I2C_DO_SEND_RESTART_WRITE 08B6  
                           _USBStallHandler 0AB1                                _pBDTEntryOut 00C8  
                          _I2C_MasterSetIrq 0895                                   __pnvBANK1 00E7  
                     _rd2RegCompleteHandler 098E                    __size_of_USBDeviceAttach 001F  
                    _PIN_MANAGER_Initialize 0A8B                       _wr2RegCompleteHandler 096C  
                 ??_I2C_CallbackReturnReset 007A                        ??_I2C_MasterSendNack 0070  
                  rd2RegCompleteHandler@ptr 0079                             ?_ADC_Initialize 0070  
                    ??_I2C_MasterSendTxData 0070                   __end_of_i2c_fsmStateTable 107C  
              ??_INTERRUPT_InterruptManager 007E                __size_of_I2C_DO_SEND_RESTART 0005  
              __end_of_USBCtrlTrfOutHandler 0BFA                       ??_USBStdGetDscHandler 0070  
                               _ep_data_out 00CE                __size_of_USBCtrlTrfRxService 00AB  
                   ??_rd1RegCompleteHandler 007A                     ??_wr1RegCompleteHandler 007A  
              __size_of_USBCtrlTrfTxService 0083                  ??_USBCtrlEPServiceComplete 0075  
                                 clear_ram0 08EB                                    _PIE1bits 0091  
                                  _PIE2bits 0092         __size_of_INTERRUPT_InterruptManager 004C  
                                  _PIR1bits 0011                                    _PIR2bits 0012  
                     __end_of_I2C_MasterFsm 0B63                       __end_of_I2C_MasterIsr 08A7  
                                  _UEP0bits 0E98                  _USBDeferINDataStagePackets 00D6  
               __end_of_I2C_DO_RX_NACK_STOP 08CF                                    _SSP1CON1 0215  
                                  _SSP1CON2 0216                 __size_of_USBCheckStdRequest 007C  
           __end_of_I2C_MasterEnableRestart 088C                                    _SSP1STAT 0214  
                                  _UCONbits 0E8E           __end_of_CompatIDFeatureDescriptor 105C  
                         ??_PIN_MANAGER_IOC 0070                       __end_of_I2C_SetBuffer 096C  
          __size_of_USBStdFeatureReqHandler 014C                            __size_of_ADC_ISR 000F  
                                _ADCON0bits 009D                      ?_I2C_DO_SEND_ADR_WRITE 0070  
                  I2C_MasterSendTxData@data 0070                                _RemoteWakeup 00DE  
                  wr2RegCompleteHandler@ptr 0079                    __size_ofi1_USBDeviceInit 00A5  
                   __end_of_USBStallHandler 0ADC                  ??_I2C_DO_SEND_RESTART_READ 0070  
                  ?_rdBlkRegCompleteHandler 0079                 ??_USBCtrlEPAllowStatusStage 0070  
               __end_of_USBStdSetCfgHandler 0F08                                  _I2C_Status 00A0  
                              ?_I2C_DO_IDLE 0070                                ?_I2C_DO_RCEN 0070  
                    ?_rd2RegCompleteHandler 0079                          __end_of_device_dsc 10D6  
                    ?_wr2RegCompleteHandler 0079                            ??_I2C_MasterStop 0070  
                   ?_USBCtrlTrfSetupHandler 0070                            ??_I2C_Initialize 00E2  
                   USBStdGetStatusHandler@p 0072                                   memcpy@tmp 0077  
                      __end_of_I2C_DO_RESET 08D9                                    _SetupPkt 0040  
                   ??_OSCILLATOR_Initialize 00E2                           ??_USBDeviceAttach 00E2  
                      _I2C_DO_SEND_ADR_READ 0908                     __size_of_USBDeviceTasks 011B  
                                  __ptext10 08DF                                    __ptext20 07B4  
                                  __ptext12 01B2                                    __ptext21 056C  
                                  __ptext13 0423                                    __ptext30 0DA7  
                                  __ptext22 0CEB                                    __ptext14 0A27  
                                  __ptext31 0BC0                                    __ptext23 0F84  
                                  __ptext15 0A0B                                    __ptext40 0B35  
                                  __ptext32 0378                                    __ptext24 0E8D  
                                  __ptext16 0AB1                                    __ptext41 0898  
                                  __ptext33 0E14                                    __ptext25 04C8  
                                  __ptext17 09EF                                    __ptext50 08B1  
                                  __ptext42 0ADC                                    __ptext34 0F08  
                                  __ptext26 0D45                                    __ptext18 0C95  
                                  __ptext51 08F1                                    __ptext43 08D4  
                                  __ptext35 0731                                    __ptext27 060A  
                                  __ptext19 0B63                                    __ptext60 08A7  
                                  __ptext52 0BFA                                    __ptext44 08CF  
                                  __ptext36 0911                                    __ptext28 0066  
                                  __ptext61 089F                                    __ptext53 0C40  
                                  __ptext45 08CA                                    __ptext37 094D  
                                  __ptext29 0B08                                    __ptext70 097D  
                                  __ptext62 0892                                    __ptext54 08F8  
                                  __ptext46 08C5                                    __ptext38 0886  
                                  __ptext71 096C                                    __ptext63 089B  
                                  __ptext55 0908                                    __ptext47 08C0  
                                  __ptext39 08A3                                    __ptext72 0923  
                                  __ptext64 088F                                    __ptext56 08AC  
                                  __ptext48 08BB                                    __ptext73 0A65  
                                  __ptext65 0002                                    __ptext57 0B91  
                                  __ptext49 08B6                                    __ptext74 095C  
                                  __ptext66 0887                                    __ptext58 0895  
                                  __ptext75 088C                                    __ptext67 09D7  
                                  __ptext59 08D9                                    __ptext76 0889  
                                  __ptext68 099F                                    __ptext77 093E  
                                  __ptext69 098E                                    __ptext78 0885  
              ??_IOCAF5_SetInterruptHandler 00E4                                _SSP1CON1bits 0215  
                              _SSP1CON2bits 0216         __end_of_I2C_SetDataCompleteCallback 0930  
               _I2C_SetDataCompleteCallback 0923                     ?_I2C_DO_RX_NACK_RESTART 0070  
                                _IOCAF5_ISR 094D                    __end_of_I2C_DO_SEND_STOP 08C5  
            __end_of_USBCtrlTrfSetupHandler 07FC                               __size_of_main 0008  
                         ?_USBCtrlEPService 0070                          ??_USBCtrlEPService 0065  
                           _I2C_SetCallback 0A65               ??_I2C_SetDataCompleteCallback 0078  
                       _USBCtrlTrfInHandler 0F08                                    _outPipes 00BD  
                      _USBCtrlTrfOutHandler 0BC0                                    int$flags 007E  
                     ?_I2C_DO_SEND_ADR_READ 0070                   _USBCtrlEPAllowStatusStage 0E14  
        __end_of_INTERRUPT_InterruptManager 0050                  _INTERRUPT_InterruptManager 0004  
                              _SSP1STATbits 0214                    __end_of_I2C_MasterIsNack 08DF  
                     _USBCheckVendorRequest 0DA7         __size_of_IOCAF5_SetInterruptHandler 0006  
                  __end_of_I2C_MasterSetIrq 0898                   _USBDeferStatusStagePacket 00D9  
                          i1USBDeviceInit@i 0074                            i1USBDeviceInit@p 0071  
                                _INTCONbits 000B                        ?_USBCtrlTrfInHandler 0070  
                                  memcpy@d1 0078                                    memcpy@s1 0070  
             USBCtrlTrfTxService@byteToSend 0072                              __pstringtext10 10C4  
                            __pstringtext11 10DE                              __pstringtext12 10E6  
            __end_of_I2C_DO_RX_NACK_RESTART 08D4                            ?_USBStallHandler 0070  
                  USBStdFeatureReqHandler@p 0063                    ?_ADC_SetInterruptHandler 00E2  
                   __size_of_WDT_Initialize 0004                                    intlevel1 0000  
                    __size_of_USBDeviceInit 00AB            __size_of_I2C_MasterEnableRestart 0003  
   __end_of_USER_USB_CALLBACK_EVENT_HANDLER 0B35    __size_of_USER_USB_CALLBACK_EVENT_HANDLER 002D  
         ??_USER_USB_CALLBACK_EVENT_HANDLER 0079            ?_USER_USB_CALLBACK_EVENT_HANDLER 0073  
           _USER_USB_CALLBACK_EVENT_HANDLER 0B08                                  _PMCON1bits 0195  
                         ??i1_USBDeviceInit 0070                     ?_PIN_MANAGER_Initialize 0070  
                       _I2C_DO_SEND_RESTART 08BB                            ??_ADC_Initialize 00E4  
                     ?_USBCtrlTrfOutHandler 0070                         _USBCtrlTrfRxService 0378  
                  __size_of_I2C_DO_TX_EMPTY 002F                          _USBWakeFromSuspend 0A27  
      __end_of_ExtPropertyFeatureDescriptor 0731                _ExtPropertyFeatureDescriptor 06A3  
                   _USBStdFeatureReqHandler 0066                         _USBCtrlTrfTxService 0731  
                             __pstringtext1 105C                               __pstringtext2 10D6  
                             __pstringtext3 10EA                               __pstringtext4 06A3  
                             __pstringtext5 1000                               __pstringtext6 1034  
                             __pstringtext7 107C                               __pstringtext8 109C  
                             __pstringtext9 10B2                        ?_I2C_DO_SEND_RESTART 0070  
                       ?_USBWakeFromSuspend 0070                       ??_USBCtrlTrfInHandler 0073  
              __size_of_I2C_MasterGetRxData 0003                       _USBAlternateInterface 00E1  
                           _endpoint_number 00DC                        ?_USBCtrlTrfRxService 0070  
               __size_of_I2C_MasterClearIrq 0003                                 ?_IOCAF5_ISR 0070  
                   __end_of_I2C_SetCallback 0A8B              __end_of_PIN_MANAGER_Initialize 0AB1  
                  ?_USBCtrlEPAllowDataStage 0070                        ?_USBCtrlTrfTxService 0070  
            __size_of_rd1RegCompleteHandler 0011               __end_of_rd1RegCompleteHandler 098E  
                    __size_of_I2C_DO_RX_ACK 0005                _USBStatusStageTimeoutCounter 00DA  
                           _PIN_MANAGER_IOC 0911              __size_of_wr1RegCompleteHandler 0011  
                     __size_of_I2C_DO_RESET 0005               __end_of_wr1RegCompleteHandler 09B0  
                     _MSSP_InterruptHandler 00D2                        ??_USBWakeFromSuspend 0079  
              __size_of_I2C_DO_ADDRESS_NACK 002C                        __size_of_I2C_DO_IDLE 0005  
                      __size_of_I2C_DO_RCEN 0007                                  _USB_CD_Ptr 10EA  
                        __size_of_I2C_DO_RX 0046                          __size_of_I2C_DO_TX 0055  
