

Microchip MPLAB XC8 Assembler V2.31 build 20201012212115 
                                                                                               Sat Apr 03 17:26:07 2021

Microchip MPLAB XC8 C Compiler v2.31 (Free license) build 20201012212115 Og1 
     1                           	processor	16F1459
     2                           	pagewidth 120
     3                           	opt	flic
     4                           	psect	stringtext1,global,class=STRCODE,delta=2,noexec
     5                           	psect	stringtext2,global,class=STRCODE,delta=2,noexec
     6                           	psect	stringtext3,global,class=STRCODE,delta=2,noexec
     7                           	psect	stringtext4,global,class=STRCODE,delta=2,noexec
     8                           	psect	stringtext5,global,class=STRCODE,delta=2,noexec
     9                           	psect	stringtext6,global,class=STRCODE,delta=2,noexec
    10                           	psect	stringtext7,global,class=STRCODE,delta=2,noexec
    11                           	psect	stringtext8,global,class=STRCODE,delta=2,noexec
    12                           	psect	cinit,global,class=CODE,merge=1,delta=2
    13                           	psect	bssBANK1,global,class=BANK1,space=1,delta=1,noexec
    14                           	psect	bssBANK3,global,class=BANK3,space=1,delta=1,noexec
    15                           	psect	bssBANK4,global,class=BANK4,space=1,delta=1,noexec
    16                           	psect	bssBANK5,global,class=BANK5,space=1,delta=1,noexec
    17                           	psect	bssBANK6,global,class=BANK6,space=1,delta=1,noexec
    18                           	psect	clrtext,global,class=CODE,delta=2
    19                           	psect	cstackBANK4,global,class=BANK4,space=1,delta=1,noexec
    20                           	psect	cstackBANK3,global,class=BANK3,space=1,delta=1,noexec
    21                           	psect	cstackBANK1,global,class=BANK1,space=1,delta=1,noexec
    22                           	psect	cstackCOMMON,global,class=COMMON,space=1,delta=1,noexec
    23                           	psect	cstackBANK0,global,class=BANK0,space=1,delta=1,noexec
    24                           	psect	maintext,global,class=CODE,merge=1,split=1,delta=2
    25                           	psect	text1,local,class=CODE,merge=1,delta=2
    26                           	psect	text2,local,class=CODE,merge=1,delta=2
    27                           	psect	text3,local,class=CODE,merge=1,delta=2
    28                           	psect	text4,local,class=CODE,merge=1,delta=2
    29                           	psect	text5,local,class=CODE,merge=1,delta=2
    30                           	psect	text6,local,class=CODE,merge=1,delta=2
    31                           	psect	text7,local,class=CODE,merge=1,delta=2
    32                           	psect	text8,local,class=CODE,merge=1,delta=2
    33                           	psect	text9,local,class=CODE,merge=1,delta=2
    34                           	psect	text10,local,class=CODE,merge=1,delta=2
    35                           	psect	text11,local,class=CODE,merge=1,delta=2
    36                           	psect	intentry,global,class=CODE,delta=2
    37                           	psect	text13,local,class=CODE,merge=1,delta=2
    38                           	psect	text14,local,class=CODE,merge=1,delta=2
    39                           	psect	text15,local,class=CODE,merge=1,delta=2
    40                           	psect	text16,local,class=CODE,merge=1,delta=2
    41                           	psect	text17,local,class=CODE,merge=1,delta=2
    42                           	psect	text18,local,class=CODE,merge=1,delta=2
    43                           	psect	text19,local,class=CODE,merge=1,delta=2
    44                           	psect	text20,local,class=CODE,merge=1,delta=2,group=2
    45                           	psect	text21,local,class=CODE,merge=1,delta=2
    46                           	psect	text22,local,class=CODE,merge=1,delta=2
    47                           	psect	text23,local,class=CODE,merge=1,delta=2
    48                           	psect	text24,local,class=CODE,merge=1,delta=2
    49                           	psect	text25,local,class=CODE,merge=1,delta=2
    50                           	psect	text26,local,class=CODE,merge=1,delta=2,group=2
    51                           	psect	text27,local,class=CODE,merge=1,delta=2
    52                           	psect	text28,local,class=CODE,merge=1,delta=2
    53                           	psect	text29,local,class=CODE,merge=1,delta=2
    54                           	psect	text30,local,class=CODE,merge=1,delta=2
    55                           	psect	text31,local,class=CODE,merge=1,delta=2
    56                           	psect	text32,local,class=CODE,merge=1,delta=2
    57                           	psect	text33,local,class=CODE,merge=1,delta=2
    58                           	psect	text34,local,class=CODE,merge=1,delta=2
    59                           	psect	text35,local,class=CODE,merge=1,delta=2
    60                           	psect	text36,local,class=CODE,merge=1,delta=2
    61                           	psect	text37,local,class=CODE,merge=1,delta=2
    62                           	psect	text38,local,class=CODE,merge=1,delta=2
    63                           	psect	text39,local,class=CODE,merge=1,delta=2
    64                           	psect	text40,local,class=CODE,merge=1,delta=2
    65                           	psect	text41,local,class=CODE,merge=1,delta=2
    66                           	psect	text42,local,class=CODE,merge=1,delta=2
    67                           	psect	text43,local,class=CODE,merge=1,delta=2
    68                           	psect	text44,local,class=CODE,merge=1,delta=2
    69                           	psect	text45,local,class=CODE,merge=1,delta=2
    70                           	psect	config,global,abs,ovrld,class=CONFIG,space=4,delta=2,noexec
    71                           	dabs	1,0x1A0,16
    72                           	dabs	1,0x140,48
    73                           	dabs	1,0x120,32
    74                           	dabs	1,0xD0,32
    75                           	dabs	1,0x20,48,_BDT
    76                           	dabs	1,0x58,8,_CtrlTrfData
    77                           	dabs	1,0x50,8,_SetupPkt
    78                           	dabs	1,0x7E,2
    79  0000                     
    80                           ; Version 2.20
    81                           ; Generated 12/02/2020 GMT
    82                           ; 
    83                           ; Copyright © 2020, Microchip Technology Inc. and its subsidiaries ("Microchip")
    84                           ; All rights reserved.
    85                           ; 
    86                           ; This software is developed by Microchip Technology Inc. and its subsidiaries ("Microch
      +                          ip").
    87                           ; 
    88                           ; Redistribution and use in source and binary forms, with or without modification, are
    89                           ; permitted provided that the following conditions are met:
    90                           ; 
    91                           ;     1. Redistributions of source code must retain the above copyright notice, this lis
      +                          t of
    92                           ;        conditions and the following disclaimer.
    93                           ; 
    94                           ;     2. Redistributions in binary form must reproduce the above copyright notice, this 
      +                          list
    95                           ;        of conditions and the following disclaimer in the documentation and/or other
    96                           ;        materials provided with the distribution.
    97                           ; 
    98                           ;     3. Microchip's name may not be used to endorse or promote products derived from th
      +                          is
    99                           ;        software without specific prior written permission.
   100                           ; 
   101                           ; THIS SOFTWARE IS PROVIDED BY MICROCHIP "AS IS" AND ANY EXPRESS OR IMPLIED WARRANTIES,
   102                           ; INCLUDING, BUT NOT LIMITED TO, THE IMPLIED WARRANTIES OF MERCHANTABILITY AND FITNESS F
      +                          OR
   103                           ; PURPOSE ARE DISCLAIMED.  IN NO EVENT SHALL MICROCHIP BE LIABLE FOR ANY DIRECT, INDIREC
      +                          T,
   104                           ; INCIDENTAL, SPECIAL, EXEMPLARY, OR CONSEQUENTIAL DAMAGES (INCLUDING BUT NOT LIMITED TO
   105                           ; PROCUREMENT OF SUBSTITUTE GOODS OR SERVICES; LOSS OF USE, DATA OR PROFITS; OR BUSINESS
   106                           ; INTERRUPTION) HOWSOEVER CAUSED AND ON ANY THEORY OF LIABILITY, WHETHER IN CONTRACT, ST
      +                          RICT
   107                           ; LIABILITY, OR TORT (INCLUDING NEGLIGENCE OR OTHERWISE) ARISING IN ANY WAY OUT OF THE U
      +                          SE OF
   108                           ; THIS SOFTWARE, EVEN IF ADVISED OF THE POSSIBILITY OF SUCH DAMAGE.
   109                           ; 
   110                           ; 
   111                           ; Code-generator required, PIC16F1459 Definitions
   112                           ; 
   113                           ; SFR Addresses
   114  0000                     	;# 
   115  0001                     	;# 
   116  0002                     	;# 
   117  0003                     	;# 
   118  0004                     	;# 
   119  0005                     	;# 
   120  0006                     	;# 
   121  0007                     	;# 
   122  0008                     	;# 
   123  0009                     	;# 
   124  000A                     	;# 
   125  000B                     	;# 
   126  000C                     	;# 
   127  000D                     	;# 
   128  000E                     	;# 
   129  0011                     	;# 
   130  0012                     	;# 
   131  0015                     	;# 
   132  0016                     	;# 
   133  0016                     	;# 
   134  0017                     	;# 
   135  0018                     	;# 
   136  0019                     	;# 
   137  001A                     	;# 
   138  001B                     	;# 
   139  001C                     	;# 
   140  008C                     	;# 
   141  008D                     	;# 
   142  008E                     	;# 
   143  0091                     	;# 
   144  0092                     	;# 
   145  0095                     	;# 
   146  0096                     	;# 
   147  0097                     	;# 
   148  0098                     	;# 
   149  0099                     	;# 
   150  009A                     	;# 
   151  009B                     	;# 
   152  009B                     	;# 
   153  009C                     	;# 
   154  009D                     	;# 
   155  009E                     	;# 
   156  009F                     	;# 
   157  010C                     	;# 
   158  010D                     	;# 
   159  010E                     	;# 
   160  0111                     	;# 
   161  0112                     	;# 
   162  0113                     	;# 
   163  0114                     	;# 
   164  0115                     	;# 
   165  0116                     	;# 
   166  0117                     	;# 
   167  0118                     	;# 
   168  0119                     	;# 
   169  011D                     	;# 
   170  018C                     	;# 
   171  018D                     	;# 
   172  018E                     	;# 
   173  0191                     	;# 
   174  0191                     	;# 
   175  0192                     	;# 
   176  0193                     	;# 
   177  0193                     	;# 
   178  0194                     	;# 
   179  0195                     	;# 
   180  0196                     	;# 
   181  0197                     	;# 
   182  0199                     	;# 
   183  019A                     	;# 
   184  019B                     	;# 
   185  019B                     	;# 
   186  019C                     	;# 
   187  019D                     	;# 
   188  019E                     	;# 
   189  019F                     	;# 
   190  020C                     	;# 
   191  020D                     	;# 
   192  0211                     	;# 
   193  0211                     	;# 
   194  0212                     	;# 
   195  0212                     	;# 
   196  0213                     	;# 
   197  0213                     	;# 
   198  0214                     	;# 
   199  0214                     	;# 
   200  0215                     	;# 
   201  0215                     	;# 
   202  0215                     	;# 
   203  0216                     	;# 
   204  0216                     	;# 
   205  0217                     	;# 
   206  0217                     	;# 
   207  0391                     	;# 
   208  0392                     	;# 
   209  0393                     	;# 
   210  0394                     	;# 
   211  0395                     	;# 
   212  0396                     	;# 
   213  039A                     	;# 
   214  039B                     	;# 
   215  0611                     	;# 
   216  0612                     	;# 
   217  0613                     	;# 
   218  0613                     	;# 
   219  0614                     	;# 
   220  0615                     	;# 
   221  0616                     	;# 
   222  0616                     	;# 
   223  0691                     	;# 
   224  0692                     	;# 
   225  0693                     	;# 
   226  0694                     	;# 
   227  0695                     	;# 
   228  0E8E                     	;# 
   229  0E8F                     	;# 
   230  0E90                     	;# 
   231  0E91                     	;# 
   232  0E92                     	;# 
   233  0E93                     	;# 
   234  0E94                     	;# 
   235  0E94                     	;# 
   236  0E95                     	;# 
   237  0E96                     	;# 
   238  0E97                     	;# 
   239  0E98                     	;# 
   240  0E99                     	;# 
   241  0E9A                     	;# 
   242  0E9B                     	;# 
   243  0E9C                     	;# 
   244  0E9D                     	;# 
   245  0E9E                     	;# 
   246  0E9F                     	;# 
   247  0FE4                     	;# 
   248  0FE5                     	;# 
   249  0FE6                     	;# 
   250  0FE7                     	;# 
   251  0FE8                     	;# 
   252  0FE9                     	;# 
   253  0FEA                     	;# 
   254  0FEB                     	;# 
   255  0FED                     	;# 
   256  0FEE                     	;# 
   257  0FEF                     	;# 
   258  0000                     	;# 
   259  0001                     	;# 
   260  0002                     	;# 
   261  0003                     	;# 
   262  0004                     	;# 
   263  0005                     	;# 
   264  0006                     	;# 
   265  0007                     	;# 
   266  0008                     	;# 
   267  0009                     	;# 
   268  000A                     	;# 
   269  000B                     	;# 
   270  000C                     	;# 
   271  000D                     	;# 
   272  000E                     	;# 
   273  0011                     	;# 
   274  0012                     	;# 
   275  0015                     	;# 
   276  0016                     	;# 
   277  0016                     	;# 
   278  0017                     	;# 
   279  0018                     	;# 
   280  0019                     	;# 
   281  001A                     	;# 
   282  001B                     	;# 
   283  001C                     	;# 
   284  008C                     	;# 
   285  008D                     	;# 
   286  008E                     	;# 
   287  0091                     	;# 
   288  0092                     	;# 
   289  0095                     	;# 
   290  0096                     	;# 
   291  0097                     	;# 
   292  0098                     	;# 
   293  0099                     	;# 
   294  009A                     	;# 
   295  009B                     	;# 
   296  009B                     	;# 
   297  009C                     	;# 
   298  009D                     	;# 
   299  009E                     	;# 
   300  009F                     	;# 
   301  010C                     	;# 
   302  010D                     	;# 
   303  010E                     	;# 
   304  0111                     	;# 
   305  0112                     	;# 
   306  0113                     	;# 
   307  0114                     	;# 
   308  0115                     	;# 
   309  0116                     	;# 
   310  0117                     	;# 
   311  0118                     	;# 
   312  0119                     	;# 
   313  011D                     	;# 
   314  018C                     	;# 
   315  018D                     	;# 
   316  018E                     	;# 
   317  0191                     	;# 
   318  0191                     	;# 
   319  0192                     	;# 
   320  0193                     	;# 
   321  0193                     	;# 
   322  0194                     	;# 
   323  0195                     	;# 
   324  0196                     	;# 
   325  0197                     	;# 
   326  0199                     	;# 
   327  019A                     	;# 
   328  019B                     	;# 
   329  019B                     	;# 
   330  019C                     	;# 
   331  019D                     	;# 
   332  019E                     	;# 
   333  019F                     	;# 
   334  020C                     	;# 
   335  020D                     	;# 
   336  0211                     	;# 
   337  0211                     	;# 
   338  0212                     	;# 
   339  0212                     	;# 
   340  0213                     	;# 
   341  0213                     	;# 
   342  0214                     	;# 
   343  0214                     	;# 
   344  0215                     	;# 
   345  0215                     	;# 
   346  0215                     	;# 
   347  0216                     	;# 
   348  0216                     	;# 
   349  0217                     	;# 
   350  0217                     	;# 
   351  0391                     	;# 
   352  0392                     	;# 
   353  0393                     	;# 
   354  0394                     	;# 
   355  0395                     	;# 
   356  0396                     	;# 
   357  039A                     	;# 
   358  039B                     	;# 
   359  0611                     	;# 
   360  0612                     	;# 
   361  0613                     	;# 
   362  0613                     	;# 
   363  0614                     	;# 
   364  0615                     	;# 
   365  0616                     	;# 
   366  0616                     	;# 
   367  0691                     	;# 
   368  0692                     	;# 
   369  0693                     	;# 
   370  0694                     	;# 
   371  0695                     	;# 
   372  0E8E                     	;# 
   373  0E8F                     	;# 
   374  0E90                     	;# 
   375  0E91                     	;# 
   376  0E92                     	;# 
   377  0E93                     	;# 
   378  0E94                     	;# 
   379  0E94                     	;# 
   380  0E95                     	;# 
   381  0E96                     	;# 
   382  0E97                     	;# 
   383  0E98                     	;# 
   384  0E99                     	;# 
   385  0E9A                     	;# 
   386  0E9B                     	;# 
   387  0E9C                     	;# 
   388  0E9D                     	;# 
   389  0E9E                     	;# 
   390  0E9F                     	;# 
   391  0FE4                     	;# 
   392  0FE5                     	;# 
   393  0FE6                     	;# 
   394  0FE7                     	;# 
   395  0FE8                     	;# 
   396  0FE9                     	;# 
   397  0FEA                     	;# 
   398  0FEB                     	;# 
   399  0FED                     	;# 
   400  0FEE                     	;# 
   401  0FEF                     	;# 
   402  0000                     	;# 
   403  0001                     	;# 
   404  0002                     	;# 
   405  0003                     	;# 
   406  0004                     	;# 
   407  0005                     	;# 
   408  0006                     	;# 
   409  0007                     	;# 
   410  0008                     	;# 
   411  0009                     	;# 
   412  000A                     	;# 
   413  000B                     	;# 
   414  000C                     	;# 
   415  000D                     	;# 
   416  000E                     	;# 
   417  0011                     	;# 
   418  0012                     	;# 
   419  0015                     	;# 
   420  0016                     	;# 
   421  0016                     	;# 
   422  0017                     	;# 
   423  0018                     	;# 
   424  0019                     	;# 
   425  001A                     	;# 
   426  001B                     	;# 
   427  001C                     	;# 
   428  008C                     	;# 
   429  008D                     	;# 
   430  008E                     	;# 
   431  0091                     	;# 
   432  0092                     	;# 
   433  0095                     	;# 
   434  0096                     	;# 
   435  0097                     	;# 
   436  0098                     	;# 
   437  0099                     	;# 
   438  009A                     	;# 
   439  009B                     	;# 
   440  009B                     	;# 
   441  009C                     	;# 
   442  009D                     	;# 
   443  009E                     	;# 
   444  009F                     	;# 
   445  010C                     	;# 
   446  010D                     	;# 
   447  010E                     	;# 
   448  0111                     	;# 
   449  0112                     	;# 
   450  0113                     	;# 
   451  0114                     	;# 
   452  0115                     	;# 
   453  0116                     	;# 
   454  0117                     	;# 
   455  0118                     	;# 
   456  0119                     	;# 
   457  011D                     	;# 
   458  018C                     	;# 
   459  018D                     	;# 
   460  018E                     	;# 
   461  0191                     	;# 
   462  0191                     	;# 
   463  0192                     	;# 
   464  0193                     	;# 
   465  0193                     	;# 
   466  0194                     	;# 
   467  0195                     	;# 
   468  0196                     	;# 
   469  0197                     	;# 
   470  0199                     	;# 
   471  019A                     	;# 
   472  019B                     	;# 
   473  019B                     	;# 
   474  019C                     	;# 
   475  019D                     	;# 
   476  019E                     	;# 
   477  019F                     	;# 
   478  020C                     	;# 
   479  020D                     	;# 
   480  0211                     	;# 
   481  0211                     	;# 
   482  0212                     	;# 
   483  0212                     	;# 
   484  0213                     	;# 
   485  0213                     	;# 
   486  0214                     	;# 
   487  0214                     	;# 
   488  0215                     	;# 
   489  0215                     	;# 
   490  0215                     	;# 
   491  0216                     	;# 
   492  0216                     	;# 
   493  0217                     	;# 
   494  0217                     	;# 
   495  0391                     	;# 
   496  0392                     	;# 
   497  0393                     	;# 
   498  0394                     	;# 
   499  0395                     	;# 
   500  0396                     	;# 
   501  039A                     	;# 
   502  039B                     	;# 
   503  0611                     	;# 
   504  0612                     	;# 
   505  0613                     	;# 
   506  0613                     	;# 
   507  0614                     	;# 
   508  0615                     	;# 
   509  0616                     	;# 
   510  0616                     	;# 
   511  0691                     	;# 
   512  0692                     	;# 
   513  0693                     	;# 
   514  0694                     	;# 
   515  0695                     	;# 
   516  0E8E                     	;# 
   517  0E8F                     	;# 
   518  0E90                     	;# 
   519  0E91                     	;# 
   520  0E92                     	;# 
   521  0E93                     	;# 
   522  0E94                     	;# 
   523  0E94                     	;# 
   524  0E95                     	;# 
   525  0E96                     	;# 
   526  0E97                     	;# 
   527  0E98                     	;# 
   528  0E99                     	;# 
   529  0E9A                     	;# 
   530  0E9B                     	;# 
   531  0E9C                     	;# 
   532  0E9D                     	;# 
   533  0E9E                     	;# 
   534  0E9F                     	;# 
   535  0FE4                     	;# 
   536  0FE5                     	;# 
   537  0FE6                     	;# 
   538  0FE7                     	;# 
   539  0FE8                     	;# 
   540  0FE9                     	;# 
   541  0FEA                     	;# 
   542  0FEB                     	;# 
   543  0FED                     	;# 
   544  0FEE                     	;# 
   545  0FEF                     	;# 
   546  0000                     	;# 
   547  0001                     	;# 
   548  0002                     	;# 
   549  0003                     	;# 
   550  0004                     	;# 
   551  0005                     	;# 
   552  0006                     	;# 
   553  0007                     	;# 
   554  0008                     	;# 
   555  0009                     	;# 
   556  000A                     	;# 
   557  000B                     	;# 
   558  000C                     	;# 
   559  000D                     	;# 
   560  000E                     	;# 
   561  0011                     	;# 
   562  0012                     	;# 
   563  0015                     	;# 
   564  0016                     	;# 
   565  0016                     	;# 
   566  0017                     	;# 
   567  0018                     	;# 
   568  0019                     	;# 
   569  001A                     	;# 
   570  001B                     	;# 
   571  001C                     	;# 
   572  008C                     	;# 
   573  008D                     	;# 
   574  008E                     	;# 
   575  0091                     	;# 
   576  0092                     	;# 
   577  0095                     	;# 
   578  0096                     	;# 
   579  0097                     	;# 
   580  0098                     	;# 
   581  0099                     	;# 
   582  009A                     	;# 
   583  009B                     	;# 
   584  009B                     	;# 
   585  009C                     	;# 
   586  009D                     	;# 
   587  009E                     	;# 
   588  009F                     	;# 
   589  010C                     	;# 
   590  010D                     	;# 
   591  010E                     	;# 
   592  0111                     	;# 
   593  0112                     	;# 
   594  0113                     	;# 
   595  0114                     	;# 
   596  0115                     	;# 
   597  0116                     	;# 
   598  0117                     	;# 
   599  0118                     	;# 
   600  0119                     	;# 
   601  011D                     	;# 
   602  018C                     	;# 
   603  018D                     	;# 
   604  018E                     	;# 
   605  0191                     	;# 
   606  0191                     	;# 
   607  0192                     	;# 
   608  0193                     	;# 
   609  0193                     	;# 
   610  0194                     	;# 
   611  0195                     	;# 
   612  0196                     	;# 
   613  0197                     	;# 
   614  0199                     	;# 
   615  019A                     	;# 
   616  019B                     	;# 
   617  019B                     	;# 
   618  019C                     	;# 
   619  019D                     	;# 
   620  019E                     	;# 
   621  019F                     	;# 
   622  020C                     	;# 
   623  020D                     	;# 
   624  0211                     	;# 
   625  0211                     	;# 
   626  0212                     	;# 
   627  0212                     	;# 
   628  0213                     	;# 
   629  0213                     	;# 
   630  0214                     	;# 
   631  0214                     	;# 
   632  0215                     	;# 
   633  0215                     	;# 
   634  0215                     	;# 
   635  0216                     	;# 
   636  0216                     	;# 
   637  0217                     	;# 
   638  0217                     	;# 
   639  0391                     	;# 
   640  0392                     	;# 
   641  0393                     	;# 
   642  0394                     	;# 
   643  0395                     	;# 
   644  0396                     	;# 
   645  039A                     	;# 
   646  039B                     	;# 
   647  0611                     	;# 
   648  0612                     	;# 
   649  0613                     	;# 
   650  0613                     	;# 
   651  0614                     	;# 
   652  0615                     	;# 
   653  0616                     	;# 
   654  0616                     	;# 
   655  0691                     	;# 
   656  0692                     	;# 
   657  0693                     	;# 
   658  0694                     	;# 
   659  0695                     	;# 
   660  0E8E                     	;# 
   661  0E8F                     	;# 
   662  0E90                     	;# 
   663  0E91                     	;# 
   664  0E92                     	;# 
   665  0E93                     	;# 
   666  0E94                     	;# 
   667  0E94                     	;# 
   668  0E95                     	;# 
   669  0E96                     	;# 
   670  0E97                     	;# 
   671  0E98                     	;# 
   672  0E99                     	;# 
   673  0E9A                     	;# 
   674  0E9B                     	;# 
   675  0E9C                     	;# 
   676  0E9D                     	;# 
   677  0E9E                     	;# 
   678  0E9F                     	;# 
   679  0FE4                     	;# 
   680  0FE5                     	;# 
   681  0FE6                     	;# 
   682  0FE7                     	;# 
   683  0FE8                     	;# 
   684  0FE9                     	;# 
   685  0FEA                     	;# 
   686  0FEB                     	;# 
   687  0FED                     	;# 
   688  0FEE                     	;# 
   689  0FEF                     	;# 
   690  0000                     	;# 
   691  0001                     	;# 
   692  0002                     	;# 
   693  0003                     	;# 
   694  0004                     	;# 
   695  0005                     	;# 
   696  0006                     	;# 
   697  0007                     	;# 
   698  0008                     	;# 
   699  0009                     	;# 
   700  000A                     	;# 
   701  000B                     	;# 
   702  000C                     	;# 
   703  000D                     	;# 
   704  000E                     	;# 
   705  0011                     	;# 
   706  0012                     	;# 
   707  0015                     	;# 
   708  0016                     	;# 
   709  0016                     	;# 
   710  0017                     	;# 
   711  0018                     	;# 
   712  0019                     	;# 
   713  001A                     	;# 
   714  001B                     	;# 
   715  001C                     	;# 
   716  008C                     	;# 
   717  008D                     	;# 
   718  008E                     	;# 
   719  0091                     	;# 
   720  0092                     	;# 
   721  0095                     	;# 
   722  0096                     	;# 
   723  0097                     	;# 
   724  0098                     	;# 
   725  0099                     	;# 
   726  009A                     	;# 
   727  009B                     	;# 
   728  009B                     	;# 
   729  009C                     	;# 
   730  009D                     	;# 
   731  009E                     	;# 
   732  009F                     	;# 
   733  010C                     	;# 
   734  010D                     	;# 
   735  010E                     	;# 
   736  0111                     	;# 
   737  0112                     	;# 
   738  0113                     	;# 
   739  0114                     	;# 
   740  0115                     	;# 
   741  0116                     	;# 
   742  0117                     	;# 
   743  0118                     	;# 
   744  0119                     	;# 
   745  011D                     	;# 
   746  018C                     	;# 
   747  018D                     	;# 
   748  018E                     	;# 
   749  0191                     	;# 
   750  0191                     	;# 
   751  0192                     	;# 
   752  0193                     	;# 
   753  0193                     	;# 
   754  0194                     	;# 
   755  0195                     	;# 
   756  0196                     	;# 
   757  0197                     	;# 
   758  0199                     	;# 
   759  019A                     	;# 
   760  019B                     	;# 
   761  019B                     	;# 
   762  019C                     	;# 
   763  019D                     	;# 
   764  019E                     	;# 
   765  019F                     	;# 
   766  020C                     	;# 
   767  020D                     	;# 
   768  0211                     	;# 
   769  0211                     	;# 
   770  0212                     	;# 
   771  0212                     	;# 
   772  0213                     	;# 
   773  0213                     	;# 
   774  0214                     	;# 
   775  0214                     	;# 
   776  0215                     	;# 
   777  0215                     	;# 
   778  0215                     	;# 
   779  0216                     	;# 
   780  0216                     	;# 
   781  0217                     	;# 
   782  0217                     	;# 
   783  0391                     	;# 
   784  0392                     	;# 
   785  0393                     	;# 
   786  0394                     	;# 
   787  0395                     	;# 
   788  0396                     	;# 
   789  039A                     	;# 
   790  039B                     	;# 
   791  0611                     	;# 
   792  0612                     	;# 
   793  0613                     	;# 
   794  0613                     	;# 
   795  0614                     	;# 
   796  0615                     	;# 
   797  0616                     	;# 
   798  0616                     	;# 
   799  0691                     	;# 
   800  0692                     	;# 
   801  0693                     	;# 
   802  0694                     	;# 
   803  0695                     	;# 
   804  0E8E                     	;# 
   805  0E8F                     	;# 
   806  0E90                     	;# 
   807  0E91                     	;# 
   808  0E92                     	;# 
   809  0E93                     	;# 
   810  0E94                     	;# 
   811  0E94                     	;# 
   812  0E95                     	;# 
   813  0E96                     	;# 
   814  0E97                     	;# 
   815  0E98                     	;# 
   816  0E99                     	;# 
   817  0E9A                     	;# 
   818  0E9B                     	;# 
   819  0E9C                     	;# 
   820  0E9D                     	;# 
   821  0E9E                     	;# 
   822  0E9F                     	;# 
   823  0FE4                     	;# 
   824  0FE5                     	;# 
   825  0FE6                     	;# 
   826  0FE7                     	;# 
   827  0FE8                     	;# 
   828  0FE9                     	;# 
   829  0FEA                     	;# 
   830  0FEB                     	;# 
   831  0FED                     	;# 
   832  0FEE                     	;# 
   833  0FEF                     	;# 
   834  0000                     	;# 
   835  0001                     	;# 
   836  0002                     	;# 
   837  0003                     	;# 
   838  0004                     	;# 
   839  0005                     	;# 
   840  0006                     	;# 
   841  0007                     	;# 
   842  0008                     	;# 
   843  0009                     	;# 
   844  000A                     	;# 
   845  000B                     	;# 
   846  000C                     	;# 
   847  000D                     	;# 
   848  000E                     	;# 
   849  0011                     	;# 
   850  0012                     	;# 
   851  0015                     	;# 
   852  0016                     	;# 
   853  0016                     	;# 
   854  0017                     	;# 
   855  0018                     	;# 
   856  0019                     	;# 
   857  001A                     	;# 
   858  001B                     	;# 
   859  001C                     	;# 
   860  008C                     	;# 
   861  008D                     	;# 
   862  008E                     	;# 
   863  0091                     	;# 
   864  0092                     	;# 
   865  0095                     	;# 
   866  0096                     	;# 
   867  0097                     	;# 
   868  0098                     	;# 
   869  0099                     	;# 
   870  009A                     	;# 
   871  009B                     	;# 
   872  009B                     	;# 
   873  009C                     	;# 
   874  009D                     	;# 
   875  009E                     	;# 
   876  009F                     	;# 
   877  010C                     	;# 
   878  010D                     	;# 
   879  010E                     	;# 
   880  0111                     	;# 
   881  0112                     	;# 
   882  0113                     	;# 
   883  0114                     	;# 
   884  0115                     	;# 
   885  0116                     	;# 
   886  0117                     	;# 
   887  0118                     	;# 
   888  0119                     	;# 
   889  011D                     	;# 
   890  018C                     	;# 
   891  018D                     	;# 
   892  018E                     	;# 
   893  0191                     	;# 
   894  0191                     	;# 
   895  0192                     	;# 
   896  0193                     	;# 
   897  0193                     	;# 
   898  0194                     	;# 
   899  0195                     	;# 
   900  0196                     	;# 
   901  0197                     	;# 
   902  0199                     	;# 
   903  019A                     	;# 
   904  019B                     	;# 
   905  019B                     	;# 
   906  019C                     	;# 
   907  019D                     	;# 
   908  019E                     	;# 
   909  019F                     	;# 
   910  020C                     	;# 
   911  020D                     	;# 
   912  0211                     	;# 
   913  0211                     	;# 
   914  0212                     	;# 
   915  0212                     	;# 
   916  0213                     	;# 
   917  0213                     	;# 
   918  0214                     	;# 
   919  0214                     	;# 
   920  0215                     	;# 
   921  0215                     	;# 
   922  0215                     	;# 
   923  0216                     	;# 
   924  0216                     	;# 
   925  0217                     	;# 
   926  0217                     	;# 
   927  0391                     	;# 
   928  0392                     	;# 
   929  0393                     	;# 
   930  0394                     	;# 
   931  0395                     	;# 
   932  0396                     	;# 
   933  039A                     	;# 
   934  039B                     	;# 
   935  0611                     	;# 
   936  0612                     	;# 
   937  0613                     	;# 
   938  0613                     	;# 
   939  0614                     	;# 
   940  0615                     	;# 
   941  0616                     	;# 
   942  0616                     	;# 
   943  0691                     	;# 
   944  0692                     	;# 
   945  0693                     	;# 
   946  0694                     	;# 
   947  0695                     	;# 
   948  0E8E                     	;# 
   949  0E8F                     	;# 
   950  0E90                     	;# 
   951  0E91                     	;# 
   952  0E92                     	;# 
   953  0E93                     	;# 
   954  0E94                     	;# 
   955  0E94                     	;# 
   956  0E95                     	;# 
   957  0E96                     	;# 
   958  0E97                     	;# 
   959  0E98                     	;# 
   960  0E99                     	;# 
   961  0E9A                     	;# 
   962  0E9B                     	;# 
   963  0E9C                     	;# 
   964  0E9D                     	;# 
   965  0E9E                     	;# 
   966  0E9F                     	;# 
   967  0FE4                     	;# 
   968  0FE5                     	;# 
   969  0FE6                     	;# 
   970  0FE7                     	;# 
   971  0FE8                     	;# 
   972  0FE9                     	;# 
   973  0FEA                     	;# 
   974  0FEB                     	;# 
   975  0FED                     	;# 
   976  0FEE                     	;# 
   977  0FEF                     	;# 
   978  0000                     	;# 
   979  0001                     	;# 
   980  0002                     	;# 
   981  0003                     	;# 
   982  0004                     	;# 
   983  0005                     	;# 
   984  0006                     	;# 
   985  0007                     	;# 
   986  0008                     	;# 
   987  0009                     	;# 
   988  000A                     	;# 
   989  000B                     	;# 
   990  000C                     	;# 
   991  000D                     	;# 
   992  000E                     	;# 
   993  0011                     	;# 
   994  0012                     	;# 
   995  0015                     	;# 
   996  0016                     	;# 
   997  0016                     	;# 
   998  0017                     	;# 
   999  0018                     	;# 
  1000  0019                     	;# 
  1001  001A                     	;# 
  1002  001B                     	;# 
  1003  001C                     	;# 
  1004  008C                     	;# 
  1005  008D                     	;# 
  1006  008E                     	;# 
  1007  0091                     	;# 
  1008  0092                     	;# 
  1009  0095                     	;# 
  1010  0096                     	;# 
  1011  0097                     	;# 
  1012  0098                     	;# 
  1013  0099                     	;# 
  1014  009A                     	;# 
  1015  009B                     	;# 
  1016  009B                     	;# 
  1017  009C                     	;# 
  1018  009D                     	;# 
  1019  009E                     	;# 
  1020  009F                     	;# 
  1021  010C                     	;# 
  1022  010D                     	;# 
  1023  010E                     	;# 
  1024  0111                     	;# 
  1025  0112                     	;# 
  1026  0113                     	;# 
  1027  0114                     	;# 
  1028  0115                     	;# 
  1029  0116                     	;# 
  1030  0117                     	;# 
  1031  0118                     	;# 
  1032  0119                     	;# 
  1033  011D                     	;# 
  1034  018C                     	;# 
  1035  018D                     	;# 
  1036  018E                     	;# 
  1037  0191                     	;# 
  1038  0191                     	;# 
  1039  0192                     	;# 
  1040  0193                     	;# 
  1041  0193                     	;# 
  1042  0194                     	;# 
  1043  0195                     	;# 
  1044  0196                     	;# 
  1045  0197                     	;# 
  1046  0199                     	;# 
  1047  019A                     	;# 
  1048  019B                     	;# 
  1049  019B                     	;# 
  1050  019C                     	;# 
  1051  019D                     	;# 
  1052  019E                     	;# 
  1053  019F                     	;# 
  1054  020C                     	;# 
  1055  020D                     	;# 
  1056  0211                     	;# 
  1057  0211                     	;# 
  1058  0212                     	;# 
  1059  0212                     	;# 
  1060  0213                     	;# 
  1061  0213                     	;# 
  1062  0214                     	;# 
  1063  0214                     	;# 
  1064  0215                     	;# 
  1065  0215                     	;# 
  1066  0215                     	;# 
  1067  0216                     	;# 
  1068  0216                     	;# 
  1069  0217                     	;# 
  1070  0217                     	;# 
  1071  0391                     	;# 
  1072  0392                     	;# 
  1073  0393                     	;# 
  1074  0394                     	;# 
  1075  0395                     	;# 
  1076  0396                     	;# 
  1077  039A                     	;# 
  1078  039B                     	;# 
  1079  0611                     	;# 
  1080  0612                     	;# 
  1081  0613                     	;# 
  1082  0613                     	;# 
  1083  0614                     	;# 
  1084  0615                     	;# 
  1085  0616                     	;# 
  1086  0616                     	;# 
  1087  0691                     	;# 
  1088  0692                     	;# 
  1089  0693                     	;# 
  1090  0694                     	;# 
  1091  0695                     	;# 
  1092  0E8E                     	;# 
  1093  0E8F                     	;# 
  1094  0E90                     	;# 
  1095  0E91                     	;# 
  1096  0E92                     	;# 
  1097  0E93                     	;# 
  1098  0E94                     	;# 
  1099  0E94                     	;# 
  1100  0E95                     	;# 
  1101  0E96                     	;# 
  1102  0E97                     	;# 
  1103  0E98                     	;# 
  1104  0E99                     	;# 
  1105  0E9A                     	;# 
  1106  0E9B                     	;# 
  1107  0E9C                     	;# 
  1108  0E9D                     	;# 
  1109  0E9E                     	;# 
  1110  0E9F                     	;# 
  1111  0FE4                     	;# 
  1112  0FE5                     	;# 
  1113  0FE6                     	;# 
  1114  0FE7                     	;# 
  1115  0FE8                     	;# 
  1116  0FE9                     	;# 
  1117  0FEA                     	;# 
  1118  0FEB                     	;# 
  1119  0FED                     	;# 
  1120  0FEE                     	;# 
  1121  0FEF                     	;# 
  1122  0000                     	;# 
  1123  0001                     	;# 
  1124  0002                     	;# 
  1125  0003                     	;# 
  1126  0004                     	;# 
  1127  0005                     	;# 
  1128  0006                     	;# 
  1129  0007                     	;# 
  1130  0008                     	;# 
  1131  0009                     	;# 
  1132  000A                     	;# 
  1133  000B                     	;# 
  1134  000C                     	;# 
  1135  000D                     	;# 
  1136  000E                     	;# 
  1137  0011                     	;# 
  1138  0012                     	;# 
  1139  0015                     	;# 
  1140  0016                     	;# 
  1141  0016                     	;# 
  1142  0017                     	;# 
  1143  0018                     	;# 
  1144  0019                     	;# 
  1145  001A                     	;# 
  1146  001B                     	;# 
  1147  001C                     	;# 
  1148  008C                     	;# 
  1149  008D                     	;# 
  1150  008E                     	;# 
  1151  0091                     	;# 
  1152  0092                     	;# 
  1153  0095                     	;# 
  1154  0096                     	;# 
  1155  0097                     	;# 
  1156  0098                     	;# 
  1157  0099                     	;# 
  1158  009A                     	;# 
  1159  009B                     	;# 
  1160  009B                     	;# 
  1161  009C                     	;# 
  1162  009D                     	;# 
  1163  009E                     	;# 
  1164  009F                     	;# 
  1165  010C                     	;# 
  1166  010D                     	;# 
  1167  010E                     	;# 
  1168  0111                     	;# 
  1169  0112                     	;# 
  1170  0113                     	;# 
  1171  0114                     	;# 
  1172  0115                     	;# 
  1173  0116                     	;# 
  1174  0117                     	;# 
  1175  0118                     	;# 
  1176  0119                     	;# 
  1177  011D                     	;# 
  1178  018C                     	;# 
  1179  018D                     	;# 
  1180  018E                     	;# 
  1181  0191                     	;# 
  1182  0191                     	;# 
  1183  0192                     	;# 
  1184  0193                     	;# 
  1185  0193                     	;# 
  1186  0194                     	;# 
  1187  0195                     	;# 
  1188  0196                     	;# 
  1189  0197                     	;# 
  1190  0199                     	;# 
  1191  019A                     	;# 
  1192  019B                     	;# 
  1193  019B                     	;# 
  1194  019C                     	;# 
  1195  019D                     	;# 
  1196  019E                     	;# 
  1197  019F                     	;# 
  1198  020C                     	;# 
  1199  020D                     	;# 
  1200  0211                     	;# 
  1201  0211                     	;# 
  1202  0212                     	;# 
  1203  0212                     	;# 
  1204  0213                     	;# 
  1205  0213                     	;# 
  1206  0214                     	;# 
  1207  0214                     	;# 
  1208  0215                     	;# 
  1209  0215                     	;# 
  1210  0215                     	;# 
  1211  0216                     	;# 
  1212  0216                     	;# 
  1213  0217                     	;# 
  1214  0217                     	;# 
  1215  0391                     	;# 
  1216  0392                     	;# 
  1217  0393                     	;# 
  1218  0394                     	;# 
  1219  0395                     	;# 
  1220  0396                     	;# 
  1221  039A                     	;# 
  1222  039B                     	;# 
  1223  0611                     	;# 
  1224  0612                     	;# 
  1225  0613                     	;# 
  1226  0613                     	;# 
  1227  0614                     	;# 
  1228  0615                     	;# 
  1229  0616                     	;# 
  1230  0616                     	;# 
  1231  0691                     	;# 
  1232  0692                     	;# 
  1233  0693                     	;# 
  1234  0694                     	;# 
  1235  0695                     	;# 
  1236  0E8E                     	;# 
  1237  0E8F                     	;# 
  1238  0E90                     	;# 
  1239  0E91                     	;# 
  1240  0E92                     	;# 
  1241  0E93                     	;# 
  1242  0E94                     	;# 
  1243  0E94                     	;# 
  1244  0E95                     	;# 
  1245  0E96                     	;# 
  1246  0E97                     	;# 
  1247  0E98                     	;# 
  1248  0E99                     	;# 
  1249  0E9A                     	;# 
  1250  0E9B                     	;# 
  1251  0E9C                     	;# 
  1252  0E9D                     	;# 
  1253  0E9E                     	;# 
  1254  0E9F                     	;# 
  1255  0FE4                     	;# 
  1256  0FE5                     	;# 
  1257  0FE6                     	;# 
  1258  0FE7                     	;# 
  1259  0FE8                     	;# 
  1260  0FE9                     	;# 
  1261  0FEA                     	;# 
  1262  0FEB                     	;# 
  1263  0FED                     	;# 
  1264  0FEE                     	;# 
  1265  0FEF                     	;# 
  1266  0000                     	;# 
  1267  0001                     	;# 
  1268  0002                     	;# 
  1269  0003                     	;# 
  1270  0004                     	;# 
  1271  0005                     	;# 
  1272  0006                     	;# 
  1273  0007                     	;# 
  1274  0008                     	;# 
  1275  0009                     	;# 
  1276  000A                     	;# 
  1277  000B                     	;# 
  1278  000C                     	;# 
  1279  000D                     	;# 
  1280  000E                     	;# 
  1281  0011                     	;# 
  1282  0012                     	;# 
  1283  0015                     	;# 
  1284  0016                     	;# 
  1285  0016                     	;# 
  1286  0017                     	;# 
  1287  0018                     	;# 
  1288  0019                     	;# 
  1289  001A                     	;# 
  1290  001B                     	;# 
  1291  001C                     	;# 
  1292  008C                     	;# 
  1293  008D                     	;# 
  1294  008E                     	;# 
  1295  0091                     	;# 
  1296  0092                     	;# 
  1297  0095                     	;# 
  1298  0096                     	;# 
  1299  0097                     	;# 
  1300  0098                     	;# 
  1301  0099                     	;# 
  1302  009A                     	;# 
  1303  009B                     	;# 
  1304  009B                     	;# 
  1305  009C                     	;# 
  1306  009D                     	;# 
  1307  009E                     	;# 
  1308  009F                     	;# 
  1309  010C                     	;# 
  1310  010D                     	;# 
  1311  010E                     	;# 
  1312  0111                     	;# 
  1313  0112                     	;# 
  1314  0113                     	;# 
  1315  0114                     	;# 
  1316  0115                     	;# 
  1317  0116                     	;# 
  1318  0117                     	;# 
  1319  0118                     	;# 
  1320  0119                     	;# 
  1321  011D                     	;# 
  1322  018C                     	;# 
  1323  018D                     	;# 
  1324  018E                     	;# 
  1325  0191                     	;# 
  1326  0191                     	;# 
  1327  0192                     	;# 
  1328  0193                     	;# 
  1329  0193                     	;# 
  1330  0194                     	;# 
  1331  0195                     	;# 
  1332  0196                     	;# 
  1333  0197                     	;# 
  1334  0199                     	;# 
  1335  019A                     	;# 
  1336  019B                     	;# 
  1337  019B                     	;# 
  1338  019C                     	;# 
  1339  019D                     	;# 
  1340  019E                     	;# 
  1341  019F                     	;# 
  1342  020C                     	;# 
  1343  020D                     	;# 
  1344  0211                     	;# 
  1345  0211                     	;# 
  1346  0212                     	;# 
  1347  0212                     	;# 
  1348  0213                     	;# 
  1349  0213                     	;# 
  1350  0214                     	;# 
  1351  0214                     	;# 
  1352  0215                     	;# 
  1353  0215                     	;# 
  1354  0215                     	;# 
  1355  0216                     	;# 
  1356  0216                     	;# 
  1357  0217                     	;# 
  1358  0217                     	;# 
  1359  0391                     	;# 
  1360  0392                     	;# 
  1361  0393                     	;# 
  1362  0394                     	;# 
  1363  0395                     	;# 
  1364  0396                     	;# 
  1365  039A                     	;# 
  1366  039B                     	;# 
  1367  0611                     	;# 
  1368  0612                     	;# 
  1369  0613                     	;# 
  1370  0613                     	;# 
  1371  0614                     	;# 
  1372  0615                     	;# 
  1373  0616                     	;# 
  1374  0616                     	;# 
  1375  0691                     	;# 
  1376  0692                     	;# 
  1377  0693                     	;# 
  1378  0694                     	;# 
  1379  0695                     	;# 
  1380  0E8E                     	;# 
  1381  0E8F                     	;# 
  1382  0E90                     	;# 
  1383  0E91                     	;# 
  1384  0E92                     	;# 
  1385  0E93                     	;# 
  1386  0E94                     	;# 
  1387  0E94                     	;# 
  1388  0E95                     	;# 
  1389  0E96                     	;# 
  1390  0E97                     	;# 
  1391  0E98                     	;# 
  1392  0E99                     	;# 
  1393  0E9A                     	;# 
  1394  0E9B                     	;# 
  1395  0E9C                     	;# 
  1396  0E9D                     	;# 
  1397  0E9E                     	;# 
  1398  0E9F                     	;# 
  1399  0FE4                     	;# 
  1400  0FE5                     	;# 
  1401  0FE6                     	;# 
  1402  0FE7                     	;# 
  1403  0FE8                     	;# 
  1404  0FE9                     	;# 
  1405  0FEA                     	;# 
  1406  0FEB                     	;# 
  1407  0FED                     	;# 
  1408  0FEE                     	;# 
  1409  0FEF                     	;# 
  1410  0000                     	;# 
  1411  0001                     	;# 
  1412  0002                     	;# 
  1413  0003                     	;# 
  1414  0004                     	;# 
  1415  0005                     	;# 
  1416  0006                     	;# 
  1417  0007                     	;# 
  1418  0008                     	;# 
  1419  0009                     	;# 
  1420  000A                     	;# 
  1421  000B                     	;# 
  1422  000C                     	;# 
  1423  000D                     	;# 
  1424  000E                     	;# 
  1425  0011                     	;# 
  1426  0012                     	;# 
  1427  0015                     	;# 
  1428  0016                     	;# 
  1429  0016                     	;# 
  1430  0017                     	;# 
  1431  0018                     	;# 
  1432  0019                     	;# 
  1433  001A                     	;# 
  1434  001B                     	;# 
  1435  001C                     	;# 
  1436  008C                     	;# 
  1437  008D                     	;# 
  1438  008E                     	;# 
  1439  0091                     	;# 
  1440  0092                     	;# 
  1441  0095                     	;# 
  1442  0096                     	;# 
  1443  0097                     	;# 
  1444  0098                     	;# 
  1445  0099                     	;# 
  1446  009A                     	;# 
  1447  009B                     	;# 
  1448  009B                     	;# 
  1449  009C                     	;# 
  1450  009D                     	;# 
  1451  009E                     	;# 
  1452  009F                     	;# 
  1453  010C                     	;# 
  1454  010D                     	;# 
  1455  010E                     	;# 
  1456  0111                     	;# 
  1457  0112                     	;# 
  1458  0113                     	;# 
  1459  0114                     	;# 
  1460  0115                     	;# 
  1461  0116                     	;# 
  1462  0117                     	;# 
  1463  0118                     	;# 
  1464  0119                     	;# 
  1465  011D                     	;# 
  1466  018C                     	;# 
  1467  018D                     	;# 
  1468  018E                     	;# 
  1469  0191                     	;# 
  1470  0191                     	;# 
  1471  0192                     	;# 
  1472  0193                     	;# 
  1473  0193                     	;# 
  1474  0194                     	;# 
  1475  0195                     	;# 
  1476  0196                     	;# 
  1477  0197                     	;# 
  1478  0199                     	;# 
  1479  019A                     	;# 
  1480  019B                     	;# 
  1481  019B                     	;# 
  1482  019C                     	;# 
  1483  019D                     	;# 
  1484  019E                     	;# 
  1485  019F                     	;# 
  1486  020C                     	;# 
  1487  020D                     	;# 
  1488  0211                     	;# 
  1489  0211                     	;# 
  1490  0212                     	;# 
  1491  0212                     	;# 
  1492  0213                     	;# 
  1493  0213                     	;# 
  1494  0214                     	;# 
  1495  0214                     	;# 
  1496  0215                     	;# 
  1497  0215                     	;# 
  1498  0215                     	;# 
  1499  0216                     	;# 
  1500  0216                     	;# 
  1501  0217                     	;# 
  1502  0217                     	;# 
  1503  0391                     	;# 
  1504  0392                     	;# 
  1505  0393                     	;# 
  1506  0394                     	;# 
  1507  0395                     	;# 
  1508  0396                     	;# 
  1509  039A                     	;# 
  1510  039B                     	;# 
  1511  0611                     	;# 
  1512  0612                     	;# 
  1513  0613                     	;# 
  1514  0613                     	;# 
  1515  0614                     	;# 
  1516  0615                     	;# 
  1517  0616                     	;# 
  1518  0616                     	;# 
  1519  0691                     	;# 
  1520  0692                     	;# 
  1521  0693                     	;# 
  1522  0694                     	;# 
  1523  0695                     	;# 
  1524  0E8E                     	;# 
  1525  0E8F                     	;# 
  1526  0E90                     	;# 
  1527  0E91                     	;# 
  1528  0E92                     	;# 
  1529  0E93                     	;# 
  1530  0E94                     	;# 
  1531  0E94                     	;# 
  1532  0E95                     	;# 
  1533  0E96                     	;# 
  1534  0E97                     	;# 
  1535  0E98                     	;# 
  1536  0E99                     	;# 
  1537  0E9A                     	;# 
  1538  0E9B                     	;# 
  1539  0E9C                     	;# 
  1540  0E9D                     	;# 
  1541  0E9E                     	;# 
  1542  0E9F                     	;# 
  1543  0FE4                     	;# 
  1544  0FE5                     	;# 
  1545  0FE6                     	;# 
  1546  0FE7                     	;# 
  1547  0FE8                     	;# 
  1548  0FE9                     	;# 
  1549  0FEA                     	;# 
  1550  0FEB                     	;# 
  1551  0FED                     	;# 
  1552  0FEE                     	;# 
  1553  0FEF                     	;# 
  1554  0000                     	;# 
  1555  0001                     	;# 
  1556  0002                     	;# 
  1557  0003                     	;# 
  1558  0004                     	;# 
  1559  0005                     	;# 
  1560  0006                     	;# 
  1561  0007                     	;# 
  1562  0008                     	;# 
  1563  0009                     	;# 
  1564  000A                     	;# 
  1565  000B                     	;# 
  1566  000C                     	;# 
  1567  000D                     	;# 
  1568  000E                     	;# 
  1569  0011                     	;# 
  1570  0012                     	;# 
  1571  0015                     	;# 
  1572  0016                     	;# 
  1573  0016                     	;# 
  1574  0017                     	;# 
  1575  0018                     	;# 
  1576  0019                     	;# 
  1577  001A                     	;# 
  1578  001B                     	;# 
  1579  001C                     	;# 
  1580  008C                     	;# 
  1581  008D                     	;# 
  1582  008E                     	;# 
  1583  0091                     	;# 
  1584  0092                     	;# 
  1585  0095                     	;# 
  1586  0096                     	;# 
  1587  0097                     	;# 
  1588  0098                     	;# 
  1589  0099                     	;# 
  1590  009A                     	;# 
  1591  009B                     	;# 
  1592  009B                     	;# 
  1593  009C                     	;# 
  1594  009D                     	;# 
  1595  009E                     	;# 
  1596  009F                     	;# 
  1597  010C                     	;# 
  1598  010D                     	;# 
  1599  010E                     	;# 
  1600  0111                     	;# 
  1601  0112                     	;# 
  1602  0113                     	;# 
  1603  0114                     	;# 
  1604  0115                     	;# 
  1605  0116                     	;# 
  1606  0117                     	;# 
  1607  0118                     	;# 
  1608  0119                     	;# 
  1609  011D                     	;# 
  1610  018C                     	;# 
  1611  018D                     	;# 
  1612  018E                     	;# 
  1613  0191                     	;# 
  1614  0191                     	;# 
  1615  0192                     	;# 
  1616  0193                     	;# 
  1617  0193                     	;# 
  1618  0194                     	;# 
  1619  0195                     	;# 
  1620  0196                     	;# 
  1621  0197                     	;# 
  1622  0199                     	;# 
  1623  019A                     	;# 
  1624  019B                     	;# 
  1625  019B                     	;# 
  1626  019C                     	;# 
  1627  019D                     	;# 
  1628  019E                     	;# 
  1629  019F                     	;# 
  1630  020C                     	;# 
  1631  020D                     	;# 
  1632  0211                     	;# 
  1633  0211                     	;# 
  1634  0212                     	;# 
  1635  0212                     	;# 
  1636  0213                     	;# 
  1637  0213                     	;# 
  1638  0214                     	;# 
  1639  0214                     	;# 
  1640  0215                     	;# 
  1641  0215                     	;# 
  1642  0215                     	;# 
  1643  0216                     	;# 
  1644  0216                     	;# 
  1645  0217                     	;# 
  1646  0217                     	;# 
  1647  0391                     	;# 
  1648  0392                     	;# 
  1649  0393                     	;# 
  1650  0394                     	;# 
  1651  0395                     	;# 
  1652  0396                     	;# 
  1653  039A                     	;# 
  1654  039B                     	;# 
  1655  0611                     	;# 
  1656  0612                     	;# 
  1657  0613                     	;# 
  1658  0613                     	;# 
  1659  0614                     	;# 
  1660  0615                     	;# 
  1661  0616                     	;# 
  1662  0616                     	;# 
  1663  0691                     	;# 
  1664  0692                     	;# 
  1665  0693                     	;# 
  1666  0694                     	;# 
  1667  0695                     	;# 
  1668  0E8E                     	;# 
  1669  0E8F                     	;# 
  1670  0E90                     	;# 
  1671  0E91                     	;# 
  1672  0E92                     	;# 
  1673  0E93                     	;# 
  1674  0E94                     	;# 
  1675  0E94                     	;# 
  1676  0E95                     	;# 
  1677  0E96                     	;# 
  1678  0E97                     	;# 
  1679  0E98                     	;# 
  1680  0E99                     	;# 
  1681  0E9A                     	;# 
  1682  0E9B                     	;# 
  1683  0E9C                     	;# 
  1684  0E9D                     	;# 
  1685  0E9E                     	;# 
  1686  0E9F                     	;# 
  1687  0FE4                     	;# 
  1688  0FE5                     	;# 
  1689  0FE6                     	;# 
  1690  0FE7                     	;# 
  1691  0FE8                     	;# 
  1692  0FE9                     	;# 
  1693  0FEA                     	;# 
  1694  0FEB                     	;# 
  1695  0FED                     	;# 
  1696  0FEE                     	;# 
  1697  0FEF                     	;# 
  1698  0000                     	;# 
  1699  0001                     	;# 
  1700  0002                     	;# 
  1701  0003                     	;# 
  1702  0004                     	;# 
  1703  0005                     	;# 
  1704  0006                     	;# 
  1705  0007                     	;# 
  1706  0008                     	;# 
  1707  0009                     	;# 
  1708  000A                     	;# 
  1709  000B                     	;# 
  1710  000C                     	;# 
  1711  000D                     	;# 
  1712  000E                     	;# 
  1713  0011                     	;# 
  1714  0012                     	;# 
  1715  0015                     	;# 
  1716  0016                     	;# 
  1717  0016                     	;# 
  1718  0017                     	;# 
  1719  0018                     	;# 
  1720  0019                     	;# 
  1721  001A                     	;# 
  1722  001B                     	;# 
  1723  001C                     	;# 
  1724  008C                     	;# 
  1725  008D                     	;# 
  1726  008E                     	;# 
  1727  0091                     	;# 
  1728  0092                     	;# 
  1729  0095                     	;# 
  1730  0096                     	;# 
  1731  0097                     	;# 
  1732  0098                     	;# 
  1733  0099                     	;# 
  1734  009A                     	;# 
  1735  009B                     	;# 
  1736  009B                     	;# 
  1737  009C                     	;# 
  1738  009D                     	;# 
  1739  009E                     	;# 
  1740  009F                     	;# 
  1741  010C                     	;# 
  1742  010D                     	;# 
  1743  010E                     	;# 
  1744  0111                     	;# 
  1745  0112                     	;# 
  1746  0113                     	;# 
  1747  0114                     	;# 
  1748  0115                     	;# 
  1749  0116                     	;# 
  1750  0117                     	;# 
  1751  0118                     	;# 
  1752  0119                     	;# 
  1753  011D                     	;# 
  1754  018C                     	;# 
  1755  018D                     	;# 
  1756  018E                     	;# 
  1757  0191                     	;# 
  1758  0191                     	;# 
  1759  0192                     	;# 
  1760  0193                     	;# 
  1761  0193                     	;# 
  1762  0194                     	;# 
  1763  0195                     	;# 
  1764  0196                     	;# 
  1765  0197                     	;# 
  1766  0199                     	;# 
  1767  019A                     	;# 
  1768  019B                     	;# 
  1769  019B                     	;# 
  1770  019C                     	;# 
  1771  019D                     	;# 
  1772  019E                     	;# 
  1773  019F                     	;# 
  1774  020C                     	;# 
  1775  020D                     	;# 
  1776  0211                     	;# 
  1777  0211                     	;# 
  1778  0212                     	;# 
  1779  0212                     	;# 
  1780  0213                     	;# 
  1781  0213                     	;# 
  1782  0214                     	;# 
  1783  0214                     	;# 
  1784  0215                     	;# 
  1785  0215                     	;# 
  1786  0215                     	;# 
  1787  0216                     	;# 
  1788  0216                     	;# 
  1789  0217                     	;# 
  1790  0217                     	;# 
  1791  0391                     	;# 
  1792  0392                     	;# 
  1793  0393                     	;# 
  1794  0394                     	;# 
  1795  0395                     	;# 
  1796  0396                     	;# 
  1797  039A                     	;# 
  1798  039B                     	;# 
  1799  0611                     	;# 
  1800  0612                     	;# 
  1801  0613                     	;# 
  1802  0613                     	;# 
  1803  0614                     	;# 
  1804  0615                     	;# 
  1805  0616                     	;# 
  1806  0616                     	;# 
  1807  0691                     	;# 
  1808  0692                     	;# 
  1809  0693                     	;# 
  1810  0694                     	;# 
  1811  0695                     	;# 
  1812  0E8E                     	;# 
  1813  0E8F                     	;# 
  1814  0E90                     	;# 
  1815  0E91                     	;# 
  1816  0E92                     	;# 
  1817  0E93                     	;# 
  1818  0E94                     	;# 
  1819  0E94                     	;# 
  1820  0E95                     	;# 
  1821  0E96                     	;# 
  1822  0E97                     	;# 
  1823  0E98                     	;# 
  1824  0E99                     	;# 
  1825  0E9A                     	;# 
  1826  0E9B                     	;# 
  1827  0E9C                     	;# 
  1828  0E9D                     	;# 
  1829  0E9E                     	;# 
  1830  0E9F                     	;# 
  1831  0FE4                     	;# 
  1832  0FE5                     	;# 
  1833  0FE6                     	;# 
  1834  0FE7                     	;# 
  1835  0FE8                     	;# 
  1836  0FE9                     	;# 
  1837  0FEA                     	;# 
  1838  0FEB                     	;# 
  1839  0FED                     	;# 
  1840  0FEE                     	;# 
  1841  0FEF                     	;_cdc_data_tx
  1842                           
  1843                           	psect	stringtext1
  1844  109F                     __pstringtext1:
  1845  109F                     _USB_SD_Ptr:
  1846  109F  34AF               	retlw	low (_sd000| (0+32768))
  1847  10A0  3490               	retlw	high (_sd000| (0+32768))
  1848  10A1  3443               	retlw	low (_sd001| (0+32768))
  1849  10A2  3490               	retlw	high (_sd001| (0+32768))
  1850  10A3  3477               	retlw	low (_sd002| (0+32768))
  1851  10A4  3490               	retlw	high (_sd002| (0+32768))
  1852  10A5  34A7               	retlw	low (_sd003| (0+32768))
  1853  10A6  3490               	retlw	high (_sd003| (0+32768))
  1854  10A7                     __end_of_USB_SD_Ptr:
  1855                           
  1856                           	psect	stringtext2
  1857  10B3                     __pstringtext2:
  1858  10B3                     _USB_CD_Ptr:
  1859  10B3  3400               	retlw	low (_configDescriptor1| (0+32768))
  1860  10B4  3490               	retlw	high (_configDescriptor1| (0+32768))
  1861  10B5                     __end_of_USB_CD_Ptr:
  1862                           
  1863                           	psect	stringtext3
  1864  1000                     __pstringtext3:
  1865  1000                     _configDescriptor1:
  1866  1000  3409               	retlw	9
  1867  1001  3402               	retlw	2
  1868  1002  3443               	retlw	67
  1869  1003  3400               	retlw	0
  1870  1004  3402               	retlw	2
  1871  1005  3401               	retlw	1
  1872  1006  3400               	retlw	0
  1873  1007  34C0               	retlw	192
  1874  1008  3432               	retlw	50
  1875  1009  3409               	retlw	9
  1876  100A  3404               	retlw	4
  1877  100B  3400               	retlw	0
  1878  100C  3400               	retlw	0
  1879  100D  3401               	retlw	1
  1880  100E  3402               	retlw	2
  1881  100F  3402               	retlw	2
  1882  1010  3401               	retlw	1
  1883  1011  3400               	retlw	0
  1884  1012  3405               	retlw	5
  1885  1013  3424               	retlw	36
  1886  1014  3400               	retlw	0
  1887  1015  3410               	retlw	16
  1888  1016  3401               	retlw	1
  1889  1017  3404               	retlw	4
  1890  1018  3424               	retlw	36
  1891  1019  3402               	retlw	2
  1892  101A  3402               	retlw	2
  1893  101B  3405               	retlw	5
  1894  101C  3424               	retlw	36
  1895  101D  3406               	retlw	6
  1896  101E  3400               	retlw	0
  1897  101F  3401               	retlw	1
  1898  1020  3405               	retlw	5
  1899  1021  3424               	retlw	36
  1900  1022  3401               	retlw	1
  1901  1023  3400               	retlw	0
  1902  1024  3401               	retlw	1
  1903  1025  3407               	retlw	7
  1904  1026  3405               	retlw	5
  1905  1027  3481               	retlw	129
  1906  1028  3403               	retlw	3
  1907  1029  340A               	retlw	10
  1908  102A  3400               	retlw	0
  1909  102B  3402               	retlw	2
  1910  102C  3409               	retlw	9
  1911  102D  3404               	retlw	4
  1912  102E  3401               	retlw	1
  1913  102F  3400               	retlw	0
  1914  1030  3402               	retlw	2
  1915  1031  340A               	retlw	10
  1916  1032  3400               	retlw	0
  1917  1033  3400               	retlw	0
  1918  1034  3400               	retlw	0
  1919  1035  3407               	retlw	7
  1920  1036  3405               	retlw	5
  1921  1037  3402               	retlw	2
  1922  1038  3402               	retlw	2
  1923  1039  3440               	retlw	64
  1924  103A  3400               	retlw	0
  1925  103B  3400               	retlw	0
  1926  103C  3407               	retlw	7
  1927  103D  3405               	retlw	5
  1928  103E  3482               	retlw	130
  1929  103F  3402               	retlw	2
  1930  1040  3440               	retlw	64
  1931  1041  3400               	retlw	0
  1932  1042  3400               	retlw	0
  1933  1043                     __end_of_configDescriptor1:
  1934                           
  1935                           	psect	stringtext4
  1936  1043                     __pstringtext4:
  1937  1043                     _sd001:
  1938  1043  3434               	retlw	52
  1939  1044  3403               	retlw	3
  1940  1045  344D               	retlw	77
  1941  1046  3400               	retlw	0
  1942  1047  3469               	retlw	105
  1943  1048  3400               	retlw	0
  1944  1049  3463               	retlw	99
  1945  104A  3400               	retlw	0
  1946  104B  3472               	retlw	114
  1947  104C  3400               	retlw	0
  1948  104D  346F               	retlw	111
  1949  104E  3400               	retlw	0
  1950  104F  3463               	retlw	99
  1951  1050  3400               	retlw	0
  1952  1051  3468               	retlw	104
  1953  1052  3400               	retlw	0
  1954  1053  3469               	retlw	105
  1955  1054  3400               	retlw	0
  1956  1055  3470               	retlw	112
  1957  1056  3400               	retlw	0
  1958  1057  3420               	retlw	32
  1959  1058  3400               	retlw	0
  1960  1059  3454               	retlw	84
  1961  105A  3400               	retlw	0
  1962  105B  3465               	retlw	101
  1963  105C  3400               	retlw	0
  1964  105D  3463               	retlw	99
  1965  105E  3400               	retlw	0
  1966  105F  3468               	retlw	104
  1967  1060  3400               	retlw	0
  1968  1061  346E               	retlw	110
  1969  1062  3400               	retlw	0
  1970  1063  346F               	retlw	111
  1971  1064  3400               	retlw	0
  1972  1065  346C               	retlw	108
  1973  1066  3400               	retlw	0
  1974  1067  346F               	retlw	111
  1975  1068  3400               	retlw	0
  1976  1069  3467               	retlw	103
  1977  106A  3400               	retlw	0
  1978  106B  3479               	retlw	121
  1979  106C  3400               	retlw	0
  1980  106D  3420               	retlw	32
  1981  106E  3400               	retlw	0
  1982  106F  3449               	retlw	73
  1983  1070  3400               	retlw	0
  1984  1071  346E               	retlw	110
  1985  1072  3400               	retlw	0
  1986  1073  3463               	retlw	99
  1987  1074  3400               	retlw	0
  1988  1075  342E               	retlw	46
  1989  1076  3400               	retlw	0
  1990  1077                     __end_of_sd001:
  1991                           
  1992                           	psect	stringtext5
  1993  1077                     __pstringtext5:
  1994  1077                     _sd002:
  1995  1077  3416               	retlw	22
  1996  1078  3403               	retlw	3
  1997  1079  3453               	retlw	83
  1998  107A  3400               	retlw	0
  1999  107B  346D               	retlw	109
  2000  107C  3400               	retlw	0
  2001  107D  3461               	retlw	97
  2002  107E  3400               	retlw	0
  2003  107F  3472               	retlw	114
  2004  1080  3400               	retlw	0
  2005  1081  3474               	retlw	116
  2006  1082  3400               	retlw	0
  2007  1083  3420               	retlw	32
  2008  1084  3400               	retlw	0
  2009  1085  3453               	retlw	83
  2010  1086  3400               	retlw	0
  2011  1087  3468               	retlw	104
  2012  1088  3400               	retlw	0
  2013  1089  346F               	retlw	111
  2014  108A  3400               	retlw	0
  2015  108B  3465               	retlw	101
  2016  108C  3400               	retlw	0
  2017  108D                     __end_of_sd002:
  2018                           
  2019                           	psect	stringtext6
  2020  108D                     __pstringtext6:
  2021  108D                     _device_dsc:
  2022  108D  3412               	retlw	18
  2023  108E  3401               	retlw	1
  2024  108F  3400               	retlw	0
  2025  1090  3402               	retlw	2
  2026  1091  3402               	retlw	2
  2027  1092  3400               	retlw	0
  2028  1093  3400               	retlw	0
  2029  1094  3408               	retlw	8
  2030  1095  34D8               	retlw	216
  2031  1096  3404               	retlw	4
  2032  1097  340A               	retlw	10
  2033  1098  3400               	retlw	0
  2034  1099  3400               	retlw	0
  2035  109A  3401               	retlw	1
  2036  109B  3401               	retlw	1
  2037  109C  3402               	retlw	2
  2038  109D  3403               	retlw	3
  2039  109E  3401               	retlw	1
  2040  109F                     __end_of_device_dsc:
  2041                           
  2042                           	psect	stringtext7
  2043  10A7                     __pstringtext7:
  2044  10A7                     _sd003:
  2045  10A7  3408               	retlw	8
  2046  10A8  3403               	retlw	3
  2047  10A9  3431               	retlw	49
  2048  10AA  3400               	retlw	0
  2049  10AB  3432               	retlw	50
  2050  10AC  3400               	retlw	0
  2051  10AD  3434               	retlw	52
  2052  10AE  3400               	retlw	0
  2053  10AF                     __end_of_sd003:
  2054                           
  2055                           	psect	stringtext8
  2056  10AF                     __pstringtext8:
  2057  10AF                     _sd000:
  2058  10AF  3404               	retlw	4
  2059  10B0  3403               	retlw	3
  2060  10B1  3409               	retlw	9
  2061  10B2  3404               	retlw	4
  2062  10B3                     __end_of_sd000:
  2063  20C0                     _cdc_data_rx	set	8384
  2064  2080                     _cdc_data_tx	set	8320
  2065  0015                     _TMR0	set	21
  2066  000B                     _INTCONbits	set	11
  2067  0012                     _PIR2bits	set	18
  2068  000D                     _PORTBbits	set	13
  2069  0095                     _OPTION_REG	set	149
  2070  0095                     _OPTION_REGbits	set	149
  2071  008E                     _TRISC	set	142
  2072  008D                     _TRISB	set	141
  2073  008C                     _TRISA	set	140
  2074  0092                     _PIE2bits	set	146
  2075  009D                     _ADCON0bits	set	157
  2076  009D                     _ADCON0	set	157
  2077  009C                     _ADRESH	set	156
  2078  009B                     _ADRESL	set	155
  2079  009F                     _ADCON2	set	159
  2080  009E                     _ADCON1	set	158
  2081  0097                     _WDTCON	set	151
  2082  0098                     _OSCTUNE	set	152
  2083  0099                     _OSCCON	set	153
  2084  008D                     _TRISBbits	set	141
  2085  04D6                     _PLLRDY	set	1238
  2086  011D                     _APFCON	set	285
  2087  010E                     _LATC	set	270
  2088  010D                     _LATB	set	269
  2089  010C                     _LATA	set	268
  2090  0116                     _BORCON	set	278
  2091  010D                     _LATBbits	set	269
  2092  018C                     _ANSELA	set	396
  2093  018D                     _ANSELB	set	397
  2094  018E                     _ANSELC	set	398
  2095  020C                     _WPUA	set	524
  2096  020D                     _WPUB	set	525
  2097  0391                     _IOCAPbits	set	913
  2098  0392                     _IOCANbits	set	914
  2099  0393                     _IOCAFbits	set	915
  2100  039B                     _ACTCON	set	923
  2101  0E98                     _UEP0bits	set	3736
  2102  0E8E                     _UCON	set	3726
  2103  0E8F                     _USTAT	set	3727
  2104  0E92                     _UIEbits	set	3730
  2105  0E90                     _UIRbits	set	3728
  2106  0E96                     _UADDR	set	3734
  2107  0E8E                     _UCONbits	set	3726
  2108  0E92                     _UIE	set	3730
  2109  0E97                     _UEIE	set	3735
  2110  0E91                     _UCFG	set	3729
  2111  0E90                     _UIR	set	3728
  2112  0E93                     _UEIR	set	3731
  2113  0E99                     _UEP1	set	3737
  2114  0E98                     _UEP0	set	3736
  2115                           
  2116                           	psect	cinit
  2117  0034                     start_initialization:	
  2118                           ; #config settings
  2119                           
  2120  0034                     __initialization:
  2121                           
  2122                           ; Clear objects allocated to BANK1
  2123  0034  30A0               	movlw	low __pbssBANK1
  2124  0035  0084               	movwf	4
  2125  0036  3000               	movlw	high __pbssBANK1
  2126  0037  0085               	movwf	5
  2127  0038  3016               	movlw	22
  2128  0039  00FE               	movwf	btemp
  2129  003A  3000               	movlw	0
  2130  003B  00FF               	movwf	btemp+1
  2131  003C  3189  212A  3180   	fcall	clear_ram0
  2132                           
  2133                           ; Clear objects allocated to BANK3
  2134  003F  30B0               	movlw	low __pbssBANK3
  2135  0040  0084               	movwf	4
  2136  0041  3001               	movlw	high __pbssBANK3
  2137  0042  0085               	movwf	5
  2138  0043  303E               	movlw	62
  2139  0044  00FE               	movwf	btemp
  2140  0045  3000               	movlw	0
  2141  0046  00FF               	movwf	btemp+1
  2142  0047  3189  212A  3180   	fcall	clear_ram0
  2143                           
  2144                           ; Clear objects allocated to BANK4
  2145  004A  3020               	movlw	low __pbssBANK4
  2146  004B  0084               	movwf	4
  2147  004C  3002               	movlw	high __pbssBANK4
  2148  004D  0085               	movwf	5
  2149  004E  3036               	movlw	54
  2150  004F  00FE               	movwf	btemp
  2151  0050  3000               	movlw	0
  2152  0051  00FF               	movwf	btemp+1
  2153  0052  3189  212A  3180   	fcall	clear_ram0
  2154                           
  2155                           ; Clear objects allocated to BANK5
  2156  0055  30A0               	movlw	low __pbssBANK5
  2157  0056  0084               	movwf	4
  2158  0057  3002               	movlw	high __pbssBANK5
  2159  0058  0085               	movwf	5
  2160  0059  3040               	movlw	64
  2161  005A  00FE               	movwf	btemp
  2162  005B  3000               	movlw	0
  2163  005C  00FF               	movwf	btemp+1
  2164  005D  3189  212A  3180   	fcall	clear_ram0
  2165                           
  2166                           ; Clear objects allocated to BANK6
  2167  0060  3020               	movlw	low __pbssBANK6
  2168  0061  0084               	movwf	4
  2169  0062  3003               	movlw	high __pbssBANK6
  2170  0063  0085               	movwf	5
  2171  0064  3040               	movlw	64
  2172  0065  00FE               	movwf	btemp
  2173  0066  3000               	movlw	0
  2174  0067  00FF               	movwf	btemp+1
  2175  0068  3189  212A  3180   	fcall	clear_ram0
  2176  006B                     end_of_initialization:	
  2177                           ;End of C runtime variable initialization code
  2178                           
  2179  006B                     __end_of__initialization:
  2180  006B  107E               	bcf	int$flags,0	;clear compiler interrupt flag (level 1)
  2181  006C  0020               	movlb	0
  2182  006D  318C  2C14         	ljmp	_main	;jump to C main() function
  2183                           
  2184                           	psect	bssBANK1
  2185  00A0                     __pbssBANK1:
  2186  00A0                     _pBDTEntryIn:
  2187  00A0                     	ds	6
  2188  00A6                     _inPipes:
  2189  00A6                     	ds	5
  2190  00AB                     _pBDTEntryEP0OutNext:
  2191  00AB                     	ds	2
  2192  00AD                     _cdc_trf_state:
  2193  00AD                     	ds	1
  2194  00AE                     _USBDeferStatusStagePacket:
  2195  00AE                     	ds	1
  2196  00AF                     _endpoint_number:
  2197  00AF                     	ds	1
  2198  00B0                     _controlTransferState:
  2199  00B0                     	ds	1
  2200  00B1                     _shortPacketStatus:
  2201  00B1                     	ds	1
  2202  00B2                     _pBDTEntryEP0OutCurrent:
  2203  00B2                     	ds	1
  2204  00B3                     _USBDeviceState:
  2205  00B3                     	ds	1
  2206  00B4                     _USTATcopy:
  2207  00B4                     	ds	1
  2208  00B5                     _USBActiveConfiguration:
  2209  00B5                     	ds	1
  2210                           
  2211                           	psect	bssBANK3
  2212  01B0                     __pbssBANK3:
  2213  01B0                     _outPipes:
  2214  01B0                     	ds	7
  2215  01B7                     _pBDTEntryOut:
  2216  01B7                     	ds	6
  2217  01BD                     _USB1msTickCount:
  2218  01BD                     	ds	4
  2219  01C1                     _ep_data_out:
  2220  01C1                     	ds	3
  2221  01C4                     _ep_data_in:
  2222  01C4                     	ds	3
  2223  01C7                     _CDCDataInHandle:
  2224  01C7                     	ds	2
  2225  01C9                     _CDCDataOutHandle:
  2226  01C9                     	ds	2
  2227  01CB                     _pCDCDst:
  2228  01CB                     	ds	2
  2229  01CD                     _pCDCSrc:
  2230  01CD                     	ds	2
  2231  01CF                     _TMR0_InterruptHandler:
  2232  01CF                     	ds	2
  2233  01D1                     _IOCAF5_InterruptHandler:
  2234  01D1                     	ds	2
  2235  01D3                     _ADC_InterruptHandler:
  2236  01D3                     	ds	2
  2237  01D5                     _control_signal_bitmap:
  2238  01D5                     	ds	1
  2239  01D6                     _cdc_mem_type:
  2240  01D6                     	ds	1
  2241  01D7                     _cdc_tx_len:
  2242  01D7                     	ds	1
  2243  01D8                     _cdc_rx_len:
  2244  01D8                     	ds	1
  2245  01D9                     _timer0ReloadVal:
  2246  01D9                     	ds	1
  2247  01DA                     _USBTicksSinceSuspendEnd:
  2248  01DA                     	ds	1
  2249  01DB                     _USBDeferOUTDataStagePackets:
  2250  01DB                     	ds	1
  2251  01DC                     _USBDeferINDataStagePackets:
  2252  01DC                     	ds	1
  2253  01DD                     _USBStatusStageEnabledFlag2:
  2254  01DD                     	ds	1
  2255  01DE                     _USBStatusStageEnabledFlag1:
  2256  01DE                     	ds	1
  2257  01DF                     _USBStatusStageTimeoutCounter:
  2258  01DF                     	ds	1
  2259  01E0                     _BothEP0OutUOWNsSet:
  2260  01E0                     	ds	1
  2261  01E1                     _USBBusIsSuspended:
  2262  01E1                     	ds	1
  2263  01E2                     _RemoteWakeup:
  2264  01E2                     	ds	1
  2265  01E3                     _pDst:
  2266  01E3                     	ds	1
  2267  01E4                     _line_coding:
  2268  01E4                     	ds	7
  2269  01EB                     _USBAlternateInterface:
  2270  01EB                     	ds	2
  2271  01ED                     _byte:
  2272  01ED                     	ds	1
  2273                           
  2274                           	psect	bssBANK4
  2275  0220                     __pbssBANK4:
  2276  0220                     _cdc_notice:
  2277  0220                     	ds	10
  2278  022A                     _BaudRateGen:
  2279  022A                     	ds	4
  2280  022E                     _data:
  2281  022E                     	ds	32
  2282  024E                     _dummy_encapsulated_cmd_response:
  2283  024E                     	ds	8
  2284                           
  2285                           	psect	bssBANK5
  2286  02A0                     __pbssBANK5:
  2287  02A0                     _readBuffer:
  2288  02A0                     	ds	64
  2289                           
  2290                           	psect	bssBANK6
  2291  0320                     __pbssBANK6:
  2292  0320                     _writeBuffer:
  2293  0320                     	ds	64
  2294                           
  2295                           	psect	clrtext
  2296  092A                     clear_ram0:	
  2297                           ;	Called with FSR0 containing the base address, and
  2298                           ;	btemp/btemp+1 has the size to clear
  2299                           
  2300  092A  0064               	clrwdt	;clear the watchdog before getting into this loop
  2301  092B                     clrloop0:
  2302  092B  0180               	clrf	0	;clear RAM location pointed to by FSR
  2303  092C  3101               	addfsr 0,1
  2304  092D  3001               	movlw	1
  2305  092E  02FE               	subwf	btemp,f
  2306  092F  3000               	movlw	0
  2307  0930  3BFF               	subwfb	btemp+1,f
  2308  0931  087F               	movf	btemp+1,w
  2309  0932  047E               	iorwf	btemp,w
  2310  0933  1D03               	skipz
  2311  0934  292B               	goto	clrloop0	;have we reached the end yet?
  2312  0935  3400               	retlw	0	;all done for this memory range, return
  2313                           
  2314                           	psect	cstackBANK4
  2315  0256                     __pcstackBANK4:
  2316  0256                     	ds	1
  2317  0257                     eeprom_writePage@addresslsb:
  2318                           
  2319                           ; 1 bytes @ 0x1
  2320  0257                     	ds	1
  2321  0258                     eeprom_writePage@i:
  2322                           
  2323                           ; 2 bytes @ 0x2
  2324  0258                     	ds	2
  2325                           
  2326                           	psect	cstackBANK3
  2327  01EE                     __pcstackBANK3:
  2328  01EE                     main@i:
  2329                           
  2330                           ; 2 bytes @ 0x0
  2331  01EE                     	ds	2
  2332                           
  2333                           	psect	cstackBANK1
  2334  00B6                     __pcstackBANK1:
  2335  00B6                     ??_USBCtrlEPService:
  2336                           
  2337                           ; 1 bytes @ 0x0
  2338  00B6                     	ds	2
  2339  00B8                     ??_USBDeviceTasks:
  2340                           
  2341                           ; 1 bytes @ 0x2
  2342  00B8                     	ds	2
  2343  00BA                     USBDeviceTasks@i:
  2344                           
  2345                           ; 1 bytes @ 0x4
  2346  00BA                     	ds	1
  2347  00BB                     ??__i2cstart:
  2348  00BB                     ??__i2cstop:	
  2349                           ; 1 bytes @ 0x5
  2350                           
  2351  00BB                     ??__writeBit:	
  2352                           ; 1 bytes @ 0x5
  2353                           
  2354  00BB                     ??__readBit:	
  2355                           ; 1 bytes @ 0x5
  2356                           
  2357  00BB                     __writeBit@data:	
  2358                           ; 1 bytes @ 0x5
  2359                           
  2360                           
  2361                           ; 1 bytes @ 0x5
  2362  00BB                     	ds	1
  2363  00BC                     __readBit@data:
  2364                           
  2365                           ; 1 bytes @ 0x6
  2366  00BC                     	ds	1
  2367  00BD                     ??__writeByte:
  2368  00BD                     ??__readByte:	
  2369                           ; 1 bytes @ 0x7
  2370                           
  2371                           
  2372                           ; 1 bytes @ 0x7
  2373  00BD                     	ds	1
  2374  00BE                     __writeByte@data:
  2375  00BE                     __readByte@ack:	
  2376                           ; 1 bytes @ 0x8
  2377                           
  2378                           
  2379                           ; 1 bytes @ 0x8
  2380  00BE                     	ds	1
  2381  00BF                     __writeByte@i_123:
  2382  00BF                     __readByte@i:	
  2383                           ; 2 bytes @ 0x9
  2384                           
  2385                           
  2386                           ; 2 bytes @ 0x9
  2387  00BF                     	ds	2
  2388  00C1                     __writeByte@ack:
  2389  00C1                     __readByte@ret:	
  2390                           ; 1 bytes @ 0xB
  2391                           
  2392                           
  2393                           ; 1 bytes @ 0xB
  2394  00C1                     	ds	1
  2395  00C2                     ?_eeprom_readByte:
  2396  00C2                     ??_eeprom_readMem:	
  2397                           ; 1 bytes @ 0xC
  2398                           
  2399  00C2                     ??_ACK_Poll:	
  2400                           ; 1 bytes @ 0xC
  2401                           
  2402  00C2                     eeprom_readByte@address:	
  2403                           ; 1 bytes @ 0xC
  2404                           
  2405                           
  2406                           ; 2 bytes @ 0xC
  2407  00C2                     	ds	1
  2408  00C3                     ACK_Poll@ackstat:
  2409  00C3                     eeprom_readMem@byte:	
  2410                           ; 1 bytes @ 0xD
  2411                           
  2412                           
  2413                           ; 1 bytes @ 0xD
  2414  00C3                     	ds	1
  2415  00C4                     ?_eeprom_writePage:
  2416  00C4                     ?_eeprom_writeByte:	
  2417                           ; 1 bytes @ 0xE
  2418                           
  2419  00C4                     eeprom_readByte@data:	
  2420                           ; 1 bytes @ 0xE
  2421                           
  2422  00C4                     eeprom_writeByte@address:	
  2423                           ; 1 bytes @ 0xE
  2424                           
  2425  00C4                     eeprom_writePage@address:	
  2426                           ; 2 bytes @ 0xE
  2427                           
  2428  00C4                     eeprom_readMem@i:	
  2429                           ; 2 bytes @ 0xE
  2430                           
  2431                           
  2432                           ; 2 bytes @ 0xE
  2433  00C4                     	ds	1
  2434  00C5                     ??_eeprom_readByte:
  2435                           
  2436                           ; 1 bytes @ 0xF
  2437  00C5                     	ds	1
  2438  00C6                     eeprom_writeByte@data:
  2439  00C6                     eeprom_writePage@data:	
  2440                           ; 1 bytes @ 0x10
  2441                           
  2442  00C6                     eeprom_readByte@addressmsb:	
  2443                           ; 1 bytes @ 0x10
  2444                           
  2445                           
  2446                           ; 1 bytes @ 0x10
  2447  00C6                     	ds	1
  2448  00C7                     ??_eeprom_writePage:
  2449  00C7                     ??_eeprom_writeByte:	
  2450                           ; 1 bytes @ 0x11
  2451                           
  2452  00C7                     eeprom_readByte@addresslsb:	
  2453                           ; 1 bytes @ 0x11
  2454                           
  2455                           
  2456                           ; 1 bytes @ 0x11
  2457  00C7                     	ds	1
  2458  00C8                     eeprom_writeByte@addressmsb:
  2459                           
  2460                           ; 1 bytes @ 0x12
  2461  00C8                     	ds	1
  2462  00C9                     eeprom_writeByte@addresslsb:
  2463                           
  2464                           ; 1 bytes @ 0x13
  2465  00C9                     	ds	1
  2466  00CA                     ??_main:
  2467                           
  2468                           ; 1 bytes @ 0x14
  2469  00CA                     	ds	1
  2470                           
  2471                           	psect	cstackCOMMON
  2472  0070                     __pcstackCOMMON:
  2473  0070                     ?_eeprom_readMem:
  2474  0070                     ?_USBDeviceInit:	
  2475                           ; 1 bytes @ 0x0
  2476                           
  2477  0070                     ??_USBDeviceInit:	
  2478                           ; 1 bytes @ 0x0
  2479                           
  2480  0070                     ?_USBWakeFromSuspend:	
  2481                           ; 1 bytes @ 0x0
  2482                           
  2483  0070                     ?_USBSuspend:	
  2484                           ; 1 bytes @ 0x0
  2485                           
  2486  0070                     ?_USBIncrement1msInternalTimers:	
  2487                           ; 1 bytes @ 0x0
  2488                           
  2489  0070                     ??_USBIncrement1msInternalTimers:	
  2490                           ; 1 bytes @ 0x0
  2491                           
  2492  0070                     ?_USBCtrlEPAllowStatusStage:	
  2493                           ; 1 bytes @ 0x0
  2494                           
  2495  0070                     ??_USBCtrlEPAllowStatusStage:	
  2496                           ; 1 bytes @ 0x0
  2497                           
  2498  0070                     ?_USBStallHandler:	
  2499                           ; 1 bytes @ 0x0
  2500                           
  2501  0070                     ??_USBStallHandler:	
  2502                           ; 1 bytes @ 0x0
  2503                           
  2504  0070                     ?_USBCtrlEPService:	
  2505                           ; 1 bytes @ 0x0
  2506                           
  2507  0070                     ?_USBConfigureEndpoint:	
  2508                           ; 1 bytes @ 0x0
  2509                           
  2510  0070                     ?_USBCtrlTrfTxService:	
  2511                           ; 1 bytes @ 0x0
  2512                           
  2513  0070                     ??_USBCtrlTrfTxService:	
  2514                           ; 1 bytes @ 0x0
  2515                           
  2516  0070                     ?_memcpy:	
  2517                           ; 1 bytes @ 0x0
  2518                           
  2519  0070                     ?_USBCtrlTrfSetupHandler:	
  2520                           ; 1 bytes @ 0x0
  2521                           
  2522  0070                     ?_USBCtrlTrfOutHandler:	
  2523                           ; 1 bytes @ 0x0
  2524                           
  2525  0070                     ?_USBCtrlTrfInHandler:	
  2526                           ; 1 bytes @ 0x0
  2527                           
  2528  0070                     ?_USBCheckStdRequest:	
  2529                           ; 1 bytes @ 0x0
  2530                           
  2531  0070                     ?_USBStdFeatureReqHandler:	
  2532                           ; 1 bytes @ 0x0
  2533                           
  2534  0070                     ?_IOCAF5_DefaultInterruptHandler:	
  2535                           ; 1 bytes @ 0x0
  2536                           
  2537  0070                     ??_IOCAF5_DefaultInterruptHandler:	
  2538                           ; 1 bytes @ 0x0
  2539                           
  2540  0070                     ?_IOCAF5_ISR:	
  2541                           ; 1 bytes @ 0x0
  2542                           
  2543  0070                     ??_IOCAF5_ISR:	
  2544                           ; 1 bytes @ 0x0
  2545                           
  2546  0070                     ?_TMR0_DefaultInterruptHandler:	
  2547                           ; 1 bytes @ 0x0
  2548                           
  2549  0070                     ??_TMR0_DefaultInterruptHandler:	
  2550                           ; 1 bytes @ 0x0
  2551                           
  2552  0070                     ?_main:	
  2553                           ; 1 bytes @ 0x0
  2554                           
  2555  0070                     ?__i2cstart:	
  2556                           ; 1 bytes @ 0x0
  2557                           
  2558  0070                     ?__i2cstop:	
  2559                           ; 1 bytes @ 0x0
  2560                           
  2561  0070                     ?__writeBit:	
  2562                           ; 1 bytes @ 0x0
  2563                           
  2564  0070                     ?__readBit:	
  2565                           ; 1 bytes @ 0x0
  2566                           
  2567  0070                     ?__writeByte:	
  2568                           ; 1 bytes @ 0x0
  2569                           
  2570  0070                     ?__readByte:	
  2571                           ; 1 bytes @ 0x0
  2572                           
  2573  0070                     ?_ACK_Poll:	
  2574                           ; 1 bytes @ 0x0
  2575                           
  2576  0070                     ?_USBDeviceTasks:	
  2577                           ; 1 bytes @ 0x0
  2578                           
  2579  0070                     ?_USBCtrlEPAllowDataStage:	
  2580                           ; 1 bytes @ 0x0
  2581                           
  2582  0070                     ?_USBCtrlEPServiceComplete:	
  2583                           ; 1 bytes @ 0x0
  2584                           
  2585  0070                     ?_USBCtrlTrfRxService:	
  2586                           ; 1 bytes @ 0x0
  2587                           
  2588  0070                     ?_USBStdSetCfgHandler:	
  2589                           ; 1 bytes @ 0x0
  2590                           
  2591  0070                     ?_USBStdGetDscHandler:	
  2592                           ; 1 bytes @ 0x0
  2593                           
  2594  0070                     ??_USBStdGetDscHandler:	
  2595                           ; 1 bytes @ 0x0
  2596                           
  2597  0070                     ?_USBStdGetStatusHandler:	
  2598                           ; 1 bytes @ 0x0
  2599                           
  2600  0070                     ??_USBStdGetStatusHandler:	
  2601                           ; 1 bytes @ 0x0
  2602                           
  2603  0070                     ?_PIN_MANAGER_IOC:	
  2604                           ; 1 bytes @ 0x0
  2605                           
  2606  0070                     ??_PIN_MANAGER_IOC:	
  2607                           ; 1 bytes @ 0x0
  2608                           
  2609  0070                     ?_TMR0_ISR:	
  2610                           ; 1 bytes @ 0x0
  2611                           
  2612  0070                     ??_TMR0_ISR:	
  2613                           ; 1 bytes @ 0x0
  2614                           
  2615  0070                     ?_INTERRUPT_InterruptManager:	
  2616                           ; 1 bytes @ 0x0
  2617                           
  2618  0070                     ?_USBCheckCDCRequest:	
  2619                           ; 1 bytes @ 0x0
  2620                           
  2621  0070                     ??_USBCheckCDCRequest:	
  2622                           ; 1 bytes @ 0x0
  2623                           
  2624  0070                     ?_CDCInitEP:	
  2625                           ; 1 bytes @ 0x0
  2626                           
  2627  0070                     ?_memset:	
  2628                           ; 1 bytes @ 0x0
  2629                           
  2630  0070                     ?_USBTransferOnePacket:	
  2631                           ; 2 bytes @ 0x0
  2632                           
  2633  0070                     USBTransferOnePacket@dir:	
  2634                           ; 2 bytes @ 0x0
  2635                           
  2636  0070                     USBConfigureEndpoint@direction:	
  2637                           ; 1 bytes @ 0x0
  2638                           
  2639  0070                     memcpy@s1:	
  2640                           ; 1 bytes @ 0x0
  2641                           
  2642  0070                     memset@dest:	
  2643                           ; 2 bytes @ 0x0
  2644                           
  2645                           
  2646                           ; 2 bytes @ 0x0
  2647  0070                     	ds	1
  2648  0071                     ??_USBConfigureEndpoint:
  2649  0071                     USBDeviceInit@p:	
  2650                           ; 1 bytes @ 0x1
  2651                           
  2652  0071                     USBTransferOnePacket@data:	
  2653                           ; 2 bytes @ 0x1
  2654                           
  2655                           
  2656                           ; 2 bytes @ 0x1
  2657  0071                     	ds	1
  2658  0072                     ??_USBCtrlTrfRxService:
  2659  0072                     USBCtrlTrfTxService@byteToSend:	
  2660                           ; 1 bytes @ 0x2
  2661                           
  2662  0072                     USBStdGetStatusHandler@p:	
  2663                           ; 1 bytes @ 0x2
  2664                           
  2665  0072                     memcpy@n:	
  2666                           ; 2 bytes @ 0x2
  2667                           
  2668  0072                     memset@c:	
  2669                           ; 2 bytes @ 0x2
  2670                           
  2671                           
  2672                           ; 2 bytes @ 0x2
  2673  0072                     	ds	1
  2674  0073                     ??_USBCtrlTrfInHandler:
  2675  0073                     ??_USBCtrlEPAllowDataStage:	
  2676                           ; 1 bytes @ 0x3
  2677                           
  2678  0073                     USBDeviceInit@i_904:	
  2679                           ; 1 bytes @ 0x3
  2680                           
  2681  0073                     USBTransferOnePacket@len:	
  2682                           ; 1 bytes @ 0x3
  2683                           
  2684                           
  2685                           ; 1 bytes @ 0x3
  2686  0073                     	ds	1
  2687  0074                     ??_memcpy:
  2688  0074                     ??_USBTransferOnePacket:	
  2689                           ; 1 bytes @ 0x4
  2690                           
  2691  0074                     USBDeviceInit@i:	
  2692                           ; 1 bytes @ 0x4
  2693                           
  2694  0074                     USBCtrlTrfRxService@i:	
  2695                           ; 1 bytes @ 0x4
  2696                           
  2697  0074                     memset@n:	
  2698                           ; 1 bytes @ 0x4
  2699                           
  2700                           
  2701                           ; 2 bytes @ 0x4
  2702  0074                     	ds	1
  2703  0075                     ??_USBCtrlEPServiceComplete:
  2704  0075                     USBConfigureEndpoint@EPNum:	
  2705                           ; 1 bytes @ 0x5
  2706                           
  2707  0075                     USBCtrlTrfRxService@byteToRead:	
  2708                           ; 1 bytes @ 0x5
  2709                           
  2710  0075                     USBCtrlTrfInHandler@lastDTS:	
  2711                           ; 1 bytes @ 0x5
  2712                           
  2713  0075                     memcpy@s:	
  2714                           ; 1 bytes @ 0x5
  2715                           
  2716                           
  2717                           ; 2 bytes @ 0x5
  2718  0075                     	ds	1
  2719  0076                     ??_memset:
  2720  0076                     ??_USBCtrlTrfOutHandler:	
  2721                           ; 1 bytes @ 0x6
  2722                           
  2723  0076                     USBConfigureEndpoint@handle:	
  2724                           ; 1 bytes @ 0x6
  2725                           
  2726                           
  2727                           ; 1 bytes @ 0x6
  2728  0076                     	ds	1
  2729  0077                     ?_USBEnableEndpoint:
  2730  0077                     USBEnableEndpoint@options:	
  2731                           ; 1 bytes @ 0x7
  2732                           
  2733  0077                     memcpy@tmp:	
  2734                           ; 1 bytes @ 0x7
  2735                           
  2736                           
  2737                           ; 1 bytes @ 0x7
  2738  0077                     	ds	1
  2739  0078                     ??_USBEnableEndpoint:
  2740  0078                     USBTransferOnePacket@ep:	
  2741                           ; 1 bytes @ 0x8
  2742                           
  2743  0078                     memcpy@d1:	
  2744                           ; 1 bytes @ 0x8
  2745                           
  2746                           
  2747                           ; 1 bytes @ 0x8
  2748  0078                     	ds	1
  2749  0079                     memcpy@d:
  2750  0079                     USBTransferOnePacket@handle:	
  2751                           ; 1 bytes @ 0x9
  2752                           
  2753                           
  2754                           ; 2 bytes @ 0x9
  2755  0079                     	ds	1
  2756  007A                     USBEnableEndpoint@p:
  2757  007A                     memset@k:	
  2758                           ; 2 bytes @ 0xA
  2759                           
  2760                           
  2761                           ; 2 bytes @ 0xA
  2762  007A                     	ds	2
  2763  007C                     USBEnableEndpoint@ep:
  2764  007C                     memset@s:	
  2765                           ; 1 bytes @ 0xC
  2766                           
  2767                           
  2768                           ; 2 bytes @ 0xC
  2769  007C                     	ds	1
  2770  007D                     ??_CDCInitEP:
  2771                           
  2772                           ; 1 bytes @ 0xD
  2773  007D                     	ds	1
  2774  007E                     ??_USER_USB_CALLBACK_EVENT_HANDLER:
  2775  007E                     ??_INTERRUPT_InterruptManager:	
  2776                           ; 1 bytes @ 0xE
  2777                           
  2778                           
  2779                           	psect	cstackBANK0
  2780  0060                     __pcstackBANK0:	
  2781                           ; 1 bytes @ 0xE
  2782                           
  2783  0060                     ?_USER_USB_CALLBACK_EVENT_HANDLER:
  2784  0060                     USER_USB_CALLBACK_EVENT_HANDLER@event:	
  2785                           ; 1 bytes @ 0x0
  2786                           
  2787                           
  2788                           ; 2 bytes @ 0x0
  2789  0060                     	ds	2
  2790  0062                     USER_USB_CALLBACK_EVENT_HANDLER@pdata:
  2791                           
  2792                           ; 2 bytes @ 0x2
  2793  0062                     	ds	2
  2794  0064                     USER_USB_CALLBACK_EVENT_HANDLER@size:
  2795                           
  2796                           ; 2 bytes @ 0x4
  2797  0064                     	ds	2
  2798  0066                     ??_USBWakeFromSuspend:
  2799  0066                     ??_USBSuspend:	
  2800                           ; 1 bytes @ 0x6
  2801                           
  2802  0066                     ??_USBStdFeatureReqHandler:	
  2803                           ; 1 bytes @ 0x6
  2804                           
  2805  0066                     ??_USBStdSetCfgHandler:	
  2806                           ; 1 bytes @ 0x6
  2807                           
  2808                           
  2809                           ; 1 bytes @ 0x6
  2810  0066                     	ds	1
  2811  0067                     USBStdSetCfgHandler@p:
  2812                           
  2813                           ; 2 bytes @ 0x7
  2814  0067                     	ds	1
  2815  0068                     USBStdFeatureReqHandler@pUEP:
  2816                           
  2817                           ; 2 bytes @ 0x8
  2818  0068                     	ds	1
  2819  0069                     USBStdSetCfgHandler@i_1640:
  2820                           
  2821                           ; 1 bytes @ 0x9
  2822  0069                     	ds	1
  2823  006A                     USBStdSetCfgHandler@i:
  2824  006A                     USBStdFeatureReqHandler@current_ep_data:	
  2825                           ; 1 bytes @ 0xA
  2826                           
  2827                           
  2828                           ; 1 bytes @ 0xA
  2829  006A                     	ds	1
  2830  006B                     USBStdFeatureReqHandler@p:
  2831                           
  2832                           ; 2 bytes @ 0xB
  2833  006B                     	ds	2
  2834  006D                     ??_USBCheckStdRequest:
  2835                           
  2836                           ; 1 bytes @ 0xD
  2837  006D                     	ds	2
  2838  006F                     ??_USBCtrlTrfSetupHandler:
  2839                           
  2840                           ; 1 bytes @ 0xF
  2841  006F                     	ds	1
  2842                           
  2843                           	psect	maintext
  2844  0C14                     __pmaintext:	
  2845 ;;
  2846 ;;Main: autosize = 0, tempsize = 1, incstack = 0, save=0
  2847 ;;
  2848 ;; *************** function _main *****************
  2849 ;; Defined at:
  2850 ;;		line 53 in file "main.c"
  2851 ;; Parameters:    Size  Location     Type
  2852 ;;		None
  2853 ;; Auto vars:     Size  Location     Type
  2854 ;;  i               2    0[BANK3 ] unsigned short 
  2855 ;; Return value:  Size  Location     Type
  2856 ;;                  1    wreg      void 
  2857 ;; Registers used:
  2858 ;;		wreg, fsr1l, fsr1h, status,2, status,0, pclath, cstack
  2859 ;; Tracked objects:
  2860 ;;		On entry : B1F/0
  2861 ;;		On exit  : 0/0
  2862 ;;		Unchanged: 0/0
  2863 ;; Data sizes:     COMMON   BANK0   BANK1   BANK2   BANK3   BANK4   BANK5   BANK6   BANK7   BANK8   BANK9  BANK10  BANK1
      +1  BANK12
  2864 ;;      Params:         0       0       0       0       0       0       0       0       0       0       0       0       
      +0       0
  2865 ;;      Locals:         0       0       0       0       2       0       0       0       0       0       0       0       
      +0       0
  2866 ;;      Temps:          0       0       1       0       0       0       0       0       0       0       0       0       
      +0       0
  2867 ;;      Totals:         0       0       1       0       2       0       0       0       0       0       0       0       
      +0       0
  2868 ;;Total ram usage:        3 bytes
  2869 ;; Hardware stack levels required when called:   14
  2870 ;; This function calls:
  2871 ;;		_eeprom_readByte
  2872 ;;		_eeprom_readMem
  2873 ;;		_eeprom_writeByte
  2874 ;;		_eeprom_writePage
  2875 ;; This function is called by:
  2876 ;;		Startup code after reset
  2877 ;; This function uses a non-reentrant model
  2878 ;;
  2879                           
  2880                           
  2881                           ;psect for function _main
  2882  0C14                     _main:
  2883  0C14                     l17:	
  2884                           ;incstack = 0
  2885                           ; Regs used in _main: [wreg+fsr1l+fsr1h+status,2+status,0+pclath+cstack]
  2886                           ;main.c: 55:     while(1)
  2887                           
  2888  0C14                     l5223:
  2889                           
  2890                           ;main.c: 56:     {;main.c: 57:         for(unsigned short i = 0; i < 32; i++)
  2891  0C14  0023               	movlb	3	; select bank3
  2892  0C15  01EE               	clrf	main@i^(0+384)
  2893  0C16  01EF               	clrf	(main@i+1)^(0+384)
  2894  0C17                     l5229:
  2895                           
  2896                           ;main.c: 58:         {;main.c: 59:             data[i] = i;
  2897  0C17  086E               	movf	main@i^(0+384),w
  2898  0C18  0021               	movlb	1	; select bank1
  2899  0C19  00CA               	movwf	??_main^(0+128)
  2900  0C1A  0023               	movlb	3	; select bank3
  2901  0C1B  086E               	movf	main@i^(0+384),w
  2902  0C1C  3E2E               	addlw	(low (_data| (0+512)))& (0+255)
  2903  0C1D  0086               	movwf	6
  2904  0C1E  3002               	movlw	2	; select bank4/5
  2905  0C1F  0087               	movwf	7
  2906  0C20  0021               	movlb	1	; select bank1
  2907  0C21  084A               	movf	??_main^(0+128),w
  2908  0C22  0081               	movwf	1
  2909  0C23                     l5231:
  2910                           
  2911                           ;main.c: 60:         }
  2912  0C23  3001               	movlw	1
  2913  0C24  0023               	movlb	3	; select bank3
  2914  0C25  07EE               	addwf	main@i^(0+384),f
  2915  0C26  3000               	movlw	0
  2916  0C27  3DEF               	addwfc	(main@i+1)^(0+384),f
  2917  0C28                     l5233:
  2918  0C28  3000               	movlw	0
  2919  0C29  026F               	subwf	(main@i+1)^(0+384),w
  2920  0C2A  3020               	movlw	32
  2921  0C2B  1903               	skipnz
  2922  0C2C  026E               	subwf	main@i^(0+384),w
  2923  0C2D  1C03               	skipc
  2924  0C2E  2C30               	goto	u4011
  2925  0C2F  2C31               	goto	u4010
  2926  0C30                     u4011:
  2927  0C30  2C17               	goto	l5229
  2928  0C31                     u4010:
  2929  0C31                     l5235:
  2930                           
  2931                           ;main.c: 61:         eeprom_writePage(0x00, &data);
  2932  0C31  3000               	movlw	0
  2933  0C32  0021               	movlb	1	; select bank1
  2934  0C33  00C4               	movwf	eeprom_writePage@address^(0+128)
  2935  0C34  00C5               	movwf	(eeprom_writePage@address+1)^(0+128)
  2936  0C35  302E               	movlw	(low (_data| (0+512)))& (0+255)
  2937  0C36  00CA               	movwf	??_main^(0+128)
  2938  0C37  084A               	movf	??_main^(0+128),w
  2939  0C38  00C6               	movwf	eeprom_writePage@data^(0+128)
  2940  0C39  318C  245B  318C   	fcall	_eeprom_writePage
  2941                           
  2942                           ;main.c: 62:         eeprom_writeByte(0x100, data);
  2943  0C3C  3000               	movlw	0
  2944  0C3D  0021               	movlb	1	; select bank1
  2945  0C3E  00C4               	movwf	eeprom_writeByte@address^(0+128)
  2946  0C3F  3001               	movlw	1
  2947  0C40  00C5               	movwf	(eeprom_writeByte@address^(0+128)+1)
  2948  0C41  302E               	movlw	(low _data)& (0+255)
  2949  0C42  00CA               	movwf	??_main^(0+128)
  2950  0C43  084A               	movf	??_main^(0+128),w
  2951  0C44  00C6               	movwf	eeprom_writeByte@data^(0+128)
  2952  0C45  318A  221C  318C   	fcall	_eeprom_writeByte
  2953                           
  2954                           ;main.c: 63:         eeprom_readByte(0x100, &byte);
  2955  0C48  3000               	movlw	0
  2956  0C49  0021               	movlb	1	; select bank1
  2957  0C4A  00C2               	movwf	eeprom_readByte@address^(0+128)
  2958  0C4B  3001               	movlw	1
  2959  0C4C  00C3               	movwf	(eeprom_readByte@address^(0+128)+1)
  2960  0C4D  30ED               	movlw	(low (_byte| (0+256)))& (0+255)
  2961  0C4E  00CA               	movwf	??_main^(0+128)
  2962  0C4F  084A               	movf	??_main^(0+128),w
  2963  0C50  00C4               	movwf	eeprom_readByte@data^(0+128)
  2964  0C51  318A  22EB  318C   	fcall	_eeprom_readByte
  2965                           
  2966                           ;main.c: 64:         eeprom_readMem(&byte);
  2967  0C54  30ED               	movlw	(low (_byte| (0+256)))& (0+255)
  2968  0C55  318B  23D0  318C   	fcall	_eeprom_readMem
  2969  0C58  2C14               	goto	l17
  2970  0C59  3180  2832         	ljmp	start
  2971  0C5B                     __end_of_main:
  2972                           
  2973                           	psect	text1
  2974  0C5B                     __ptext1:	
  2975 ;; *************** function _eeprom_writePage *****************
  2976 ;; Defined at:
  2977 ;;		line 152 in file "24aa32a.c"
  2978 ;; Parameters:    Size  Location     Type
  2979 ;;  address         2   14[BANK1 ] unsigned int 
  2980 ;;  data            1   16[BANK1 ] PTR unsigned char 
  2981 ;;		 -> data(32), 
  2982 ;; Auto vars:     Size  Location     Type
  2983 ;;  i               2    2[BANK4 ] int 
  2984 ;;  addresslsb      1    1[BANK4 ] unsigned char 
  2985 ;;  addressmsb      1    0        unsigned char 
  2986 ;; Return value:  Size  Location     Type
  2987 ;;                  1    wreg      void 
  2988 ;; Registers used:
  2989 ;;		wreg, fsr1l, fsr1h, status,2, status,0, pclath, cstack
  2990 ;; Tracked objects:
  2991 ;;		On entry : 0/0
  2992 ;;		On exit  : 0/0
  2993 ;;		Unchanged: 0/0
  2994 ;; Data sizes:     COMMON   BANK0   BANK1   BANK2   BANK3   BANK4   BANK5   BANK6   BANK7   BANK8   BANK9  BANK10  BANK1
      +1  BANK12
  2995 ;;      Params:         0       0       3       0       0       0       0       0       0       0       0       0       
      +0       0
  2996 ;;      Locals:         0       0       0       0       0       4       0       0       0       0       0       0       
      +0       0
  2997 ;;      Temps:          0       0       2       0       0       0       0       0       0       0       0       0       
      +0       0
  2998 ;;      Totals:         0       0       5       0       0       4       0       0       0       0       0       0       
      +0       0
  2999 ;;Total ram usage:        9 bytes
  3000 ;; Hardware stack levels used:    1
  3001 ;; Hardware stack levels required when called:   13
  3002 ;; This function calls:
  3003 ;;		_ACK_Poll
  3004 ;;		__i2cstart
  3005 ;;		__i2cstop
  3006 ;;		__writeByte
  3007 ;; This function is called by:
  3008 ;;		_main
  3009 ;; This function uses a non-reentrant model
  3010 ;;
  3011                           
  3012                           
  3013                           ;psect for function _eeprom_writePage
  3014  0C5B                     _eeprom_writePage:
  3015  0C5B                     l5025:	
  3016                           ;incstack = 0
  3017                           ; Regs used in _eeprom_writePage: [wreg+fsr1l+fsr1h+status,2+status,0+pclath+cstack]
  3018                           
  3019  0C5B                     l5027:
  3020  0C5B  0021               	movlb	1	; select bank1
  3021  0C5C  0844               	movf	eeprom_writePage@address^(0+128),w
  3022  0C5D  00C7               	movwf	??_eeprom_writePage^(0+128)
  3023  0C5E  0847               	movf	??_eeprom_writePage^(0+128),w
  3024  0C5F  0024               	movlb	4	; select bank4
  3025  0C60  00D7               	movwf	eeprom_writePage@addresslsb^(0+512)
  3026  0C61                     l5029:
  3027  0C61  301F               	movlw	31
  3028  0C62  0021               	movlb	1	; select bank1
  3029  0C63  0544               	andwf	eeprom_writePage@address^(0+128),w
  3030  0C64  00C7               	movwf	??_eeprom_writePage^(0+128)
  3031  0C65  3000               	movlw	0
  3032  0C66  0545               	andwf	(eeprom_writePage@address+1)^(0+128),w
  3033  0C67  00C8               	movwf	(??_eeprom_writePage+1)^(0+128)
  3034  0C68  0847               	movf	??_eeprom_writePage^(0+128),w
  3035  0C69  0448               	iorwf	(??_eeprom_writePage^(0+128)+1),w
  3036  0C6A  1903               	btfsc	3,2
  3037  0C6B  2C6D               	goto	u3751
  3038  0C6C  2C6E               	goto	u3750
  3039  0C6D                     u3751:
  3040  0C6D  2C6F               	goto	l5033
  3041  0C6E                     u3750:
  3042  0C6E  2CA9               	goto	l65
  3043  0C6F                     l5033:
  3044  0C6F  3189  2114  318C   	fcall	__i2cstart
  3045  0C72                     l5035:
  3046  0C72  30A0               	movlw	160
  3047  0C73  318A  226A  318C   	fcall	__writeByte
  3048  0C76                     l5037:
  3049  0C76  3000               	movlw	0
  3050  0C77  318A  226A  318C   	fcall	__writeByte
  3051  0C7A                     l5039:
  3052  0C7A  0024               	movlb	4	; select bank4
  3053  0C7B  0857               	movf	eeprom_writePage@addresslsb^(0+512),w
  3054  0C7C  318A  226A  318C   	fcall	__writeByte
  3055  0C7F                     l5041:
  3056  0C7F  0024               	movlb	4	; select bank4
  3057  0C80  01D8               	clrf	eeprom_writePage@i^(0+512)
  3058  0C81  01D9               	clrf	(eeprom_writePage@i+1)^(0+512)
  3059  0C82                     l5047:
  3060  0C82  0024               	movlb	4	; select bank4
  3061  0C83  0858               	movf	eeprom_writePage@i^(0+512),w
  3062  0C84  0021               	movlb	1	; select bank1
  3063  0C85  0746               	addwf	eeprom_writePage@data^(0+128),w
  3064  0C86  00C7               	movwf	??_eeprom_writePage^(0+128)
  3065  0C87  0847               	movf	??_eeprom_writePage^(0+128),w
  3066  0C88  0086               	movwf	6
  3067  0C89  3002               	movlw	2	; select bank4/5
  3068  0C8A  0087               	movwf	7
  3069  0C8B  0801               	movf	1,w
  3070  0C8C  318A  226A  318C   	fcall	__writeByte
  3071  0C8F                     l5049:
  3072  0C8F  3001               	movlw	1
  3073  0C90  0024               	movlb	4	; select bank4
  3074  0C91  07D8               	addwf	eeprom_writePage@i^(0+512),f
  3075  0C92  3000               	movlw	0
  3076  0C93  3DD9               	addwfc	(eeprom_writePage@i+1)^(0+512),f
  3077  0C94                     l5051:
  3078  0C94  0859               	movf	(eeprom_writePage@i+1)^(0+512),w
  3079  0C95  3A80               	xorlw	128
  3080  0C96  0021               	movlb	1	; select bank1
  3081  0C97  00C7               	movwf	??_eeprom_writePage^(0+128)
  3082  0C98  3080               	movlw	128
  3083  0C99  0247               	subwf	??_eeprom_writePage^(0+128),w
  3084  0C9A  1D03               	skipz
  3085  0C9B  2C9F               	goto	u3765
  3086  0C9C  3020               	movlw	32
  3087  0C9D  0024               	movlb	4	; select bank4
  3088  0C9E  0258               	subwf	eeprom_writePage@i^(0+512),w
  3089  0C9F                     u3765:
  3090  0C9F  1C03               	skipc
  3091  0CA0  2CA2               	goto	u3761
  3092  0CA1  2CA3               	goto	u3760
  3093  0CA2                     u3761:
  3094  0CA2  2C82               	goto	l5047
  3095  0CA3                     u3760:
  3096  0CA3                     l5053:
  3097  0CA3  3189  211F  318C   	fcall	__i2cstop
  3098  0CA6                     l5055:
  3099  0CA6  3189  216A  318C   	fcall	_ACK_Poll
  3100  0CA9                     l65:
  3101  0CA9  0008               	return
  3102  0CAA                     __end_of_eeprom_writePage:
  3103                           
  3104                           	psect	text2
  3105  0A1C                     __ptext2:	
  3106 ;; *************** function _eeprom_writeByte *****************
  3107 ;; Defined at:
  3108 ;;		line 131 in file "24aa32a.c"
  3109 ;; Parameters:    Size  Location     Type
  3110 ;;  address         2   14[BANK1 ] unsigned int 
  3111 ;;  data            1   16[BANK1 ] unsigned char 
  3112 ;; Auto vars:     Size  Location     Type
  3113 ;;  addresslsb      1   19[BANK1 ] unsigned char 
  3114 ;;  addressmsb      1   18[BANK1 ] unsigned char 
  3115 ;; Return value:  Size  Location     Type
  3116 ;;                  1    wreg      void 
  3117 ;; Registers used:
  3118 ;;		wreg, fsr1l, fsr1h, status,2, status,0, pclath, cstack
  3119 ;; Tracked objects:
  3120 ;;		On entry : 0/0
  3121 ;;		On exit  : 0/0
  3122 ;;		Unchanged: 0/0
  3123 ;; Data sizes:     COMMON   BANK0   BANK1   BANK2   BANK3   BANK4   BANK5   BANK6   BANK7   BANK8   BANK9  BANK10  BANK1
      +1  BANK12
  3124 ;;      Params:         0       0       3       0       0       0       0       0       0       0       0       0       
      +0       0
  3125 ;;      Locals:         0       0       2       0       0       0       0       0       0       0       0       0       
      +0       0
  3126 ;;      Temps:          0       0       1       0       0       0       0       0       0       0       0       0       
      +0       0
  3127 ;;      Totals:         0       0       6       0       0       0       0       0       0       0       0       0       
      +0       0
  3128 ;;Total ram usage:        6 bytes
  3129 ;; Hardware stack levels used:    1
  3130 ;; Hardware stack levels required when called:   13
  3131 ;; This function calls:
  3132 ;;		_ACK_Poll
  3133 ;;		__i2cstart
  3134 ;;		__i2cstop
  3135 ;;		__writeByte
  3136 ;; This function is called by:
  3137 ;;		_main
  3138 ;; This function uses a non-reentrant model
  3139 ;;
  3140                           
  3141                           
  3142                           ;psect for function _eeprom_writeByte
  3143  0A1C                     _eeprom_writeByte:
  3144  0A1C                     l5057:	
  3145                           ;incstack = 0
  3146                           ; Regs used in _eeprom_writeByte: [wreg+fsr1l+fsr1h+status,2+status,0+pclath+cstack]
  3147                           
  3148  0A1C  0021               	movlb	1	; select bank1
  3149  0A1D  0845               	movf	(eeprom_writeByte@address+1)^(0+128),w
  3150  0A1E  00C7               	movwf	??_eeprom_writeByte^(0+128)
  3151  0A1F  0847               	movf	??_eeprom_writeByte^(0+128),w
  3152  0A20  00C8               	movwf	eeprom_writeByte@addressmsb^(0+128)
  3153  0A21                     l5059:
  3154  0A21  0844               	movf	eeprom_writeByte@address^(0+128),w
  3155  0A22  00C7               	movwf	??_eeprom_writeByte^(0+128)
  3156  0A23  0847               	movf	??_eeprom_writeByte^(0+128),w
  3157  0A24  00C9               	movwf	eeprom_writeByte@addresslsb^(0+128)
  3158  0A25                     l5061:
  3159  0A25  3189  2114  318A   	fcall	__i2cstart
  3160  0A28                     l5063:
  3161  0A28  30A0               	movlw	160
  3162  0A29  318A  226A  318A   	fcall	__writeByte
  3163  0A2C                     l5065:
  3164  0A2C  0021               	movlb	1	; select bank1
  3165  0A2D  0848               	movf	eeprom_writeByte@addressmsb^(0+128),w
  3166  0A2E  318A  226A  318A   	fcall	__writeByte
  3167  0A31                     l5067:
  3168  0A31  0021               	movlb	1	; select bank1
  3169  0A32  0849               	movf	eeprom_writeByte@addresslsb^(0+128),w
  3170  0A33  318A  226A  318A   	fcall	__writeByte
  3171  0A36                     l5069:
  3172  0A36  0021               	movlb	1	; select bank1
  3173  0A37  0846               	movf	eeprom_writeByte@data^(0+128),w
  3174  0A38  318A  226A  318A   	fcall	__writeByte
  3175  0A3B                     l5071:
  3176  0A3B  3189  211F  318A   	fcall	__i2cstop
  3177  0A3E                     l5073:
  3178  0A3E  3189  216A  318A   	fcall	_ACK_Poll
  3179  0A41                     l61:
  3180  0A41  0008               	return
  3181  0A42                     __end_of_eeprom_writeByte:
  3182                           
  3183                           	psect	text3
  3184  096A                     __ptext3:	
  3185 ;; *************** function _ACK_Poll *****************
  3186 ;; Defined at:
  3187 ;;		line 111 in file "24aa32a.c"
  3188 ;; Parameters:    Size  Location     Type
  3189 ;;		None
  3190 ;; Auto vars:     Size  Location     Type
  3191 ;;  ackstat         1   13[BANK1 ] unsigned char 
  3192 ;; Return value:  Size  Location     Type
  3193 ;;                  1    wreg      void 
  3194 ;; Registers used:
  3195 ;;		wreg, fsr1l, fsr1h, status,2, status,0, pclath, cstack
  3196 ;; Tracked objects:
  3197 ;;		On entry : 0/0
  3198 ;;		On exit  : 0/0
  3199 ;;		Unchanged: 0/0
  3200 ;; Data sizes:     COMMON   BANK0   BANK1   BANK2   BANK3   BANK4   BANK5   BANK6   BANK7   BANK8   BANK9  BANK10  BANK1
      +1  BANK12
  3201 ;;      Params:         0       0       0       0       0       0       0       0       0       0       0       0       
      +0       0
  3202 ;;      Locals:         0       0       1       0       0       0       0       0       0       0       0       0       
      +0       0
  3203 ;;      Temps:          0       0       1       0       0       0       0       0       0       0       0       0       
      +0       0
  3204 ;;      Totals:         0       0       2       0       0       0       0       0       0       0       0       0       
      +0       0
  3205 ;;Total ram usage:        2 bytes
  3206 ;; Hardware stack levels used:    1
  3207 ;; Hardware stack levels required when called:   12
  3208 ;; This function calls:
  3209 ;;		__i2cstart
  3210 ;;		__i2cstop
  3211 ;;		__writeByte
  3212 ;; This function is called by:
  3213 ;;		_eeprom_writeByte
  3214 ;;		_eeprom_writePage
  3215 ;; This function uses a non-reentrant model
  3216 ;;
  3217                           
  3218                           
  3219                           ;psect for function _ACK_Poll
  3220  096A                     _ACK_Poll:
  3221  096A                     l4993:	
  3222                           ;incstack = 0
  3223                           ; Regs used in _ACK_Poll: [wreg+fsr1l+fsr1h+status,2+status,0+pclath+cstack]
  3224                           
  3225  096A                     l4995:
  3226  096A  3189  2114  3189   	fcall	__i2cstart
  3227  096D                     l4997:
  3228  096D  30A0               	movlw	160
  3229  096E  318A  226A  3189   	fcall	__writeByte
  3230  0971  0021               	movlb	1	; select bank1
  3231  0972  00C2               	movwf	??_ACK_Poll^(0+128)
  3232  0973  0842               	movf	??_ACK_Poll^(0+128),w
  3233  0974  00C3               	movwf	ACK_Poll@ackstat^(0+128)
  3234  0975                     l4999:
  3235  0975  0343               	decf	ACK_Poll@ackstat^(0+128),w
  3236  0976  1903               	btfsc	3,2
  3237  0977  2979               	goto	u3701
  3238  0978  297A               	goto	u3700
  3239  0979                     u3701:
  3240  0979  296A               	goto	l4995
  3241  097A                     u3700:
  3242  097A                     l5001:
  3243  097A  3189  211F  3189   	fcall	__i2cstop
  3244  097D                     l58:
  3245  097D  0008               	return
  3246  097E                     __end_of_ACK_Poll:
  3247                           
  3248                           	psect	text4
  3249  0BD0                     __ptext4:	
  3250 ;; *************** function _eeprom_readMem *****************
  3251 ;; Defined at:
  3252 ;;		line 197 in file "24aa32a.c"
  3253 ;; Parameters:    Size  Location     Type
  3254 ;;  byte            1    wreg     PTR unsigned char 
  3255 ;;		 -> byte(1), 
  3256 ;; Auto vars:     Size  Location     Type
  3257 ;;  byte            1   13[BANK1 ] PTR unsigned char 
  3258 ;;		 -> byte(1), 
  3259 ;;  i               2   14[BANK1 ] unsigned short 
  3260 ;; Return value:  Size  Location     Type
  3261 ;;                  1    wreg      void 
  3262 ;; Registers used:
  3263 ;;		wreg, fsr1l, fsr1h, status,2, status,0, pclath, cstack
  3264 ;; Tracked objects:
  3265 ;;		On entry : 0/0
  3266 ;;		On exit  : 0/0
  3267 ;;		Unchanged: 0/0
  3268 ;; Data sizes:     COMMON   BANK0   BANK1   BANK2   BANK3   BANK4   BANK5   BANK6   BANK7   BANK8   BANK9  BANK10  BANK1
      +1  BANK12
  3269 ;;      Params:         0       0       0       0       0       0       0       0       0       0       0       0       
      +0       0
  3270 ;;      Locals:         0       0       3       0       0       0       0       0       0       0       0       0       
      +0       0
  3271 ;;      Temps:          0       0       1       0       0       0       0       0       0       0       0       0       
      +0       0
  3272 ;;      Totals:         0       0       4       0       0       0       0       0       0       0       0       0       
      +0       0
  3273 ;;Total ram usage:        4 bytes
  3274 ;; Hardware stack levels used:    1
  3275 ;; Hardware stack levels required when called:   12
  3276 ;; This function calls:
  3277 ;;		__i2cstart
  3278 ;;		__i2cstop
  3279 ;;		__readByte
  3280 ;;		__writeByte
  3281 ;; This function is called by:
  3282 ;;		_main
  3283 ;; This function uses a non-reentrant model
  3284 ;;
  3285                           
  3286                           
  3287                           ;psect for function _eeprom_readMem
  3288  0BD0                     _eeprom_readMem:
  3289                           
  3290                           ;incstack = 0
  3291                           ; Regs used in _eeprom_readMem: [wreg+fsr1l+fsr1h+status,2+status,0+pclath+cstack]
  3292                           ;eeprom_readMem@byte stored from wreg
  3293  0BD0  0021               	movlb	1	; select bank1
  3294  0BD1  00C3               	movwf	eeprom_readMem@byte^(0+128)
  3295  0BD2                     l5095:
  3296  0BD2  3189  2114  318B   	fcall	__i2cstart
  3297  0BD5                     l5097:
  3298  0BD5  30A0               	movlw	160
  3299  0BD6  318A  226A  318B   	fcall	__writeByte
  3300  0BD9                     l5099:
  3301  0BD9  3000               	movlw	0
  3302  0BDA  318A  226A  318B   	fcall	__writeByte
  3303  0BDD                     l5101:
  3304  0BDD  30FF               	movlw	255
  3305  0BDE  318A  226A  318B   	fcall	__writeByte
  3306  0BE1                     l5103:
  3307  0BE1  3189  2114  318B   	fcall	__i2cstart
  3308  0BE4  30A1               	movlw	161
  3309  0BE5  318A  226A  318B   	fcall	__writeByte
  3310  0BE8                     l5105:
  3311  0BE8  0021               	movlb	1	; select bank1
  3312  0BE9  01C4               	clrf	eeprom_readMem@i^(0+128)
  3313  0BEA  01C5               	clrf	(eeprom_readMem@i+1)^(0+128)
  3314  0BEB                     l5111:
  3315  0BEB  3000               	movlw	0
  3316  0BEC  318A  2242  318B   	fcall	__readByte
  3317  0BEF  0021               	movlb	1	; select bank1
  3318  0BF0  00C2               	movwf	??_eeprom_readMem^(0+128)
  3319  0BF1  0843               	movf	eeprom_readMem@byte^(0+128),w
  3320  0BF2  0086               	movwf	6
  3321  0BF3  3001               	movlw	1	; select bank2/3
  3322  0BF4  0087               	movwf	7
  3323  0BF5  0842               	movf	??_eeprom_readMem^(0+128),w
  3324  0BF6  0081               	movwf	1
  3325  0BF7                     l5113:
  3326  0BF7  3001               	movlw	1
  3327  0BF8  07C4               	addwf	eeprom_readMem@i^(0+128),f
  3328  0BF9  3000               	movlw	0
  3329  0BFA  3DC5               	addwfc	(eeprom_readMem@i+1)^(0+128),f
  3330  0BFB                     l5115:
  3331  0BFB  300F               	movlw	15
  3332  0BFC  0245               	subwf	(eeprom_readMem@i+1)^(0+128),w
  3333  0BFD  30FF               	movlw	255
  3334  0BFE  1903               	skipnz
  3335  0BFF  0244               	subwf	eeprom_readMem@i^(0+128),w
  3336  0C00  1C03               	skipc
  3337  0C01  2C03               	goto	u3771
  3338  0C02  2C04               	goto	u3770
  3339  0C03                     u3771:
  3340  0C03  2BEB               	goto	l5111
  3341  0C04                     u3770:
  3342  0C04                     l5117:
  3343  0C04  3080               	movlw	128
  3344  0C05  318A  2242  318B   	fcall	__readByte
  3345  0C08  0021               	movlb	1	; select bank1
  3346  0C09  00C2               	movwf	??_eeprom_readMem^(0+128)
  3347  0C0A  0843               	movf	eeprom_readMem@byte^(0+128),w
  3348  0C0B  0086               	movwf	6
  3349  0C0C  3001               	movlw	1	; select bank2/3
  3350  0C0D  0087               	movwf	7
  3351  0C0E  0842               	movf	??_eeprom_readMem^(0+128),w
  3352  0C0F  0081               	movwf	1
  3353  0C10                     l5119:
  3354  0C10  3189  211F  318B   	fcall	__i2cstop
  3355  0C13                     l75:
  3356  0C13  0008               	return
  3357  0C14                     __end_of_eeprom_readMem:
  3358                           
  3359                           	psect	text5
  3360  0AEB                     __ptext5:	
  3361 ;; *************** function _eeprom_readByte *****************
  3362 ;; Defined at:
  3363 ;;		line 176 in file "24aa32a.c"
  3364 ;; Parameters:    Size  Location     Type
  3365 ;;  address         2   12[BANK1 ] unsigned int 
  3366 ;;  data            1   14[BANK1 ] PTR unsigned char 
  3367 ;;		 -> byte(1), 
  3368 ;; Auto vars:     Size  Location     Type
  3369 ;;  addresslsb      1   17[BANK1 ] unsigned char 
  3370 ;;  addressmsb      1   16[BANK1 ] unsigned char 
  3371 ;; Return value:  Size  Location     Type
  3372 ;;                  1    wreg      void 
  3373 ;; Registers used:
  3374 ;;		wreg, fsr1l, fsr1h, status,2, status,0, pclath, cstack
  3375 ;; Tracked objects:
  3376 ;;		On entry : 0/0
  3377 ;;		On exit  : 0/0
  3378 ;;		Unchanged: 0/0
  3379 ;; Data sizes:     COMMON   BANK0   BANK1   BANK2   BANK3   BANK4   BANK5   BANK6   BANK7   BANK8   BANK9  BANK10  BANK1
      +1  BANK12
  3380 ;;      Params:         0       0       3       0       0       0       0       0       0       0       0       0       
      +0       0
  3381 ;;      Locals:         0       0       2       0       0       0       0       0       0       0       0       0       
      +0       0
  3382 ;;      Temps:          0       0       1       0       0       0       0       0       0       0       0       0       
      +0       0
  3383 ;;      Totals:         0       0       6       0       0       0       0       0       0       0       0       0       
      +0       0
  3384 ;;Total ram usage:        6 bytes
  3385 ;; Hardware stack levels used:    1
  3386 ;; Hardware stack levels required when called:   12
  3387 ;; This function calls:
  3388 ;;		__i2cstart
  3389 ;;		__i2cstop
  3390 ;;		__readByte
  3391 ;;		__writeByte
  3392 ;; This function is called by:
  3393 ;;		_main
  3394 ;; This function uses a non-reentrant model
  3395 ;;
  3396                           
  3397                           
  3398                           ;psect for function _eeprom_readByte
  3399  0AEB                     _eeprom_readByte:
  3400  0AEB                     l5075:	
  3401                           ;incstack = 0
  3402                           ; Regs used in _eeprom_readByte: [wreg+fsr1l+fsr1h+status,2+status,0+pclath+cstack]
  3403                           
  3404  0AEB  0021               	movlb	1	; select bank1
  3405  0AEC  0843               	movf	(eeprom_readByte@address+1)^(0+128),w
  3406  0AED  00C5               	movwf	??_eeprom_readByte^(0+128)
  3407  0AEE  0845               	movf	??_eeprom_readByte^(0+128),w
  3408  0AEF  00C6               	movwf	eeprom_readByte@addressmsb^(0+128)
  3409  0AF0                     l5077:
  3410  0AF0  0842               	movf	eeprom_readByte@address^(0+128),w
  3411  0AF1  00C5               	movwf	??_eeprom_readByte^(0+128)
  3412  0AF2  0845               	movf	??_eeprom_readByte^(0+128),w
  3413  0AF3  00C7               	movwf	eeprom_readByte@addresslsb^(0+128)
  3414  0AF4                     l5079:
  3415  0AF4  3189  2114  318A   	fcall	__i2cstart
  3416  0AF7                     l5081:
  3417  0AF7  30A0               	movlw	160
  3418  0AF8  318A  226A  318A   	fcall	__writeByte
  3419  0AFB                     l5083:
  3420  0AFB  0021               	movlb	1	; select bank1
  3421  0AFC  0846               	movf	eeprom_readByte@addressmsb^(0+128),w
  3422  0AFD  318A  226A  318A   	fcall	__writeByte
  3423  0B00                     l5085:
  3424  0B00  0021               	movlb	1	; select bank1
  3425  0B01  0847               	movf	eeprom_readByte@addresslsb^(0+128),w
  3426  0B02  318A  226A  318A   	fcall	__writeByte
  3427  0B05                     l5087:
  3428  0B05  3189  2114  318A   	fcall	__i2cstart
  3429  0B08                     l5089:
  3430  0B08  30A1               	movlw	161
  3431  0B09  318A  226A  318A   	fcall	__writeByte
  3432  0B0C                     l5091:
  3433  0B0C  3080               	movlw	128
  3434  0B0D  318A  2242  318A   	fcall	__readByte
  3435  0B10  0021               	movlb	1	; select bank1
  3436  0B11  00C5               	movwf	??_eeprom_readByte^(0+128)
  3437  0B12  0844               	movf	eeprom_readByte@data^(0+128),w
  3438  0B13  0086               	movwf	6
  3439  0B14  3001               	movlw	1	; select bank2/3
  3440  0B15  0087               	movwf	7
  3441  0B16  0845               	movf	??_eeprom_readByte^(0+128),w
  3442  0B17  0081               	movwf	1
  3443  0B18                     l5093:
  3444  0B18  3189  211F  318A   	fcall	__i2cstop
  3445  0B1B                     l70:
  3446  0B1B  0008               	return
  3447  0B1C                     __end_of_eeprom_readByte:
  3448                           
  3449                           	psect	text6
  3450  0A6A                     __ptext6:	
  3451 ;; *************** function __writeByte *****************
  3452 ;; Defined at:
  3453 ;;		line 75 in file "24aa32a.c"
  3454 ;; Parameters:    Size  Location     Type
  3455 ;;  data            1    wreg     unsigned char 
  3456 ;; Auto vars:     Size  Location     Type
  3457 ;;  data            1    8[BANK1 ] unsigned char 
  3458 ;;  i               2    9[BANK1 ] int 
  3459 ;;  ack             1   11[BANK1 ] unsigned char 
  3460 ;;  i               1    0        unsigned char 
  3461 ;; Return value:  Size  Location     Type
  3462 ;;                  1    wreg      unsigned char 
  3463 ;; Registers used:
  3464 ;;		wreg, fsr1l, fsr1h, status,2, status,0, pclath, cstack
  3465 ;; Tracked objects:
  3466 ;;		On entry : 0/0
  3467 ;;		On exit  : 0/0
  3468 ;;		Unchanged: 0/0
  3469 ;; Data sizes:     COMMON   BANK0   BANK1   BANK2   BANK3   BANK4   BANK5   BANK6   BANK7   BANK8   BANK9  BANK10  BANK1
      +1  BANK12
  3470 ;;      Params:         0       0       0       0       0       0       0       0       0       0       0       0       
      +0       0
  3471 ;;      Locals:         0       0       4       0       0       0       0       0       0       0       0       0       
      +0       0
  3472 ;;      Temps:          0       0       1       0       0       0       0       0       0       0       0       0       
      +0       0
  3473 ;;      Totals:         0       0       5       0       0       0       0       0       0       0       0       0       
      +0       0
  3474 ;;Total ram usage:        5 bytes
  3475 ;; Hardware stack levels used:    1
  3476 ;; Hardware stack levels required when called:   11
  3477 ;; This function calls:
  3478 ;;		__readBit
  3479 ;;		__writeBit
  3480 ;; This function is called by:
  3481 ;;		_ACK_Poll
  3482 ;;		_eeprom_writeByte
  3483 ;;		_eeprom_writePage
  3484 ;;		_eeprom_readByte
  3485 ;;		_eeprom_readMem
  3486 ;; This function uses a non-reentrant model
  3487 ;;
  3488                           
  3489                           
  3490                           ;psect for function __writeByte
  3491  0A6A                     __writeByte:
  3492                           
  3493                           ;incstack = 0
  3494                           ; Regs used in __writeByte: [wreg+fsr1l+fsr1h+status,2+status,0+pclath+cstack]
  3495                           ;__writeByte@data stored from wreg
  3496  0A6A  0021               	movlb	1	; select bank1
  3497  0A6B  00BE               	movwf	__writeByte@data^(0+128)
  3498  0A6C                     l4925:
  3499  0A6C  01C1               	clrf	__writeByte@ack^(0+128)
  3500  0A6D  0AC1               	incf	__writeByte@ack^(0+128),f
  3501  0A6E                     l4927:
  3502  0A6E  01BF               	clrf	__writeByte@i_123^(0+128)
  3503  0A6F  01C0               	clrf	(__writeByte@i_123+1)^(0+128)
  3504  0A70                     l4933:
  3505  0A70  0021               	movlb	1	; select bank1
  3506  0A71  083E               	movf	__writeByte@data^(0+128),w
  3507  0A72  3189  2157  318A   	fcall	__writeBit
  3508  0A75                     l4935:
  3509  0A75  0021               	movlb	1	; select bank1
  3510  0A76  353E               	lslf	__writeByte@data^(0+128),w
  3511  0A77  00BD               	movwf	??__writeByte^(0+128)
  3512  0A78  083D               	movf	??__writeByte^(0+128),w
  3513  0A79  00BE               	movwf	__writeByte@data^(0+128)
  3514  0A7A                     l4937:
  3515  0A7A  3001               	movlw	1
  3516  0A7B  07BF               	addwf	__writeByte@i_123^(0+128),f
  3517  0A7C  3000               	movlw	0
  3518  0A7D  3DC0               	addwfc	(__writeByte@i_123+1)^(0+128),f
  3519  0A7E                     l4939:
  3520  0A7E  0840               	movf	(__writeByte@i_123+1)^(0+128),w
  3521  0A7F  3A80               	xorlw	128
  3522  0A80  00BD               	movwf	??__writeByte^(0+128)
  3523  0A81  3080               	movlw	128
  3524  0A82  023D               	subwf	??__writeByte^(0+128),w
  3525  0A83  1D03               	skipz
  3526  0A84  2A87               	goto	u3685
  3527  0A85  3008               	movlw	8
  3528  0A86  023F               	subwf	__writeByte@i_123^(0+128),w
  3529  0A87                     u3685:
  3530  0A87  1C03               	skipc
  3531  0A88  2A8A               	goto	u3681
  3532  0A89  2A8B               	goto	u3680
  3533  0A8A                     u3681:
  3534  0A8A  2A70               	goto	l4933
  3535  0A8B                     u3680:
  3536  0A8B                     l4941:
  3537  0A8B  30C1               	movlw	(low (__writeByte@ack| 0))& (0+255)
  3538  0A8C  3189  217E  318A   	fcall	__readBit
  3539  0A8F                     l4943:
  3540  0A8F  0021               	movlb	1	; select bank1
  3541  0A90  0841               	movf	__writeByte@ack^(0+128),w
  3542  0A91                     l48:
  3543  0A91  0008               	return
  3544  0A92                     __end_of__writeByte:
  3545                           
  3546                           	psect	text7
  3547  0A42                     __ptext7:	
  3548 ;; *************** function __readByte *****************
  3549 ;; Defined at:
  3550 ;;		line 94 in file "24aa32a.c"
  3551 ;; Parameters:    Size  Location     Type
  3552 ;;  ack             1    wreg     unsigned char 
  3553 ;; Auto vars:     Size  Location     Type
  3554 ;;  ack             1    8[BANK1 ] unsigned char 
  3555 ;;  i               2    9[BANK1 ] int 
  3556 ;;  ret             1   11[BANK1 ] unsigned char 
  3557 ;; Return value:  Size  Location     Type
  3558 ;;                  1    wreg      unsigned char 
  3559 ;; Registers used:
  3560 ;;		wreg, fsr1l, fsr1h, status,2, status,0, pclath, cstack
  3561 ;; Tracked objects:
  3562 ;;		On entry : 0/0
  3563 ;;		On exit  : 0/0
  3564 ;;		Unchanged: 0/0
  3565 ;; Data sizes:     COMMON   BANK0   BANK1   BANK2   BANK3   BANK4   BANK5   BANK6   BANK7   BANK8   BANK9  BANK10  BANK1
      +1  BANK12
  3566 ;;      Params:         0       0       0       0       0       0       0       0       0       0       0       0       
      +0       0
  3567 ;;      Locals:         0       0       4       0       0       0       0       0       0       0       0       0       
      +0       0
  3568 ;;      Temps:          0       0       1       0       0       0       0       0       0       0       0       0       
      +0       0
  3569 ;;      Totals:         0       0       5       0       0       0       0       0       0       0       0       0       
      +0       0
  3570 ;;Total ram usage:        5 bytes
  3571 ;; Hardware stack levels used:    1
  3572 ;; Hardware stack levels required when called:   11
  3573 ;; This function calls:
  3574 ;;		__readBit
  3575 ;;		__writeBit
  3576 ;; This function is called by:
  3577 ;;		_eeprom_readByte
  3578 ;;		_eeprom_readMem
  3579 ;; This function uses a non-reentrant model
  3580 ;;
  3581                           
  3582                           
  3583                           ;psect for function __readByte
  3584  0A42                     __readByte:
  3585                           
  3586                           ;incstack = 0
  3587                           ; Regs used in __readByte: [wreg+fsr1l+fsr1h+status,2+status,0+pclath+cstack]
  3588                           ;__readByte@ack stored from wreg
  3589  0A42  0021               	movlb	1	; select bank1
  3590  0A43  00BE               	movwf	__readByte@ack^(0+128)
  3591  0A44                     l4973:
  3592  0A44  01C1               	clrf	__readByte@ret^(0+128)
  3593  0A45  01BF               	clrf	__readByte@i^(0+128)
  3594  0A46  01C0               	clrf	(__readByte@i+1)^(0+128)
  3595  0A47                     l4979:
  3596  0A47  0021               	movlb	1	; select bank1
  3597  0A48  3541               	lslf	__readByte@ret^(0+128),w
  3598  0A49  00BD               	movwf	??__readByte^(0+128)
  3599  0A4A  083D               	movf	??__readByte^(0+128),w
  3600  0A4B  00C1               	movwf	__readByte@ret^(0+128)
  3601  0A4C                     l4981:
  3602  0A4C  30C1               	movlw	(low (__readByte@ret| 0))& (0+255)
  3603  0A4D  3189  217E  318A   	fcall	__readBit
  3604  0A50                     l4983:
  3605  0A50  3001               	movlw	1
  3606  0A51  0021               	movlb	1	; select bank1
  3607  0A52  07BF               	addwf	__readByte@i^(0+128),f
  3608  0A53  3000               	movlw	0
  3609  0A54  3DC0               	addwfc	(__readByte@i+1)^(0+128),f
  3610  0A55                     l4985:
  3611  0A55  0840               	movf	(__readByte@i+1)^(0+128),w
  3612  0A56  3A80               	xorlw	128
  3613  0A57  00BD               	movwf	??__readByte^(0+128)
  3614  0A58  3080               	movlw	128
  3615  0A59  023D               	subwf	??__readByte^(0+128),w
  3616  0A5A  1D03               	skipz
  3617  0A5B  2A5E               	goto	u3695
  3618  0A5C  3008               	movlw	8
  3619  0A5D  023F               	subwf	__readByte@i^(0+128),w
  3620  0A5E                     u3695:
  3621  0A5E  1C03               	skipc
  3622  0A5F  2A61               	goto	u3691
  3623  0A60  2A62               	goto	u3690
  3624  0A61                     u3691:
  3625  0A61  2A47               	goto	l4979
  3626  0A62                     u3690:
  3627  0A62                     l4987:
  3628  0A62  0021               	movlb	1	; select bank1
  3629  0A63  083E               	movf	__readByte@ack^(0+128),w
  3630  0A64  3189  2157  318A   	fcall	__writeBit
  3631  0A67                     l4989:
  3632  0A67  0021               	movlb	1	; select bank1
  3633  0A68  0841               	movf	__readByte@ret^(0+128),w
  3634  0A69                     l53:
  3635  0A69  0008               	return
  3636  0A6A                     __end_of__readByte:
  3637                           
  3638                           	psect	text8
  3639  0957                     __ptext8:	
  3640 ;; *************** function __writeBit *****************
  3641 ;; Defined at:
  3642 ;;		line 33 in file "24aa32a.c"
  3643 ;; Parameters:    Size  Location     Type
  3644 ;;  data            1    wreg     unsigned char 
  3645 ;; Auto vars:     Size  Location     Type
  3646 ;;  data            1    5[BANK1 ] unsigned char 
  3647 ;; Return value:  Size  Location     Type
  3648 ;;                  1    wreg      void 
  3649 ;; Registers used:
  3650 ;;		wreg
  3651 ;; Tracked objects:
  3652 ;;		On entry : 0/0
  3653 ;;		On exit  : 0/0
  3654 ;;		Unchanged: 0/0
  3655 ;; Data sizes:     COMMON   BANK0   BANK1   BANK2   BANK3   BANK4   BANK5   BANK6   BANK7   BANK8   BANK9  BANK10  BANK1
      +1  BANK12
  3656 ;;      Params:         0       0       0       0       0       0       0       0       0       0       0       0       
      +0       0
  3657 ;;      Locals:         0       0       1       0       0       0       0       0       0       0       0       0       
      +0       0
  3658 ;;      Temps:          0       0       0       0       0       0       0       0       0       0       0       0       
      +0       0
  3659 ;;      Totals:         0       0       1       0       0       0       0       0       0       0       0       0       
      +0       0
  3660 ;;Total ram usage:        1 bytes
  3661 ;; Hardware stack levels used:    1
  3662 ;; Hardware stack levels required when called:   10
  3663 ;; This function calls:
  3664 ;;		Nothing
  3665 ;; This function is called by:
  3666 ;;		__writeByte
  3667 ;;		__readByte
  3668 ;; This function uses a non-reentrant model
  3669 ;;
  3670                           
  3671                           
  3672                           ;psect for function __writeBit
  3673  0957                     __writeBit:
  3674                           
  3675                           ;incstack = 0
  3676                           ; Regs used in __writeBit: [wreg]
  3677                           ;__writeBit@data stored from wreg
  3678  0957  0021               	movlb	1	; select bank1
  3679  0958  00BB               	movwf	__writeBit@data^(0+128)
  3680  0959                     l4863:
  3681  0959  120D               	bcf	13,4	;volatile
  3682  095A  0022               	movlb	2	; select bank2
  3683  095B  130D               	bcf	13,6	;volatile
  3684  095C                     l4865:
  3685  095C  0021               	movlb	1	; select bank1
  3686  095D  1FBB               	btfss	__writeBit@data^(0+128),7
  3687  095E  2960               	goto	u3651
  3688  095F  2961               	goto	u3650
  3689  0960                     u3651:
  3690  0960  2964               	goto	l37
  3691  0961                     u3650:
  3692  0961                     l4867:
  3693  0961  0020               	movlb	0	; select bank0
  3694  0962  160D               	bsf	13,4	;volatile
  3695  0963  2966               	goto	l38
  3696  0964                     l37:
  3697  0964  0020               	movlb	0	; select bank0
  3698  0965  120D               	bcf	13,4	;volatile
  3699  0966                     l38:
  3700  0966  0022               	movlb	2	; select bank2
  3701  0967  170D               	bsf	13,6	;volatile
  3702  0968  130D               	bcf	13,6	;volatile
  3703  0969                     l39:
  3704  0969  0008               	return
  3705  096A                     __end_of__writeBit:
  3706                           
  3707                           	psect	text9
  3708  097E                     __ptext9:	
  3709 ;; *************** function __readBit *****************
  3710 ;; Defined at:
  3711 ;;		line 54 in file "24aa32a.c"
  3712 ;; Parameters:    Size  Location     Type
  3713 ;;  data            1    wreg     PTR unsigned char 
  3714 ;;		 -> _readByte@ret(1), _writeByte@ack(1), 
  3715 ;; Auto vars:     Size  Location     Type
  3716 ;;  data            1    6[BANK1 ] PTR unsigned char 
  3717 ;;		 -> _readByte@ret(1), _writeByte@ack(1), 
  3718 ;; Return value:  Size  Location     Type
  3719 ;;                  1    wreg      void 
  3720 ;; Registers used:
  3721 ;;		wreg, fsr1l, fsr1h, status,2, status,0
  3722 ;; Tracked objects:
  3723 ;;		On entry : 0/0
  3724 ;;		On exit  : 0/0
  3725 ;;		Unchanged: 0/0
  3726 ;; Data sizes:     COMMON   BANK0   BANK1   BANK2   BANK3   BANK4   BANK5   BANK6   BANK7   BANK8   BANK9  BANK10  BANK1
      +1  BANK12
  3727 ;;      Params:         0       0       0       0       0       0       0       0       0       0       0       0       
      +0       0
  3728 ;;      Locals:         0       0       1       0       0       0       0       0       0       0       0       0       
      +0       0
  3729 ;;      Temps:          0       0       1       0       0       0       0       0       0       0       0       0       
      +0       0
  3730 ;;      Totals:         0       0       2       0       0       0       0       0       0       0       0       0       
      +0       0
  3731 ;;Total ram usage:        2 bytes
  3732 ;; Hardware stack levels used:    1
  3733 ;; Hardware stack levels required when called:   10
  3734 ;; This function calls:
  3735 ;;		Nothing
  3736 ;; This function is called by:
  3737 ;;		__writeByte
  3738 ;;		__readByte
  3739 ;; This function uses a non-reentrant model
  3740 ;;
  3741                           
  3742                           
  3743                           ;psect for function __readBit
  3744  097E                     __readBit:
  3745                           
  3746                           ;incstack = 0
  3747                           ; Regs used in __readBit: [wreg+fsr1l+fsr1h+status,2+status,0]
  3748                           ;__readBit@data stored from wreg
  3749  097E  0021               	movlb	1	; select bank1
  3750  097F  00BC               	movwf	__readBit@data^(0+128)
  3751  0980                     l4869:
  3752  0980  160D               	bsf	13,4	;volatile
  3753  0981  0022               	movlb	2	; select bank2
  3754  0982  130D               	bcf	13,6	;volatile
  3755  0983  170D               	bsf	13,6	;volatile
  3756  0984                     l4871:
  3757  0984  30FE               	movlw	254
  3758  0985  0021               	movlb	1	; select bank1
  3759  0986  00BB               	movwf	??__readBit^(0+128)
  3760  0987  083C               	movf	__readBit@data^(0+128),w
  3761  0988  0086               	movwf	6
  3762  0989  0187               	clrf	7
  3763  098A  083B               	movf	??__readBit^(0+128),w
  3764  098B  0581               	andwf	1,f
  3765  098C                     l4873:
  3766  098C  0020               	movlb	0	; select bank0
  3767  098D  1E0D               	btfss	13,4	;volatile
  3768  098E  2990               	goto	u3661
  3769  098F  2991               	goto	u3660
  3770  0990                     u3661:
  3771  0990  2996               	goto	l4877
  3772  0991                     u3660:
  3773  0991                     l4875:
  3774  0991  0021               	movlb	1	; select bank1
  3775  0992  083C               	movf	__readBit@data^(0+128),w
  3776  0993  0086               	movwf	6
  3777  0994  0187               	clrf	7
  3778  0995  1401               	bsf	1,0
  3779  0996                     l4877:
  3780  0996  0022               	movlb	2	; select bank2
  3781  0997  130D               	bcf	13,6	;volatile
  3782  0998                     l43:
  3783  0998  0008               	return
  3784  0999                     __end_of__readBit:
  3785                           
  3786                           	psect	text10
  3787  091F                     __ptext10:	
  3788 ;; *************** function __i2cstop *****************
  3789 ;; Defined at:
  3790 ;;		line 19 in file "24aa32a.c"
  3791 ;; Parameters:    Size  Location     Type
  3792 ;;		None
  3793 ;; Auto vars:     Size  Location     Type
  3794 ;;		None
  3795 ;; Return value:  Size  Location     Type
  3796 ;;                  1    wreg      void 
  3797 ;; Registers used:
  3798 ;;		None
  3799 ;; Tracked objects:
  3800 ;;		On entry : 0/0
  3801 ;;		On exit  : 0/0
  3802 ;;		Unchanged: 0/0
  3803 ;; Data sizes:     COMMON   BANK0   BANK1   BANK2   BANK3   BANK4   BANK5   BANK6   BANK7   BANK8   BANK9  BANK10  BANK1
      +1  BANK12
  3804 ;;      Params:         0       0       0       0       0       0       0       0       0       0       0       0       
      +0       0
  3805 ;;      Locals:         0       0       0       0       0       0       0       0       0       0       0       0       
      +0       0
  3806 ;;      Temps:          0       0       0       0       0       0       0       0       0       0       0       0       
      +0       0
  3807 ;;      Totals:         0       0       0       0       0       0       0       0       0       0       0       0       
      +0       0
  3808 ;;Total ram usage:        0 bytes
  3809 ;; Hardware stack levels used:    1
  3810 ;; Hardware stack levels required when called:   10
  3811 ;; This function calls:
  3812 ;;		Nothing
  3813 ;; This function is called by:
  3814 ;;		_ACK_Poll
  3815 ;;		_eeprom_writeByte
  3816 ;;		_eeprom_writePage
  3817 ;;		_eeprom_readByte
  3818 ;;		_eeprom_readMem
  3819 ;; This function uses a non-reentrant model
  3820 ;;
  3821                           
  3822                           
  3823                           ;psect for function __i2cstop
  3824  091F                     __i2cstop:
  3825  091F                     l4923:	
  3826                           ;incstack = 0
  3827                           ; Regs used in __i2cstop: []
  3828                           
  3829  091F  0021               	movlb	1	; select bank1
  3830  0920  120D               	bcf	13,4	;volatile
  3831  0921  0022               	movlb	2	; select bank2
  3832  0922  130D               	bcf	13,6	;volatile
  3833  0923  0020               	movlb	0	; select bank0
  3834  0924  120D               	bcf	13,4	;volatile
  3835  0925  0022               	movlb	2	; select bank2
  3836  0926  170D               	bsf	13,6	;volatile
  3837  0927  0020               	movlb	0	; select bank0
  3838  0928  160D               	bsf	13,4	;volatile
  3839  0929                     l34:
  3840  0929  0008               	return
  3841  092A                     __end_of__i2cstop:
  3842                           
  3843                           	psect	text11
  3844  0914                     __ptext11:	
  3845 ;; *************** function __i2cstart *****************
  3846 ;; Defined at:
  3847 ;;		line 6 in file "24aa32a.c"
  3848 ;; Parameters:    Size  Location     Type
  3849 ;;		None
  3850 ;; Auto vars:     Size  Location     Type
  3851 ;;		None
  3852 ;; Return value:  Size  Location     Type
  3853 ;;                  1    wreg      void 
  3854 ;; Registers used:
  3855 ;;		None
  3856 ;; Tracked objects:
  3857 ;;		On entry : 0/0
  3858 ;;		On exit  : 0/0
  3859 ;;		Unchanged: 0/0
  3860 ;; Data sizes:     COMMON   BANK0   BANK1   BANK2   BANK3   BANK4   BANK5   BANK6   BANK7   BANK8   BANK9  BANK10  BANK1
      +1  BANK12
  3861 ;;      Params:         0       0       0       0       0       0       0       0       0       0       0       0       
      +0       0
  3862 ;;      Locals:         0       0       0       0       0       0       0       0       0       0       0       0       
      +0       0
  3863 ;;      Temps:          0       0       0       0       0       0       0       0       0       0       0       0       
      +0       0
  3864 ;;      Totals:         0       0       0       0       0       0       0       0       0       0       0       0       
      +0       0
  3865 ;;Total ram usage:        0 bytes
  3866 ;; Hardware stack levels used:    1
  3867 ;; Hardware stack levels required when called:   10
  3868 ;; This function calls:
  3869 ;;		Nothing
  3870 ;; This function is called by:
  3871 ;;		_ACK_Poll
  3872 ;;		_eeprom_writeByte
  3873 ;;		_eeprom_writePage
  3874 ;;		_eeprom_readByte
  3875 ;;		_eeprom_readMem
  3876 ;; This function uses a non-reentrant model
  3877 ;;
  3878                           
  3879                           
  3880                           ;psect for function __i2cstart
  3881  0914                     __i2cstart:
  3882  0914                     l4921:	
  3883                           ;incstack = 0
  3884                           ; Regs used in __i2cstart: []
  3885                           
  3886  0914  0021               	movlb	1	; select bank1
  3887  0915  120D               	bcf	13,4	;volatile
  3888  0916  0020               	movlb	0	; select bank0
  3889  0917  160D               	bsf	13,4	;volatile
  3890  0918  0022               	movlb	2	; select bank2
  3891  0919  170D               	bsf	13,6	;volatile
  3892  091A  0020               	movlb	0	; select bank0
  3893  091B  120D               	bcf	13,4	;volatile
  3894  091C  0022               	movlb	2	; select bank2
  3895  091D  130D               	bcf	13,6	;volatile
  3896  091E                     l31:
  3897  091E  0008               	return
  3898  091F                     __end_of__i2cstart:
  3899                           
  3900                           	psect	intentry
  3901  0004                     __pintentry:	
  3902 ;; *************** function _INTERRUPT_InterruptManager *****************
  3903 ;; Defined at:
  3904 ;;		line 52 in file "mcc_generated_files/interrupt_manager.c"
  3905 ;; Parameters:    Size  Location     Type
  3906 ;;		None
  3907 ;; Auto vars:     Size  Location     Type
  3908 ;;		None
  3909 ;; Return value:  Size  Location     Type
  3910 ;;                  1    wreg      void 
  3911 ;; Registers used:
  3912 ;;		wreg, fsr0l, fsr0h, fsr1l, fsr1h, status,2, status,0, pclath, cstack
  3913 ;; Tracked objects:
  3914 ;;		On entry : 0/0
  3915 ;;		On exit  : 0/0
  3916 ;;		Unchanged: 0/0
  3917 ;; Data sizes:     COMMON   BANK0   BANK1   BANK2   BANK3   BANK4   BANK5   BANK6   BANK7   BANK8   BANK9  BANK10  BANK1
      +1  BANK12
  3918 ;;      Params:         0       0       0       0       0       0       0       0       0       0       0       0       
      +0       0
  3919 ;;      Locals:         0       0       0       0       0       0       0       0       0       0       0       0       
      +0       0
  3920 ;;      Temps:          0       0       0       0       0       0       0       0       0       0       0       0       
      +0       0
  3921 ;;      Totals:         0       0       0       0       0       0       0       0       0       0       0       0       
      +0       0
  3922 ;;Total ram usage:        0 bytes
  3923 ;; Hardware stack levels used:    1
  3924 ;; Hardware stack levels required when called:    9
  3925 ;; This function calls:
  3926 ;;		_PIN_MANAGER_IOC
  3927 ;;		_TMR0_ISR
  3928 ;;		_USBDeviceTasks
  3929 ;; This function is called by:
  3930 ;;		Interrupt level 1
  3931 ;; This function uses a non-reentrant model
  3932 ;;
  3933                           
  3934  0004                     _INTERRUPT_InterruptManager:
  3935                           
  3936                           ;incstack = 0
  3937  0004  147E               	bsf	int$flags,0	;set compiler interrupt flag (level 1)
  3938                           
  3939                           ; Regs used in _INTERRUPT_InterruptManager: [wreg-fsr1h+status,2+status,0+pclath+cstack]
  3940  0005  3180               	pagesel	$
  3941  0006                     i1l5237:
  3942                           
  3943                           ;mcc_generated_files/interrupt_manager.c: 55:     if(INTCONbits.TMR0IE == 1 && INTCONbit
      +                          s.TMR0IF == 1)
  3944  0006  1E8B               	btfss	11,5	;volatile
  3945  0007  2809               	goto	u402_21
  3946  0008  280A               	goto	u402_20
  3947  0009                     u402_21:
  3948  0009  2812               	goto	i1l661
  3949  000A                     u402_20:
  3950  000A                     i1l5239:
  3951  000A  1D0B               	btfss	11,2	;volatile
  3952  000B  280D               	goto	u403_21
  3953  000C  280E               	goto	u403_20
  3954  000D                     u403_21:
  3955  000D  2812               	goto	i1l661
  3956  000E                     u403_20:
  3957  000E                     i1l5241:
  3958                           
  3959                           ;mcc_generated_files/interrupt_manager.c: 56:     {;mcc_generated_files/interrupt_manage
      +                          r.c: 57:         TMR0_ISR();
  3960  000E  3189  2145  3180   	fcall	_TMR0_ISR
  3961                           
  3962                           ;mcc_generated_files/interrupt_manager.c: 58:     }
  3963  0011  2830               	goto	i1l669
  3964  0012                     i1l661:	
  3965                           ;mcc_generated_files/interrupt_manager.c: 59:     else if(INTCONbits.IOCIE == 1 && INTCO
      +                          Nbits.IOCIF == 1)
  3966                           
  3967  0012  1D8B               	btfss	11,3	;volatile
  3968  0013  2815               	goto	u404_21
  3969  0014  2816               	goto	u404_20
  3970  0015                     u404_21:
  3971  0015  281E               	goto	i1l663
  3972  0016                     u404_20:
  3973  0016                     i1l5243:
  3974  0016  1C0B               	btfss	11,0	;volatile
  3975  0017  2819               	goto	u405_21
  3976  0018  281A               	goto	u405_20
  3977  0019                     u405_21:
  3978  0019  281E               	goto	i1l663
  3979  001A                     u405_20:
  3980  001A                     i1l5245:
  3981                           
  3982                           ;mcc_generated_files/interrupt_manager.c: 60:     {;mcc_generated_files/interrupt_manage
      +                          r.c: 61:         PIN_MANAGER_IOC();
  3983  001A  3189  210B  3180   	fcall	_PIN_MANAGER_IOC
  3984                           
  3985                           ;mcc_generated_files/interrupt_manager.c: 62:     }
  3986  001D  2830               	goto	i1l669
  3987  001E                     i1l663:	
  3988                           ;mcc_generated_files/interrupt_manager.c: 63:     else if(INTCONbits.PEIE == 1)
  3989                           
  3990  001E  1F0B               	btfss	11,6	;volatile
  3991  001F  2821               	goto	u406_21
  3992  0020  2822               	goto	u406_20
  3993  0021                     u406_21:
  3994  0021  2830               	goto	i1l664
  3995  0022                     u406_20:
  3996  0022                     i1l5247:
  3997                           
  3998                           ;mcc_generated_files/interrupt_manager.c: 64:     {;mcc_generated_files/interrupt_manage
      +                          r.c: 65:         if(PIE2bits.USBIE == 1 && PIR2bits.USBIF == 1)
  3999  0022  0021               	movlb	1	; select bank1
  4000  0023  1D12               	btfss	18,2	;volatile
  4001  0024  2826               	goto	u407_21
  4002  0025  2827               	goto	u407_20
  4003  0026                     u407_21:
  4004  0026  2830               	goto	i1l664
  4005  0027                     u407_20:
  4006  0027                     i1l5249:
  4007  0027  0020               	movlb	0	; select bank0
  4008  0028  1D12               	btfss	18,2	;volatile
  4009  0029  282B               	goto	u408_21
  4010  002A  282C               	goto	u408_20
  4011  002B                     u408_21:
  4012  002B  2830               	goto	i1l664
  4013  002C                     u408_20:
  4014  002C                     i1l5251:
  4015                           
  4016                           ;mcc_generated_files/interrupt_manager.c: 66:         {;mcc_generated_files/interrupt_ma
      +                          nager.c: 67:             USBDeviceTasks();
  4017  002C  3181  21C7  3180   	fcall	_USBDeviceTasks
  4018                           
  4019                           ;mcc_generated_files/interrupt_manager.c: 68:         }
  4020  002F  2830               	goto	i1l669
  4021  0030                     i1l664:
  4022  0030                     i1l669:
  4023  0030  107E               	bcf	int$flags,0	;clear compiler interrupt flag (level 1)
  4024  0031  0009               	retfie
  4025  0032                     __end_of_INTERRUPT_InterruptManager:
  4026                           
  4027                           	psect	text13
  4028  01C7                     __ptext13:	
  4029 ;; *************** function _USBDeviceTasks *****************
  4030 ;; Defined at:
  4031 ;;		line 481 in file "mcc_generated_files/usb/usb_device.c"
  4032 ;; Parameters:    Size  Location     Type
  4033 ;;		None
  4034 ;; Auto vars:     Size  Location     Type
  4035 ;;  i               1    4[BANK1 ] unsigned char 
  4036 ;; Return value:  Size  Location     Type
  4037 ;;                  1    wreg      void 
  4038 ;; Registers used:
  4039 ;;		wreg, fsr0l, fsr0h, fsr1l, fsr1h, status,2, status,0, pclath, cstack
  4040 ;; Tracked objects:
  4041 ;;		On entry : 0/0
  4042 ;;		On exit  : 0/0
  4043 ;;		Unchanged: 0/0
  4044 ;; Data sizes:     COMMON   BANK0   BANK1   BANK2   BANK3   BANK4   BANK5   BANK6   BANK7   BANK8   BANK9  BANK10  BANK1
      +1  BANK12
  4045 ;;      Params:         0       0       0       0       0       0       0       0       0       0       0       0       
      +0       0
  4046 ;;      Locals:         0       0       1       0       0       0       0       0       0       0       0       0       
      +0       0
  4047 ;;      Temps:          0       0       2       0       0       0       0       0       0       0       0       0       
      +0       0
  4048 ;;      Totals:         0       0       3       0       0       0       0       0       0       0       0       0       
      +0       0
  4049 ;;Total ram usage:        3 bytes
  4050 ;; Hardware stack levels used:    1
  4051 ;; Hardware stack levels required when called:    8
  4052 ;; This function calls:
  4053 ;;		_USBCtrlEPAllowStatusStage
  4054 ;;		_USBCtrlEPService
  4055 ;;		_USBDeviceInit
  4056 ;;		_USBIncrement1msInternalTimers
  4057 ;;		_USBStallHandler
  4058 ;;		_USBSuspend
  4059 ;;		_USBWakeFromSuspend
  4060 ;;		_USER_USB_CALLBACK_EVENT_HANDLER
  4061 ;; This function is called by:
  4062 ;;		_INTERRUPT_InterruptManager
  4063 ;; This function uses a non-reentrant model
  4064 ;;
  4065                           
  4066                           
  4067                           ;psect for function _USBDeviceTasks
  4068  01C7                     _USBDeviceTasks:
  4069  01C7                     i1l5121:	
  4070                           ;incstack = 0
  4071                           ; Regs used in _USBDeviceTasks: [wreg-fsr1h+status,2+status,0+pclath+cstack]
  4072                           
  4073                           
  4074                           ;mcc_generated_files/usb/usb_device.c: 483:     uint8_t i;;mcc_generated_files/usb/usb_d
      +                          evice.c: 594:     if(USBDeviceState == ATTACHED_STATE)
  4075  01C7  0021               	movlb	1	; select bank1
  4076  01C8  0333               	decf	_USBDeviceState^(0+128),w	;volatile
  4077  01C9  1D03               	btfss	3,2
  4078  01CA  29CC               	goto	u378_21
  4079  01CB  29CD               	goto	u378_20
  4080  01CC                     u378_21:
  4081  01CC  29DA               	goto	i1l5133
  4082  01CD                     u378_20:
  4083  01CD                     i1l5123:
  4084                           
  4085                           ;mcc_generated_files/usb/usb_device.c: 595:     {;mcc_generated_files/usb/usb_device.c: 
      +                          605:         if(!UCONbits.SE0)
  4086  01CD  003D               	movlb	29	; select bank29
  4087  01CE  1A8E               	btfsc	14,5	;volatile
  4088  01CF  29D1               	goto	u379_21
  4089  01D0  29D2               	goto	u379_20
  4090  01D1                     u379_21:
  4091  01D1  29DA               	goto	i1l5133
  4092  01D2                     u379_20:
  4093  01D2                     i1l5125:
  4094                           
  4095                           ;mcc_generated_files/usb/usb_device.c: 606:         {;mcc_generated_files/usb/usb_device
      +                          .c: 612:                 {UIR = 0;};
  4096  01D2  0190               	clrf	16	;volatile
  4097  01D3                     i1l5127:
  4098                           
  4099                           ;mcc_generated_files/usb/usb_device.c: 618:             UIEbits.URSTIE = 1;
  4100  01D3  1412               	bsf	18,0	;volatile
  4101  01D4                     i1l5129:
  4102                           
  4103                           ;mcc_generated_files/usb/usb_device.c: 619:             UIEbits.IDLEIE = 1;
  4104  01D4  1612               	bsf	18,4	;volatile
  4105  01D5                     i1l5131:
  4106                           
  4107                           ;mcc_generated_files/usb/usb_device.c: 620:             USBDeviceState = POWERED_STATE;
  4108  01D5  3002               	movlw	2
  4109  01D6  0021               	movlb	1	; select bank1
  4110  01D7  00B8               	movwf	??_USBDeviceTasks^(0+128)
  4111  01D8  0838               	movf	??_USBDeviceTasks^(0+128),w
  4112  01D9  00B3               	movwf	_USBDeviceState^(0+128)	;volatile
  4113  01DA                     i1l5133:
  4114                           
  4115                           ;mcc_generated_files/usb/usb_device.c: 638:     if(UIRbits.ACTVIF && UIEbits.ACTVIE)
  4116  01DA  003D               	movlb	29	; select bank29
  4117  01DB  1D10               	btfss	16,2	;volatile
  4118  01DC  29DE               	goto	u380_21
  4119  01DD  29DF               	goto	u380_20
  4120  01DE                     u380_21:
  4121  01DE  29EC               	goto	i1l5141
  4122  01DF                     u380_20:
  4123  01DF                     i1l5135:
  4124  01DF  1D12               	btfss	18,2	;volatile
  4125  01E0  29E2               	goto	u381_21
  4126  01E1  29E3               	goto	u381_20
  4127  01E2                     u381_21:
  4128  01E2  29EC               	goto	i1l5141
  4129  01E3                     u381_20:
  4130  01E3                     i1l5137:
  4131                           
  4132                           ;mcc_generated_files/usb/usb_device.c: 639:     {;mcc_generated_files/usb/usb_device.c: 
      +                          640:         (UIR &= 0xFB);
  4133  01E3  30FB               	movlw	251
  4134  01E4  0021               	movlb	1	; select bank1
  4135  01E5  00B8               	movwf	??_USBDeviceTasks^(0+128)
  4136  01E6  0838               	movf	??_USBDeviceTasks^(0+128),w
  4137  01E7  003D               	movlb	29	; select bank29
  4138  01E8  0590               	andwf	16,f	;volatile
  4139  01E9                     i1l5139:
  4140                           
  4141                           ;mcc_generated_files/usb/usb_device.c: 644:             USBWakeFromSuspend();
  4142  01E9  3189  21D5  3181   	fcall	_USBWakeFromSuspend
  4143  01EC                     i1l5141:
  4144                           
  4145                           ;mcc_generated_files/usb/usb_device.c: 651:     if(UCONbits.SUSPND==1)
  4146  01EC  003D               	movlb	29	; select bank29
  4147  01ED  1C8E               	btfss	14,1	;volatile
  4148  01EE  29F0               	goto	u382_21
  4149  01EF  29F1               	goto	u382_20
  4150  01F0                     u382_21:
  4151  01F0  29F4               	goto	i1l300
  4152  01F1                     u382_20:
  4153  01F1                     i1l5143:
  4154                           
  4155                           ;mcc_generated_files/usb/usb_device.c: 652:     {;mcc_generated_files/usb/usb_device.c: 
      +                          653:         PIR2bits.USBIF = 0;;
  4156  01F1  0020               	movlb	0	; select bank0
  4157  01F2  1112               	bcf	18,2	;volatile
  4158                           
  4159                           ;mcc_generated_files/usb/usb_device.c: 654:         return;
  4160  01F3  2ADF               	goto	i1l301
  4161  01F4                     i1l300:	
  4162                           ;mcc_generated_files/usb/usb_device.c: 655:     }
  4163                           
  4164                           
  4165                           ;mcc_generated_files/usb/usb_device.c: 667:     if(UIRbits.URSTIF && UIEbits.URSTIE)
  4166  01F4  1C10               	btfss	16,0	;volatile
  4167  01F5  29F7               	goto	u383_21
  4168  01F6  29F8               	goto	u383_20
  4169  01F7                     u383_21:
  4170  01F7  2A0A               	goto	i1l5155
  4171  01F8                     u383_20:
  4172  01F8                     i1l5145:
  4173  01F8  1C12               	btfss	18,0	;volatile
  4174  01F9  29FB               	goto	u384_21
  4175  01FA  29FC               	goto	u384_20
  4176  01FB                     u384_21:
  4177  01FB  2A0A               	goto	i1l5155
  4178  01FC                     u384_20:
  4179  01FC                     i1l5147:
  4180                           
  4181                           ;mcc_generated_files/usb/usb_device.c: 668:     {;mcc_generated_files/usb/usb_device.c: 
      +                          669:         USBDeviceInit();
  4182  01FC  3184  2457  3181   	fcall	_USBDeviceInit
  4183  01FF                     i1l5149:
  4184                           
  4185                           ;mcc_generated_files/usb/usb_device.c: 673:         {PIE2bits.USBIE = 1;};
  4186  01FF  0021               	movlb	1	; select bank1
  4187  0200  1512               	bsf	18,2	;volatile
  4188  0201                     i1l5151:
  4189                           
  4190                           ;mcc_generated_files/usb/usb_device.c: 675:         USBDeviceState = DEFAULT_STATE;
  4191  0201  3004               	movlw	4
  4192  0202  00B8               	movwf	??_USBDeviceTasks^(0+128)
  4193  0203  0838               	movf	??_USBDeviceTasks^(0+128),w
  4194  0204  00B3               	movwf	_USBDeviceState^(0+128)	;volatile
  4195  0205                     i1l5153:
  4196                           
  4197                           ;mcc_generated_files/usb/usb_device.c: 685:         (UIR &= 0xFE);
  4198  0205  30FE               	movlw	254
  4199  0206  00B8               	movwf	??_USBDeviceTasks^(0+128)
  4200  0207  0838               	movf	??_USBDeviceTasks^(0+128),w
  4201  0208  003D               	movlb	29	; select bank29
  4202  0209  0590               	andwf	16,f	;volatile
  4203  020A                     i1l5155:
  4204                           
  4205                           ;mcc_generated_files/usb/usb_device.c: 691:     if(UIRbits.IDLEIF && UIEbits.IDLEIE)
  4206  020A  1E10               	btfss	16,4	;volatile
  4207  020B  2A0D               	goto	u385_21
  4208  020C  2A0E               	goto	u385_20
  4209  020D                     u385_21:
  4210  020D  2A15               	goto	i1l5161
  4211  020E                     u385_20:
  4212  020E                     i1l5157:
  4213  020E  1E12               	btfss	18,4	;volatile
  4214  020F  2A11               	goto	u386_21
  4215  0210  2A12               	goto	u386_20
  4216  0211                     u386_21:
  4217  0211  2A15               	goto	i1l5161
  4218  0212                     u386_20:
  4219  0212                     i1l5159:
  4220                           
  4221                           ;mcc_generated_files/usb/usb_device.c: 692:     {;mcc_generated_files/usb/usb_device.c: 
      +                          698:             USBSuspend();
  4222  0212  3189  21B5  3181   	fcall	_USBSuspend
  4223  0215                     i1l5161:
  4224                           
  4225                           ;mcc_generated_files/usb/usb_device.c: 712:     if(UIRbits.SOFIF)
  4226  0215  003D               	movlb	29	; select bank29
  4227  0216  1F10               	btfss	16,6	;volatile
  4228  0217  2A19               	goto	u387_21
  4229  0218  2A1A               	goto	u387_20
  4230  0219                     u387_21:
  4231  0219  2A47               	goto	i1l5177
  4232  021A                     u387_20:
  4233  021A                     i1l5163:
  4234                           
  4235                           ;mcc_generated_files/usb/usb_device.c: 713:     {;mcc_generated_files/usb/usb_device.c: 
      +                          715:         if(UIEbits.SOFIE)
  4236  021A  1F12               	btfss	18,6	;volatile
  4237  021B  2A1D               	goto	u388_21
  4238  021C  2A1E               	goto	u388_20
  4239  021D                     u388_21:
  4240  021D  2A2E               	goto	i1l5167
  4241  021E                     u388_20:
  4242  021E                     i1l5165:
  4243                           
  4244                           ;mcc_generated_files/usb/usb_device.c: 716:         {;mcc_generated_files/usb/usb_device
      +                          .c: 717:             USER_USB_CALLBACK_EVENT_HANDLER((USB_EVENT)EVENT_SOF,0,1);
  4245  021E  3073               	movlw	115
  4246  021F  0020               	movlb	0	; select bank0
  4247  0220  00E0               	movwf	USER_USB_CALLBACK_EVENT_HANDLER@event
  4248  0221  3000               	movlw	0
  4249  0222  00E1               	movwf	USER_USB_CALLBACK_EVENT_HANDLER@event+1
  4250  0223  3000               	movlw	0
  4251  0224  00E2               	movwf	USER_USB_CALLBACK_EVENT_HANDLER@pdata
  4252  0225  3000               	movlw	0
  4253  0226  00E3               	movwf	USER_USB_CALLBACK_EVENT_HANDLER@pdata+1
  4254  0227  3001               	movlw	1
  4255  0228  00E4               	movwf	USER_USB_CALLBACK_EVENT_HANDLER@size
  4256  0229  3000               	movlw	0
  4257  022A  00E5               	movwf	USER_USB_CALLBACK_EVENT_HANDLER@size+1
  4258  022B  3187  27CB  3181   	fcall	_USER_USB_CALLBACK_EVENT_HANDLER
  4259  022E                     i1l5167:
  4260                           
  4261                           ;mcc_generated_files/usb/usb_device.c: 719:         (UIR &= 0xBF);
  4262  022E  30BF               	movlw	191
  4263  022F  0021               	movlb	1	; select bank1
  4264  0230  00B8               	movwf	??_USBDeviceTasks^(0+128)
  4265  0231  0838               	movf	??_USBDeviceTasks^(0+128),w
  4266  0232  003D               	movlb	29	; select bank29
  4267  0233  0590               	andwf	16,f	;volatile
  4268  0234                     i1l5169:
  4269                           
  4270                           ;mcc_generated_files/usb/usb_device.c: 722:             USBIncrement1msInternalTimers();
  4271  0234  3189  2199  3181   	fcall	_USBIncrement1msInternalTimers
  4272  0237                     i1l5171:
  4273                           
  4274                           ;mcc_generated_files/usb/usb_device.c: 739:             if(USBStatusStageTimeoutCounter 
      +                          != 0u)
  4275  0237  0023               	movlb	3	; select bank3
  4276  0238  085F               	movf	_USBStatusStageTimeoutCounter^(0+384),w	;volatile
  4277  0239  1903               	btfsc	3,2
  4278  023A  2A3C               	goto	u389_21
  4279  023B  2A3D               	goto	u389_20
  4280  023C                     u389_21:
  4281  023C  2A3F               	goto	i1l306
  4282  023D                     u389_20:
  4283  023D                     i1l5173:
  4284                           
  4285                           ;mcc_generated_files/usb/usb_device.c: 740:             {;mcc_generated_files/usb/usb_de
      +                          vice.c: 741:                 USBStatusStageTimeoutCounter--;
  4286  023D  3001               	movlw	1
  4287  023E  02DF               	subwf	_USBStatusStageTimeoutCounter^(0+384),f	;volatile
  4288  023F                     i1l306:	
  4289                           ;mcc_generated_files/usb/usb_device.c: 742:             }
  4290                           
  4291                           
  4292                           ;mcc_generated_files/usb/usb_device.c: 748:             if(USBStatusStageTimeoutCounter 
      +                          == 0)
  4293  023F  085F               	movf	_USBStatusStageTimeoutCounter^(0+384),w	;volatile
  4294  0240  1D03               	btfss	3,2
  4295  0241  2A43               	goto	u390_21
  4296  0242  2A44               	goto	u390_20
  4297  0243                     u390_21:
  4298  0243  2A47               	goto	i1l5177
  4299  0244                     u390_20:
  4300  0244                     i1l5175:
  4301                           
  4302                           ;mcc_generated_files/usb/usb_device.c: 749:             {;mcc_generated_files/usb/usb_de
      +                          vice.c: 750:                 USBCtrlEPAllowStatusStage();
  4303  0244  318E  268C  3181   	fcall	_USBCtrlEPAllowStatusStage
  4304  0247                     i1l5177:
  4305                           
  4306                           ;mcc_generated_files/usb/usb_device.c: 755:     if(UIRbits.STALLIF && UIEbits.STALLIE)
  4307  0247  003D               	movlb	29	; select bank29
  4308  0248  1E90               	btfss	16,5	;volatile
  4309  0249  2A4B               	goto	u391_21
  4310  024A  2A4C               	goto	u391_20
  4311  024B                     u391_21:
  4312  024B  2A53               	goto	i1l5183
  4313  024C                     u391_20:
  4314  024C                     i1l5179:
  4315  024C  1E92               	btfss	18,5	;volatile
  4316  024D  2A4F               	goto	u392_21
  4317  024E  2A50               	goto	u392_20
  4318  024F                     u392_21:
  4319  024F  2A53               	goto	i1l5183
  4320  0250                     u392_20:
  4321  0250                     i1l5181:
  4322                           
  4323                           ;mcc_generated_files/usb/usb_device.c: 756:     {;mcc_generated_files/usb/usb_device.c: 
      +                          757:         USBStallHandler();
  4324  0250  318A  2292  3181   	fcall	_USBStallHandler
  4325  0253                     i1l5183:
  4326                           
  4327                           ;mcc_generated_files/usb/usb_device.c: 760:     if(UIRbits.UERRIF && UIEbits.UERRIE)
  4328  0253  003D               	movlb	29	; select bank29
  4329  0254  1C90               	btfss	16,1	;volatile
  4330  0255  2A57               	goto	u393_21
  4331  0256  2A58               	goto	u393_20
  4332  0257                     u393_21:
  4333  0257  2A6E               	goto	i1l5191
  4334  0258                     u393_20:
  4335  0258                     i1l5185:
  4336  0258  1C92               	btfss	18,1	;volatile
  4337  0259  2A5B               	goto	u394_21
  4338  025A  2A5C               	goto	u394_20
  4339  025B                     u394_21:
  4340  025B  2A6E               	goto	i1l5191
  4341  025C                     u394_20:
  4342  025C                     i1l5187:
  4343                           
  4344                           ;mcc_generated_files/usb/usb_device.c: 761:     {;mcc_generated_files/usb/usb_device.c: 
      +                          762:         USER_USB_CALLBACK_EVENT_HANDLER((USB_EVENT)EVENT_BUS_ERROR,0,1);
  4345  025C  30FF               	movlw	255
  4346  025D  0020               	movlb	0	; select bank0
  4347  025E  00E0               	movwf	USER_USB_CALLBACK_EVENT_HANDLER@event
  4348  025F  307F               	movlw	127
  4349  0260  00E1               	movwf	USER_USB_CALLBACK_EVENT_HANDLER@event+1
  4350  0261  3000               	movlw	0
  4351  0262  00E2               	movwf	USER_USB_CALLBACK_EVENT_HANDLER@pdata
  4352  0263  3000               	movlw	0
  4353  0264  00E3               	movwf	USER_USB_CALLBACK_EVENT_HANDLER@pdata+1
  4354  0265  3001               	movlw	1
  4355  0266  00E4               	movwf	USER_USB_CALLBACK_EVENT_HANDLER@size
  4356  0267  3000               	movlw	0
  4357  0268  00E5               	movwf	USER_USB_CALLBACK_EVENT_HANDLER@size+1
  4358  0269  3187  27CB  3181   	fcall	_USER_USB_CALLBACK_EVENT_HANDLER
  4359  026C                     i1l5189:
  4360                           
  4361                           ;mcc_generated_files/usb/usb_device.c: 763:         {UEIR = 0;};
  4362  026C  003D               	movlb	29	; select bank29
  4363  026D  0193               	clrf	19	;volatile
  4364  026E                     i1l5191:
  4365                           
  4366                           ;mcc_generated_files/usb/usb_device.c: 778:     if(USBDeviceState < DEFAULT_STATE)
  4367  026E  3004               	movlw	4
  4368  026F  0021               	movlb	1	; select bank1
  4369  0270  0233               	subwf	_USBDeviceState^(0+128),w	;volatile
  4370  0271  1803               	skipnc
  4371  0272  2A74               	goto	u395_21
  4372  0273  2A75               	goto	u395_20
  4373  0274                     u395_21:
  4374  0274  2A78               	goto	i1l310
  4375  0275                     u395_20:
  4376  0275                     i1l5193:
  4377                           
  4378                           ;mcc_generated_files/usb/usb_device.c: 779:     {;mcc_generated_files/usb/usb_device.c: 
      +                          780:         PIR2bits.USBIF = 0;;
  4379  0275  0020               	movlb	0	; select bank0
  4380  0276  1112               	bcf	18,2	;volatile
  4381                           
  4382                           ;mcc_generated_files/usb/usb_device.c: 781:         return;
  4383  0277  2ADF               	goto	i1l301
  4384  0278                     i1l310:	
  4385                           ;mcc_generated_files/usb/usb_device.c: 782:     }
  4386                           
  4387                           
  4388                           ;mcc_generated_files/usb/usb_device.c: 787:     if(UIEbits.TRNIE)
  4389  0278  003D               	movlb	29	; select bank29
  4390  0279  1D92               	btfss	18,3	;volatile
  4391  027A  2A7C               	goto	u396_21
  4392  027B  2A7D               	goto	u396_20
  4393  027C                     u396_21:
  4394  027C  2ADD               	goto	i1l311
  4395  027D                     u396_20:
  4396  027D                     i1l5195:
  4397                           
  4398                           ;mcc_generated_files/usb/usb_device.c: 788:     {;mcc_generated_files/usb/usb_device.c: 
      +                          789:         for(i = 0; i < 4u; i++)
  4399  027D  0021               	movlb	1	; select bank1
  4400  027E  01BA               	clrf	USBDeviceTasks@i^(0+128)
  4401  027F                     i1l312:
  4402                           
  4403                           ;mcc_generated_files/usb/usb_device.c: 790:         {;mcc_generated_files/usb/usb_device
      +                          .c: 791:             if(UIRbits.TRNIF)
  4404  027F  003D               	movlb	29	; select bank29
  4405  0280  1D90               	btfss	16,3	;volatile
  4406  0281  2A83               	goto	u397_21
  4407  0282  2A84               	goto	u397_20
  4408  0283                     u397_21:
  4409  0283  2ADD               	goto	i1l311
  4410  0284                     u397_20:
  4411  0284                     i1l5201:
  4412                           
  4413                           ;mcc_generated_files/usb/usb_device.c: 792:             {;mcc_generated_files/usb/usb_de
      +                          vice.c: 794:                 USTATcopy.Val = USTAT;
  4414  0284  080F               	movf	15,w	;volatile
  4415  0285  0021               	movlb	1	; select bank1
  4416  0286  00B8               	movwf	??_USBDeviceTasks^(0+128)
  4417  0287  0838               	movf	??_USBDeviceTasks^(0+128),w
  4418  0288  00B4               	movwf	_USTATcopy^(0+128)	;volatile
  4419  0289                     i1l5203:
  4420                           
  4421                           ;mcc_generated_files/usb/usb_device.c: 795:                 endpoint_number = USTATcopy.
      +                          endpoint_number;
  4422  0289  0C34               	rrf	_USTATcopy^(0+128),w	;volatile
  4423  028A  00B8               	movwf	??_USBDeviceTasks^(0+128)
  4424  028B  0CB8               	rrf	??_USBDeviceTasks^(0+128),f
  4425  028C  0C38               	rrf	??_USBDeviceTasks^(0+128),w
  4426  028D  390F               	andlw	15
  4427  028E  00B9               	movwf	(??_USBDeviceTasks+1)^(0+128)
  4428  028F  0839               	movf	(??_USBDeviceTasks+1)^(0+128),w
  4429  0290  00AF               	movwf	_endpoint_number^(0+128)	;volatile
  4430  0291                     i1l5205:
  4431                           
  4432                           ;mcc_generated_files/usb/usb_device.c: 797:                 (UIR &= 0xF7);
  4433  0291  30F7               	movlw	247
  4434  0292  00B8               	movwf	??_USBDeviceTasks^(0+128)
  4435  0293  0838               	movf	??_USBDeviceTasks^(0+128),w
  4436  0294  003D               	movlb	29	; select bank29
  4437  0295  0590               	andwf	16,f	;volatile
  4438  0296                     i1l5207:
  4439                           
  4440                           ;mcc_generated_files/usb/usb_device.c: 802:                 if(USTATcopy.direction == 0)
  4441  0296  0021               	movlb	1	; select bank1
  4442  0297  1934               	btfsc	_USTATcopy^(0+128),2	;volatile
  4443  0298  2A9A               	goto	u398_21
  4444  0299  2A9B               	goto	u398_20
  4445  029A                     u398_21:
  4446  029A  2AAB               	goto	i1l5211
  4447  029B                     u398_20:
  4448  029B                     i1l5209:
  4449                           
  4450                           ;mcc_generated_files/usb/usb_device.c: 803:                 {;mcc_generated_files/usb/us
      +                          b_device.c: 804:                     ep_data_out[endpoint_number].bits.ping_pong_state ^
      +                          = 1;
  4451  029B  082F               	movf	_endpoint_number^(0+128),w	;volatile
  4452  029C  3EC1               	addlw	(low (_ep_data_out| (0+256)))& (0+255)
  4453  029D  0086               	movwf	6
  4454  029E  3001               	movlw	1	; select bank3/4
  4455  029F  0087               	movwf	7
  4456  02A0  0801               	movf	1,w
  4457  02A1  3901               	andlw	1
  4458  02A2  00B8               	movwf	??_USBDeviceTasks^(0+128)
  4459  02A3  3001               	movlw	1
  4460  02A4  06B8               	xorwf	??_USBDeviceTasks^(0+128),f
  4461  02A5  0801               	movf	1,w
  4462  02A6  0638               	xorwf	??_USBDeviceTasks^(0+128),w
  4463  02A7  39FE               	andlw	-2
  4464  02A8  0638               	xorwf	??_USBDeviceTasks^(0+128),w
  4465  02A9  0081               	movwf	1
  4466                           
  4467                           ;mcc_generated_files/usb/usb_device.c: 805:                 }
  4468  02AA  2ABA               	goto	i1l5213
  4469  02AB                     i1l5211:
  4470                           
  4471                           ;mcc_generated_files/usb/usb_device.c: 807:                 {;mcc_generated_files/usb/us
      +                          b_device.c: 808:                     ep_data_in[endpoint_number].bits.ping_pong_state ^=
      +                           1;
  4472  02AB  082F               	movf	_endpoint_number^(0+128),w	;volatile
  4473  02AC  3EC4               	addlw	(low (_ep_data_in| (0+256)))& (0+255)
  4474  02AD  0086               	movwf	6
  4475  02AE  3001               	movlw	1	; select bank3/4
  4476  02AF  0087               	movwf	7
  4477  02B0  0801               	movf	1,w
  4478  02B1  3901               	andlw	1
  4479  02B2  00B8               	movwf	??_USBDeviceTasks^(0+128)
  4480  02B3  3001               	movlw	1
  4481  02B4  06B8               	xorwf	??_USBDeviceTasks^(0+128),f
  4482  02B5  0801               	movf	1,w
  4483  02B6  0638               	xorwf	??_USBDeviceTasks^(0+128),w
  4484  02B7  39FE               	andlw	-2
  4485  02B8  0638               	xorwf	??_USBDeviceTasks^(0+128),w
  4486  02B9  0081               	movwf	1
  4487  02BA                     i1l5213:
  4488                           
  4489                           ;mcc_generated_files/usb/usb_device.c: 814:                 if(endpoint_number == 0)
  4490  02BA  082F               	movf	_endpoint_number^(0+128),w	;volatile
  4491  02BB  1D03               	btfss	3,2
  4492  02BC  2ABE               	goto	u399_21
  4493  02BD  2ABF               	goto	u399_20
  4494  02BE                     u399_21:
  4495  02BE  2AC3               	goto	i1l5217
  4496  02BF                     u399_20:
  4497  02BF                     i1l5215:
  4498                           
  4499                           ;mcc_generated_files/usb/usb_device.c: 815:                 {;mcc_generated_files/usb/us
      +                          b_device.c: 816:                     USBCtrlEPService();
  4500  02BF  318D  2500  3181   	fcall	_USBCtrlEPService
  4501                           
  4502                           ;mcc_generated_files/usb/usb_device.c: 817:                 }
  4503  02C2  2AD2               	goto	i1l5219
  4504  02C3                     i1l5217:
  4505                           
  4506                           ;mcc_generated_files/usb/usb_device.c: 819:                 {;mcc_generated_files/usb/us
      +                          b_device.c: 820:                     USER_USB_CALLBACK_EVENT_HANDLER((USB_EVENT)EVENT_TR
      +                          ANSFER,(uint8_t*)&USTATcopy.Val,0);
  4507  02C3  3072               	movlw	114
  4508  02C4  0020               	movlb	0	; select bank0
  4509  02C5  00E0               	movwf	USER_USB_CALLBACK_EVENT_HANDLER@event
  4510  02C6  3000               	movlw	0
  4511  02C7  00E1               	movwf	USER_USB_CALLBACK_EVENT_HANDLER@event+1
  4512  02C8  30B4               	movlw	low _USTATcopy
  4513  02C9  00E2               	movwf	USER_USB_CALLBACK_EVENT_HANDLER@pdata
  4514  02CA  3000               	movlw	high _USTATcopy
  4515  02CB  00E3               	movwf	USER_USB_CALLBACK_EVENT_HANDLER@pdata+1
  4516  02CC  3000               	movlw	0
  4517  02CD  00E4               	movwf	USER_USB_CALLBACK_EVENT_HANDLER@size
  4518  02CE  00E5               	movwf	USER_USB_CALLBACK_EVENT_HANDLER@size+1
  4519  02CF  3187  27CB  3181   	fcall	_USER_USB_CALLBACK_EVENT_HANDLER
  4520  02D2                     i1l5219:
  4521                           
  4522                           ;mcc_generated_files/usb/usb_device.c: 827:         }
  4523  02D2  3001               	movlw	1
  4524  02D3  0021               	movlb	1	; select bank1
  4525  02D4  00B8               	movwf	??_USBDeviceTasks^(0+128)
  4526  02D5  0838               	movf	??_USBDeviceTasks^(0+128),w
  4527  02D6  07BA               	addwf	USBDeviceTasks@i^(0+128),f
  4528  02D7                     i1l5221:
  4529  02D7  3004               	movlw	4
  4530  02D8  023A               	subwf	USBDeviceTasks@i^(0+128),w
  4531  02D9  1C03               	skipc
  4532  02DA  2ADC               	goto	u400_21
  4533  02DB  2ADD               	goto	u400_20
  4534  02DC                     u400_21:
  4535  02DC  2A7F               	goto	i1l312
  4536  02DD                     u400_20:
  4537  02DD                     i1l311:	
  4538                           ;mcc_generated_files/usb/usb_device.c: 828:     }
  4539                           
  4540                           
  4541                           ;mcc_generated_files/usb/usb_device.c: 830:     PIR2bits.USBIF = 0;;
  4542  02DD  0020               	movlb	0	; select bank0
  4543  02DE  1112               	bcf	18,2	;volatile
  4544  02DF                     i1l301:
  4545  02DF  0008               	return
  4546  02E0                     __end_of_USBDeviceTasks:
  4547                           
  4548                           	psect	text14
  4549  09D5                     __ptext14:	
  4550 ;; *************** function _USBWakeFromSuspend *****************
  4551 ;; Defined at:
  4552 ;;		line 2307 in file "mcc_generated_files/usb/usb_device.c"
  4553 ;; Parameters:    Size  Location     Type
  4554 ;;		None
  4555 ;; Auto vars:     Size  Location     Type
  4556 ;;		None
  4557 ;; Return value:  Size  Location     Type
  4558 ;;                  1    wreg      void 
  4559 ;; Registers used:
  4560 ;;		wreg, fsr0l, fsr0h, fsr1l, fsr1h, status,2, status,0, pclath, cstack
  4561 ;; Tracked objects:
  4562 ;;		On entry : 0/0
  4563 ;;		On exit  : 0/0
  4564 ;;		Unchanged: 0/0
  4565 ;; Data sizes:     COMMON   BANK0   BANK1   BANK2   BANK3   BANK4   BANK5   BANK6   BANK7   BANK8   BANK9  BANK10  BANK1
      +1  BANK12
  4566 ;;      Params:         0       0       0       0       0       0       0       0       0       0       0       0       
      +0       0
  4567 ;;      Locals:         0       0       0       0       0       0       0       0       0       0       0       0       
      +0       0
  4568 ;;      Temps:          0       1       0       0       0       0       0       0       0       0       0       0       
      +0       0
  4569 ;;      Totals:         0       1       0       0       0       0       0       0       0       0       0       0       
      +0       0
  4570 ;;Total ram usage:        1 bytes
  4571 ;; Hardware stack levels used:    1
  4572 ;; Hardware stack levels required when called:    4
  4573 ;; This function calls:
  4574 ;;		_USER_USB_CALLBACK_EVENT_HANDLER
  4575 ;; This function is called by:
  4576 ;;		_USBDeviceTasks
  4577 ;; This function uses a non-reentrant model
  4578 ;;
  4579                           
  4580                           
  4581                           ;psect for function _USBWakeFromSuspend
  4582  09D5                     _USBWakeFromSuspend:
  4583  09D5                     i1l4009:	
  4584                           ;incstack = 0
  4585                           ; Regs used in _USBWakeFromSuspend: [wreg-fsr1h+status,2+status,0+pclath+cstack]
  4586                           
  4587                           
  4588                           ;mcc_generated_files/usb/usb_device.c: 2309:     USBBusIsSuspended = 0;
  4589  09D5  0023               	movlb	3	; select bank3
  4590  09D6  01E1               	clrf	_USBBusIsSuspended^(0+384)	;volatile
  4591  09D7                     i1l4011:
  4592                           
  4593                           ;mcc_generated_files/usb/usb_device.c: 2315:     USER_USB_CALLBACK_EVENT_HANDLER((USB_EV
      +                          ENT)EVENT_RESUME,0,0);
  4594  09D7  3074               	movlw	116
  4595  09D8  0020               	movlb	0	; select bank0
  4596  09D9  00E0               	movwf	USER_USB_CALLBACK_EVENT_HANDLER@event
  4597  09DA  3000               	movlw	0
  4598  09DB  00E1               	movwf	USER_USB_CALLBACK_EVENT_HANDLER@event+1
  4599  09DC  3000               	movlw	0
  4600  09DD  00E2               	movwf	USER_USB_CALLBACK_EVENT_HANDLER@pdata
  4601  09DE  3000               	movlw	0
  4602  09DF  00E3               	movwf	USER_USB_CALLBACK_EVENT_HANDLER@pdata+1
  4603  09E0  3000               	movlw	0
  4604  09E1  00E4               	movwf	USER_USB_CALLBACK_EVENT_HANDLER@size
  4605  09E2  00E5               	movwf	USER_USB_CALLBACK_EVENT_HANDLER@size+1
  4606  09E3  3187  27CB  3189   	fcall	_USER_USB_CALLBACK_EVENT_HANDLER
  4607  09E6                     i1l4013:
  4608                           
  4609                           ;mcc_generated_files/usb/usb_device.c: 2322:         UCONbits.SUSPND = 0;
  4610  09E6  003D               	movlb	29	; select bank29
  4611  09E7  108E               	bcf	14,1	;volatile
  4612  09E8                     i1l4015:
  4613                           
  4614                           ;mcc_generated_files/usb/usb_device.c: 2327:     UIEbits.ACTVIE = 0;
  4615  09E8  1112               	bcf	18,2	;volatile
  4616                           
  4617                           ;mcc_generated_files/usb/usb_device.c: 2345:     while(UIRbits.ACTVIF)
  4618  09E9  29F0               	goto	i1l4019
  4619  09EA                     i1l4017:
  4620                           
  4621                           ;mcc_generated_files/usb/usb_device.c: 2347:     {;mcc_generated_files/usb/usb_device.c:
      +                           2348:         (UIR &= 0xFB);
  4622  09EA  30FB               	movlw	251
  4623  09EB  0020               	movlb	0	; select bank0
  4624  09EC  00E6               	movwf	??_USBWakeFromSuspend
  4625  09ED  0866               	movf	??_USBWakeFromSuspend,w
  4626  09EE  003D               	movlb	29	; select bank29
  4627  09EF  0590               	andwf	16,f	;volatile
  4628  09F0                     i1l4019:
  4629                           
  4630                           ;mcc_generated_files/usb/usb_device.c: 2345:     while(UIRbits.ACTVIF)
  4631  09F0  1910               	btfsc	16,2	;volatile
  4632  09F1  29F3               	goto	u271_21
  4633  09F2  29F4               	goto	u271_20
  4634  09F3                     u271_21:
  4635  09F3  29EA               	goto	i1l4017
  4636  09F4                     u271_20:
  4637  09F4                     i1l4021:
  4638                           
  4639                           ;mcc_generated_files/usb/usb_device.c: 2351:     USBTicksSinceSuspendEnd = 0;
  4640  09F4  0023               	movlb	3	; select bank3
  4641  09F5  01DA               	clrf	_USBTicksSinceSuspendEnd^(0+384)	;volatile
  4642  09F6                     i1l463:
  4643  09F6  0008               	return
  4644  09F7                     __end_of_USBWakeFromSuspend:
  4645                           
  4646                           	psect	text15
  4647  09B5                     __ptext15:	
  4648 ;; *************** function _USBSuspend *****************
  4649 ;; Defined at:
  4650 ;;		line 2249 in file "mcc_generated_files/usb/usb_device.c"
  4651 ;; Parameters:    Size  Location     Type
  4652 ;;		None
  4653 ;; Auto vars:     Size  Location     Type
  4654 ;;		None
  4655 ;; Return value:  Size  Location     Type
  4656 ;;                  1    wreg      void 
  4657 ;; Registers used:
  4658 ;;		wreg, fsr0l, fsr0h, fsr1l, fsr1h, status,2, status,0, pclath, cstack
  4659 ;; Tracked objects:
  4660 ;;		On entry : 0/0
  4661 ;;		On exit  : 0/0
  4662 ;;		Unchanged: 0/0
  4663 ;; Data sizes:     COMMON   BANK0   BANK1   BANK2   BANK3   BANK4   BANK5   BANK6   BANK7   BANK8   BANK9  BANK10  BANK1
      +1  BANK12
  4664 ;;      Params:         0       0       0       0       0       0       0       0       0       0       0       0       
      +0       0
  4665 ;;      Locals:         0       0       0       0       0       0       0       0       0       0       0       0       
      +0       0
  4666 ;;      Temps:          0       1       0       0       0       0       0       0       0       0       0       0       
      +0       0
  4667 ;;      Totals:         0       1       0       0       0       0       0       0       0       0       0       0       
      +0       0
  4668 ;;Total ram usage:        1 bytes
  4669 ;; Hardware stack levels used:    1
  4670 ;; Hardware stack levels required when called:    4
  4671 ;; This function calls:
  4672 ;;		_USER_USB_CALLBACK_EVENT_HANDLER
  4673 ;; This function is called by:
  4674 ;;		_USBDeviceTasks
  4675 ;; This function uses a non-reentrant model
  4676 ;;
  4677                           
  4678                           
  4679                           ;psect for function _USBSuspend
  4680  09B5                     _USBSuspend:
  4681  09B5                     i1l4023:	
  4682                           ;incstack = 0
  4683                           ; Regs used in _USBSuspend: [wreg-fsr1h+status,2+status,0+pclath+cstack]
  4684                           
  4685                           
  4686                           ;mcc_generated_files/usb/usb_device.c: 2274:     UIEbits.ACTVIE = 1;
  4687  09B5  003D               	movlb	29	; select bank29
  4688  09B6  1512               	bsf	18,2	;volatile
  4689  09B7                     i1l4025:
  4690                           
  4691                           ;mcc_generated_files/usb/usb_device.c: 2275:     (UIR &= 0xEF);
  4692  09B7  30EF               	movlw	239
  4693  09B8  0020               	movlb	0	; select bank0
  4694  09B9  00E6               	movwf	??_USBSuspend
  4695  09BA  0866               	movf	??_USBSuspend,w
  4696  09BB  003D               	movlb	29	; select bank29
  4697  09BC  0590               	andwf	16,f	;volatile
  4698  09BD                     i1l4027:
  4699                           
  4700                           ;mcc_generated_files/usb/usb_device.c: 2278:         UCONbits.SUSPND = 1;
  4701  09BD  148E               	bsf	14,1	;volatile
  4702  09BE                     i1l4029:
  4703                           
  4704                           ;mcc_generated_files/usb/usb_device.c: 2281:     USBBusIsSuspended = 1;
  4705  09BE  3001               	movlw	1
  4706  09BF  0020               	movlb	0	; select bank0
  4707  09C0  00E6               	movwf	??_USBSuspend
  4708  09C1  0866               	movf	??_USBSuspend,w
  4709  09C2  0023               	movlb	3	; select bank3
  4710  09C3  00E1               	movwf	_USBBusIsSuspended^(0+384)	;volatile
  4711  09C4                     i1l4031:
  4712                           
  4713                           ;mcc_generated_files/usb/usb_device.c: 2282:     USBTicksSinceSuspendEnd = 0;
  4714  09C4  01DA               	clrf	_USBTicksSinceSuspendEnd^(0+384)	;volatile
  4715  09C5                     i1l4033:
  4716                           
  4717                           ;mcc_generated_files/usb/usb_device.c: 2289:     USER_USB_CALLBACK_EVENT_HANDLER((USB_EV
      +                          ENT)EVENT_SUSPEND,0,0);
  4718  09C5  3075               	movlw	117
  4719  09C6  0020               	movlb	0	; select bank0
  4720  09C7  00E0               	movwf	USER_USB_CALLBACK_EVENT_HANDLER@event
  4721  09C8  3000               	movlw	0
  4722  09C9  00E1               	movwf	USER_USB_CALLBACK_EVENT_HANDLER@event+1
  4723  09CA  3000               	movlw	0
  4724  09CB  00E2               	movwf	USER_USB_CALLBACK_EVENT_HANDLER@pdata
  4725  09CC  3000               	movlw	0
  4726  09CD  00E3               	movwf	USER_USB_CALLBACK_EVENT_HANDLER@pdata+1
  4727  09CE  3000               	movlw	0
  4728  09CF  00E4               	movwf	USER_USB_CALLBACK_EVENT_HANDLER@size
  4729  09D0  00E5               	movwf	USER_USB_CALLBACK_EVENT_HANDLER@size+1
  4730  09D1  3187  27CB  3189   	fcall	_USER_USB_CALLBACK_EVENT_HANDLER
  4731  09D4                     i1l457:
  4732  09D4  0008               	return
  4733  09D5                     __end_of_USBSuspend:
  4734                           
  4735                           	psect	text16
  4736  0A92                     __ptext16:	
  4737 ;; *************** function _USBStallHandler *****************
  4738 ;; Defined at:
  4739 ;;		line 2206 in file "mcc_generated_files/usb/usb_device.c"
  4740 ;; Parameters:    Size  Location     Type
  4741 ;;		None
  4742 ;; Auto vars:     Size  Location     Type
  4743 ;;		None
  4744 ;; Return value:  Size  Location     Type
  4745 ;;                  1    wreg      void 
  4746 ;; Registers used:
  4747 ;;		wreg, fsr1l, fsr1h, status,2, status,0
  4748 ;; Tracked objects:
  4749 ;;		On entry : 0/0
  4750 ;;		On exit  : 0/0
  4751 ;;		Unchanged: 0/0
  4752 ;; Data sizes:     COMMON   BANK0   BANK1   BANK2   BANK3   BANK4   BANK5   BANK6   BANK7   BANK8   BANK9  BANK10  BANK1
      +1  BANK12
  4753 ;;      Params:         0       0       0       0       0       0       0       0       0       0       0       0       
      +0       0
  4754 ;;      Locals:         0       0       0       0       0       0       0       0       0       0       0       0       
      +0       0
  4755 ;;      Temps:          1       0       0       0       0       0       0       0       0       0       0       0       
      +0       0
  4756 ;;      Totals:         1       0       0       0       0       0       0       0       0       0       0       0       
      +0       0
  4757 ;;Total ram usage:        1 bytes
  4758 ;; Hardware stack levels used:    1
  4759 ;; This function calls:
  4760 ;;		Nothing
  4761 ;; This function is called by:
  4762 ;;		_USBDeviceTasks
  4763 ;; This function uses a non-reentrant model
  4764 ;;
  4765                           
  4766                           
  4767                           ;psect for function _USBStallHandler
  4768  0A92                     _USBStallHandler:
  4769  0A92                     i1l4043:	
  4770                           ;incstack = 0
  4771                           ; Regs used in _USBStallHandler: [wreg+fsr1l+fsr1h+status,2+status,0]
  4772                           
  4773                           
  4774                           ;mcc_generated_files/usb/usb_device.c: 2218:     if(UEP0bits.EPSTALL == 1)
  4775  0A92  003D               	movlb	29	; select bank29
  4776  0A93  1C18               	btfss	24,0	;volatile
  4777  0A94  2A96               	goto	u274_21
  4778  0A95  2A97               	goto	u274_20
  4779  0A96                     u274_21:
  4780  0A96  2AB8               	goto	i1l4053
  4781  0A97                     u274_20:
  4782  0A97                     i1l4045:
  4783                           
  4784                           ;mcc_generated_files/usb/usb_device.c: 2219:     {;mcc_generated_files/usb/usb_device.c:
      +                           2221:         if((pBDTEntryEP0OutCurrent->STAT.Val == 0x80) && (pBDTEntryIn[0]->STAT.Va
      +                          l == (0x80|0x04)))
  4785  0A97  0021               	movlb	1	; select bank1
  4786  0A98  0832               	movf	_pBDTEntryEP0OutCurrent^(0+128),w
  4787  0A99  0086               	movwf	6
  4788  0A9A  0187               	clrf	7
  4789  0A9B  3080               	movlw	128
  4790  0A9C  0601               	xorwf	1,w
  4791  0A9D  1D03               	btfss	3,2
  4792  0A9E  2AA0               	goto	u275_21
  4793  0A9F  2AA1               	goto	u275_20
  4794  0AA0                     u275_21:
  4795  0AA0  2AB6               	goto	i1l4051
  4796  0AA1                     u275_20:
  4797  0AA1                     i1l4047:
  4798  0AA1  0820               	movf	_pBDTEntryIn^(0+128),w
  4799  0AA2  0086               	movwf	6
  4800  0AA3  0821               	movf	(_pBDTEntryIn+1)^(0+128),w
  4801  0AA4  0087               	movwf	7
  4802  0AA5  3084               	movlw	132
  4803  0AA6  0601               	xorwf	1,w
  4804  0AA7  1D03               	btfss	3,2
  4805  0AA8  2AAA               	goto	u276_21
  4806  0AA9  2AAB               	goto	u276_20
  4807  0AAA                     u276_21:
  4808  0AAA  2AB6               	goto	i1l4051
  4809  0AAB                     u276_20:
  4810  0AAB                     i1l4049:
  4811                           
  4812                           ;mcc_generated_files/usb/usb_device.c: 2222:         {;mcc_generated_files/usb/usb_devic
      +                          e.c: 2224:             pBDTEntryEP0OutCurrent->STAT.Val = 0x00|(0x08 & 0x08)|0x04;
  4813  0AAB  300C               	movlw	12
  4814  0AAC  00F0               	movwf	??_USBStallHandler
  4815  0AAD  0832               	movf	_pBDTEntryEP0OutCurrent^(0+128),w
  4816  0AAE  0086               	movwf	6
  4817  0AAF  0187               	clrf	7
  4818  0AB0  0870               	movf	??_USBStallHandler,w
  4819  0AB1  0081               	movwf	1
  4820                           
  4821                           ;mcc_generated_files/usb/usb_device.c: 2225:             pBDTEntryEP0OutCurrent->STAT.Va
      +                          l |= 0x80;
  4822  0AB2  0832               	movf	_pBDTEntryEP0OutCurrent^(0+128),w
  4823  0AB3  0086               	movwf	6
  4824  0AB4  0187               	clrf	7
  4825  0AB5  1781               	bsf	1,7
  4826  0AB6                     i1l4051:
  4827                           
  4828                           ;mcc_generated_files/usb/usb_device.c: 2227:         UEP0bits.EPSTALL = 0;
  4829  0AB6  003D               	movlb	29	; select bank29
  4830  0AB7  1018               	bcf	24,0	;volatile
  4831  0AB8                     i1l4053:
  4832                           
  4833                           ;mcc_generated_files/usb/usb_device.c: 2230:     (UIR &= 0xDF);
  4834  0AB8  30DF               	movlw	223
  4835  0AB9  00F0               	movwf	??_USBStallHandler
  4836  0ABA  0870               	movf	??_USBStallHandler,w
  4837  0ABB  0590               	andwf	16,f	;volatile
  4838  0ABC                     i1l454:
  4839  0ABC  0008               	return
  4840  0ABD                     __end_of_USBStallHandler:
  4841                           
  4842                           	psect	text17
  4843  0999                     __ptext17:	
  4844 ;; *************** function _USBIncrement1msInternalTimers *****************
  4845 ;; Defined at:
  4846 ;;		line 3029 in file "mcc_generated_files/usb/usb_device.c"
  4847 ;; Parameters:    Size  Location     Type
  4848 ;;		None
  4849 ;; Auto vars:     Size  Location     Type
  4850 ;;		None
  4851 ;; Return value:  Size  Location     Type
  4852 ;;                  1    wreg      void 
  4853 ;; Registers used:
  4854 ;;		wreg, status,2, status,0
  4855 ;; Tracked objects:
  4856 ;;		On entry : 0/0
  4857 ;;		On exit  : 0/0
  4858 ;;		Unchanged: 0/0
  4859 ;; Data sizes:     COMMON   BANK0   BANK1   BANK2   BANK3   BANK4   BANK5   BANK6   BANK7   BANK8   BANK9  BANK10  BANK1
      +1  BANK12
  4860 ;;      Params:         0       0       0       0       0       0       0       0       0       0       0       0       
      +0       0
  4861 ;;      Locals:         0       0       0       0       0       0       0       0       0       0       0       0       
      +0       0
  4862 ;;      Temps:          1       0       0       0       0       0       0       0       0       0       0       0       
      +0       0
  4863 ;;      Totals:         1       0       0       0       0       0       0       0       0       0       0       0       
      +0       0
  4864 ;;Total ram usage:        1 bytes
  4865 ;; Hardware stack levels used:    1
  4866 ;; This function calls:
  4867 ;;		Nothing
  4868 ;; This function is called by:
  4869 ;;		_USBDeviceTasks
  4870 ;; This function uses a non-reentrant model
  4871 ;;
  4872                           
  4873                           
  4874                           ;psect for function _USBIncrement1msInternalTimers
  4875  0999                     _USBIncrement1msInternalTimers:
  4876  0999                     i1l4035:	
  4877                           ;incstack = 0
  4878                           ; Regs used in _USBIncrement1msInternalTimers: [wreg+status,2+status,0]
  4879                           
  4880                           
  4881                           ;mcc_generated_files/usb/usb_device.c: 3037:     USB1msTickCount++;
  4882  0999  3001               	movlw	1
  4883  099A  0023               	movlb	3	; select bank3
  4884  099B  07BD               	addwf	_USB1msTickCount^(0+384),f	;volatile
  4885  099C  3000               	movlw	0
  4886  099D  3DBE               	addwfc	(_USB1msTickCount+1)^(0+384),f	;volatile
  4887  099E  3000               	movlw	0
  4888  099F  3DBF               	addwfc	(_USB1msTickCount+2)^(0+384),f	;volatile
  4889  09A0  3000               	movlw	0
  4890  09A1  3DC0               	addwfc	(_USB1msTickCount+3)^(0+384),f	;volatile
  4891  09A2                     i1l4037:
  4892                           
  4893                           ;mcc_generated_files/usb/usb_device.c: 3038:     if(USBBusIsSuspended == 0)
  4894  09A2  0861               	movf	_USBBusIsSuspended^(0+384),w	;volatile
  4895  09A3  1D03               	btfss	3,2
  4896  09A4  29A6               	goto	u272_21
  4897  09A5  29A7               	goto	u272_20
  4898  09A6                     u272_21:
  4899  09A6  29B4               	goto	i1l544
  4900  09A7                     u272_20:
  4901  09A7                     i1l4039:
  4902                           
  4903                           ;mcc_generated_files/usb/usb_device.c: 3039:     {;mcc_generated_files/usb/usb_device.c:
      +                           3040:         USBTicksSinceSuspendEnd++;
  4904  09A7  3001               	movlw	1
  4905  09A8  00F0               	movwf	??_USBIncrement1msInternalTimers
  4906  09A9  0870               	movf	??_USBIncrement1msInternalTimers,w
  4907  09AA  07DA               	addwf	_USBTicksSinceSuspendEnd^(0+384),f	;volatile
  4908                           
  4909                           ;mcc_generated_files/usb/usb_device.c: 3042:         if(USBTicksSinceSuspendEnd == 0)
  4910  09AB  085A               	movf	_USBTicksSinceSuspendEnd^(0+384),w	;volatile
  4911  09AC  1D03               	btfss	3,2
  4912  09AD  29AF               	goto	u273_21
  4913  09AE  29B0               	goto	u273_20
  4914  09AF                     u273_21:
  4915  09AF  29B4               	goto	i1l544
  4916  09B0                     u273_20:
  4917  09B0                     i1l4041:
  4918                           
  4919                           ;mcc_generated_files/usb/usb_device.c: 3043:         {;mcc_generated_files/usb/usb_devic
      +                          e.c: 3044:             USBTicksSinceSuspendEnd = 255;
  4920  09B0  30FF               	movlw	255
  4921  09B1  00F0               	movwf	??_USBIncrement1msInternalTimers
  4922  09B2  0870               	movf	??_USBIncrement1msInternalTimers,w
  4923  09B3  00DA               	movwf	_USBTicksSinceSuspendEnd^(0+384)	;volatile
  4924  09B4                     i1l544:
  4925  09B4  0008               	return
  4926  09B5                     __end_of_USBIncrement1msInternalTimers:
  4927                           
  4928                           	psect	text18
  4929  0457                     __ptext18:	
  4930 ;; *************** function _USBDeviceInit *****************
  4931 ;; Defined at:
  4932 ;;		line 281 in file "mcc_generated_files/usb/usb_device.c"
  4933 ;; Parameters:    Size  Location     Type
  4934 ;;		None
  4935 ;; Auto vars:     Size  Location     Type
  4936 ;;  p               2    1[COMMON] PTR unsigned char 
  4937 ;;		 -> UEP1(1), 
  4938 ;;  i               1    3[COMMON] unsigned char 
  4939 ;;  i               1    4[COMMON] unsigned char 
  4940 ;; Return value:  Size  Location     Type
  4941 ;;                  1    wreg      void 
  4942 ;; Registers used:
  4943 ;;		wreg, fsr1l, fsr1h, status,2, status,0
  4944 ;; Tracked objects:
  4945 ;;		On entry : 0/0
  4946 ;;		On exit  : 0/0
  4947 ;;		Unchanged: 0/0
  4948 ;; Data sizes:     COMMON   BANK0   BANK1   BANK2   BANK3   BANK4   BANK5   BANK6   BANK7   BANK8   BANK9  BANK10  BANK1
      +1  BANK12
  4949 ;;      Params:         0       0       0       0       0       0       0       0       0       0       0       0       
      +0       0
  4950 ;;      Locals:         4       0       0       0       0       0       0       0       0       0       0       0       
      +0       0
  4951 ;;      Temps:          1       0       0       0       0       0       0       0       0       0       0       0       
      +0       0
  4952 ;;      Totals:         5       0       0       0       0       0       0       0       0       0       0       0       
      +0       0
  4953 ;;Total ram usage:        5 bytes
  4954 ;; Hardware stack levels used:    1
  4955 ;; This function calls:
  4956 ;;		Nothing
  4957 ;; This function is called by:
  4958 ;;		_USBDeviceTasks
  4959 ;;		_SYSTEM_Initialize
  4960 ;; This function uses a non-reentrant model
  4961 ;;
  4962                           
  4963                           
  4964                           ;psect for function _USBDeviceInit
  4965  0457                     _USBDeviceInit:
  4966  0457                     i1l3923:	
  4967                           ;incstack = 0
  4968                           ; Regs used in _USBDeviceInit: [wreg+fsr1l+fsr1h+status,2+status,0]
  4969                           
  4970                           
  4971                           ;mcc_generated_files/usb/usb_device.c: 283:     uint8_t i;;mcc_generated_files/usb/usb_d
      +                          evice.c: 285:     {PIE2bits.USBIE = 0;};
  4972  0457  0021               	movlb	1	; select bank1
  4973  0458  1112               	bcf	18,2	;volatile
  4974  0459                     i1l3925:
  4975                           
  4976                           ;mcc_generated_files/usb/usb_device.c: 292:     {UEIR = 0;};
  4977  0459  003D               	movlb	29	; select bank29
  4978  045A  0193               	clrf	19	;volatile
  4979                           
  4980                           ;mcc_generated_files/usb/usb_device.c: 295:     {UIR = 0;};
  4981  045B  0190               	clrf	16	;volatile
  4982                           
  4983                           ;mcc_generated_files/usb/usb_device.c: 298:     UEP0 = 0;
  4984  045C  0198               	clrf	24	;volatile
  4985  045D                     i1l3927:
  4986                           
  4987                           ;mcc_generated_files/usb/usb_device.c: 300:     { uint8_t i; uint8_t* p = (uint8_t*)&UEP
      +                          1; for(i=0;i<2;i++) *p++ = 0; };
  4988  045D  300E               	movlw	14
  4989  045E  00F2               	movwf	USBDeviceInit@p+1
  4990  045F  3099               	movlw	153
  4991  0460  00F1               	movwf	USBDeviceInit@p
  4992  0461  01F3               	clrf	USBDeviceInit@i_904
  4993  0462                     i1l3933:
  4994  0462  0871               	movf	USBDeviceInit@p,w
  4995  0463  0086               	movwf	6
  4996  0464  0872               	movf	USBDeviceInit@p+1,w
  4997  0465  0087               	movwf	7
  4998  0466  0181               	clrf	1
  4999  0467                     i1l3935:
  5000  0467  3001               	movlw	1
  5001  0468  07F1               	addwf	USBDeviceInit@p,f
  5002  0469  3000               	movlw	0
  5003  046A  3DF2               	addwfc	USBDeviceInit@p+1,f
  5004  046B                     i1l3937:
  5005  046B  3001               	movlw	1
  5006  046C  00F0               	movwf	??_USBDeviceInit
  5007  046D  0870               	movf	??_USBDeviceInit,w
  5008  046E  07F3               	addwf	USBDeviceInit@i_904,f
  5009  046F                     i1l3939:
  5010  046F  3002               	movlw	2
  5011  0470  0273               	subwf	USBDeviceInit@i_904,w
  5012  0471  1C03               	skipc
  5013  0472  2C74               	goto	u266_21
  5014  0473  2C75               	goto	u266_20
  5015  0474                     u266_21:
  5016  0474  2C62               	goto	i1l3933
  5017  0475                     u266_20:
  5018  0475                     i1l3941:
  5019                           
  5020                           ;mcc_generated_files/usb/usb_device.c: 302:     { UCFG = 0x10 | 0x00 | 0x04 | 0x02; UEIE
      +                           = 0x9F; UIE = 0x39 | 0x40 | 0x02; };
  5021  0475  3016               	movlw	22
  5022  0476  003D               	movlb	29	; select bank29
  5023  0477  0091               	movwf	17	;volatile
  5024  0478  309F               	movlw	159
  5025  0479  0097               	movwf	23	;volatile
  5026  047A  307B               	movlw	123
  5027  047B  0092               	movwf	18	;volatile
  5028  047C                     i1l3943:
  5029                           
  5030                           ;mcc_generated_files/usb/usb_device.c: 311:     for(i = 0; i < (sizeof(BDT)/sizeof(BDT_E
      +                          NTRY)); i++)
  5031  047C  01F4               	clrf	USBDeviceInit@i
  5032  047D                     i1l3949:
  5033                           
  5034                           ;mcc_generated_files/usb/usb_device.c: 312:     {;mcc_generated_files/usb/usb_device.c: 
      +                          313:         BDT[i].Val = 0x00;
  5035  047D  0874               	movf	USBDeviceInit@i,w
  5036  047E  00F0               	movwf	??_USBDeviceInit
  5037  047F  3001               	movlw	1
  5038  0480                     u267_25:
  5039  0480  35F0               	lslf	??_USBDeviceInit,f
  5040  0481  3EFF               	addlw	-1
  5041  0482  1D03               	skipz
  5042  0483  2C80               	goto	u267_25
  5043  0484  3570               	lslf	??_USBDeviceInit,w
  5044  0485  3E20               	addlw	32
  5045  0486  0086               	movwf	6
  5046  0487  0187               	clrf	7
  5047  0488  3000               	movlw	0
  5048  0489  3FC0               	movwi [0]fsr1
  5049  048A  3000               	movlw	0
  5050  048B  3FC1               	movwi [1]fsr1
  5051  048C  3FC2               	movwi [2]fsr1
  5052  048D  3FC3               	movwi [3]fsr1
  5053  048E                     i1l3951:
  5054                           
  5055                           ;mcc_generated_files/usb/usb_device.c: 314:     }
  5056  048E  3001               	movlw	1
  5057  048F  00F0               	movwf	??_USBDeviceInit
  5058  0490  0870               	movf	??_USBDeviceInit,w
  5059  0491  07F4               	addwf	USBDeviceInit@i,f
  5060  0492                     i1l3953:
  5061  0492  300C               	movlw	12
  5062  0493  0274               	subwf	USBDeviceInit@i,w
  5063  0494  1C03               	skipc
  5064  0495  2C97               	goto	u268_21
  5065  0496  2C98               	goto	u268_20
  5066  0497                     u268_21:
  5067  0497  2C7D               	goto	i1l3949
  5068  0498                     u268_20:
  5069  0498                     i1l289:
  5070                           
  5071                           ;mcc_generated_files/usb/usb_device.c: 317:     UCONbits.PPBRST = 1;
  5072  0498  003D               	movlb	29	; select bank29
  5073  0499  170E               	bsf	14,6	;volatile
  5074  049A                     i1l3955:
  5075                           
  5076                           ;mcc_generated_files/usb/usb_device.c: 320:     UADDR = 0x00;
  5077  049A  0196               	clrf	22	;volatile
  5078  049B                     i1l3957:
  5079                           
  5080                           ;mcc_generated_files/usb/usb_device.c: 323:     UCONbits.PKTDIS = 0;
  5081  049B  120E               	bcf	14,4	;volatile
  5082  049C                     i1l3959:
  5083                           
  5084                           ;mcc_generated_files/usb/usb_device.c: 326:     UCONbits.PPBRST = 0;
  5085  049C  130E               	bcf	14,6	;volatile
  5086  049D                     i1l3961:
  5087                           
  5088                           ;mcc_generated_files/usb/usb_device.c: 330:     {;mcc_generated_files/usb/usb_device.c: 
      +                          331:         (UIR &= 0xF7);
  5089  049D  30F7               	movlw	247
  5090  049E  00F0               	movwf	??_USBDeviceInit
  5091  049F  0870               	movf	??_USBDeviceInit,w
  5092  04A0  0590               	andwf	16,f	;volatile
  5093  04A1                     i1l3963:
  5094                           
  5095                           ;mcc_generated_files/usb/usb_device.c: 333:         inPipes[0].info.Val = 0;
  5096  04A1  0021               	movlb	1	; select bank1
  5097  04A2  01A8               	clrf	(_inPipes^(0+128)+2)	;volatile
  5098  04A3                     i1l3965:
  5099                           
  5100                           ;mcc_generated_files/usb/usb_device.c: 334:         outPipes[0].info.Val = 0;
  5101  04A3  0023               	movlb	3	; select bank3
  5102  04A4  01B2               	clrf	(_outPipes^(0+384)+2)	;volatile
  5103  04A5                     i1l3967:
  5104                           
  5105                           ;mcc_generated_files/usb/usb_device.c: 335:         outPipes[0].wCount.Val = 0;
  5106  04A5  01B3               	clrf	(_outPipes^(0+384)+3)	;volatile
  5107  04A6  01B4               	clrf	((_outPipes+1)^(0+384)+3)	;volatile
  5108  04A7                     i1l3969:
  5109                           
  5110                           ;mcc_generated_files/usb/usb_device.c: 336:     }while(UIRbits.TRNIF == 1);
  5111  04A7  003D               	movlb	29	; select bank29
  5112  04A8  1990               	btfsc	16,3	;volatile
  5113  04A9  2CAB               	goto	u269_21
  5114  04AA  2CAC               	goto	u269_20
  5115  04AB                     u269_21:
  5116  04AB  2C9D               	goto	i1l3961
  5117  04AC                     u269_20:
  5118  04AC                     i1l3971:
  5119                           
  5120                           ;mcc_generated_files/usb/usb_device.c: 340:     USBStatusStageEnabledFlag1 = 1;
  5121  04AC  3001               	movlw	1
  5122  04AD  00F0               	movwf	??_USBDeviceInit
  5123  04AE  0870               	movf	??_USBDeviceInit,w
  5124  04AF  0023               	movlb	3	; select bank3
  5125  04B0  00DE               	movwf	_USBStatusStageEnabledFlag1^(0+384)	;volatile
  5126                           
  5127                           ;mcc_generated_files/usb/usb_device.c: 341:     USBStatusStageEnabledFlag2 = 1;
  5128  04B1  3001               	movlw	1
  5129  04B2  00F0               	movwf	??_USBDeviceInit
  5130  04B3  0870               	movf	??_USBDeviceInit,w
  5131  04B4  00DD               	movwf	_USBStatusStageEnabledFlag2^(0+384)	;volatile
  5132  04B5                     i1l3973:
  5133                           
  5134                           ;mcc_generated_files/usb/usb_device.c: 343:     USBDeferINDataStagePackets = 0;
  5135  04B5  01DC               	clrf	_USBDeferINDataStagePackets^(0+384)	;volatile
  5136  04B6                     i1l3975:
  5137                           
  5138                           ;mcc_generated_files/usb/usb_device.c: 344:     USBDeferOUTDataStagePackets = 0;
  5139  04B6  01DB               	clrf	_USBDeferOUTDataStagePackets^(0+384)	;volatile
  5140  04B7                     i1l3977:
  5141                           
  5142                           ;mcc_generated_files/usb/usb_device.c: 345:     USBBusIsSuspended = 0;
  5143  04B7  01E1               	clrf	_USBBusIsSuspended^(0+384)	;volatile
  5144  04B8                     i1l3979:
  5145                           
  5146                           ;mcc_generated_files/usb/usb_device.c: 349:     for(i = 0; i < (uint8_t)(2 +1u); i++)
  5147  04B8  01F4               	clrf	USBDeviceInit@i
  5148  04B9                     i1l3983:
  5149                           
  5150                           ;mcc_generated_files/usb/usb_device.c: 350:     {;mcc_generated_files/usb/usb_device.c: 
      +                          351:         pBDTEntryIn[i] = 0u;
  5151  04B9  3574               	lslf	USBDeviceInit@i,w
  5152  04BA  3EA0               	addlw	(low (_pBDTEntryIn| 0))& (0+255)
  5153  04BB  0086               	movwf	6
  5154  04BC  0187               	clrf	7
  5155  04BD  3000               	movlw	0
  5156  04BE  3FC0               	movwi [0]fsr1
  5157  04BF  3FC1               	movwi [1]fsr1
  5158                           
  5159                           ;mcc_generated_files/usb/usb_device.c: 352:         pBDTEntryOut[i] = 0u;
  5160  04C0  3574               	lslf	USBDeviceInit@i,w
  5161  04C1  3EB7               	addlw	(low (_pBDTEntryOut| (0+256)))& (0+255)
  5162  04C2  0086               	movwf	6
  5163  04C3  3001               	movlw	1	; select bank3/4
  5164  04C4  0087               	movwf	7
  5165  04C5  3000               	movlw	0
  5166  04C6  3FC0               	movwi [0]fsr1
  5167  04C7  3FC1               	movwi [1]fsr1
  5168                           
  5169                           ;mcc_generated_files/usb/usb_device.c: 353:         ep_data_in[i].Val = 0u;
  5170  04C8  0874               	movf	USBDeviceInit@i,w
  5171  04C9  3EC4               	addlw	(low (_ep_data_in| (0+256)))& (0+255)
  5172  04CA  0086               	movwf	6
  5173  04CB  3001               	movlw	1	; select bank3/4
  5174  04CC  0087               	movwf	7
  5175  04CD  0181               	clrf	1
  5176                           
  5177                           ;mcc_generated_files/usb/usb_device.c: 354:         ep_data_out[i].Val = 0u;
  5178  04CE  0874               	movf	USBDeviceInit@i,w
  5179  04CF  3EC1               	addlw	(low (_ep_data_out| (0+256)))& (0+255)
  5180  04D0  0086               	movwf	6
  5181  04D1  3001               	movlw	1	; select bank3/4
  5182  04D2  0087               	movwf	7
  5183  04D3  0181               	clrf	1
  5184  04D4                     i1l3985:
  5185                           
  5186                           ;mcc_generated_files/usb/usb_device.c: 355:     }
  5187  04D4  3001               	movlw	1
  5188  04D5  00F0               	movwf	??_USBDeviceInit
  5189  04D6  0870               	movf	??_USBDeviceInit,w
  5190  04D7  07F4               	addwf	USBDeviceInit@i,f
  5191  04D8                     i1l3987:
  5192  04D8  3003               	movlw	3
  5193  04D9  0274               	subwf	USBDeviceInit@i,w
  5194  04DA  1C03               	skipc
  5195  04DB  2CDD               	goto	u270_21
  5196  04DC  2CDE               	goto	u270_20
  5197  04DD                     u270_21:
  5198  04DD  2CB9               	goto	i1l3983
  5199  04DE                     u270_20:
  5200  04DE                     i1l3989:
  5201                           
  5202                           ;mcc_generated_files/usb/usb_device.c: 358:     pBDTEntryIn[0] = (volatile BDT_ENTRY*)&B
      +                          DT[2];
  5203  04DE  3028               	movlw	40
  5204  04DF  0021               	movlb	1	; select bank1
  5205  04E0  00A0               	movwf	_pBDTEntryIn^(0+128)
  5206  04E1  3000               	movlw	0
  5207  04E2  00A1               	movwf	(_pBDTEntryIn+1)^(0+128)
  5208  04E3                     i1l3991:
  5209                           
  5210                           ;mcc_generated_files/usb/usb_device.c: 360:     UEP0 = 0x06|0x10;
  5211  04E3  3016               	movlw	22
  5212  04E4  003D               	movlb	29	; select bank29
  5213  04E5  0098               	movwf	24	;volatile
  5214  04E6                     i1l3993:
  5215                           
  5216                           ;mcc_generated_files/usb/usb_device.c: 362:     BDT[0].ADR = (((uint16_t)(&SetupPkt)) & 
      +                          0x7FFF);
  5217  04E6  3000               	movlw	0
  5218  04E7  0020               	movlb	0	; select bank0
  5219  04E8  00A3               	movwf	35	;volatile
  5220  04E9  3050               	movlw	80
  5221  04EA  00A2               	movwf	34	;volatile
  5222  04EB                     i1l3995:
  5223                           
  5224                           ;mcc_generated_files/usb/usb_device.c: 363:     BDT[0].CNT = 8;
  5225  04EB  3008               	movlw	8
  5226  04EC  00A1               	movwf	33	;volatile
  5227  04ED                     i1l3997:
  5228                           
  5229                           ;mcc_generated_files/usb/usb_device.c: 364:     BDT[0].STAT.Val = 0x00|0x04;
  5230  04ED  3004               	movlw	4
  5231  04EE  00F0               	movwf	??_USBDeviceInit
  5232  04EF  0870               	movf	??_USBDeviceInit,w
  5233  04F0  00A0               	movwf	32	;volatile
  5234  04F1                     i1l3999:
  5235                           
  5236                           ;mcc_generated_files/usb/usb_device.c: 365:     BDT[0].STAT.Val |= 0x80;
  5237  04F1  17A0               	bsf	32,7	;volatile
  5238  04F2                     i1l4001:
  5239                           
  5240                           ;mcc_generated_files/usb/usb_device.c: 368:     USBActiveConfiguration = 0;
  5241  04F2  0021               	movlb	1	; select bank1
  5242  04F3  01B5               	clrf	_USBActiveConfiguration^(0+128)	;volatile
  5243  04F4                     i1l4003:
  5244                           
  5245                           ;mcc_generated_files/usb/usb_device.c: 370:     USB1msTickCount = 0;
  5246  04F4  3000               	movlw	0
  5247  04F5  0023               	movlb	3	; select bank3
  5248  04F6  00C0               	movwf	(_USB1msTickCount+3)^(0+384)	;volatile
  5249  04F7  3000               	movlw	0
  5250  04F8  00BF               	movwf	(_USB1msTickCount+2)^(0+384)	;volatile
  5251  04F9  3000               	movlw	0
  5252  04FA  00BE               	movwf	(_USB1msTickCount+1)^(0+384)	;volatile
  5253  04FB  3000               	movlw	0
  5254  04FC  00BD               	movwf	_USB1msTickCount^(0+384)	;volatile
  5255  04FD                     i1l4005:
  5256                           
  5257                           ;mcc_generated_files/usb/usb_device.c: 371:     USBTicksSinceSuspendEnd = 0;
  5258  04FD  01DA               	clrf	_USBTicksSinceSuspendEnd^(0+384)	;volatile
  5259  04FE                     i1l4007:
  5260                           
  5261                           ;mcc_generated_files/usb/usb_device.c: 374:     USBDeviceState = DETACHED_STATE;
  5262  04FE  0021               	movlb	1	; select bank1
  5263  04FF  01B3               	clrf	_USBDeviceState^(0+128)	;volatile
  5264  0500                     i1l294:
  5265  0500  0008               	return
  5266  0501                     __end_of_USBDeviceInit:
  5267                           
  5268                           	psect	text19
  5269  0D00                     __ptext19:	
  5270 ;; *************** function _USBCtrlEPService *****************
  5271 ;; Defined at:
  5272 ;;		line 2376 in file "mcc_generated_files/usb/usb_device.c"
  5273 ;; Parameters:    Size  Location     Type
  5274 ;;		None
  5275 ;; Auto vars:     Size  Location     Type
  5276 ;;		None
  5277 ;; Return value:  Size  Location     Type
  5278 ;;                  1    wreg      void 
  5279 ;; Registers used:
  5280 ;;		wreg, fsr0l, fsr0h, fsr1l, fsr1h, status,2, status,0, pclath, cstack
  5281 ;; Tracked objects:
  5282 ;;		On entry : 0/0
  5283 ;;		On exit  : 0/0
  5284 ;;		Unchanged: 0/0
  5285 ;; Data sizes:     COMMON   BANK0   BANK1   BANK2   BANK3   BANK4   BANK5   BANK6   BANK7   BANK8   BANK9  BANK10  BANK1
      +1  BANK12
  5286 ;;      Params:         0       0       0       0       0       0       0       0       0       0       0       0       
      +0       0
  5287 ;;      Locals:         0       0       0       0       0       0       0       0       0       0       0       0       
      +0       0
  5288 ;;      Temps:          0       0       2       0       0       0       0       0       0       0       0       0       
      +0       0
  5289 ;;      Totals:         0       0       2       0       0       0       0       0       0       0       0       0       
      +0       0
  5290 ;;Total ram usage:        2 bytes
  5291 ;; Hardware stack levels used:    1
  5292 ;; Hardware stack levels required when called:    7
  5293 ;; This function calls:
  5294 ;;		_USBCtrlTrfInHandler
  5295 ;;		_USBCtrlTrfOutHandler
  5296 ;;		_USBCtrlTrfSetupHandler
  5297 ;;		_memcpy
  5298 ;; This function is called by:
  5299 ;;		_USBDeviceTasks
  5300 ;; This function uses a non-reentrant model
  5301 ;;
  5302                           
  5303                           
  5304                           ;psect for function _USBCtrlEPService
  5305  0D00                     _USBCtrlEPService:
  5306  0D00                     i1l5003:	
  5307                           ;incstack = 0
  5308                           ; Regs used in _USBCtrlEPService: [wreg-fsr1h+status,2+status,0+pclath+cstack]
  5309                           
  5310                           
  5311                           ;mcc_generated_files/usb/usb_device.c: 2382:         USBStatusStageTimeoutCounter = (uin
      +                          t8_t)45;
  5312  0D00  302D               	movlw	45
  5313  0D01  0021               	movlb	1	; select bank1
  5314  0D02  00B6               	movwf	??_USBCtrlEPService^(0+128)
  5315  0D03  0836               	movf	??_USBCtrlEPService^(0+128),w
  5316  0D04  0023               	movlb	3	; select bank3
  5317  0D05  00DF               	movwf	_USBStatusStageTimeoutCounter^(0+384)	;volatile
  5318  0D06                     i1l5005:
  5319                           
  5320                           ;mcc_generated_files/usb/usb_device.c: 2386:     if((USTATcopy.Val & ~0x02) == 0x00)
  5321  0D06  0021               	movlb	1	; select bank1
  5322  0D07  0834               	movf	_USTATcopy^(0+128),w	;volatile
  5323  0D08  39FD               	andlw	253
  5324  0D09  1D03               	btfss	3,2
  5325  0D0A  2D0C               	goto	u371_21
  5326  0D0B  2D0D               	goto	u371_20
  5327  0D0C                     u371_21:
  5328  0D0C  2D49               	goto	i1l5021
  5329  0D0D                     u371_20:
  5330  0D0D                     i1l5007:
  5331                           
  5332                           ;mcc_generated_files/usb/usb_device.c: 2387:     {;mcc_generated_files/usb/usb_device.c:
      +                           2390:             pBDTEntryEP0OutCurrent = (volatile BDT_ENTRY*)&BDT[(USTATcopy.Val & 0
      +                          x7E)>>1];
  5333  0D0D  3634               	lsrf	_USTATcopy^(0+128),w	;volatile
  5334  0D0E  393F               	andlw	63
  5335  0D0F  00B6               	movwf	??_USBCtrlEPService^(0+128)
  5336  0D10  3001               	movlw	1
  5337  0D11                     u372_25:
  5338  0D11  35B6               	lslf	??_USBCtrlEPService^(0+128),f
  5339  0D12  3EFF               	addlw	-1
  5340  0D13  1D03               	skipz
  5341  0D14  2D11               	goto	u372_25
  5342  0D15  3536               	lslf	??_USBCtrlEPService^(0+128),w
  5343  0D16  3E20               	addlw	32
  5344  0D17  00B7               	movwf	(??_USBCtrlEPService+1)^(0+128)
  5345  0D18  0837               	movf	(??_USBCtrlEPService+1)^(0+128),w
  5346  0D19  00B2               	movwf	_pBDTEntryEP0OutCurrent^(0+128)
  5347  0D1A                     i1l5009:
  5348                           
  5349                           ;mcc_generated_files/usb/usb_device.c: 2398:         pBDTEntryEP0OutNext = pBDTEntryEP0O
      +                          utCurrent;
  5350  0D1A  0832               	movf	_pBDTEntryEP0OutCurrent^(0+128),w
  5351  0D1B  00AB               	movwf	_pBDTEntryEP0OutNext^(0+128)
  5352  0D1C  39FF               	andlw	255
  5353  0D1D  1D03               	skipz
  5354  0D1E  3000               	movlw	0
  5355  0D1F  00AC               	movwf	(_pBDTEntryEP0OutNext+1)^(0+128)
  5356  0D20                     i1l5011:
  5357                           
  5358                           ;mcc_generated_files/usb/usb_device.c: 2400:         pBDTEntryEP0OutNext = (volatile BDT
      +                          _ENTRY*)(((uint16_t)pBDTEntryEP0OutNext) ^ 0x0004);
  5359  0D20  3004               	movlw	4
  5360  0D21  062B               	xorwf	_pBDTEntryEP0OutNext^(0+128),w
  5361  0D22  00AB               	movwf	_pBDTEntryEP0OutNext^(0+128)
  5362  0D23  3000               	movlw	0
  5363  0D24  062C               	xorwf	(_pBDTEntryEP0OutNext+1)^(0+128),w
  5364  0D25  00AC               	movwf	(_pBDTEntryEP0OutNext+1)^(0+128)
  5365  0D26                     i1l5013:
  5366                           
  5367                           ;mcc_generated_files/usb/usb_device.c: 2403:         if(pBDTEntryEP0OutCurrent->STAT.PID
      +                           == 0xD)
  5368  0D26  0832               	movf	_pBDTEntryEP0OutCurrent^(0+128),w
  5369  0D27  0086               	movwf	6
  5370  0D28  0187               	clrf	7
  5371  0D29  0C01               	rrf	1,w
  5372  0D2A  0C89               	rrf	9,f
  5373  0D2B  390F               	andlw	15
  5374  0D2C  3A0D               	xorlw	13
  5375  0D2D  1D03               	skipz
  5376  0D2E  2D30               	goto	u373_21
  5377  0D2F  2D31               	goto	u373_20
  5378  0D30                     u373_21:
  5379  0D30  2D45               	goto	i1l5019
  5380  0D31                     u373_20:
  5381  0D31                     i1l5015:
  5382                           
  5383                           ;mcc_generated_files/usb/usb_device.c: 2404:         {;mcc_generated_files/usb/usb_devic
      +                          e.c: 2409:             memcpy((uint8_t*)&SetupPkt, (uint8_t*)((void *)(pBDTEntryEP0OutCu
      +                          rrent->ADR)), 8);
  5384  0D31  0832               	movf	_pBDTEntryEP0OutCurrent^(0+128),w
  5385  0D32  3E02               	addlw	2
  5386  0D33  0086               	movwf	6
  5387  0D34  0187               	clrf	7
  5388  0D35  3F40               	moviw [0]fsr1
  5389  0D36  00F0               	movwf	memcpy@s1
  5390  0D37  3F41               	moviw [1]fsr1
  5391  0D38  00F1               	movwf	memcpy@s1+1
  5392  0D39  3008               	movlw	8
  5393  0D3A  00F2               	movwf	memcpy@n
  5394  0D3B  3000               	movlw	0
  5395  0D3C  00F3               	movwf	memcpy@n+1
  5396  0D3D  3050               	movlw	80
  5397  0D3E  318A  22BD  318D   	fcall	_memcpy
  5398  0D41                     i1l5017:
  5399                           
  5400                           ;mcc_generated_files/usb/usb_device.c: 2412:             USBCtrlTrfSetupHandler();
  5401  0D41  318C  24AA  318D   	fcall	_USBCtrlTrfSetupHandler
  5402                           
  5403                           ;mcc_generated_files/usb/usb_device.c: 2413:         }
  5404  0D44  2D55               	goto	i1l471
  5405  0D45                     i1l5019:
  5406                           
  5407                           ;mcc_generated_files/usb/usb_device.c: 2415:         {;mcc_generated_files/usb/usb_devic
      +                          e.c: 2417:             USBCtrlTrfOutHandler();
  5408  0D45  318B  2353  318D   	fcall	_USBCtrlTrfOutHandler
  5409  0D48  2D55               	goto	i1l471
  5410  0D49                     i1l5021:
  5411  0D49  30FD               	movlw	253
  5412  0D4A  0534               	andwf	_USTATcopy^(0+128),w	;volatile
  5413  0D4B  00B6               	movwf	??_USBCtrlEPService^(0+128)
  5414  0D4C  3004               	movlw	4
  5415  0D4D  0636               	xorwf	??_USBCtrlEPService^(0+128),w
  5416  0D4E  1D03               	btfss	3,2
  5417  0D4F  2D51               	goto	u374_21
  5418  0D50  2D52               	goto	u374_20
  5419  0D51                     u374_21:
  5420  0D51  2D55               	goto	i1l471
  5421  0D52                     u374_20:
  5422  0D52                     i1l5023:
  5423                           
  5424                           ;mcc_generated_files/usb/usb_device.c: 2421:     {;mcc_generated_files/usb/usb_device.c:
      +                           2424:         USBCtrlTrfInHandler();
  5425  0D52  318F  2705  318D   	fcall	_USBCtrlTrfInHandler
  5426  0D55                     i1l471:
  5427  0D55  0008               	return
  5428  0D56                     __end_of_USBCtrlEPService:
  5429                           
  5430                           	psect	text20
  5431  0ABD                     __ptext20:	
  5432 ;; *************** function _memcpy *****************
  5433 ;; Defined at:
  5434 ;;		line 4 in file "C:\Program Files\Microchip\xc8\v2.31\pic\sources\c99\common\memcpy.c"
  5435 ;; Parameters:    Size  Location     Type
  5436 ;;  d1              1    wreg     PTR void 
  5437 ;;		 -> SetupPkt(8), 
  5438 ;;  s1              2    0[COMMON] PTR const void 
  5439 ;;		 -> CtrlTrfData(8), RAM(4096), SetupPkt(8), 
  5440 ;;  n               2    2[COMMON] unsigned int 
  5441 ;; Auto vars:     Size  Location     Type
  5442 ;;  d1              1    8[COMMON] PTR void 
  5443 ;;		 -> SetupPkt(8), 
  5444 ;;  s               2    5[COMMON] PTR const unsigned char 
  5445 ;;		 -> CtrlTrfData(8), RAM(4096), SetupPkt(8), 
  5446 ;;  d               1    9[COMMON] PTR unsigned char 
  5447 ;;		 -> SetupPkt(8), 
  5448 ;;  tmp             1    7[COMMON] unsigned char 
  5449 ;; Return value:  Size  Location     Type
  5450 ;;                  1    wreg      PTR void 
  5451 ;; Registers used:
  5452 ;;		wreg, fsr1l, fsr1h, status,2, status,0
  5453 ;; Tracked objects:
  5454 ;;		On entry : 0/0
  5455 ;;		On exit  : 0/0
  5456 ;;		Unchanged: 0/0
  5457 ;; Data sizes:     COMMON   BANK0   BANK1   BANK2   BANK3   BANK4   BANK5   BANK6   BANK7   BANK8   BANK9  BANK10  BANK1
      +1  BANK12
  5458 ;;      Params:         4       0       0       0       0       0       0       0       0       0       0       0       
      +0       0
  5459 ;;      Locals:         5       0       0       0       0       0       0       0       0       0       0       0       
      +0       0
  5460 ;;      Temps:          1       0       0       0       0       0       0       0       0       0       0       0       
      +0       0
  5461 ;;      Totals:        10       0       0       0       0       0       0       0       0       0       0       0       
      +0       0
  5462 ;;Total ram usage:       10 bytes
  5463 ;; Hardware stack levels used:    1
  5464 ;; This function calls:
  5465 ;;		Nothing
  5466 ;; This function is called by:
  5467 ;;		_USBCtrlEPService
  5468 ;; This function uses a non-reentrant model
  5469 ;;
  5470                           
  5471                           
  5472                           ;psect for function _memcpy
  5473  0ABD                     _memcpy:
  5474                           
  5475                           ;incstack = 0
  5476                           ; Regs used in _memcpy: [wreg+fsr1l+fsr1h+status,2+status,0]
  5477                           ;memcpy@d1 stored from wreg
  5478  0ABD  00F8               	movwf	memcpy@d1
  5479  0ABE                     i1l3803:
  5480  0ABE  0871               	movf	memcpy@s1+1,w
  5481  0ABF  00F6               	movwf	memcpy@s+1
  5482  0AC0  0870               	movf	memcpy@s1,w
  5483  0AC1  00F5               	movwf	memcpy@s
  5484  0AC2  0878               	movf	memcpy@d1,w
  5485  0AC3  00F4               	movwf	??_memcpy
  5486  0AC4  0874               	movf	??_memcpy,w
  5487  0AC5  00F9               	movwf	memcpy@d
  5488  0AC6  2ADE               	goto	i1l3813
  5489  0AC7                     i1l3805:
  5490  0AC7  0875               	movf	memcpy@s,w
  5491  0AC8  0086               	movwf	6
  5492  0AC9  0876               	movf	memcpy@s+1,w
  5493  0ACA  0087               	movwf	7
  5494  0ACB  0801               	movf	1,w
  5495  0ACC  00F4               	movwf	??_memcpy
  5496  0ACD  0874               	movf	??_memcpy,w
  5497  0ACE  00F7               	movwf	memcpy@tmp
  5498  0ACF                     i1l3807:
  5499  0ACF  3001               	movlw	1
  5500  0AD0  07F5               	addwf	memcpy@s,f
  5501  0AD1  3000               	movlw	0
  5502  0AD2  3DF6               	addwfc	memcpy@s+1,f
  5503  0AD3                     i1l3809:
  5504  0AD3  0877               	movf	memcpy@tmp,w
  5505  0AD4  00F4               	movwf	??_memcpy
  5506  0AD5  0879               	movf	memcpy@d,w
  5507  0AD6  0086               	movwf	6
  5508  0AD7  0187               	clrf	7
  5509  0AD8  0874               	movf	??_memcpy,w
  5510  0AD9  0081               	movwf	1
  5511  0ADA                     i1l3811:
  5512  0ADA  3001               	movlw	1
  5513  0ADB  00F4               	movwf	??_memcpy
  5514  0ADC  0874               	movf	??_memcpy,w
  5515  0ADD  07F9               	addwf	memcpy@d,f
  5516  0ADE                     i1l3813:
  5517  0ADE  3001               	movlw	1
  5518  0ADF  02F2               	subwf	memcpy@n,f
  5519  0AE0  3000               	movlw	0
  5520  0AE1  3BF3               	subwfb	memcpy@n+1,f
  5521  0AE2  0A72               	incf	memcpy@n,w
  5522  0AE3  1D03               	skipz
  5523  0AE4  2AE9               	goto	u255_21
  5524  0AE5  0A73               	incf	memcpy@n+1,w
  5525  0AE6  1D03               	btfss	3,2
  5526  0AE7  2AE9               	goto	u255_21
  5527  0AE8  2AEA               	goto	u255_20
  5528  0AE9                     u255_21:
  5529  0AE9  2AC7               	goto	i1l3805
  5530  0AEA                     u255_20:
  5531  0AEA                     i1l1383:
  5532  0AEA  0008               	return
  5533  0AEB                     __end_of_memcpy:
  5534                           
  5535                           	psect	text21
  5536  0CAA                     __ptext21:	
  5537 ;; *************** function _USBCtrlTrfSetupHandler *****************
  5538 ;; Defined at:
  5539 ;;		line 2469 in file "mcc_generated_files/usb/usb_device.c"
  5540 ;; Parameters:    Size  Location     Type
  5541 ;;		None
  5542 ;; Auto vars:     Size  Location     Type
  5543 ;;		None
  5544 ;; Return value:  Size  Location     Type
  5545 ;;                  1    wreg      void 
  5546 ;; Registers used:
  5547 ;;		wreg, fsr0l, fsr0h, fsr1l, fsr1h, status,2, status,0, pclath, cstack
  5548 ;; Tracked objects:
  5549 ;;		On entry : 0/0
  5550 ;;		On exit  : 0/0
  5551 ;;		Unchanged: 0/0
  5552 ;; Data sizes:     COMMON   BANK0   BANK1   BANK2   BANK3   BANK4   BANK5   BANK6   BANK7   BANK8   BANK9  BANK10  BANK1
      +1  BANK12
  5553 ;;      Params:         0       0       0       0       0       0       0       0       0       0       0       0       
      +0       0
  5554 ;;      Locals:         0       0       0       0       0       0       0       0       0       0       0       0       
      +0       0
  5555 ;;      Temps:          0       1       0       0       0       0       0       0       0       0       0       0       
      +0       0
  5556 ;;      Totals:         0       1       0       0       0       0       0       0       0       0       0       0       
      +0       0
  5557 ;;Total ram usage:        1 bytes
  5558 ;; Hardware stack levels used:    1
  5559 ;; Hardware stack levels required when called:    6
  5560 ;; This function calls:
  5561 ;;		_USBCheckStdRequest
  5562 ;;		_USBCtrlEPServiceComplete
  5563 ;;		_USER_USB_CALLBACK_EVENT_HANDLER
  5564 ;; This function is called by:
  5565 ;;		_USBCtrlEPService
  5566 ;; This function uses a non-reentrant model
  5567 ;;
  5568                           
  5569                           
  5570                           ;psect for function _USBCtrlTrfSetupHandler
  5571  0CAA                     _USBCtrlTrfSetupHandler:
  5572  0CAA                     i1l4947:	
  5573                           ;incstack = 0
  5574                           ; Regs used in _USBCtrlTrfSetupHandler: [wreg-fsr1h+status,2+status,0+pclath+cstack]
  5575                           
  5576                           
  5577                           ;mcc_generated_files/usb/usb_device.c: 2474:     shortPacketStatus = 0;
  5578  0CAA  0021               	movlb	1	; select bank1
  5579  0CAB  01B1               	clrf	_shortPacketStatus^(0+128)	;volatile
  5580                           
  5581                           ;mcc_generated_files/usb/usb_device.c: 2475:     USBDeferStatusStagePacket = 0;
  5582  0CAC  01AE               	clrf	_USBDeferStatusStagePacket^(0+128)	;volatile
  5583                           
  5584                           ;mcc_generated_files/usb/usb_device.c: 2476:     USBDeferINDataStagePackets = 0;
  5585  0CAD  0023               	movlb	3	; select bank3
  5586  0CAE  01DC               	clrf	_USBDeferINDataStagePackets^(0+384)	;volatile
  5587                           
  5588                           ;mcc_generated_files/usb/usb_device.c: 2477:     USBDeferOUTDataStagePackets = 0;
  5589  0CAF  01DB               	clrf	_USBDeferOUTDataStagePackets^(0+384)	;volatile
  5590                           
  5591                           ;mcc_generated_files/usb/usb_device.c: 2478:     BothEP0OutUOWNsSet = 0;
  5592  0CB0  01E0               	clrf	_BothEP0OutUOWNsSet^(0+384)	;volatile
  5593                           
  5594                           ;mcc_generated_files/usb/usb_device.c: 2479:     controlTransferState = 0;
  5595  0CB1  0021               	movlb	1	; select bank1
  5596  0CB2  01B0               	clrf	_controlTransferState^(0+128)	;volatile
  5597  0CB3                     i1l4949:
  5598                           
  5599                           ;mcc_generated_files/usb/usb_device.c: 2488:     pBDTEntryIn[0]->STAT.Val &= ~(0x80);
  5600  0CB3  307F               	movlw	127
  5601  0CB4  0020               	movlb	0	; select bank0
  5602  0CB5  00EF               	movwf	??_USBCtrlTrfSetupHandler
  5603  0CB6  0021               	movlb	1	; select bank1
  5604  0CB7  0820               	movf	_pBDTEntryIn^(0+128),w
  5605  0CB8  0086               	movwf	6
  5606  0CB9  0821               	movf	(_pBDTEntryIn+1)^(0+128),w
  5607  0CBA  0087               	movwf	7
  5608  0CBB  0020               	movlb	0	; select bank0
  5609  0CBC  086F               	movf	??_USBCtrlTrfSetupHandler,w
  5610  0CBD  0581               	andwf	1,f
  5611  0CBE                     i1l4951:
  5612                           
  5613                           ;mcc_generated_files/usb/usb_device.c: 2490:     pBDTEntryIn[0] = (volatile BDT_ENTRY*)(
      +                          ((uint16_t)pBDTEntryIn[0]) ^ 0x0004);
  5614  0CBE  3004               	movlw	4
  5615  0CBF  0021               	movlb	1	; select bank1
  5616  0CC0  0620               	xorwf	_pBDTEntryIn^(0+128),w
  5617  0CC1  00A0               	movwf	_pBDTEntryIn^(0+128)
  5618  0CC2  3000               	movlw	0
  5619  0CC3  0621               	xorwf	(_pBDTEntryIn+1)^(0+128),w
  5620  0CC4  00A1               	movwf	(_pBDTEntryIn+1)^(0+128)
  5621  0CC5                     i1l4953:
  5622                           
  5623                           ;mcc_generated_files/usb/usb_device.c: 2491:     pBDTEntryIn[0]->STAT.Val &= ~(0x80);
  5624  0CC5  307F               	movlw	127
  5625  0CC6  0020               	movlb	0	; select bank0
  5626  0CC7  00EF               	movwf	??_USBCtrlTrfSetupHandler
  5627  0CC8  0021               	movlb	1	; select bank1
  5628  0CC9  0820               	movf	_pBDTEntryIn^(0+128),w
  5629  0CCA  0086               	movwf	6
  5630  0CCB  0821               	movf	(_pBDTEntryIn+1)^(0+128),w
  5631  0CCC  0087               	movwf	7
  5632  0CCD  0020               	movlb	0	; select bank0
  5633  0CCE  086F               	movf	??_USBCtrlTrfSetupHandler,w
  5634  0CCF  0581               	andwf	1,f
  5635  0CD0                     i1l4955:
  5636                           
  5637                           ;mcc_generated_files/usb/usb_device.c: 2492:     pBDTEntryIn[0] = (volatile BDT_ENTRY*)(
      +                          ((uint16_t)pBDTEntryIn[0]) ^ 0x0004);
  5638  0CD0  3004               	movlw	4
  5639  0CD1  0021               	movlb	1	; select bank1
  5640  0CD2  0620               	xorwf	_pBDTEntryIn^(0+128),w
  5641  0CD3  00A0               	movwf	_pBDTEntryIn^(0+128)
  5642  0CD4  3000               	movlw	0
  5643  0CD5  0621               	xorwf	(_pBDTEntryIn+1)^(0+128),w
  5644  0CD6  00A1               	movwf	(_pBDTEntryIn+1)^(0+128)
  5645  0CD7                     i1l4957:
  5646                           
  5647                           ;mcc_generated_files/usb/usb_device.c: 2493:     pBDTEntryEP0OutNext->STAT.Val &= ~(0x80
      +                          );
  5648  0CD7  307F               	movlw	127
  5649  0CD8  0020               	movlb	0	; select bank0
  5650  0CD9  00EF               	movwf	??_USBCtrlTrfSetupHandler
  5651  0CDA  0021               	movlb	1	; select bank1
  5652  0CDB  082B               	movf	_pBDTEntryEP0OutNext^(0+128),w
  5653  0CDC  0086               	movwf	6
  5654  0CDD  082C               	movf	(_pBDTEntryEP0OutNext+1)^(0+128),w
  5655  0CDE  0087               	movwf	7
  5656  0CDF  0020               	movlb	0	; select bank0
  5657  0CE0  086F               	movf	??_USBCtrlTrfSetupHandler,w
  5658  0CE1  0581               	andwf	1,f
  5659  0CE2                     i1l4959:
  5660                           
  5661                           ;mcc_generated_files/usb/usb_device.c: 2495:     inPipes[0].info.Val = 0;
  5662  0CE2  0021               	movlb	1	; select bank1
  5663  0CE3  01A8               	clrf	(_inPipes^(0+128)+2)	;volatile
  5664  0CE4                     i1l4961:
  5665                           
  5666                           ;mcc_generated_files/usb/usb_device.c: 2496:     inPipes[0].wCount.Val = 0;
  5667  0CE4  01A9               	clrf	(_inPipes^(0+128)+3)	;volatile
  5668  0CE5  01AA               	clrf	((_inPipes+1)^(0+128)+3)	;volatile
  5669  0CE6                     i1l4963:
  5670                           
  5671                           ;mcc_generated_files/usb/usb_device.c: 2497:     outPipes[0].info.Val = 0;
  5672  0CE6  0023               	movlb	3	; select bank3
  5673  0CE7  01B2               	clrf	(_outPipes^(0+384)+2)	;volatile
  5674  0CE8                     i1l4965:
  5675                           
  5676                           ;mcc_generated_files/usb/usb_device.c: 2498:     outPipes[0].wCount.Val = 0;
  5677  0CE8  01B3               	clrf	(_outPipes^(0+384)+3)	;volatile
  5678  0CE9  01B4               	clrf	((_outPipes+1)^(0+384)+3)	;volatile
  5679  0CEA                     i1l4967:
  5680                           
  5681                           ;mcc_generated_files/usb/usb_device.c: 2504:     USBCheckStdRequest();
  5682  0CEA  3186  26BC  318C   	fcall	_USBCheckStdRequest
  5683  0CED                     i1l4969:
  5684                           
  5685                           ;mcc_generated_files/usb/usb_device.c: 2505:     USER_USB_CALLBACK_EVENT_HANDLER((USB_EV
      +                          ENT)EVENT_EP0_REQUEST,0,0);
  5686  0CED  3003               	movlw	3
  5687  0CEE  0020               	movlb	0	; select bank0
  5688  0CEF  00E0               	movwf	USER_USB_CALLBACK_EVENT_HANDLER@event
  5689  0CF0  3000               	movlw	0
  5690  0CF1  00E1               	movwf	USER_USB_CALLBACK_EVENT_HANDLER@event+1
  5691  0CF2  3000               	movlw	0
  5692  0CF3  00E2               	movwf	USER_USB_CALLBACK_EVENT_HANDLER@pdata
  5693  0CF4  3000               	movlw	0
  5694  0CF5  00E3               	movwf	USER_USB_CALLBACK_EVENT_HANDLER@pdata+1
  5695  0CF6  3000               	movlw	0
  5696  0CF7  00E4               	movwf	USER_USB_CALLBACK_EVENT_HANDLER@size
  5697  0CF8  00E5               	movwf	USER_USB_CALLBACK_EVENT_HANDLER@size+1
  5698  0CF9  3187  27CB  318C   	fcall	_USER_USB_CALLBACK_EVENT_HANDLER
  5699  0CFC                     i1l4971:
  5700                           
  5701                           ;mcc_generated_files/usb/usb_device.c: 2518:     USBCtrlEPServiceComplete();
  5702  0CFC  3185  2501  318C   	fcall	_USBCtrlEPServiceComplete
  5703  0CFF                     i1l474:
  5704  0CFF  0008               	return
  5705  0D00                     __end_of_USBCtrlTrfSetupHandler:
  5706                           
  5707                           	psect	text22
  5708  0501                     __ptext22:	
  5709 ;; *************** function _USBCtrlEPServiceComplete *****************
  5710 ;; Defined at:
  5711 ;;		line 1620 in file "mcc_generated_files/usb/usb_device.c"
  5712 ;; Parameters:    Size  Location     Type
  5713 ;;		None
  5714 ;; Auto vars:     Size  Location     Type
  5715 ;;		None
  5716 ;; Return value:  Size  Location     Type
  5717 ;;                  1    wreg      void 
  5718 ;; Registers used:
  5719 ;;		wreg, fsr0l, fsr0h, fsr1l, fsr1h, status,2, status,0, pclath, cstack
  5720 ;; Tracked objects:
  5721 ;;		On entry : 0/0
  5722 ;;		On exit  : 0/0
  5723 ;;		Unchanged: 0/0
  5724 ;; Data sizes:     COMMON   BANK0   BANK1   BANK2   BANK3   BANK4   BANK5   BANK6   BANK7   BANK8   BANK9  BANK10  BANK1
      +1  BANK12
  5725 ;;      Params:         0       0       0       0       0       0       0       0       0       0       0       0       
      +0       0
  5726 ;;      Locals:         0       0       0       0       0       0       0       0       0       0       0       0       
      +0       0
  5727 ;;      Temps:          2       0       0       0       0       0       0       0       0       0       0       0       
      +0       0
  5728 ;;      Totals:         2       0       0       0       0       0       0       0       0       0       0       0       
      +0       0
  5729 ;;Total ram usage:        2 bytes
  5730 ;; Hardware stack levels used:    1
  5731 ;; Hardware stack levels required when called:    2
  5732 ;; This function calls:
  5733 ;;		_USBCtrlEPAllowDataStage
  5734 ;;		_USBCtrlEPAllowStatusStage
  5735 ;; This function is called by:
  5736 ;;		_USBCtrlTrfSetupHandler
  5737 ;; This function uses a non-reentrant model
  5738 ;;
  5739                           
  5740                           
  5741                           ;psect for function _USBCtrlEPServiceComplete
  5742  0501                     _USBCtrlEPServiceComplete:
  5743  0501                     i1l3637:	
  5744                           ;incstack = 0
  5745                           ; Regs used in _USBCtrlEPServiceComplete: [wreg-fsr1h+status,2+status,0+pclath+cstack]
  5746                           
  5747                           
  5748                           ;mcc_generated_files/usb/usb_device.c: 1626:     UCONbits.PKTDIS = 0;
  5749  0501  003D               	movlb	29	; select bank29
  5750  0502  120E               	bcf	14,4	;volatile
  5751                           
  5752                           ;mcc_generated_files/usb/usb_device.c: 1632:     if(inPipes[0].info.bits.busy == 0)
  5753  0503  0021               	movlb	1	; select bank1
  5754  0504  1BA8               	btfsc	(_inPipes^(0+128)+2),7	;volatile
  5755  0505  2D07               	goto	u241_21
  5756  0506  2D08               	goto	u241_20
  5757  0507                     u241_21:
  5758  0507  2D50               	goto	i1l374
  5759  0508                     u241_20:
  5760  0508                     i1l3639:
  5761                           
  5762                           ;mcc_generated_files/usb/usb_device.c: 1633:     {;mcc_generated_files/usb/usb_device.c:
      +                           1634:         if(outPipes[0].info.bits.busy == 1)
  5763  0508  0023               	movlb	3	; select bank3
  5764  0509  1FB2               	btfss	(_outPipes^(0+384)+2),7	;volatile
  5765  050A  2D0C               	goto	u242_21
  5766  050B  2D0D               	goto	u242_20
  5767  050C                     u242_21:
  5768  050C  2D1F               	goto	i1l3651
  5769  050D                     u242_20:
  5770  050D                     i1l3641:
  5771                           
  5772                           ;mcc_generated_files/usb/usb_device.c: 1635:         {;mcc_generated_files/usb/usb_devic
      +                          e.c: 1636:             controlTransferState = 2;
  5773  050D  3002               	movlw	2
  5774  050E  00F5               	movwf	??_USBCtrlEPServiceComplete
  5775  050F  0875               	movf	??_USBCtrlEPServiceComplete,w
  5776  0510  0021               	movlb	1	; select bank1
  5777  0511  00B0               	movwf	_controlTransferState^(0+128)	;volatile
  5778  0512                     i1l3643:
  5779                           
  5780                           ;mcc_generated_files/usb/usb_device.c: 1647:             if(USBDeferOUTDataStagePackets 
      +                          == 0)
  5781  0512  0023               	movlb	3	; select bank3
  5782  0513  085B               	movf	_USBDeferOUTDataStagePackets^(0+384),w	;volatile
  5783  0514  1D03               	btfss	3,2
  5784  0515  2D17               	goto	u243_21
  5785  0516  2D18               	goto	u243_20
  5786  0517                     u243_21:
  5787  0517  2D1B               	goto	i1l3647
  5788  0518                     u243_20:
  5789  0518                     i1l3645:
  5790                           
  5791                           ;mcc_generated_files/usb/usb_device.c: 1648:             {;mcc_generated_files/usb/usb_d
      +                          evice.c: 1649:                 USBCtrlEPAllowDataStage();
  5792  0518  318D  2556  3185   	fcall	_USBCtrlEPAllowDataStage
  5793  051B                     i1l3647:
  5794                           
  5795                           ;mcc_generated_files/usb/usb_device.c: 1654:             USBStatusStageEnabledFlag2 = 0;
  5796  051B  0023               	movlb	3	; select bank3
  5797  051C  01DD               	clrf	_USBStatusStageEnabledFlag2^(0+384)	;volatile
  5798  051D                     i1l3649:
  5799                           
  5800                           ;mcc_generated_files/usb/usb_device.c: 1655:             USBStatusStageEnabledFlag1 = 0;
  5801  051D  01DE               	clrf	_USBStatusStageEnabledFlag1^(0+384)	;volatile
  5802                           
  5803                           ;mcc_generated_files/usb/usb_device.c: 1656:         }
  5804  051E  2DA3               	goto	i1l384
  5805  051F                     i1l3651:
  5806                           
  5807                           ;mcc_generated_files/usb/usb_device.c: 1658:         {;mcc_generated_files/usb/usb_devic
      +                          e.c: 1663:             pBDTEntryEP0OutNext->CNT = 8;
  5808  051F  0021               	movlb	1	; select bank1
  5809  0520  082B               	movf	_pBDTEntryEP0OutNext^(0+128),w
  5810  0521  3E01               	addlw	1
  5811  0522  00F5               	movwf	??_USBCtrlEPServiceComplete
  5812  0523  3000               	movlw	0
  5813  0524  3D2C               	addwfc	(_pBDTEntryEP0OutNext+1)^(0+128),w
  5814  0525  00F6               	movwf	??_USBCtrlEPServiceComplete+1
  5815  0526  0875               	movf	??_USBCtrlEPServiceComplete,w
  5816  0527  0086               	movwf	6
  5817  0528  0876               	movf	??_USBCtrlEPServiceComplete+1,w
  5818  0529  0087               	movwf	7
  5819  052A  3008               	movlw	8
  5820  052B  0081               	movwf	1
  5821  052C                     i1l3653:
  5822                           
  5823                           ;mcc_generated_files/usb/usb_device.c: 1664:             pBDTEntryEP0OutNext->ADR = (((u
      +                          int16_t)(&SetupPkt)) & 0x7FFF);
  5824  052C  3050               	movlw	80
  5825  052D  00F5               	movwf	??_USBCtrlEPServiceComplete
  5826  052E  3000               	movlw	0
  5827  052F  00F6               	movwf	??_USBCtrlEPServiceComplete+1
  5828  0530  082B               	movf	_pBDTEntryEP0OutNext^(0+128),w
  5829  0531  0086               	movwf	6
  5830  0532  082C               	movf	(_pBDTEntryEP0OutNext+1)^(0+128),w
  5831  0533  0087               	movwf	7
  5832  0534  3142               	addfsr 1,2
  5833  0535  0875               	movf	??_USBCtrlEPServiceComplete,w
  5834  0536  3FC0               	movwi [0]fsr1
  5835  0537  0876               	movf	??_USBCtrlEPServiceComplete+1,w
  5836  0538  3FC1               	movwi [1]fsr1
  5837  0539                     i1l3655:
  5838                           
  5839                           ;mcc_generated_files/usb/usb_device.c: 1665:             pBDTEntryEP0OutNext->STAT.Val =
      +                           0x00|(0x08 & 0x08)|0x04;
  5840  0539  082B               	movf	_pBDTEntryEP0OutNext^(0+128),w
  5841  053A  0086               	movwf	6
  5842  053B  082C               	movf	(_pBDTEntryEP0OutNext+1)^(0+128),w
  5843  053C  0087               	movwf	7
  5844  053D  300C               	movlw	12
  5845  053E  0081               	movwf	1
  5846  053F                     i1l3657:
  5847                           
  5848                           ;mcc_generated_files/usb/usb_device.c: 1666:             pBDTEntryEP0OutNext->STAT.Val |
      +                          = 0x80;
  5849  053F  082B               	movf	_pBDTEntryEP0OutNext^(0+128),w
  5850  0540  0086               	movwf	6
  5851  0541  082C               	movf	(_pBDTEntryEP0OutNext+1)^(0+128),w
  5852  0542  0087               	movwf	7
  5853  0543  1781               	bsf	1,7
  5854  0544                     i1l3659:
  5855                           
  5856                           ;mcc_generated_files/usb/usb_device.c: 1667:             pBDTEntryIn[0]->STAT.Val = 0x04
      +                          ;
  5857  0544  0820               	movf	_pBDTEntryIn^(0+128),w
  5858  0545  0086               	movwf	6
  5859  0546  0821               	movf	(_pBDTEntryIn+1)^(0+128),w
  5860  0547  0087               	movwf	7
  5861  0548  3004               	movlw	4
  5862  0549  0081               	movwf	1
  5863  054A                     i1l3661:
  5864                           
  5865                           ;mcc_generated_files/usb/usb_device.c: 1668:             pBDTEntryIn[0]->STAT.Val |= 0x8
      +                          0;
  5866  054A  0820               	movf	_pBDTEntryIn^(0+128),w
  5867  054B  0086               	movwf	6
  5868  054C  0821               	movf	(_pBDTEntryIn+1)^(0+128),w
  5869  054D  0087               	movwf	7
  5870  054E  1781               	bsf	1,7
  5871  054F  2DA3               	goto	i1l384
  5872  0550                     i1l374:	
  5873                           ;mcc_generated_files/usb/usb_device.c: 1671:     else
  5874                           
  5875                           
  5876                           ;mcc_generated_files/usb/usb_device.c: 1672:     {;mcc_generated_files/usb/usb_device.c:
      +                           1673:   if(SetupPkt.DataDir == (0x80>>7))
  5877  0550  0020               	movlb	0	; select bank0
  5878  0551  1FD0               	btfss	80,7	;volatile
  5879  0552  2D54               	goto	u244_21
  5880  0553  2D55               	goto	u244_20
  5881  0554                     u244_21:
  5882  0554  2D70               	goto	i1l3677
  5883  0555                     u244_20:
  5884  0555                     i1l3663:
  5885                           
  5886                           ;mcc_generated_files/usb/usb_device.c: 1674:   {;mcc_generated_files/usb/usb_device.c: 1
      +                          675:    controlTransferState = 1;
  5887  0555  3001               	movlw	1
  5888  0556  00F5               	movwf	??_USBCtrlEPServiceComplete
  5889  0557  0875               	movf	??_USBCtrlEPServiceComplete,w
  5890  0558  0021               	movlb	1	; select bank1
  5891  0559  00B0               	movwf	_controlTransferState^(0+128)	;volatile
  5892  055A                     i1l3665:
  5893                           
  5894                           ;mcc_generated_files/usb/usb_device.c: 1689:    if(USBDeferINDataStagePackets == 0)
  5895  055A  0023               	movlb	3	; select bank3
  5896  055B  085C               	movf	_USBDeferINDataStagePackets^(0+384),w	;volatile
  5897  055C  1D03               	btfss	3,2
  5898  055D  2D5F               	goto	u245_21
  5899  055E  2D60               	goto	u245_20
  5900  055F                     u245_21:
  5901  055F  2D63               	goto	i1l3669
  5902  0560                     u245_20:
  5903  0560                     i1l3667:
  5904                           
  5905                           ;mcc_generated_files/usb/usb_device.c: 1690:             {;mcc_generated_files/usb/usb_d
      +                          evice.c: 1691:                 USBCtrlEPAllowDataStage();
  5906  0560  318D  2556  3185   	fcall	_USBCtrlEPAllowDataStage
  5907  0563                     i1l3669:
  5908                           
  5909                           ;mcc_generated_files/usb/usb_device.c: 1714:             USBStatusStageEnabledFlag2 = 0;
  5910  0563  0023               	movlb	3	; select bank3
  5911  0564  01DD               	clrf	_USBStatusStageEnabledFlag2^(0+384)	;volatile
  5912  0565                     i1l3671:
  5913                           
  5914                           ;mcc_generated_files/usb/usb_device.c: 1715:             USBStatusStageEnabledFlag1 = 0;
  5915  0565  01DE               	clrf	_USBStatusStageEnabledFlag1^(0+384)	;volatile
  5916  0566                     i1l3673:
  5917                           
  5918                           ;mcc_generated_files/usb/usb_device.c: 1716:             if(USBDeferStatusStagePacket ==
      +                           0)
  5919  0566  0021               	movlb	1	; select bank1
  5920  0567  082E               	movf	_USBDeferStatusStagePacket^(0+128),w	;volatile
  5921  0568  1D03               	btfss	3,2
  5922  0569  2D6B               	goto	u246_21
  5923  056A  2D6C               	goto	u246_20
  5924  056B                     u246_21:
  5925  056B  2DA3               	goto	i1l384
  5926  056C                     u246_20:
  5927  056C                     i1l3675:
  5928                           
  5929                           ;mcc_generated_files/usb/usb_device.c: 1717:             {;mcc_generated_files/usb/usb_d
      +                          evice.c: 1718:                 USBCtrlEPAllowStatusStage();
  5930  056C  318E  268C  3185   	fcall	_USBCtrlEPAllowStatusStage
  5931  056F  2DA3               	goto	i1l384
  5932  0570                     i1l3677:
  5933                           
  5934                           ;mcc_generated_files/usb/usb_device.c: 1722:   {;mcc_generated_files/usb/usb_device.c: 1
      +                          733:    controlTransferState = 2;
  5935  0570  3002               	movlw	2
  5936  0571  00F5               	movwf	??_USBCtrlEPServiceComplete
  5937  0572  0875               	movf	??_USBCtrlEPServiceComplete,w
  5938  0573  0021               	movlb	1	; select bank1
  5939  0574  00B0               	movwf	_controlTransferState^(0+128)	;volatile
  5940  0575                     i1l3679:
  5941                           
  5942                           ;mcc_generated_files/usb/usb_device.c: 1736:    pBDTEntryEP0OutNext->CNT = 8;
  5943  0575  082B               	movf	_pBDTEntryEP0OutNext^(0+128),w
  5944  0576  3E01               	addlw	1
  5945  0577  00F5               	movwf	??_USBCtrlEPServiceComplete
  5946  0578  3000               	movlw	0
  5947  0579  3D2C               	addwfc	(_pBDTEntryEP0OutNext+1)^(0+128),w
  5948  057A  00F6               	movwf	??_USBCtrlEPServiceComplete+1
  5949  057B  0875               	movf	??_USBCtrlEPServiceComplete,w
  5950  057C  0086               	movwf	6
  5951  057D  0876               	movf	??_USBCtrlEPServiceComplete+1,w
  5952  057E  0087               	movwf	7
  5953  057F  3008               	movlw	8
  5954  0580  0081               	movwf	1
  5955  0581                     i1l3681:
  5956                           
  5957                           ;mcc_generated_files/usb/usb_device.c: 1737:    pBDTEntryEP0OutNext->ADR = (((uint16_t)(
      +                          &SetupPkt)) & 0x7FFF);
  5958  0581  3050               	movlw	80
  5959  0582  00F5               	movwf	??_USBCtrlEPServiceComplete
  5960  0583  3000               	movlw	0
  5961  0584  00F6               	movwf	??_USBCtrlEPServiceComplete+1
  5962  0585  082B               	movf	_pBDTEntryEP0OutNext^(0+128),w
  5963  0586  0086               	movwf	6
  5964  0587  082C               	movf	(_pBDTEntryEP0OutNext+1)^(0+128),w
  5965  0588  0087               	movwf	7
  5966  0589  3142               	addfsr 1,2
  5967  058A  0875               	movf	??_USBCtrlEPServiceComplete,w
  5968  058B  3FC0               	movwi [0]fsr1
  5969  058C  0876               	movf	??_USBCtrlEPServiceComplete+1,w
  5970  058D  3FC1               	movwi [1]fsr1
  5971  058E                     i1l3683:
  5972                           
  5973                           ;mcc_generated_files/usb/usb_device.c: 1738:    pBDTEntryEP0OutNext->STAT.Val = 0x04;
  5974  058E  082B               	movf	_pBDTEntryEP0OutNext^(0+128),w
  5975  058F  0086               	movwf	6
  5976  0590  082C               	movf	(_pBDTEntryEP0OutNext+1)^(0+128),w
  5977  0591  0087               	movwf	7
  5978  0592  3004               	movlw	4
  5979  0593  0081               	movwf	1
  5980  0594                     i1l3685:
  5981                           
  5982                           ;mcc_generated_files/usb/usb_device.c: 1739:             pBDTEntryEP0OutNext->STAT.Val |
      +                          = 0x80;
  5983  0594  082B               	movf	_pBDTEntryEP0OutNext^(0+128),w
  5984  0595  0086               	movwf	6
  5985  0596  082C               	movf	(_pBDTEntryEP0OutNext+1)^(0+128),w
  5986  0597  0087               	movwf	7
  5987  0598  1781               	bsf	1,7
  5988  0599                     i1l3687:
  5989                           
  5990                           ;mcc_generated_files/usb/usb_device.c: 1742:             USBStatusStageEnabledFlag2 = 0;
  5991  0599  0023               	movlb	3	; select bank3
  5992  059A  01DD               	clrf	_USBStatusStageEnabledFlag2^(0+384)	;volatile
  5993  059B                     i1l3689:
  5994                           
  5995                           ;mcc_generated_files/usb/usb_device.c: 1743:             USBStatusStageEnabledFlag1 = 0;
  5996  059B  01DE               	clrf	_USBStatusStageEnabledFlag1^(0+384)	;volatile
  5997                           
  5998                           ;mcc_generated_files/usb/usb_device.c: 1744:    if(USBDeferStatusStagePacket == 0)
  5999  059C  0021               	movlb	1	; select bank1
  6000  059D  082E               	movf	_USBDeferStatusStagePacket^(0+128),w	;volatile
  6001  059E  1D03               	btfss	3,2
  6002  059F  2DA1               	goto	u247_21
  6003  05A0  2DA2               	goto	u247_20
  6004  05A1                     u247_21:
  6005  05A1  2DA3               	goto	i1l384
  6006  05A2                     u247_20:
  6007  05A2  2D6C               	goto	i1l3675
  6008  05A3                     i1l384:
  6009  05A3  0008               	return
  6010  05A4                     __end_of_USBCtrlEPServiceComplete:
  6011                           
  6012                           	psect	text23
  6013  0D56                     __ptext23:	
  6014 ;; *************** function _USBCtrlEPAllowDataStage *****************
  6015 ;; Defined at:
  6016 ;;		line 1492 in file "mcc_generated_files/usb/usb_device.c"
  6017 ;; Parameters:    Size  Location     Type
  6018 ;;		None
  6019 ;; Auto vars:     Size  Location     Type
  6020 ;;		None
  6021 ;; Return value:  Size  Location     Type
  6022 ;;                  1    wreg      void 
  6023 ;; Registers used:
  6024 ;;		wreg, fsr0l, fsr0h, fsr1l, fsr1h, status,2, status,0, pclath, cstack
  6025 ;; Tracked objects:
  6026 ;;		On entry : 0/0
  6027 ;;		On exit  : 0/0
  6028 ;;		Unchanged: 0/0
  6029 ;; Data sizes:     COMMON   BANK0   BANK1   BANK2   BANK3   BANK4   BANK5   BANK6   BANK7   BANK8   BANK9  BANK10  BANK1
      +1  BANK12
  6030 ;;      Params:         0       0       0       0       0       0       0       0       0       0       0       0       
      +0       0
  6031 ;;      Locals:         0       0       0       0       0       0       0       0       0       0       0       0       
      +0       0
  6032 ;;      Temps:          2       0       0       0       0       0       0       0       0       0       0       0       
      +0       0
  6033 ;;      Totals:         2       0       0       0       0       0       0       0       0       0       0       0       
      +0       0
  6034 ;;Total ram usage:        2 bytes
  6035 ;; Hardware stack levels used:    1
  6036 ;; Hardware stack levels required when called:    1
  6037 ;; This function calls:
  6038 ;;		_USBCtrlTrfTxService
  6039 ;; This function is called by:
  6040 ;;		_USBCtrlEPServiceComplete
  6041 ;; This function uses a non-reentrant model
  6042 ;;
  6043                           
  6044                           
  6045                           ;psect for function _USBCtrlEPAllowDataStage
  6046  0D56                     _USBCtrlEPAllowDataStage:
  6047  0D56                     i1l3393:	
  6048                           ;incstack = 0
  6049                           ; Regs used in _USBCtrlEPAllowDataStage: [wreg-fsr1h+status,2+status,0+pclath+cstack]
  6050                           
  6051                           
  6052                           ;mcc_generated_files/usb/usb_device.c: 1494:     USBDeferINDataStagePackets = 0;
  6053  0D56  0023               	movlb	3	; select bank3
  6054  0D57  01DC               	clrf	_USBDeferINDataStagePackets^(0+384)	;volatile
  6055                           
  6056                           ;mcc_generated_files/usb/usb_device.c: 1495:     USBDeferOUTDataStagePackets = 0;
  6057  0D58  01DB               	clrf	_USBDeferOUTDataStagePackets^(0+384)	;volatile
  6058  0D59                     i1l3395:
  6059                           
  6060                           ;mcc_generated_files/usb/usb_device.c: 1497:     if(controlTransferState == 2)
  6061  0D59  3002               	movlw	2
  6062  0D5A  0021               	movlb	1	; select bank1
  6063  0D5B  0630               	xorwf	_controlTransferState^(0+128),w	;volatile
  6064  0D5C  1D03               	btfss	3,2
  6065  0D5D  2D5F               	goto	u208_21
  6066  0D5E  2D60               	goto	u208_20
  6067  0D5F                     u208_21:
  6068  0D5F  2D85               	goto	i1l3405
  6069  0D60                     u208_20:
  6070  0D60                     i1l3397:
  6071                           
  6072                           ;mcc_generated_files/usb/usb_device.c: 1498:     {;mcc_generated_files/usb/usb_device.c:
      +                           1500:         pBDTEntryEP0OutNext->CNT = 8;
  6073  0D60  082B               	movf	_pBDTEntryEP0OutNext^(0+128),w
  6074  0D61  3E01               	addlw	1
  6075  0D62  00F3               	movwf	??_USBCtrlEPAllowDataStage
  6076  0D63  3000               	movlw	0
  6077  0D64  3D2C               	addwfc	(_pBDTEntryEP0OutNext+1)^(0+128),w
  6078  0D65  00F4               	movwf	??_USBCtrlEPAllowDataStage+1
  6079  0D66  0873               	movf	??_USBCtrlEPAllowDataStage,w
  6080  0D67  0086               	movwf	6
  6081  0D68  0874               	movf	??_USBCtrlEPAllowDataStage+1,w
  6082  0D69  0087               	movwf	7
  6083  0D6A  3008               	movlw	8
  6084  0D6B  0081               	movwf	1
  6085  0D6C                     i1l3399:
  6086                           
  6087                           ;mcc_generated_files/usb/usb_device.c: 1501:         pBDTEntryEP0OutNext->ADR = (((uint1
      +                          6_t)(&CtrlTrfData)) & 0x7FFF);
  6088  0D6C  3058               	movlw	88
  6089  0D6D  00F3               	movwf	??_USBCtrlEPAllowDataStage
  6090  0D6E  3000               	movlw	0
  6091  0D6F  00F4               	movwf	??_USBCtrlEPAllowDataStage+1
  6092  0D70  082B               	movf	_pBDTEntryEP0OutNext^(0+128),w
  6093  0D71  0086               	movwf	6
  6094  0D72  082C               	movf	(_pBDTEntryEP0OutNext+1)^(0+128),w
  6095  0D73  0087               	movwf	7
  6096  0D74  3142               	addfsr 1,2
  6097  0D75  0873               	movf	??_USBCtrlEPAllowDataStage,w
  6098  0D76  3FC0               	movwi [0]fsr1
  6099  0D77  0874               	movf	??_USBCtrlEPAllowDataStage+1,w
  6100  0D78  3FC1               	movwi [1]fsr1
  6101  0D79                     i1l3401:
  6102                           
  6103                           ;mcc_generated_files/usb/usb_device.c: 1502:         pBDTEntryEP0OutNext->STAT.Val = 0x4
      +                          0|(0x08 & 0x08);
  6104  0D79  082B               	movf	_pBDTEntryEP0OutNext^(0+128),w
  6105  0D7A  0086               	movwf	6
  6106  0D7B  082C               	movf	(_pBDTEntryEP0OutNext+1)^(0+128),w
  6107  0D7C  0087               	movwf	7
  6108  0D7D  3048               	movlw	72
  6109  0D7E  0081               	movwf	1
  6110  0D7F                     i1l3403:
  6111                           
  6112                           ;mcc_generated_files/usb/usb_device.c: 1503:         pBDTEntryEP0OutNext->STAT.Val |= 0x
      +                          80;
  6113  0D7F  082B               	movf	_pBDTEntryEP0OutNext^(0+128),w
  6114  0D80  0086               	movwf	6
  6115  0D81  082C               	movf	(_pBDTEntryEP0OutNext+1)^(0+128),w
  6116  0D82  0087               	movwf	7
  6117  0D83  1781               	bsf	1,7
  6118                           
  6119                           ;mcc_generated_files/usb/usb_device.c: 1504:     }
  6120  0D84  2DB5               	goto	i1l366
  6121  0D85                     i1l3405:
  6122                           
  6123                           ;mcc_generated_files/usb/usb_device.c: 1506:     {;mcc_generated_files/usb/usb_device.c:
      +                           1509:   if(SetupPkt.wLength < inPipes[0].wCount.Val)
  6124  0D85  082A               	movf	((_inPipes+1)^(0+128)+3),w	;volatile
  6125  0D86  0020               	movlb	0	; select bank0
  6126  0D87  0257               	subwf	87,w	;volatile
  6127  0D88  1D03               	skipz
  6128  0D89  2D8E               	goto	u209_25
  6129  0D8A  0021               	movlb	1	; select bank1
  6130  0D8B  0829               	movf	(_inPipes^(0+128)+3),w	;volatile
  6131  0D8C  0020               	movlb	0	; select bank0
  6132  0D8D  0256               	subwf	86,w	;volatile
  6133  0D8E                     u209_25:
  6134  0D8E  1803               	skipnc
  6135  0D8F  2D91               	goto	u209_21
  6136  0D90  2D92               	goto	u209_20
  6137  0D91                     u209_21:
  6138  0D91  2D99               	goto	i1l3409
  6139  0D92                     u209_20:
  6140  0D92                     i1l3407:
  6141                           
  6142                           ;mcc_generated_files/usb/usb_device.c: 1510:   {;mcc_generated_files/usb/usb_device.c: 1
      +                          511:    inPipes[0].wCount.Val = SetupPkt.wLength;
  6143  0D92  0857               	movf	87,w	;volatile
  6144  0D93  0021               	movlb	1	; select bank1
  6145  0D94  00AA               	movwf	((_inPipes+1)^(0+128)+3)	;volatile
  6146  0D95  0020               	movlb	0	; select bank0
  6147  0D96  0856               	movf	86,w	;volatile
  6148  0D97  0021               	movlb	1	; select bank1
  6149  0D98  00A9               	movwf	(_inPipes^(0+128)+3)	;volatile
  6150  0D99                     i1l3409:
  6151                           
  6152                           ;mcc_generated_files/usb/usb_device.c: 1513:   USBCtrlTrfTxService();
  6153  0D99  318F  277F  318D   	fcall	_USBCtrlTrfTxService
  6154  0D9C                     i1l3411:
  6155                           
  6156                           ;mcc_generated_files/usb/usb_device.c: 1518:   pBDTEntryIn[0]->ADR = (((uint16_t)(&CtrlT
      +                          rfData)) & 0x7FFF);
  6157  0D9C  3058               	movlw	88
  6158  0D9D  00F3               	movwf	??_USBCtrlEPAllowDataStage
  6159  0D9E  3000               	movlw	0
  6160  0D9F  00F4               	movwf	??_USBCtrlEPAllowDataStage+1
  6161  0DA0  0021               	movlb	1	; select bank1
  6162  0DA1  0820               	movf	_pBDTEntryIn^(0+128),w
  6163  0DA2  0086               	movwf	6
  6164  0DA3  0821               	movf	(_pBDTEntryIn+1)^(0+128),w
  6165  0DA4  0087               	movwf	7
  6166  0DA5  3142               	addfsr 1,2
  6167  0DA6  0873               	movf	??_USBCtrlEPAllowDataStage,w
  6168  0DA7  3FC0               	movwi [0]fsr1
  6169  0DA8  0874               	movf	??_USBCtrlEPAllowDataStage+1,w
  6170  0DA9  3FC1               	movwi [1]fsr1
  6171  0DAA                     i1l3413:
  6172                           
  6173                           ;mcc_generated_files/usb/usb_device.c: 1519:   pBDTEntryIn[0]->STAT.Val = 0x40|(0x08 & 0
      +                          x08);
  6174  0DAA  0820               	movf	_pBDTEntryIn^(0+128),w
  6175  0DAB  0086               	movwf	6
  6176  0DAC  0821               	movf	(_pBDTEntryIn+1)^(0+128),w
  6177  0DAD  0087               	movwf	7
  6178  0DAE  3048               	movlw	72
  6179  0DAF  0081               	movwf	1
  6180  0DB0                     i1l3415:
  6181                           
  6182                           ;mcc_generated_files/usb/usb_device.c: 1520:         pBDTEntryIn[0]->STAT.Val |= 0x80;
  6183  0DB0  0820               	movf	_pBDTEntryIn^(0+128),w
  6184  0DB1  0086               	movwf	6
  6185  0DB2  0821               	movf	(_pBDTEntryIn+1)^(0+128),w
  6186  0DB3  0087               	movwf	7
  6187  0DB4  1781               	bsf	1,7
  6188  0DB5                     i1l366:
  6189  0DB5  0008               	return
  6190  0DB6                     __end_of_USBCtrlEPAllowDataStage:
  6191                           
  6192                           	psect	text24
  6193  06BC                     __ptext24:	
  6194 ;; *************** function _USBCheckStdRequest *****************
  6195 ;; Defined at:
  6196 ;;		line 2690 in file "mcc_generated_files/usb/usb_device.c"
  6197 ;; Parameters:    Size  Location     Type
  6198 ;;		None
  6199 ;; Auto vars:     Size  Location     Type
  6200 ;;		None
  6201 ;; Return value:  Size  Location     Type
  6202 ;;                  1    wreg      void 
  6203 ;; Registers used:
  6204 ;;		wreg, fsr0l, fsr0h, fsr1l, fsr1h, status,2, status,0, pclath, cstack
  6205 ;; Tracked objects:
  6206 ;;		On entry : 0/0
  6207 ;;		On exit  : 0/0
  6208 ;;		Unchanged: 0/0
  6209 ;; Data sizes:     COMMON   BANK0   BANK1   BANK2   BANK3   BANK4   BANK5   BANK6   BANK7   BANK8   BANK9  BANK10  BANK1
      +1  BANK12
  6210 ;;      Params:         0       0       0       0       0       0       0       0       0       0       0       0       
      +0       0
  6211 ;;      Locals:         0       0       0       0       0       0       0       0       0       0       0       0       
      +0       0
  6212 ;;      Temps:          0       2       0       0       0       0       0       0       0       0       0       0       
      +0       0
  6213 ;;      Totals:         0       2       0       0       0       0       0       0       0       0       0       0       
      +0       0
  6214 ;;Total ram usage:        2 bytes
  6215 ;; Hardware stack levels used:    1
  6216 ;; Hardware stack levels required when called:    5
  6217 ;; This function calls:
  6218 ;;		_USBStdFeatureReqHandler
  6219 ;;		_USBStdGetDscHandler
  6220 ;;		_USBStdGetStatusHandler
  6221 ;;		_USBStdSetCfgHandler
  6222 ;;		_USER_USB_CALLBACK_EVENT_HANDLER
  6223 ;; This function is called by:
  6224 ;;		_USBCtrlTrfSetupHandler
  6225 ;; This function uses a non-reentrant model
  6226 ;;
  6227                           
  6228                           
  6229                           ;psect for function _USBCheckStdRequest
  6230  06BC                     _USBCheckStdRequest:
  6231  06BC                     i1l4879:	
  6232                           ;incstack = 0
  6233                           ; Regs used in _USBCheckStdRequest: [wreg-fsr1h+status,2+status,0+pclath+cstack]
  6234                           
  6235                           
  6236                           ;mcc_generated_files/usb/usb_device.c: 2692:     if(SetupPkt.RequestType != (0x00>>5)) r
      +                          eturn;
  6237  06BC  0020               	movlb	0	; select bank0
  6238  06BD  0E50               	swapf	80,w	;volatile
  6239  06BE  0C89               	rrf	9,f
  6240  06BF  3903               	andlw	3
  6241  06C0  3A00               	xorlw	0
  6242  06C1  1903               	skipnz
  6243  06C2  2EC4               	goto	u367_21
  6244  06C3  2EC5               	goto	u367_20
  6245  06C4                     u367_21:
  6246  06C4  2F18               	goto	i1l4915
  6247  06C5                     u367_20:
  6248  06C5  2F43               	goto	i1l499
  6249  06C6                     i1l501:	
  6250                           ;mcc_generated_files/usb/usb_device.c: 2695:     {;mcc_generated_files/usb/usb_device.c:
      +                           2696:         case 5:
  6251                           
  6252                           
  6253                           ;mcc_generated_files/usb/usb_device.c: 2697:             inPipes[0].info.bits.busy = 1;
  6254  06C6  0021               	movlb	1	; select bank1
  6255  06C7  17A8               	bsf	(_inPipes^(0+128)+2),7	;volatile
  6256  06C8                     i1l4883:
  6257                           
  6258                           ;mcc_generated_files/usb/usb_device.c: 2698:             USBDeviceState = ADR_PENDING_ST
      +                          ATE;
  6259  06C8  3008               	movlw	8
  6260  06C9  0020               	movlb	0	; select bank0
  6261  06CA  00ED               	movwf	??_USBCheckStdRequest
  6262  06CB  086D               	movf	??_USBCheckStdRequest,w
  6263  06CC  0021               	movlb	1	; select bank1
  6264  06CD  00B3               	movwf	_USBDeviceState^(0+128)	;volatile
  6265                           
  6266                           ;mcc_generated_files/usb/usb_device.c: 2700:             break;
  6267  06CE  2F43               	goto	i1l499
  6268  06CF                     i1l4885:
  6269                           
  6270                           ;mcc_generated_files/usb/usb_device.c: 2702:             USBStdGetDscHandler();
  6271  06CF  3186  2631  3186   	fcall	_USBStdGetDscHandler
  6272                           
  6273                           ;mcc_generated_files/usb/usb_device.c: 2703:             break;
  6274  06D2  2F43               	goto	i1l499
  6275  06D3                     i1l4887:
  6276                           
  6277                           ;mcc_generated_files/usb/usb_device.c: 2705:             USBStdSetCfgHandler();
  6278  06D3  3185  25A4  3186   	fcall	_USBStdSetCfgHandler
  6279                           
  6280                           ;mcc_generated_files/usb/usb_device.c: 2706:             break;
  6281  06D6  2F43               	goto	i1l499
  6282  06D7                     i1l4889:
  6283                           
  6284                           ;mcc_generated_files/usb/usb_device.c: 2708:             inPipes[0].pSrc.bRam = (uint8_t
      +                          *)&USBActiveConfiguration;
  6285  06D7  30B5               	movlw	low _USBActiveConfiguration
  6286  06D8  0021               	movlb	1	; select bank1
  6287  06D9  00A6               	movwf	_inPipes^(0+128)	;volatile
  6288  06DA  3000               	movlw	high _USBActiveConfiguration
  6289  06DB  00A7               	movwf	(_inPipes+1)^(0+128)	;volatile
  6290  06DC                     i1l4891:
  6291                           
  6292                           ;mcc_generated_files/usb/usb_device.c: 2709:             inPipes[0].info.bits.ctrl_trf_m
      +                          em = 0x01;
  6293  06DC  1428               	bsf	(_inPipes^(0+128)+2),0	;volatile
  6294  06DD                     i1l4893:
  6295                           
  6296                           ;mcc_generated_files/usb/usb_device.c: 2710:             inPipes[0].wCount.v[0] = 1;
  6297  06DD  3001               	movlw	1
  6298  06DE  0020               	movlb	0	; select bank0
  6299  06DF  00ED               	movwf	??_USBCheckStdRequest
  6300  06E0  086D               	movf	??_USBCheckStdRequest,w
  6301  06E1  0021               	movlb	1	; select bank1
  6302  06E2  00A9               	movwf	(_inPipes^(0+128)+3)	;volatile
  6303  06E3                     i1l4895:
  6304                           
  6305                           ;mcc_generated_files/usb/usb_device.c: 2711:             inPipes[0].info.bits.busy = 1;
  6306  06E3  17A8               	bsf	(_inPipes^(0+128)+2),7	;volatile
  6307                           
  6308                           ;mcc_generated_files/usb/usb_device.c: 2712:             break;
  6309  06E4  2F43               	goto	i1l499
  6310  06E5                     i1l4897:
  6311                           
  6312                           ;mcc_generated_files/usb/usb_device.c: 2714:             USBStdGetStatusHandler();
  6313  06E5  318D  25B6  3186   	fcall	_USBStdGetStatusHandler
  6314                           
  6315                           ;mcc_generated_files/usb/usb_device.c: 2715:             break;
  6316  06E8  2F43               	goto	i1l499
  6317  06E9                     i1l4899:
  6318                           
  6319                           ;mcc_generated_files/usb/usb_device.c: 2718:             USBStdFeatureReqHandler();
  6320  06E9  3180  206F  3186   	fcall	_USBStdFeatureReqHandler
  6321                           
  6322                           ;mcc_generated_files/usb/usb_device.c: 2719:             break;
  6323  06EC  2F43               	goto	i1l499
  6324  06ED                     i1l4901:
  6325                           
  6326                           ;mcc_generated_files/usb/usb_device.c: 2721:             inPipes[0].pSrc.bRam = (uint8_t
      +                          *)&USBAlternateInterface[SetupPkt.bIntfID];
  6327  06ED  0854               	movf	84,w	;volatile
  6328  06EE  3EEB               	addlw	(low (_USBAlternateInterface| (0+256)))& (0+255)
  6329  06EF  0021               	movlb	1	; select bank1
  6330  06F0  00A6               	movwf	_inPipes^(0+128)	;volatile
  6331  06F1  3001               	movlw	1
  6332  06F2  00A7               	movwf	(_inPipes+1)^(0+128)	;volatile
  6333  06F3                     i1l4903:
  6334                           
  6335                           ;mcc_generated_files/usb/usb_device.c: 2722:             inPipes[0].info.bits.ctrl_trf_m
      +                          em = 0x01;
  6336  06F3  1428               	bsf	(_inPipes^(0+128)+2),0	;volatile
  6337  06F4                     i1l4905:
  6338                           
  6339                           ;mcc_generated_files/usb/usb_device.c: 2723:             inPipes[0].wCount.v[0] = 1;
  6340  06F4  3001               	movlw	1
  6341  06F5  0020               	movlb	0	; select bank0
  6342  06F6  00ED               	movwf	??_USBCheckStdRequest
  6343  06F7  086D               	movf	??_USBCheckStdRequest,w
  6344  06F8  0021               	movlb	1	; select bank1
  6345  06F9  00A9               	movwf	(_inPipes^(0+128)+3)	;volatile
  6346  06FA                     i1l4907:
  6347                           
  6348                           ;mcc_generated_files/usb/usb_device.c: 2724:             inPipes[0].info.bits.busy = 1;
  6349  06FA  17A8               	bsf	(_inPipes^(0+128)+2),7	;volatile
  6350                           
  6351                           ;mcc_generated_files/usb/usb_device.c: 2725:             break;
  6352  06FB  2F43               	goto	i1l499
  6353  06FC                     i1l510:	
  6354                           ;mcc_generated_files/usb/usb_device.c: 2726:         case 11:
  6355                           
  6356                           
  6357                           ;mcc_generated_files/usb/usb_device.c: 2727:             inPipes[0].info.bits.busy = 1;
  6358  06FC  0021               	movlb	1	; select bank1
  6359  06FD  17A8               	bsf	(_inPipes^(0+128)+2),7	;volatile
  6360  06FE                     i1l4909:
  6361                           
  6362                           ;mcc_generated_files/usb/usb_device.c: 2728:             USBAlternateInterface[SetupPkt.
      +                          bIntfID] = SetupPkt.bAltID;
  6363  06FE  0020               	movlb	0	; select bank0
  6364  06FF  0852               	movf	82,w	;volatile
  6365  0700  00ED               	movwf	??_USBCheckStdRequest
  6366  0701  0854               	movf	84,w	;volatile
  6367  0702  3EEB               	addlw	(low (_USBAlternateInterface| (0+256)))& (0+255)
  6368  0703  0086               	movwf	6
  6369  0704  3001               	movlw	1	; select bank3/4
  6370  0705  0087               	movwf	7
  6371  0706  086D               	movf	??_USBCheckStdRequest,w
  6372  0707  0081               	movwf	1
  6373                           
  6374                           ;mcc_generated_files/usb/usb_device.c: 2729:             break;
  6375  0708  2F43               	goto	i1l499
  6376  0709                     i1l4911:
  6377                           
  6378                           ;mcc_generated_files/usb/usb_device.c: 2731:             USER_USB_CALLBACK_EVENT_HANDLER
      +                          ((USB_EVENT)EVENT_SET_DESCRIPTOR,0,0);
  6379  0709  3002               	movlw	2
  6380  070A  00E0               	movwf	USER_USB_CALLBACK_EVENT_HANDLER@event
  6381  070B  3000               	movlw	0
  6382  070C  00E1               	movwf	USER_USB_CALLBACK_EVENT_HANDLER@event+1
  6383  070D  3000               	movlw	0
  6384  070E  00E2               	movwf	USER_USB_CALLBACK_EVENT_HANDLER@pdata
  6385  070F  3000               	movlw	0
  6386  0710  00E3               	movwf	USER_USB_CALLBACK_EVENT_HANDLER@pdata+1
  6387  0711  3000               	movlw	0
  6388  0712  00E4               	movwf	USER_USB_CALLBACK_EVENT_HANDLER@size
  6389  0713  00E5               	movwf	USER_USB_CALLBACK_EVENT_HANDLER@size+1
  6390  0714  3187  27CB  3186   	fcall	_USER_USB_CALLBACK_EVENT_HANDLER
  6391                           
  6392                           ;mcc_generated_files/usb/usb_device.c: 2732:             break;
  6393  0717  2F43               	goto	i1l499
  6394  0718                     i1l4915:
  6395  0718  0851               	movf	81,w	;volatile
  6396  0719  00ED               	movwf	??_USBCheckStdRequest
  6397  071A  01EE               	clrf	??_USBCheckStdRequest+1
  6398                           
  6399                           ; Switch on 2 bytes has been partitioned into a top level switch of size 1, and 1 sub-sw
      +                          itches
  6400                           ; Switch size 1, requested type "simple"
  6401                           ; Number of cases is 1, Range of values is 0 to 0
  6402                           ; switch strategies available:
  6403                           ; Name         Instructions Cycles
  6404                           ; simple_byte            4     3 (average)
  6405                           ; direct_byte            8     6 (fixed)
  6406                           ; jumptable            260     6 (fixed)
  6407                           ;	Chosen strategy is simple_byte
  6408  071B  086E               	movf	??_USBCheckStdRequest+1,w
  6409  071C  3A00               	xorlw	0	; case 0
  6410  071D  1903               	skipnz
  6411  071E  2F20               	goto	i1l5373
  6412  071F  2F43               	goto	i1l499
  6413  0720                     i1l5373:
  6414                           
  6415                           ; Switch size 1, requested type "simple"
  6416                           ; Number of cases is 11, Range of values is 0 to 12
  6417                           ; switch strategies available:
  6418                           ; Name         Instructions Cycles
  6419                           ; direct_byte           32     6 (fixed)
  6420                           ; simple_byte           34    18 (average)
  6421                           ; jumptable            260     6 (fixed)
  6422                           ;	Chosen strategy is simple_byte
  6423  0720  086D               	movf	??_USBCheckStdRequest,w
  6424  0721  3A00               	xorlw	0	; case 0
  6425  0722  1903               	skipnz
  6426  0723  2EE5               	goto	i1l4897
  6427  0724  3A01               	xorlw	1	; case 1
  6428  0725  1903               	skipnz
  6429  0726  2EE9               	goto	i1l4899
  6430  0727  3A02               	xorlw	2	; case 3
  6431  0728  1903               	skipnz
  6432  0729  2EE9               	goto	i1l4899
  6433  072A  3A06               	xorlw	6	; case 5
  6434  072B  1903               	skipnz
  6435  072C  2EC6               	goto	i1l501
  6436  072D  3A03               	xorlw	3	; case 6
  6437  072E  1903               	skipnz
  6438  072F  2ECF               	goto	i1l4885
  6439  0730  3A01               	xorlw	1	; case 7
  6440  0731  1903               	skipnz
  6441  0732  2F09               	goto	i1l4911
  6442  0733  3A0F               	xorlw	15	; case 8
  6443  0734  1903               	skipnz
  6444  0735  2ED7               	goto	i1l4889
  6445  0736  3A01               	xorlw	1	; case 9
  6446  0737  1903               	skipnz
  6447  0738  2ED3               	goto	i1l4887
  6448  0739  3A03               	xorlw	3	; case 10
  6449  073A  1903               	skipnz
  6450  073B  2EED               	goto	i1l4901
  6451  073C  3A01               	xorlw	1	; case 11
  6452  073D  1903               	skipnz
  6453  073E  2EFC               	goto	i1l510
  6454  073F  3A07               	xorlw	7	; case 12
  6455  0740  1903               	skipnz
  6456  0741  2F43               	goto	i1l499
  6457  0742  2F43               	goto	i1l499
  6458  0743                     i1l499:
  6459  0743  0008               	return
  6460  0744                     __end_of_USBCheckStdRequest:
  6461                           
  6462                           	psect	text25
  6463  05A4                     __ptext25:	
  6464 ;; *************** function _USBStdSetCfgHandler *****************
  6465 ;; Defined at:
  6466 ;;		line 1972 in file "mcc_generated_files/usb/usb_device.c"
  6467 ;; Parameters:    Size  Location     Type
  6468 ;;		None
  6469 ;; Auto vars:     Size  Location     Type
  6470 ;;  p               2    7[BANK0 ] PTR unsigned char 
  6471 ;;		 -> UEP1(1), 
  6472 ;;  i               1    9[BANK0 ] unsigned char 
  6473 ;;  i               1   10[BANK0 ] unsigned char 
  6474 ;; Return value:  Size  Location     Type
  6475 ;;                  1    wreg      void 
  6476 ;; Registers used:
  6477 ;;		wreg, fsr0l, fsr0h, fsr1l, fsr1h, status,2, status,0, pclath, cstack
  6478 ;; Tracked objects:
  6479 ;;		On entry : 0/0
  6480 ;;		On exit  : 0/0
  6481 ;;		Unchanged: 0/0
  6482 ;; Data sizes:     COMMON   BANK0   BANK1   BANK2   BANK3   BANK4   BANK5   BANK6   BANK7   BANK8   BANK9  BANK10  BANK1
      +1  BANK12
  6483 ;;      Params:         0       0       0       0       0       0       0       0       0       0       0       0       
      +0       0
  6484 ;;      Locals:         0       4       0       0       0       0       0       0       0       0       0       0       
      +0       0
  6485 ;;      Temps:          0       1       0       0       0       0       0       0       0       0       0       0       
      +0       0
  6486 ;;      Totals:         0       5       0       0       0       0       0       0       0       0       0       0       
      +0       0
  6487 ;;Total ram usage:        5 bytes
  6488 ;; Hardware stack levels used:    1
  6489 ;; Hardware stack levels required when called:    4
  6490 ;; This function calls:
  6491 ;;		_USER_USB_CALLBACK_EVENT_HANDLER
  6492 ;;		_memset
  6493 ;; This function is called by:
  6494 ;;		_USBCheckStdRequest
  6495 ;; This function uses a non-reentrant model
  6496 ;;
  6497                           
  6498                           
  6499                           ;psect for function _USBStdSetCfgHandler
  6500  05A4                     _USBStdSetCfgHandler:
  6501  05A4                     i1l4811:	
  6502                           ;incstack = 0
  6503                           ; Regs used in _USBStdSetCfgHandler: [wreg-fsr1h+status,2+status,0+pclath+cstack]
  6504                           
  6505                           
  6506                           ;mcc_generated_files/usb/usb_device.c: 1974:     uint8_t i;;mcc_generated_files/usb/usb_
      +                          device.c: 1977:     inPipes[0].info.bits.busy = 1;
  6507  05A4  0021               	movlb	1	; select bank1
  6508  05A5  17A8               	bsf	(_inPipes^(0+128)+2),7	;volatile
  6509                           
  6510                           ;mcc_generated_files/usb/usb_device.c: 1980:     { uint8_t i; uint8_t* p = (uint8_t*)&UE
      +                          P1; for(i=0;i<2;i++) *p++ = 0; };
  6511  05A6  300E               	movlw	14
  6512  05A7  0020               	movlb	0	; select bank0
  6513  05A8  00E8               	movwf	USBStdSetCfgHandler@p+1
  6514  05A9  3099               	movlw	153
  6515  05AA  00E7               	movwf	USBStdSetCfgHandler@p
  6516  05AB                     i1l4813:
  6517  05AB  01E9               	clrf	USBStdSetCfgHandler@i_1640
  6518  05AC                     i1l4819:
  6519  05AC  0867               	movf	USBStdSetCfgHandler@p,w
  6520  05AD  0086               	movwf	6
  6521  05AE  0868               	movf	USBStdSetCfgHandler@p+1,w
  6522  05AF  0087               	movwf	7
  6523  05B0  0181               	clrf	1
  6524  05B1                     i1l4821:
  6525  05B1  3001               	movlw	1
  6526  05B2  07E7               	addwf	USBStdSetCfgHandler@p,f
  6527  05B3  3000               	movlw	0
  6528  05B4  3DE8               	addwfc	USBStdSetCfgHandler@p+1,f
  6529  05B5                     i1l4823:
  6530  05B5  3001               	movlw	1
  6531  05B6  00E6               	movwf	??_USBStdSetCfgHandler
  6532  05B7  0866               	movf	??_USBStdSetCfgHandler,w
  6533  05B8  07E9               	addwf	USBStdSetCfgHandler@i_1640,f
  6534  05B9                     i1l4825:
  6535  05B9  3002               	movlw	2
  6536  05BA  0269               	subwf	USBStdSetCfgHandler@i_1640,w
  6537  05BB  1C03               	skipc
  6538  05BC  2DBE               	goto	u362_21
  6539  05BD  2DBF               	goto	u362_20
  6540  05BE                     u362_21:
  6541  05BE  2DAC               	goto	i1l4819
  6542  05BF                     u362_20:
  6543  05BF                     i1l4827:
  6544                           
  6545                           ;mcc_generated_files/usb/usb_device.c: 1983:     memset((void*)&BDT[0], 0x00, sizeof(BDT
      +                          ));
  6546  05BF  3020               	movlw	32
  6547  05C0  00F0               	movwf	memset@dest
  6548  05C1  3000               	movlw	0
  6549  05C2  00F1               	movwf	memset@dest+1
  6550  05C3  3000               	movlw	0
  6551  05C4  00F2               	movwf	memset@c
  6552  05C5  00F3               	movwf	memset@c+1
  6553  05C6  3030               	movlw	48
  6554  05C7  00F4               	movwf	memset@n
  6555  05C8  3000               	movlw	0
  6556  05C9  00F5               	movwf	memset@n+1
  6557  05CA  3182  22E0  3185   	fcall	_memset
  6558  05CD                     i1l4829:
  6559                           
  6560                           ;mcc_generated_files/usb/usb_device.c: 1986:     UCONbits.PPBRST = 1;
  6561  05CD  003D               	movlb	29	; select bank29
  6562  05CE  170E               	bsf	14,6	;volatile
  6563  05CF                     i1l4831:
  6564                           
  6565                           ;mcc_generated_files/usb/usb_device.c: 1991:  for(i = 0; i < (uint8_t)(2 +1u); i++)
  6566  05CF  0020               	movlb	0	; select bank0
  6567  05D0  01EA               	clrf	USBStdSetCfgHandler@i
  6568  05D1                     i1l4837:
  6569                           
  6570                           ;mcc_generated_files/usb/usb_device.c: 1992:  {;mcc_generated_files/usb/usb_device.c: 19
      +                          93:   ep_data_in[i].Val = 0u;
  6571  05D1  086A               	movf	USBStdSetCfgHandler@i,w
  6572  05D2  3EC4               	addlw	(low (_ep_data_in| (0+256)))& (0+255)
  6573  05D3  0086               	movwf	6
  6574  05D4  3001               	movlw	1	; select bank3/4
  6575  05D5  0087               	movwf	7
  6576  05D6  0181               	clrf	1
  6577                           
  6578                           ;mcc_generated_files/usb/usb_device.c: 1994:         ep_data_out[i].Val = 0u;
  6579  05D7  086A               	movf	USBStdSetCfgHandler@i,w
  6580  05D8  3EC1               	addlw	(low (_ep_data_out| (0+256)))& (0+255)
  6581  05D9  0086               	movwf	6
  6582  05DA  3001               	movlw	1	; select bank3/4
  6583  05DB  0087               	movwf	7
  6584  05DC  0181               	clrf	1
  6585  05DD                     i1l4839:
  6586                           
  6587                           ;mcc_generated_files/usb/usb_device.c: 1995:  }
  6588  05DD  3001               	movlw	1
  6589  05DE  00E6               	movwf	??_USBStdSetCfgHandler
  6590  05DF  0866               	movf	??_USBStdSetCfgHandler,w
  6591  05E0  07EA               	addwf	USBStdSetCfgHandler@i,f
  6592  05E1                     i1l4841:
  6593  05E1  3003               	movlw	3
  6594  05E2  026A               	subwf	USBStdSetCfgHandler@i,w
  6595  05E3  1C03               	skipc
  6596  05E4  2DE6               	goto	u363_21
  6597  05E5  2DE7               	goto	u363_20
  6598  05E6                     u363_21:
  6599  05E6  2DD1               	goto	i1l4837
  6600  05E7                     u363_20:
  6601  05E7                     i1l4843:
  6602                           
  6603                           ;mcc_generated_files/usb/usb_device.c: 1998:     memset((void*)&USBAlternateInterface,0x
      +                          00,2);
  6604  05E7  30EB               	movlw	low _USBAlternateInterface
  6605  05E8  00F0               	movwf	memset@dest
  6606  05E9  3001               	movlw	high _USBAlternateInterface
  6607  05EA  00F1               	movwf	memset@dest+1
  6608  05EB  3000               	movlw	0
  6609  05EC  00F2               	movwf	memset@c
  6610  05ED  00F3               	movwf	memset@c+1
  6611  05EE  3002               	movlw	2
  6612  05EF  00F4               	movwf	memset@n
  6613  05F0  3000               	movlw	0
  6614  05F1  00F5               	movwf	memset@n+1
  6615  05F2  3182  22E0  3185   	fcall	_memset
  6616  05F5                     i1l4845:
  6617                           
  6618                           ;mcc_generated_files/usb/usb_device.c: 2001:     UCONbits.PPBRST = 0;
  6619  05F5  003D               	movlb	29	; select bank29
  6620  05F6  130E               	bcf	14,6	;volatile
  6621  05F7                     i1l4847:
  6622                           
  6623                           ;mcc_generated_files/usb/usb_device.c: 2003:     pBDTEntryIn[0] = (volatile BDT_ENTRY*)&
      +                          BDT[2];
  6624  05F7  3028               	movlw	40
  6625  05F8  0021               	movlb	1	; select bank1
  6626  05F9  00A0               	movwf	_pBDTEntryIn^(0+128)
  6627  05FA  3000               	movlw	0
  6628  05FB  00A1               	movwf	(_pBDTEntryIn+1)^(0+128)
  6629  05FC                     i1l4849:
  6630                           
  6631                           ;mcc_generated_files/usb/usb_device.c: 2006:     pBDTEntryEP0OutCurrent = (volatile BDT_
      +                          ENTRY*)&BDT[0];
  6632  05FC  3020               	movlw	32
  6633  05FD  0020               	movlb	0	; select bank0
  6634  05FE  00E6               	movwf	??_USBStdSetCfgHandler
  6635  05FF  0866               	movf	??_USBStdSetCfgHandler,w
  6636  0600  0021               	movlb	1	; select bank1
  6637  0601  00B2               	movwf	_pBDTEntryEP0OutCurrent^(0+128)
  6638  0602                     i1l4851:
  6639                           
  6640                           ;mcc_generated_files/usb/usb_device.c: 2007:     pBDTEntryEP0OutNext = pBDTEntryEP0OutCu
      +                          rrent;
  6641  0602  0832               	movf	_pBDTEntryEP0OutCurrent^(0+128),w
  6642  0603  00AB               	movwf	_pBDTEntryEP0OutNext^(0+128)
  6643  0604  39FF               	andlw	255
  6644  0605  1D03               	skipz
  6645  0606  3000               	movlw	0
  6646  0607  00AC               	movwf	(_pBDTEntryEP0OutNext+1)^(0+128)
  6647  0608                     i1l4853:
  6648                           
  6649                           ;mcc_generated_files/usb/usb_device.c: 2010:     USBActiveConfiguration = SetupPkt.bConf
      +                          igurationValue;
  6650  0608  0020               	movlb	0	; select bank0
  6651  0609  0852               	movf	82,w	;volatile
  6652  060A  00E6               	movwf	??_USBStdSetCfgHandler
  6653  060B  0866               	movf	??_USBStdSetCfgHandler,w
  6654  060C  0021               	movlb	1	; select bank1
  6655  060D  00B5               	movwf	_USBActiveConfiguration^(0+128)	;volatile
  6656  060E                     i1l4855:
  6657                           
  6658                           ;mcc_generated_files/usb/usb_device.c: 2013:     if(USBActiveConfiguration == 0)
  6659  060E  0835               	movf	_USBActiveConfiguration^(0+128),w	;volatile
  6660  060F  1D03               	btfss	3,2
  6661  0610  2E12               	goto	u364_21
  6662  0611  2E13               	goto	u364_20
  6663  0612                     u364_21:
  6664  0612  2E1A               	goto	i1l4859
  6665  0613                     u364_20:
  6666  0613                     i1l4857:
  6667                           
  6668                           ;mcc_generated_files/usb/usb_device.c: 2014:     {;mcc_generated_files/usb/usb_device.c:
      +                           2016:         USBDeviceState = ADDRESS_STATE;
  6669  0613  3010               	movlw	16
  6670  0614  0020               	movlb	0	; select bank0
  6671  0615  00E6               	movwf	??_USBStdSetCfgHandler
  6672  0616  0866               	movf	??_USBStdSetCfgHandler,w
  6673  0617  0021               	movlb	1	; select bank1
  6674  0618  00B3               	movwf	_USBDeviceState^(0+128)	;volatile
  6675                           
  6676                           ;mcc_generated_files/usb/usb_device.c: 2017:     }
  6677  0619  2E30               	goto	i1l421
  6678  061A                     i1l4859:
  6679                           
  6680                           ;mcc_generated_files/usb/usb_device.c: 2019:     {;mcc_generated_files/usb/usb_device.c:
      +                           2021:         USER_USB_CALLBACK_EVENT_HANDLER((USB_EVENT)EVENT_CONFIGURED,(void*)&USBAc
      +                          tiveConfiguration,1);
  6681  061A  3001               	movlw	1
  6682  061B  0020               	movlb	0	; select bank0
  6683  061C  00E0               	movwf	USER_USB_CALLBACK_EVENT_HANDLER@event
  6684  061D  3000               	movlw	0
  6685  061E  00E1               	movwf	USER_USB_CALLBACK_EVENT_HANDLER@event+1
  6686  061F  30B5               	movlw	low _USBActiveConfiguration
  6687  0620  00E2               	movwf	USER_USB_CALLBACK_EVENT_HANDLER@pdata
  6688  0621  3000               	movlw	high _USBActiveConfiguration
  6689  0622  00E3               	movwf	USER_USB_CALLBACK_EVENT_HANDLER@pdata+1
  6690  0623  3001               	movlw	1
  6691  0624  00E4               	movwf	USER_USB_CALLBACK_EVENT_HANDLER@size
  6692  0625  3000               	movlw	0
  6693  0626  00E5               	movwf	USER_USB_CALLBACK_EVENT_HANDLER@size+1
  6694  0627  3187  27CB  3185   	fcall	_USER_USB_CALLBACK_EVENT_HANDLER
  6695  062A                     i1l4861:
  6696                           
  6697                           ;mcc_generated_files/usb/usb_device.c: 2026:         USBDeviceState = CONFIGURED_STATE;
  6698  062A  3020               	movlw	32
  6699  062B  0020               	movlb	0	; select bank0
  6700  062C  00E6               	movwf	??_USBStdSetCfgHandler
  6701  062D  0866               	movf	??_USBStdSetCfgHandler,w
  6702  062E  0021               	movlb	1	; select bank1
  6703  062F  00B3               	movwf	_USBDeviceState^(0+128)	;volatile
  6704  0630                     i1l421:
  6705  0630  0008               	return
  6706  0631                     __end_of_USBStdSetCfgHandler:
  6707                           
  6708                           	psect	text26
  6709  02E0                     __ptext26:	
  6710 ;; *************** function _memset *****************
  6711 ;; Defined at:
  6712 ;;		line 4 in file "C:\Program Files\Microchip\xc8\v2.31\pic\sources\c99\common\memset.c"
  6713 ;; Parameters:    Size  Location     Type
  6714 ;;  dest            2    0[COMMON] PTR void 
  6715 ;;		 -> USBAlternateInterface(2), BDT(48), 
  6716 ;;  c               2    2[COMMON] int 
  6717 ;;  n               2    4[COMMON] unsigned int 
  6718 ;; Auto vars:     Size  Location     Type
  6719 ;;  s               2   12[COMMON] PTR unsigned char 
  6720 ;;		 -> USBAlternateInterface(2), BDT(48), 
  6721 ;;  k               2   10[COMMON] unsigned int 
  6722 ;; Return value:  Size  Location     Type
  6723 ;;                  2    0[COMMON] PTR void 
  6724 ;; Registers used:
  6725 ;;		wreg, fsr1l, fsr1h, status,2, status,0
  6726 ;; Tracked objects:
  6727 ;;		On entry : 0/0
  6728 ;;		On exit  : 0/0
  6729 ;;		Unchanged: 0/0
  6730 ;; Data sizes:     COMMON   BANK0   BANK1   BANK2   BANK3   BANK4   BANK5   BANK6   BANK7   BANK8   BANK9  BANK10  BANK1
      +1  BANK12
  6731 ;;      Params:         6       0       0       0       0       0       0       0       0       0       0       0       
      +0       0
  6732 ;;      Locals:         4       0       0       0       0       0       0       0       0       0       0       0       
      +0       0
  6733 ;;      Temps:          4       0       0       0       0       0       0       0       0       0       0       0       
      +0       0
  6734 ;;      Totals:        14       0       0       0       0       0       0       0       0       0       0       0       
      +0       0
  6735 ;;Total ram usage:       14 bytes
  6736 ;; Hardware stack levels used:    1
  6737 ;; This function calls:
  6738 ;;		Nothing
  6739 ;; This function is called by:
  6740 ;;		_USBStdSetCfgHandler
  6741 ;; This function uses a non-reentrant model
  6742 ;;
  6743                           
  6744                           
  6745                           ;psect for function _memset
  6746  02E0                     _memset:
  6747  02E0                     i1l4769:	
  6748                           ;incstack = 0
  6749                           ; Regs used in _memset: [wreg+fsr1l+fsr1h+status,2+status,0]
  6750                           
  6751  02E0  0871               	movf	memset@dest+1,w
  6752  02E1  00FD               	movwf	memset@s+1
  6753  02E2  0870               	movf	memset@dest,w
  6754  02E3  00FC               	movwf	memset@s
  6755  02E4                     i1l4771:
  6756  02E4  0874               	movf	memset@n,w
  6757  02E5  0475               	iorwf	memset@n+1,w
  6758  02E6  1D03               	btfss	3,2
  6759  02E7  2AE9               	goto	u357_21
  6760  02E8  2AEA               	goto	u357_20
  6761  02E9                     u357_21:
  6762  02E9  2AEB               	goto	i1l4775
  6763  02EA                     u357_20:
  6764  02EA  2BA9               	goto	i1l1387
  6765  02EB                     i1l4775:
  6766  02EB  087C               	movf	memset@s,w
  6767  02EC  0086               	movwf	6
  6768  02ED  087D               	movf	memset@s+1,w
  6769  02EE  0087               	movwf	7
  6770  02EF  0872               	movf	memset@c,w
  6771  02F0  0081               	movwf	1
  6772  02F1                     i1l4777:
  6773  02F1  0874               	movf	memset@n,w
  6774  02F2  077C               	addwf	memset@s,w
  6775  02F3  00F6               	movwf	??_memset
  6776  02F4  0875               	movf	memset@n+1,w
  6777  02F5  3D7D               	addwfc	memset@s+1,w
  6778  02F6  00F7               	movwf	??_memset+1
  6779  02F7  0876               	movf	??_memset,w
  6780  02F8  3EFF               	addlw	255
  6781  02F9  00F8               	movwf	??_memset+2
  6782  02FA  30FF               	movlw	255
  6783  02FB  3D77               	addwfc	??_memset+1,w
  6784  02FC  00F9               	movwf	??_memset+3
  6785  02FD  0878               	movf	??_memset+2,w
  6786  02FE  0086               	movwf	6
  6787  02FF  0879               	movf	??_memset+3,w
  6788  0300  0087               	movwf	7
  6789  0301  0872               	movf	memset@c,w
  6790  0302  0081               	movwf	1
  6791  0303                     i1l4779:
  6792  0303  3000               	movlw	0
  6793  0304  0275               	subwf	memset@n+1,w
  6794  0305  3003               	movlw	3
  6795  0306  1903               	skipnz
  6796  0307  0274               	subwf	memset@n,w
  6797  0308  1803               	skipnc
  6798  0309  2B0B               	goto	u358_21
  6799  030A  2B0C               	goto	u358_20
  6800  030B                     u358_21:
  6801  030B  2B0D               	goto	i1l4783
  6802  030C                     u358_20:
  6803  030C  2BA9               	goto	i1l1387
  6804  030D                     i1l4783:
  6805  030D  087C               	movf	memset@s,w
  6806  030E  3E01               	addlw	1
  6807  030F  00F6               	movwf	??_memset
  6808  0310  3000               	movlw	0
  6809  0311  3D7D               	addwfc	memset@s+1,w
  6810  0312  00F7               	movwf	??_memset+1
  6811  0313  0876               	movf	??_memset,w
  6812  0314  0086               	movwf	6
  6813  0315  0877               	movf	??_memset+1,w
  6814  0316  0087               	movwf	7
  6815  0317  0872               	movf	memset@c,w
  6816  0318  0081               	movwf	1
  6817  0319  087C               	movf	memset@s,w
  6818  031A  3E02               	addlw	2
  6819  031B  00F6               	movwf	??_memset
  6820  031C  3000               	movlw	0
  6821  031D  3D7D               	addwfc	memset@s+1,w
  6822  031E  00F7               	movwf	??_memset+1
  6823  031F  0876               	movf	??_memset,w
  6824  0320  0086               	movwf	6
  6825  0321  0877               	movf	??_memset+1,w
  6826  0322  0087               	movwf	7
  6827  0323  0872               	movf	memset@c,w
  6828  0324  0081               	movwf	1
  6829  0325  0874               	movf	memset@n,w
  6830  0326  077C               	addwf	memset@s,w
  6831  0327  00F6               	movwf	??_memset
  6832  0328  0875               	movf	memset@n+1,w
  6833  0329  3D7D               	addwfc	memset@s+1,w
  6834  032A  00F7               	movwf	??_memset+1
  6835  032B  0876               	movf	??_memset,w
  6836  032C  3EFE               	addlw	254
  6837  032D  00F8               	movwf	??_memset+2
  6838  032E  30FF               	movlw	255
  6839  032F  3D77               	addwfc	??_memset+1,w
  6840  0330  00F9               	movwf	??_memset+3
  6841  0331  0878               	movf	??_memset+2,w
  6842  0332  0086               	movwf	6
  6843  0333  0879               	movf	??_memset+3,w
  6844  0334  0087               	movwf	7
  6845  0335  0872               	movf	memset@c,w
  6846  0336  0081               	movwf	1
  6847  0337  0874               	movf	memset@n,w
  6848  0338  077C               	addwf	memset@s,w
  6849  0339  00F6               	movwf	??_memset
  6850  033A  0875               	movf	memset@n+1,w
  6851  033B  3D7D               	addwfc	memset@s+1,w
  6852  033C  00F7               	movwf	??_memset+1
  6853  033D  0876               	movf	??_memset,w
  6854  033E  3EFD               	addlw	253
  6855  033F  00F8               	movwf	??_memset+2
  6856  0340  30FF               	movlw	255
  6857  0341  3D77               	addwfc	??_memset+1,w
  6858  0342  00F9               	movwf	??_memset+3
  6859  0343  0878               	movf	??_memset+2,w
  6860  0344  0086               	movwf	6
  6861  0345  0879               	movf	??_memset+3,w
  6862  0346  0087               	movwf	7
  6863  0347  0872               	movf	memset@c,w
  6864  0348  0081               	movwf	1
  6865  0349                     i1l4785:
  6866  0349  3000               	movlw	0
  6867  034A  0275               	subwf	memset@n+1,w
  6868  034B  3007               	movlw	7
  6869  034C  1903               	skipnz
  6870  034D  0274               	subwf	memset@n,w
  6871  034E  1803               	skipnc
  6872  034F  2B51               	goto	u359_21
  6873  0350  2B52               	goto	u359_20
  6874  0351                     u359_21:
  6875  0351  2B53               	goto	i1l4789
  6876  0352                     u359_20:
  6877  0352  2BA9               	goto	i1l1387
  6878  0353                     i1l4789:
  6879  0353  087C               	movf	memset@s,w
  6880  0354  3E03               	addlw	3
  6881  0355  00F6               	movwf	??_memset
  6882  0356  3000               	movlw	0
  6883  0357  3D7D               	addwfc	memset@s+1,w
  6884  0358  00F7               	movwf	??_memset+1
  6885  0359  0876               	movf	??_memset,w
  6886  035A  0086               	movwf	6
  6887  035B  0877               	movf	??_memset+1,w
  6888  035C  0087               	movwf	7
  6889  035D  0872               	movf	memset@c,w
  6890  035E  0081               	movwf	1
  6891  035F  0874               	movf	memset@n,w
  6892  0360  077C               	addwf	memset@s,w
  6893  0361  00F6               	movwf	??_memset
  6894  0362  0875               	movf	memset@n+1,w
  6895  0363  3D7D               	addwfc	memset@s+1,w
  6896  0364  00F7               	movwf	??_memset+1
  6897  0365  0876               	movf	??_memset,w
  6898  0366  3EFC               	addlw	252
  6899  0367  00F8               	movwf	??_memset+2
  6900  0368  30FF               	movlw	255
  6901  0369  3D77               	addwfc	??_memset+1,w
  6902  036A  00F9               	movwf	??_memset+3
  6903  036B  0878               	movf	??_memset+2,w
  6904  036C  0086               	movwf	6
  6905  036D  0879               	movf	??_memset+3,w
  6906  036E  0087               	movwf	7
  6907  036F  0872               	movf	memset@c,w
  6908  0370  0081               	movwf	1
  6909  0371                     i1l4791:
  6910  0371  3000               	movlw	0
  6911  0372  0275               	subwf	memset@n+1,w
  6912  0373  3009               	movlw	9
  6913  0374  1903               	skipnz
  6914  0375  0274               	subwf	memset@n,w
  6915  0376  1803               	skipnc
  6916  0377  2B79               	goto	u360_21
  6917  0378  2B7A               	goto	u360_20
  6918  0379                     u360_21:
  6919  0379  2B7B               	goto	i1l4795
  6920  037A                     u360_20:
  6921  037A  2BA9               	goto	i1l1387
  6922  037B                     i1l4795:
  6923  037B  097C               	comf	memset@s,w
  6924  037C  00F6               	movwf	??_memset
  6925  037D  097D               	comf	memset@s+1,w
  6926  037E  00F7               	movwf	??_memset+1
  6927  037F  0AF6               	incf	??_memset,f
  6928  0380  1903               	skipnz
  6929  0381  0AF7               	incf	??_memset+1,f
  6930  0382  3003               	movlw	3
  6931  0383  0576               	andwf	??_memset,w
  6932  0384  00FA               	movwf	memset@k
  6933  0385  3000               	movlw	0
  6934  0386  0577               	andwf	??_memset+1,w
  6935  0387  00FB               	movwf	memset@k+1
  6936  0388                     i1l4797:
  6937  0388  087A               	movf	memset@k,w
  6938  0389  07FC               	addwf	memset@s,f
  6939  038A  087B               	movf	memset@k+1,w
  6940  038B  3DFD               	addwfc	memset@s+1,f
  6941  038C                     i1l4799:
  6942  038C  087A               	movf	memset@k,w
  6943  038D  02F4               	subwf	memset@n,f
  6944  038E  087B               	movf	memset@k+1,w
  6945  038F  3BF5               	subwfb	memset@n+1,f
  6946  0390                     i1l4801:
  6947  0390  30FC               	movlw	252
  6948  0391  05F4               	andwf	memset@n,f
  6949  0392  30FF               	movlw	255
  6950  0393  05F5               	andwf	memset@n+1,f
  6951  0394  2BA3               	goto	i1l4809
  6952  0395                     i1l4803:
  6953  0395  087C               	movf	memset@s,w
  6954  0396  0086               	movwf	6
  6955  0397  087D               	movf	memset@s+1,w
  6956  0398  0087               	movwf	7
  6957  0399  0872               	movf	memset@c,w
  6958  039A  0081               	movwf	1
  6959  039B                     i1l4805:
  6960  039B  3001               	movlw	1
  6961  039C  02F4               	subwf	memset@n,f
  6962  039D  3000               	movlw	0
  6963  039E  3BF5               	subwfb	memset@n+1,f
  6964  039F                     i1l4807:
  6965  039F  3001               	movlw	1
  6966  03A0  07FC               	addwf	memset@s,f
  6967  03A1  3000               	movlw	0
  6968  03A2  3DFD               	addwfc	memset@s+1,f
  6969  03A3                     i1l4809:
  6970  03A3  0874               	movf	memset@n,w
  6971  03A4  0475               	iorwf	memset@n+1,w
  6972  03A5  1D03               	btfss	3,2
  6973  03A6  2BA8               	goto	u361_21
  6974  03A7  2BA9               	goto	u361_20
  6975  03A8                     u361_21:
  6976  03A8  2B95               	goto	i1l4803
  6977  03A9                     u361_20:
  6978  03A9                     i1l1387:
  6979  03A9  0008               	return
  6980  03AA                     __end_of_memset:
  6981                           
  6982                           	psect	text27
  6983  0DB6                     __ptext27:	
  6984 ;; *************** function _USBStdGetStatusHandler *****************
  6985 ;; Defined at:
  6986 ;;		line 2133 in file "mcc_generated_files/usb/usb_device.c"
  6987 ;; Parameters:    Size  Location     Type
  6988 ;;		None
  6989 ;; Auto vars:     Size  Location     Type
  6990 ;;  p               2    2[COMMON] PTR struct __BDT
  6991 ;;		 -> RAM(4096), NULL(0), BDT(48), 
  6992 ;; Return value:  Size  Location     Type
  6993 ;;                  1    wreg      void 
  6994 ;; Registers used:
  6995 ;;		wreg, fsr0l, fsr0h, fsr1l, fsr1h, status,2, status,0
  6996 ;; Tracked objects:
  6997 ;;		On entry : 0/0
  6998 ;;		On exit  : 0/0
  6999 ;;		Unchanged: 0/0
  7000 ;; Data sizes:     COMMON   BANK0   BANK1   BANK2   BANK3   BANK4   BANK5   BANK6   BANK7   BANK8   BANK9  BANK10  BANK1
      +1  BANK12
  7001 ;;      Params:         0       0       0       0       0       0       0       0       0       0       0       0       
      +0       0
  7002 ;;      Locals:         2       0       0       0       0       0       0       0       0       0       0       0       
      +0       0
  7003 ;;      Temps:          2       0       0       0       0       0       0       0       0       0       0       0       
      +0       0
  7004 ;;      Totals:         4       0       0       0       0       0       0       0       0       0       0       0       
      +0       0
  7005 ;;Total ram usage:        4 bytes
  7006 ;; Hardware stack levels used:    1
  7007 ;; This function calls:
  7008 ;;		Nothing
  7009 ;; This function is called by:
  7010 ;;		_USBCheckStdRequest
  7011 ;; This function uses a non-reentrant model
  7012 ;;
  7013                           
  7014                           
  7015                           ;psect for function _USBStdGetStatusHandler
  7016  0DB6                     _USBStdGetStatusHandler:
  7017  0DB6                     i1l3505:	
  7018                           ;incstack = 0
  7019                           ; Regs used in _USBStdGetStatusHandler: [wreg-fsr1h+status,2+status,0]
  7020                           
  7021                           
  7022                           ;mcc_generated_files/usb/usb_device.c: 2135:     CtrlTrfData[0] = 0;
  7023  0DB6  0020               	movlb	0	; select bank0
  7024  0DB7  01D8               	clrf	88	;volatile
  7025                           
  7026                           ;mcc_generated_files/usb/usb_device.c: 2136:     CtrlTrfData[1] = 0;
  7027  0DB8  01D9               	clrf	89	;volatile
  7028                           
  7029                           ;mcc_generated_files/usb/usb_device.c: 2138:     switch(SetupPkt.Recipient)
  7030  0DB9  2DFA               	goto	i1l3525
  7031  0DBA                     i1l439:	
  7032                           ;mcc_generated_files/usb/usb_device.c: 2139:     {;mcc_generated_files/usb/usb_device.c:
      +                           2140:         case (0x00):
  7033                           
  7034                           
  7035                           ;mcc_generated_files/usb/usb_device.c: 2141:             inPipes[0].info.bits.busy = 1;
  7036  0DBA  0021               	movlb	1	; select bank1
  7037  0DBB  17A8               	bsf	(_inPipes^(0+128)+2),7	;volatile
  7038  0DBC                     i1l3509:	
  7039                           ;mcc_generated_files/usb/usb_device.c: 2146:             if(0 == 1)
  7040                           
  7041                           
  7042                           ;mcc_generated_files/usb/usb_device.c: 2151:             if(RemoteWakeup == 1)
  7043  0DBC  0023               	movlb	3	; select bank3
  7044  0DBD  0362               	decf	_RemoteWakeup^(0+384),w	;volatile
  7045  0DBE  1D03               	btfss	3,2
  7046  0DBF  2DC1               	goto	u216_21
  7047  0DC0  2DC2               	goto	u216_20
  7048  0DC1                     u216_21:
  7049  0DC1  2E0E               	goto	i1l442
  7050  0DC2                     u216_20:
  7051  0DC2                     i1l3511:
  7052                           
  7053                           ;mcc_generated_files/usb/usb_device.c: 2152:             {;mcc_generated_files/usb/usb_d
      +                          evice.c: 2153:                 CtrlTrfData[0]|=0x02;
  7054  0DC2  0020               	movlb	0	; select bank0
  7055  0DC3  14D8               	bsf	88,1	;volatile
  7056  0DC4  2E0E               	goto	i1l442
  7057  0DC5                     i1l443:	
  7058                           ;mcc_generated_files/usb/usb_device.c: 2156:         case (0x01):
  7059                           
  7060                           
  7061                           ;mcc_generated_files/usb/usb_device.c: 2157:             inPipes[0].info.bits.busy = 1;
  7062  0DC5  0021               	movlb	1	; select bank1
  7063  0DC6  17A8               	bsf	(_inPipes^(0+128)+2),7	;volatile
  7064                           
  7065                           ;mcc_generated_files/usb/usb_device.c: 2158:             break;
  7066  0DC7  2E0E               	goto	i1l442
  7067  0DC8                     i1l444:	
  7068                           ;mcc_generated_files/usb/usb_device.c: 2159:         case (0x02):
  7069                           
  7070                           
  7071                           ;mcc_generated_files/usb/usb_device.c: 2160:             inPipes[0].info.bits.busy = 1;
  7072  0DC8  0021               	movlb	1	; select bank1
  7073  0DC9  17A8               	bsf	(_inPipes^(0+128)+2),7	;volatile
  7074                           
  7075                           ;mcc_generated_files/usb/usb_device.c: 2164:             {;mcc_generated_files/usb/usb_d
      +                          evice.c: 2165:                 BDT_ENTRY *p;;mcc_generated_files/usb/usb_device.c: 2167:
      +                                           if(SetupPkt.EPDir == 0)
  7076  0DCA  0020               	movlb	0	; select bank0
  7077  0DCB  1BD4               	btfsc	84,7	;volatile
  7078  0DCC  2DCE               	goto	u217_21
  7079  0DCD  2DCF               	goto	u217_20
  7080  0DCE                     u217_21:
  7081  0DCE  2DDB               	goto	i1l3515
  7082  0DCF                     u217_20:
  7083  0DCF                     i1l3513:
  7084                           
  7085                           ;mcc_generated_files/usb/usb_device.c: 2168:                 {;mcc_generated_files/usb/u
      +                          sb_device.c: 2169:                     p = (BDT_ENTRY*)pBDTEntryOut[SetupPkt.EPNum];
  7086  0DCF  0854               	movf	84,w	;volatile
  7087  0DD0  390F               	andlw	15
  7088  0DD1  0709               	addwf	9,w
  7089  0DD2  3EB7               	addlw	(low (_pBDTEntryOut| (0+256)))& (0+255)
  7090  0DD3  0086               	movwf	6
  7091  0DD4  3001               	movlw	1	; select bank3/4
  7092  0DD5  0087               	movwf	7
  7093  0DD6  3F40               	moviw [0]fsr1
  7094  0DD7  00F2               	movwf	USBStdGetStatusHandler@p
  7095  0DD8  3F41               	moviw [1]fsr1
  7096  0DD9  00F3               	movwf	USBStdGetStatusHandler@p+1
  7097                           
  7098                           ;mcc_generated_files/usb/usb_device.c: 2170:                 }
  7099  0DDA  2DE5               	goto	i1l3517
  7100  0DDB                     i1l3515:
  7101                           
  7102                           ;mcc_generated_files/usb/usb_device.c: 2172:                 {;mcc_generated_files/usb/u
      +                          sb_device.c: 2173:                     p = (BDT_ENTRY*)pBDTEntryIn[SetupPkt.EPNum];
  7103  0DDB  0854               	movf	84,w	;volatile
  7104  0DDC  390F               	andlw	15
  7105  0DDD  0709               	addwf	9,w
  7106  0DDE  3EA0               	addlw	(low (_pBDTEntryIn| 0))& (0+255)
  7107  0DDF  0086               	movwf	6
  7108  0DE0  0187               	clrf	7
  7109  0DE1  3F40               	moviw [0]fsr1
  7110  0DE2  00F2               	movwf	USBStdGetStatusHandler@p
  7111  0DE3  3F41               	moviw [1]fsr1
  7112  0DE4  00F3               	movwf	USBStdGetStatusHandler@p+1
  7113  0DE5                     i1l3517:
  7114                           
  7115                           ;mcc_generated_files/usb/usb_device.c: 2176:                 if((p->STAT.UOWN == 1) && (
      +                          p->STAT.BSTALL == 1))
  7116  0DE5  0872               	movf	USBStdGetStatusHandler@p,w
  7117  0DE6  0086               	movwf	6
  7118  0DE7  0873               	movf	USBStdGetStatusHandler@p+1,w
  7119  0DE8  0087               	movwf	7
  7120  0DE9  1F81               	btfss	1,7
  7121  0DEA  2DEC               	goto	u218_21
  7122  0DEB  2DED               	goto	u218_20
  7123  0DEC                     u218_21:
  7124  0DEC  2E0E               	goto	i1l442
  7125  0DED                     u218_20:
  7126  0DED                     i1l3519:
  7127  0DED  0872               	movf	USBStdGetStatusHandler@p,w
  7128  0DEE  0086               	movwf	6
  7129  0DEF  0873               	movf	USBStdGetStatusHandler@p+1,w
  7130  0DF0  0087               	movwf	7
  7131  0DF1  1D01               	btfss	1,2
  7132  0DF2  2DF4               	goto	u219_21
  7133  0DF3  2DF5               	goto	u219_20
  7134  0DF4                     u219_21:
  7135  0DF4  2E0E               	goto	i1l442
  7136  0DF5                     u219_20:
  7137  0DF5                     i1l3521:
  7138                           
  7139                           ;mcc_generated_files/usb/usb_device.c: 2177:                     CtrlTrfData[0]=0x01;
  7140  0DF5  3001               	movlw	1
  7141  0DF6  00F0               	movwf	??_USBStdGetStatusHandler
  7142  0DF7  0870               	movf	??_USBStdGetStatusHandler,w
  7143  0DF8  00D8               	movwf	88	;volatile
  7144  0DF9  2E0E               	goto	i1l442
  7145  0DFA                     i1l3525:
  7146  0DFA  0850               	movf	80,w	;volatile
  7147  0DFB  391F               	andlw	31
  7148  0DFC  00F0               	movwf	??_USBStdGetStatusHandler
  7149  0DFD  01F1               	clrf	??_USBStdGetStatusHandler+1
  7150                           
  7151                           ; Switch on 2 bytes has been partitioned into a top level switch of size 1, and 1 sub-sw
      +                          itches
  7152                           ; Switch size 1, requested type "simple"
  7153                           ; Number of cases is 1, Range of values is 0 to 0
  7154                           ; switch strategies available:
  7155                           ; Name         Instructions Cycles
  7156                           ; simple_byte            4     3 (average)
  7157                           ; direct_byte            8     6 (fixed)
  7158                           ; jumptable            260     6 (fixed)
  7159                           ;	Chosen strategy is simple_byte
  7160  0DFE  0871               	movf	??_USBStdGetStatusHandler+1,w
  7161  0DFF  3A00               	xorlw	0	; case 0
  7162  0E00  1903               	skipnz
  7163  0E01  2E03               	goto	i1l5375
  7164  0E02  2E0E               	goto	i1l442
  7165  0E03                     i1l5375:
  7166                           
  7167                           ; Switch size 1, requested type "simple"
  7168                           ; Number of cases is 3, Range of values is 0 to 2
  7169                           ; switch strategies available:
  7170                           ; Name         Instructions Cycles
  7171                           ; simple_byte           10     6 (average)
  7172                           ; direct_byte           12     6 (fixed)
  7173                           ; jumptable            260     6 (fixed)
  7174                           ;	Chosen strategy is simple_byte
  7175  0E03  0870               	movf	??_USBStdGetStatusHandler,w
  7176  0E04  3A00               	xorlw	0	; case 0
  7177  0E05  1903               	skipnz
  7178  0E06  2DBA               	goto	i1l439
  7179  0E07  3A01               	xorlw	1	; case 1
  7180  0E08  1903               	skipnz
  7181  0E09  2DC5               	goto	i1l443
  7182  0E0A  3A03               	xorlw	3	; case 2
  7183  0E0B  1903               	skipnz
  7184  0E0C  2DC8               	goto	i1l444
  7185  0E0D  2E0E               	goto	i1l442
  7186  0E0E                     i1l442:
  7187                           
  7188                           ;mcc_generated_files/usb/usb_device.c: 2182:     if(inPipes[0].info.bits.busy == 1)
  7189  0E0E  0021               	movlb	1	; select bank1
  7190  0E0F  1FA8               	btfss	(_inPipes^(0+128)+2),7	;volatile
  7191  0E10  2E12               	goto	u220_21
  7192  0E11  2E13               	goto	u220_20
  7193  0E12                     u220_21:
  7194  0E12  2E1C               	goto	i1l449
  7195  0E13                     u220_20:
  7196  0E13                     i1l3527:
  7197                           
  7198                           ;mcc_generated_files/usb/usb_device.c: 2183:     {;mcc_generated_files/usb/usb_device.c:
      +                           2184:         inPipes[0].pSrc.bRam = (uint8_t*)&CtrlTrfData;
  7199  0E13  3058               	movlw	88
  7200  0E14  00A6               	movwf	_inPipes^(0+128)	;volatile
  7201  0E15  3000               	movlw	0
  7202  0E16  00A7               	movwf	(_inPipes+1)^(0+128)	;volatile
  7203  0E17                     i1l3529:
  7204                           
  7205                           ;mcc_generated_files/usb/usb_device.c: 2185:         inPipes[0].info.bits.ctrl_trf_mem =
      +                           0x01;
  7206  0E17  1428               	bsf	(_inPipes^(0+128)+2),0	;volatile
  7207  0E18                     i1l3531:
  7208                           
  7209                           ;mcc_generated_files/usb/usb_device.c: 2186:         inPipes[0].wCount.v[0] = 2;
  7210  0E18  3002               	movlw	2
  7211  0E19  00F0               	movwf	??_USBStdGetStatusHandler
  7212  0E1A  0870               	movf	??_USBStdGetStatusHandler,w
  7213  0E1B  00A9               	movwf	(_inPipes^(0+128)+3)	;volatile
  7214  0E1C                     i1l449:
  7215  0E1C  0008               	return
  7216  0E1D                     __end_of_USBStdGetStatusHandler:
  7217                           
  7218                           	psect	text28
  7219  0631                     __ptext28:	
  7220 ;; *************** function _USBStdGetDscHandler *****************
  7221 ;; Defined at:
  7222 ;;		line 2047 in file "mcc_generated_files/usb/usb_device.c"
  7223 ;; Parameters:    Size  Location     Type
  7224 ;;		None
  7225 ;; Auto vars:     Size  Location     Type
  7226 ;;		None
  7227 ;; Return value:  Size  Location     Type
  7228 ;;                  1    wreg      void 
  7229 ;; Registers used:
  7230 ;;		wreg, fsr0l, fsr0h, status,2, status,0, pclath
  7231 ;; Tracked objects:
  7232 ;;		On entry : 0/0
  7233 ;;		On exit  : 0/0
  7234 ;;		Unchanged: 0/0
  7235 ;; Data sizes:     COMMON   BANK0   BANK1   BANK2   BANK3   BANK4   BANK5   BANK6   BANK7   BANK8   BANK9  BANK10  BANK1
      +1  BANK12
  7236 ;;      Params:         0       0       0       0       0       0       0       0       0       0       0       0       
      +0       0
  7237 ;;      Locals:         0       0       0       0       0       0       0       0       0       0       0       0       
      +0       0
  7238 ;;      Temps:          3       0       0       0       0       0       0       0       0       0       0       0       
      +0       0
  7239 ;;      Totals:         3       0       0       0       0       0       0       0       0       0       0       0       
      +0       0
  7240 ;;Total ram usage:        3 bytes
  7241 ;; Hardware stack levels used:    1
  7242 ;; This function calls:
  7243 ;;		Nothing
  7244 ;; This function is called by:
  7245 ;;		_USBCheckStdRequest
  7246 ;; This function uses a non-reentrant model
  7247 ;;
  7248                           
  7249                           
  7250                           ;psect for function _USBStdGetDscHandler
  7251  0631                     _USBStdGetDscHandler:
  7252  0631                     i1l3469:	
  7253                           ;incstack = 0
  7254                           ; Regs used in _USBStdGetDscHandler: [wreg-fsr0h+status,2+status,0+pclath]
  7255                           
  7256                           
  7257                           ;mcc_generated_files/usb/usb_device.c: 2049:     if(SetupPkt.bmRequestType == 0x80)
  7258  0631  3080               	movlw	128
  7259  0632  0020               	movlb	0	; select bank0
  7260  0633  0650               	xorwf	80,w	;volatile
  7261  0634  1D03               	btfss	3,2
  7262  0635  2E37               	goto	u213_21
  7263  0636  2E38               	goto	u213_20
  7264  0637                     u213_21:
  7265  0637  2EBB               	goto	i1l435
  7266  0638                     u213_20:
  7267  0638                     i1l3471:
  7268                           
  7269                           ;mcc_generated_files/usb/usb_device.c: 2050:     {;mcc_generated_files/usb/usb_device.c:
      +                           2051:         inPipes[0].info.Val = 0x00 | 0x80 | 0x40;
  7270  0638  30C0               	movlw	192
  7271  0639  00F0               	movwf	??_USBStdGetDscHandler
  7272  063A  0870               	movf	??_USBStdGetDscHandler,w
  7273  063B  0021               	movlb	1	; select bank1
  7274  063C  00A8               	movwf	(_inPipes^(0+128)+2)	;volatile
  7275                           
  7276                           ;mcc_generated_files/usb/usb_device.c: 2053:         switch(SetupPkt.bDescriptorType)
  7277  063D  2EA7               	goto	i1l3499
  7278  063E                     i1l3473:
  7279                           
  7280                           ;mcc_generated_files/usb/usb_device.c: 2059:                     inPipes[0].pSrc.bRom = 
      +                          (const uint8_t*)&device_dsc;
  7281  063E  308D               	movlw	low (_device_dsc| (0+32768))
  7282  063F  0021               	movlb	1	; select bank1
  7283  0640  00A6               	movwf	_inPipes^(0+128)	;volatile
  7284  0641  3090               	movlw	high (_device_dsc| (0+32768))
  7285  0642  00A7               	movwf	(_inPipes^(0+128)+1)	;volatile
  7286  0643                     i1l3475:
  7287                           
  7288                           ;mcc_generated_files/usb/usb_device.c: 2061:                 inPipes[0].wCount.Val = siz
      +                          eof(device_dsc);
  7289  0643  3000               	movlw	0
  7290  0644  00AA               	movwf	((_inPipes+1)^(0+128)+3)	;volatile
  7291  0645  3012               	movlw	18
  7292  0646  00A9               	movwf	(_inPipes^(0+128)+3)	;volatile
  7293                           
  7294                           ;mcc_generated_files/usb/usb_device.c: 2062:                 break;
  7295  0647  2EBB               	goto	i1l435
  7296  0648                     i1l3477:
  7297                           
  7298                           ;mcc_generated_files/usb/usb_device.c: 2067:                 if(SetupPkt.bDscIndex < 1)
  7299  0648  0852               	movf	82,w	;volatile
  7300  0649  1D03               	btfss	3,2
  7301  064A  2E4C               	goto	u214_21
  7302  064B  2E4D               	goto	u214_20
  7303  064C                     u214_21:
  7304  064C  2E7C               	goto	i1l3485
  7305  064D                     u214_20:
  7306  064D                     i1l3479:
  7307                           
  7308                           ;mcc_generated_files/usb/usb_device.c: 2068:                 {;mcc_generated_files/usb/u
      +                          sb_device.c: 2072:                         inPipes[0].pSrc.bRom = *(USB_CD_Ptr+SetupPkt.
      +                          bDscIndex);
  7309  064D  0852               	movf	82,w	;volatile
  7310  064E  00F0               	movwf	??_USBStdGetDscHandler
  7311  064F  01F1               	clrf	??_USBStdGetDscHandler+1
  7312  0650  35F0               	lslf	??_USBStdGetDscHandler,f
  7313  0651  0DF1               	rlf	??_USBStdGetDscHandler+1,f
  7314  0652  30B3               	movlw	low (_USB_CD_Ptr| (0+32768))
  7315  0653  0770               	addwf	??_USBStdGetDscHandler,w
  7316  0654  0084               	movwf	4
  7317  0655  3090               	movlw	high (_USB_CD_Ptr| (0+32768))
  7318  0656  3D71               	addwfc	??_USBStdGetDscHandler+1,w
  7319  0657  0085               	movwf	5
  7320  0658  3F00               	moviw [0]fsr0
  7321  0659  0021               	movlb	1	; select bank1
  7322  065A  00A6               	movwf	_inPipes^(0+128)	;volatile
  7323  065B  3F01               	moviw [1]fsr0
  7324  065C  00A7               	movwf	(_inPipes+1)^(0+128)	;volatile
  7325  065D                     i1l3481:
  7326                           
  7327                           ;mcc_generated_files/usb/usb_device.c: 2078:                     inPipes[0].wCount.byte.
      +                          LB = *(inPipes[0].pSrc.bRom+2);
  7328  065D  0827               	movf	(_inPipes+1)^(0+128),w	;volatile
  7329  065E  00F1               	movwf	??_USBStdGetDscHandler+1
  7330  065F  0826               	movf	_inPipes^(0+128),w	;volatile
  7331  0660  00F0               	movwf	??_USBStdGetDscHandler
  7332  0661  3002               	movlw	2
  7333  0662  0770               	addwf	??_USBStdGetDscHandler,w
  7334  0663  0084               	movwf	4
  7335  0664  0871               	movf	??_USBStdGetDscHandler+1,w
  7336  0665  1803               	skipnc
  7337  0666  0A71               	incf	??_USBStdGetDscHandler+1,w
  7338  0667  0085               	movwf	5
  7339  0668  0800               	movf	0,w	;code access
  7340  0669  00F2               	movwf	??_USBStdGetDscHandler+2
  7341  066A  0872               	movf	??_USBStdGetDscHandler+2,w
  7342  066B  00A9               	movwf	(_inPipes^(0+128)+3)	;volatile
  7343  066C                     i1l3483:
  7344                           
  7345                           ;mcc_generated_files/usb/usb_device.c: 2079:                     inPipes[0].wCount.byte.
      +                          HB = *(inPipes[0].pSrc.bRom+3);
  7346  066C  0827               	movf	(_inPipes+1)^(0+128),w	;volatile
  7347  066D  00F1               	movwf	??_USBStdGetDscHandler+1
  7348  066E  0826               	movf	_inPipes^(0+128),w	;volatile
  7349  066F  00F0               	movwf	??_USBStdGetDscHandler
  7350  0670  3003               	movlw	3
  7351  0671  0770               	addwf	??_USBStdGetDscHandler,w
  7352  0672  0084               	movwf	4
  7353  0673  0871               	movf	??_USBStdGetDscHandler+1,w
  7354  0674  1803               	skipnc
  7355  0675  0A71               	incf	??_USBStdGetDscHandler+1,w
  7356  0676  0085               	movwf	5
  7357  0677  0800               	movf	0,w	;code access
  7358  0678  00F2               	movwf	??_USBStdGetDscHandler+2
  7359  0679  0872               	movf	??_USBStdGetDscHandler+2,w
  7360  067A  00AA               	movwf	(_inPipes^(0+128)+4)	;volatile
  7361                           
  7362                           ;mcc_generated_files/usb/usb_device.c: 2080:                 }
  7363  067B  2EBB               	goto	i1l435
  7364  067C                     i1l3485:
  7365                           
  7366                           ;mcc_generated_files/usb/usb_device.c: 2082:     {;mcc_generated_files/usb/usb_device.c:
      +                           2083:      inPipes[0].info.Val = 0;
  7367  067C  0021               	movlb	1	; select bank1
  7368  067D  01A8               	clrf	(_inPipes^(0+128)+2)	;volatile
  7369  067E  2EBB               	goto	i1l435
  7370  067F                     i1l3487:
  7371                           
  7372                           ;mcc_generated_files/usb/usb_device.c: 2090:                 if(SetupPkt.bDscIndex<4)
  7373  067F  3004               	movlw	4
  7374  0680  0252               	subwf	82,w	;volatile
  7375  0681  1803               	skipnc
  7376  0682  2E84               	goto	u215_21
  7377  0683  2E85               	goto	u215_20
  7378  0684                     u215_21:
  7379  0684  2EA1               	goto	i1l3493
  7380  0685                     u215_20:
  7381  0685                     i1l3489:
  7382                           
  7383                           ;mcc_generated_files/usb/usb_device.c: 2091:                 {;mcc_generated_files/usb/u
      +                          sb_device.c: 2093:                     inPipes[0].pSrc.bRom = *(USB_SD_Ptr+SetupPkt.bDsc
      +                          Index);
  7384  0685  0852               	movf	82,w	;volatile
  7385  0686  00F0               	movwf	??_USBStdGetDscHandler
  7386  0687  01F1               	clrf	??_USBStdGetDscHandler+1
  7387  0688  35F0               	lslf	??_USBStdGetDscHandler,f
  7388  0689  0DF1               	rlf	??_USBStdGetDscHandler+1,f
  7389  068A  309F               	movlw	low (_USB_SD_Ptr| (0+32768))
  7390  068B  0770               	addwf	??_USBStdGetDscHandler,w
  7391  068C  0084               	movwf	4
  7392  068D  3090               	movlw	high (_USB_SD_Ptr| (0+32768))
  7393  068E  3D71               	addwfc	??_USBStdGetDscHandler+1,w
  7394  068F  0085               	movwf	5
  7395  0690  3F00               	moviw [0]fsr0
  7396  0691  0021               	movlb	1	; select bank1
  7397  0692  00A6               	movwf	_inPipes^(0+128)	;volatile
  7398  0693  3F01               	moviw [1]fsr0
  7399  0694  00A7               	movwf	(_inPipes+1)^(0+128)	;volatile
  7400  0695                     i1l3491:
  7401                           
  7402                           ;mcc_generated_files/usb/usb_device.c: 2095:                     inPipes[0].wCount.Val =
      +                           *inPipes[0].pSrc.bRom;
  7403  0695  0826               	movf	_inPipes^(0+128),w	;volatile
  7404  0696  0084               	movwf	4
  7405  0697  0827               	movf	(_inPipes+1)^(0+128),w	;volatile
  7406  0698  0085               	movwf	5
  7407  0699  0800               	movf	0,w	;code access
  7408  069A  00F0               	movwf	??_USBStdGetDscHandler
  7409  069B  01F1               	clrf	??_USBStdGetDscHandler+1
  7410  069C  0870               	movf	??_USBStdGetDscHandler,w
  7411  069D  00A9               	movwf	(_inPipes^(0+128)+3)	;volatile
  7412  069E  0871               	movf	??_USBStdGetDscHandler+1,w
  7413  069F  00AA               	movwf	((_inPipes+1)^(0+128)+3)	;volatile
  7414                           
  7415                           ;mcc_generated_files/usb/usb_device.c: 2096:                 }
  7416  06A0  2EBB               	goto	i1l435
  7417  06A1                     i1l3493:
  7418                           
  7419                           ;mcc_generated_files/usb/usb_device.c: 2107:                 {;mcc_generated_files/usb/u
      +                          sb_device.c: 2108:                     inPipes[0].info.Val = 0;
  7420  06A1  0021               	movlb	1	; select bank1
  7421  06A2  01A8               	clrf	(_inPipes^(0+128)+2)	;volatile
  7422  06A3  2EBB               	goto	i1l435
  7423  06A4                     i1l3495:
  7424                           
  7425                           ;mcc_generated_files/usb/usb_device.c: 2112:                 inPipes[0].info.Val = 0;
  7426  06A4  0021               	movlb	1	; select bank1
  7427  06A5  01A8               	clrf	(_inPipes^(0+128)+2)	;volatile
  7428                           
  7429                           ;mcc_generated_files/usb/usb_device.c: 2113:                 break;
  7430  06A6  2EBB               	goto	i1l435
  7431  06A7                     i1l3499:
  7432  06A7  0020               	movlb	0	; select bank0
  7433  06A8  0853               	movf	83,w	;volatile
  7434  06A9  00F0               	movwf	??_USBStdGetDscHandler
  7435  06AA  01F1               	clrf	??_USBStdGetDscHandler+1
  7436                           
  7437                           ; Switch on 2 bytes has been partitioned into a top level switch of size 1, and 1 sub-sw
      +                          itches
  7438                           ; Switch size 1, requested type "simple"
  7439                           ; Number of cases is 1, Range of values is 0 to 0
  7440                           ; switch strategies available:
  7441                           ; Name         Instructions Cycles
  7442                           ; simple_byte            4     3 (average)
  7443                           ; direct_byte            8     6 (fixed)
  7444                           ; jumptable            260     6 (fixed)
  7445                           ;	Chosen strategy is simple_byte
  7446  06AB  0871               	movf	??_USBStdGetDscHandler+1,w
  7447  06AC  3A00               	xorlw	0	; case 0
  7448  06AD  1903               	skipnz
  7449  06AE  2EB0               	goto	i1l5377
  7450  06AF  2EA4               	goto	i1l3495
  7451  06B0                     i1l5377:
  7452                           
  7453                           ; Switch size 1, requested type "simple"
  7454                           ; Number of cases is 3, Range of values is 1 to 3
  7455                           ; switch strategies available:
  7456                           ; Name         Instructions Cycles
  7457                           ; simple_byte           10     6 (average)
  7458                           ; direct_byte           15     9 (fixed)
  7459                           ; jumptable            263     9 (fixed)
  7460                           ;	Chosen strategy is simple_byte
  7461  06B0  0870               	movf	??_USBStdGetDscHandler,w
  7462  06B1  3A01               	xorlw	1	; case 1
  7463  06B2  1903               	skipnz
  7464  06B3  2E3E               	goto	i1l3473
  7465  06B4  3A03               	xorlw	3	; case 2
  7466  06B5  1903               	skipnz
  7467  06B6  2E48               	goto	i1l3477
  7468  06B7  3A01               	xorlw	1	; case 3
  7469  06B8  1903               	skipnz
  7470  06B9  2E7F               	goto	i1l3487
  7471  06BA  2EA4               	goto	i1l3495
  7472  06BB                     i1l435:
  7473  06BB  0008               	return
  7474  06BC                     __end_of_USBStdGetDscHandler:
  7475                           
  7476                           	psect	text29
  7477  006F                     __ptext29:	
  7478 ;; *************** function _USBStdFeatureReqHandler *****************
  7479 ;; Defined at:
  7480 ;;		line 2758 in file "mcc_generated_files/usb/usb_device.c"
  7481 ;; Parameters:    Size  Location     Type
  7482 ;;		None
  7483 ;; Auto vars:     Size  Location     Type
  7484 ;;  p               2   11[BANK0 ] PTR struct __BDT
  7485 ;;		 -> RAM(4096), NULL(0), BDT(48), 
  7486 ;;  pUEP            2    8[BANK0 ] PTR unsigned char 
  7487 ;;		 -> UEP0(1), 
  7488 ;;  current_ep_d    1   10[BANK0 ] struct .
  7489 ;; Return value:  Size  Location     Type
  7490 ;;                  1    wreg      void 
  7491 ;; Registers used:
  7492 ;;		wreg, fsr0l, fsr0h, fsr1l, fsr1h, status,2, status,0, pclath, cstack
  7493 ;; Tracked objects:
  7494 ;;		On entry : 0/0
  7495 ;;		On exit  : 0/0
  7496 ;;		Unchanged: 0/0
  7497 ;; Data sizes:     COMMON   BANK0   BANK1   BANK2   BANK3   BANK4   BANK5   BANK6   BANK7   BANK8   BANK9  BANK10  BANK1
      +1  BANK12
  7498 ;;      Params:         0       0       0       0       0       0       0       0       0       0       0       0       
      +0       0
  7499 ;;      Locals:         0       5       0       0       0       0       0       0       0       0       0       0       
      +0       0
  7500 ;;      Temps:          0       2       0       0       0       0       0       0       0       0       0       0       
      +0       0
  7501 ;;      Totals:         0       7       0       0       0       0       0       0       0       0       0       0       
      +0       0
  7502 ;;Total ram usage:        7 bytes
  7503 ;; Hardware stack levels used:    1
  7504 ;; Hardware stack levels required when called:    4
  7505 ;; This function calls:
  7506 ;;		_USER_USB_CALLBACK_EVENT_HANDLER
  7507 ;; This function is called by:
  7508 ;;		_USBCheckStdRequest
  7509 ;; This function uses a non-reentrant model
  7510 ;;
  7511                           
  7512                           
  7513                           ;psect for function _USBStdFeatureReqHandler
  7514  006F                     _USBStdFeatureReqHandler:
  7515  006F                     i1l3537:	
  7516                           ;incstack = 0
  7517                           ; Regs used in _USBStdFeatureReqHandler: [wreg-fsr1h+status,2+status,0+pclath+cstack]
  7518                           
  7519                           
  7520                           ;mcc_generated_files/usb/usb_device.c: 2760:     BDT_ENTRY *p;;mcc_generated_files/usb/u
      +                          sb_device.c: 2761:     EP_STATUS current_ep_data;;mcc_generated_files/usb/usb_device.c: 
      +                          2765:         unsigned char* pUEP;;mcc_generated_files/usb/usb_device.c: 2803:     if((S
      +                          etupPkt.bFeature == 1)&&
  7521  006F  0020               	movlb	0	; select bank0
  7522  0070  0352               	decf	82,w	;volatile
  7523  0071  1D03               	btfss	3,2
  7524  0072  2874               	goto	u221_21
  7525  0073  2875               	goto	u221_20
  7526  0074                     u221_21:
  7527  0074  288D               	goto	i1l3549
  7528  0075                     u221_20:
  7529  0075                     i1l3539:
  7530  0075  0850               	movf	80,w	;volatile
  7531  0076  391F               	andlw	31
  7532  0077  3A00               	xorlw	0
  7533  0078  1D03               	skipz
  7534  0079  287B               	goto	u222_21
  7535  007A  287C               	goto	u222_20
  7536  007B                     u222_21:
  7537  007B  288D               	goto	i1l3549
  7538  007C                     u222_20:
  7539  007C                     i1l3541:
  7540                           
  7541                           ;mcc_generated_files/usb/usb_device.c: 2805:     {;mcc_generated_files/usb/usb_device.c:
      +                           2806:         inPipes[0].info.bits.busy = 1;
  7542  007C  0021               	movlb	1	; select bank1
  7543  007D  17A8               	bsf	(_inPipes^(0+128)+2),7	;volatile
  7544  007E                     i1l3543:
  7545                           
  7546                           ;mcc_generated_files/usb/usb_device.c: 2807:         if(SetupPkt.bRequest == 3)
  7547  007E  3003               	movlw	3
  7548  007F  0020               	movlb	0	; select bank0
  7549  0080  0651               	xorwf	81,w	;volatile
  7550  0081  1D03               	btfss	3,2
  7551  0082  2884               	goto	u223_21
  7552  0083  2885               	goto	u223_20
  7553  0084                     u223_21:
  7554  0084  288B               	goto	i1l3547
  7555  0085                     u223_20:
  7556  0085                     i1l3545:
  7557                           
  7558                           ;mcc_generated_files/usb/usb_device.c: 2808:             RemoteWakeup = 1;
  7559  0085  3001               	movlw	1
  7560  0086  00E6               	movwf	??_USBStdFeatureReqHandler
  7561  0087  0866               	movf	??_USBStdFeatureReqHandler,w
  7562  0088  0023               	movlb	3	; select bank3
  7563  0089  00E2               	movwf	_RemoteWakeup^(0+384)	;volatile
  7564  008A  288D               	goto	i1l3549
  7565  008B                     i1l3547:
  7566                           
  7567                           ;mcc_generated_files/usb/usb_device.c: 2810:             RemoteWakeup = 0;
  7568  008B  0023               	movlb	3	; select bank3
  7569  008C  01E2               	clrf	_RemoteWakeup^(0+384)	;volatile
  7570  008D                     i1l3549:
  7571                           
  7572                           ;mcc_generated_files/usb/usb_device.c: 2814:     if((SetupPkt.bFeature == 0)&&
  7573  008D  0020               	movlb	0	; select bank0
  7574  008E  0852               	movf	82,w	;volatile
  7575  008F  1D03               	btfss	3,2
  7576  0090  2892               	goto	u224_21
  7577  0091  2893               	goto	u224_20
  7578  0092                     u224_21:
  7579  0092  29C6               	goto	i1l539
  7580  0093                     u224_20:
  7581  0093                     i1l3551:
  7582  0093  0850               	movf	80,w	;volatile
  7583  0094  391F               	andlw	31
  7584  0095  3A02               	xorlw	2
  7585  0096  1D03               	skipz
  7586  0097  2899               	goto	u225_21
  7587  0098  289A               	goto	u225_20
  7588  0099                     u225_21:
  7589  0099  29C6               	goto	i1l539
  7590  009A                     u225_20:
  7591  009A                     i1l3553:
  7592  009A  0854               	movf	84,w	;volatile
  7593  009B  390F               	andlw	15
  7594  009C  3A00               	xorlw	0
  7595  009D  1903               	skipnz
  7596  009E  28A0               	goto	u226_21
  7597  009F  28A1               	goto	u226_20
  7598  00A0                     u226_21:
  7599  00A0  29C6               	goto	i1l539
  7600  00A1                     u226_20:
  7601  00A1                     i1l3555:
  7602  00A1  0854               	movf	84,w	;volatile
  7603  00A2  390F               	andlw	15
  7604  00A3  00E6               	movwf	??_USBStdFeatureReqHandler
  7605  00A4  3003               	movlw	3
  7606  00A5  0266               	subwf	??_USBStdFeatureReqHandler,w
  7607  00A6  1803               	skipnc
  7608  00A7  28A9               	goto	u227_21
  7609  00A8  28AA               	goto	u227_20
  7610  00A9                     u227_21:
  7611  00A9  29C6               	goto	i1l539
  7612  00AA                     u227_20:
  7613  00AA                     i1l3557:
  7614  00AA  3020               	movlw	32
  7615  00AB  0021               	movlb	1	; select bank1
  7616  00AC  0633               	xorwf	_USBDeviceState^(0+128),w	;volatile
  7617  00AD  1D03               	btfss	3,2
  7618  00AE  28B0               	goto	u228_21
  7619  00AF  28B1               	goto	u228_20
  7620  00B0                     u228_21:
  7621  00B0  29C6               	goto	i1l539
  7622  00B1                     u228_20:
  7623  00B1                     i1l3559:
  7624                           
  7625                           ;mcc_generated_files/usb/usb_device.c: 2818:     {;mcc_generated_files/usb/usb_device.c:
      +                           2821:   inPipes[0].info.bits.busy = 1;
  7626  00B1  17A8               	bsf	(_inPipes^(0+128)+2),7	;volatile
  7627                           
  7628                           ;mcc_generated_files/usb/usb_device.c: 2824:         if(SetupPkt.EPDir == 0)
  7629  00B2  0020               	movlb	0	; select bank0
  7630  00B3  1BD4               	btfsc	84,7	;volatile
  7631  00B4  28B6               	goto	u229_21
  7632  00B5  28B7               	goto	u229_20
  7633  00B6                     u229_21:
  7634  00B6  28CD               	goto	i1l3563
  7635  00B7                     u229_20:
  7636  00B7                     i1l3561:
  7637                           
  7638                           ;mcc_generated_files/usb/usb_device.c: 2825:         {;mcc_generated_files/usb/usb_devic
      +                          e.c: 2826:             p = (BDT_ENTRY*)pBDTEntryOut[SetupPkt.EPNum];
  7639  00B7  0854               	movf	84,w	;volatile
  7640  00B8  390F               	andlw	15
  7641  00B9  0709               	addwf	9,w
  7642  00BA  3EB7               	addlw	(low (_pBDTEntryOut| (0+256)))& (0+255)
  7643  00BB  0086               	movwf	6
  7644  00BC  3001               	movlw	1	; select bank3/4
  7645  00BD  0087               	movwf	7
  7646  00BE  3F40               	moviw [0]fsr1
  7647  00BF  00EB               	movwf	USBStdFeatureReqHandler@p
  7648  00C0  3F41               	moviw [1]fsr1
  7649  00C1  00EC               	movwf	USBStdFeatureReqHandler@p+1
  7650                           
  7651                           ;mcc_generated_files/usb/usb_device.c: 2827:             current_ep_data.Val = ep_data_o
      +                          ut[SetupPkt.EPNum].Val;
  7652  00C2  0854               	movf	84,w	;volatile
  7653  00C3  390F               	andlw	15
  7654  00C4  3EC1               	addlw	(low (_ep_data_out| (0+256)))& (0+255)
  7655  00C5  0086               	movwf	6
  7656  00C6  3001               	movlw	1	; select bank3/4
  7657  00C7  0087               	movwf	7
  7658  00C8  0801               	movf	1,w
  7659  00C9  00E6               	movwf	??_USBStdFeatureReqHandler
  7660  00CA  0866               	movf	??_USBStdFeatureReqHandler,w
  7661  00CB  00EA               	movwf	USBStdFeatureReqHandler@current_ep_data
  7662                           
  7663                           ;mcc_generated_files/usb/usb_device.c: 2828:         }
  7664  00CC  28E1               	goto	i1l3565
  7665  00CD                     i1l3563:
  7666                           
  7667                           ;mcc_generated_files/usb/usb_device.c: 2830:         {;mcc_generated_files/usb/usb_devic
      +                          e.c: 2831:             p = (BDT_ENTRY*)pBDTEntryIn[SetupPkt.EPNum];
  7668  00CD  0854               	movf	84,w	;volatile
  7669  00CE  390F               	andlw	15
  7670  00CF  0709               	addwf	9,w
  7671  00D0  3EA0               	addlw	(low (_pBDTEntryIn| 0))& (0+255)
  7672  00D1  0086               	movwf	6
  7673  00D2  0187               	clrf	7
  7674  00D3  3F40               	moviw [0]fsr1
  7675  00D4  00EB               	movwf	USBStdFeatureReqHandler@p
  7676  00D5  3F41               	moviw [1]fsr1
  7677  00D6  00EC               	movwf	USBStdFeatureReqHandler@p+1
  7678                           
  7679                           ;mcc_generated_files/usb/usb_device.c: 2832:             current_ep_data.Val = ep_data_i
      +                          n[SetupPkt.EPNum].Val;
  7680  00D7  0854               	movf	84,w	;volatile
  7681  00D8  390F               	andlw	15
  7682  00D9  3EC4               	addlw	(low (_ep_data_in| (0+256)))& (0+255)
  7683  00DA  0086               	movwf	6
  7684  00DB  3001               	movlw	1	; select bank3/4
  7685  00DC  0087               	movwf	7
  7686  00DD  0801               	movf	1,w
  7687  00DE  00E6               	movwf	??_USBStdFeatureReqHandler
  7688  00DF  0866               	movf	??_USBStdFeatureReqHandler,w
  7689  00E0  00EA               	movwf	USBStdFeatureReqHandler@current_ep_data
  7690  00E1                     i1l3565:
  7691                           
  7692                           ;mcc_generated_files/usb/usb_device.c: 2839:             if(current_ep_data.bits.ping_po
      +                          ng_state == 0)
  7693  00E1  186A               	btfsc	USBStdFeatureReqHandler@current_ep_data,0
  7694  00E2  28E4               	goto	u230_21
  7695  00E3  28E5               	goto	u230_20
  7696  00E4                     u230_21:
  7697  00E4  28F0               	goto	i1l3569
  7698  00E5                     u230_20:
  7699  00E5                     i1l3567:
  7700                           
  7701                           ;mcc_generated_files/usb/usb_device.c: 2840:             {;mcc_generated_files/usb/usb_d
      +                          evice.c: 2841:                 p = (BDT_ENTRY*)(((uint16_t)p) & (~0x0004));
  7702  00E5  30FB               	movlw	251
  7703  00E6  00E6               	movwf	??_USBStdFeatureReqHandler
  7704  00E7  30FF               	movlw	255
  7705  00E8  00E7               	movwf	??_USBStdFeatureReqHandler+1
  7706  00E9  086B               	movf	USBStdFeatureReqHandler@p,w
  7707  00EA  0566               	andwf	??_USBStdFeatureReqHandler,w
  7708  00EB  00EB               	movwf	USBStdFeatureReqHandler@p
  7709  00EC  086C               	movf	USBStdFeatureReqHandler@p+1,w
  7710  00ED  0567               	andwf	??_USBStdFeatureReqHandler+1,w
  7711  00EE  00EC               	movwf	USBStdFeatureReqHandler@p+1
  7712                           
  7713                           ;mcc_generated_files/usb/usb_device.c: 2842:             }
  7714  00EF  28F6               	goto	i1l3571
  7715  00F0                     i1l3569:
  7716                           
  7717                           ;mcc_generated_files/usb/usb_device.c: 2844:             {;mcc_generated_files/usb/usb_d
      +                          evice.c: 2845:                 p = (BDT_ENTRY*)(((uint16_t)p) | 0x0004);
  7718  00F0  3004               	movlw	4
  7719  00F1  046B               	iorwf	USBStdFeatureReqHandler@p,w
  7720  00F2  00EB               	movwf	USBStdFeatureReqHandler@p
  7721  00F3  3000               	movlw	0
  7722  00F4  046C               	iorwf	USBStdFeatureReqHandler@p+1,w
  7723  00F5  00EC               	movwf	USBStdFeatureReqHandler@p+1
  7724  00F6                     i1l3571:
  7725                           
  7726                           ;mcc_generated_files/usb/usb_device.c: 2851:         if(SetupPkt.EPDir == 0)
  7727  00F6  1BD4               	btfsc	84,7	;volatile
  7728  00F7  28F9               	goto	u231_21
  7729  00F8  28FA               	goto	u231_20
  7730  00F9                     u231_21:
  7731  00F9  2906               	goto	i1l3575
  7732  00FA                     u231_20:
  7733  00FA                     i1l3573:
  7734                           
  7735                           ;mcc_generated_files/usb/usb_device.c: 2852:         {;mcc_generated_files/usb/usb_devic
      +                          e.c: 2853:             pBDTEntryOut[SetupPkt.EPNum] = (volatile BDT_ENTRY *)p;
  7736  00FA  0854               	movf	84,w	;volatile
  7737  00FB  390F               	andlw	15
  7738  00FC  0709               	addwf	9,w
  7739  00FD  3EB7               	addlw	(low (_pBDTEntryOut| (0+256)))& (0+255)
  7740  00FE  0086               	movwf	6
  7741  00FF  3001               	movlw	1	; select bank3/4
  7742  0100  0087               	movwf	7
  7743  0101  086B               	movf	USBStdFeatureReqHandler@p,w
  7744  0102  3FC0               	movwi [0]fsr1
  7745  0103  086C               	movf	USBStdFeatureReqHandler@p+1,w
  7746  0104  3FC1               	movwi [1]fsr1
  7747                           
  7748                           ;mcc_generated_files/usb/usb_device.c: 2854:         }
  7749  0105  2910               	goto	i1l3577
  7750  0106                     i1l3575:
  7751                           
  7752                           ;mcc_generated_files/usb/usb_device.c: 2856:         {;mcc_generated_files/usb/usb_devic
      +                          e.c: 2857:             pBDTEntryIn[SetupPkt.EPNum] = (volatile BDT_ENTRY *)p;
  7753  0106  0854               	movf	84,w	;volatile
  7754  0107  390F               	andlw	15
  7755  0108  0709               	addwf	9,w
  7756  0109  3EA0               	addlw	(low (_pBDTEntryIn| 0))& (0+255)
  7757  010A  0086               	movwf	6
  7758  010B  0187               	clrf	7
  7759  010C  086B               	movf	USBStdFeatureReqHandler@p,w
  7760  010D  3FC0               	movwi [0]fsr1
  7761  010E  086C               	movf	USBStdFeatureReqHandler@p+1,w
  7762  010F  3FC1               	movwi [1]fsr1
  7763  0110                     i1l3577:
  7764                           
  7765                           ;mcc_generated_files/usb/usb_device.c: 2861:         if(SetupPkt.bRequest == 3)
  7766  0110  3003               	movlw	3
  7767  0111  0651               	xorwf	81,w	;volatile
  7768  0112  1D03               	btfss	3,2
  7769  0113  2915               	goto	u232_21
  7770  0114  2916               	goto	u232_20
  7771  0115                     u232_21:
  7772  0115  293C               	goto	i1l3591
  7773  0116                     u232_20:
  7774  0116                     i1l3579:
  7775                           
  7776                           ;mcc_generated_files/usb/usb_device.c: 2862:         {;mcc_generated_files/usb/usb_devic
      +                          e.c: 2863:             if(p->STAT.UOWN == 1)
  7777  0116  086B               	movf	USBStdFeatureReqHandler@p,w
  7778  0117  0086               	movwf	6
  7779  0118  086C               	movf	USBStdFeatureReqHandler@p+1,w
  7780  0119  0087               	movwf	7
  7781  011A  1F81               	btfss	1,7
  7782  011B  291D               	goto	u233_21
  7783  011C  291E               	goto	u233_20
  7784  011D                     u233_21:
  7785  011D  2931               	goto	i1l3587
  7786  011E                     u233_20:
  7787  011E                     i1l3581:
  7788                           
  7789                           ;mcc_generated_files/usb/usb_device.c: 2864:             {;mcc_generated_files/usb/usb_d
      +                          evice.c: 2867:                 if(SetupPkt.EPDir == 0)
  7790  011E  1BD4               	btfsc	84,7	;volatile
  7791  011F  2921               	goto	u234_21
  7792  0120  2922               	goto	u234_20
  7793  0121                     u234_21:
  7794  0121  292A               	goto	i1l3585
  7795  0122                     u234_20:
  7796  0122                     i1l3583:
  7797                           
  7798                           ;mcc_generated_files/usb/usb_device.c: 2868:                 {;mcc_generated_files/usb/u
      +                          sb_device.c: 2869:                     ep_data_out[SetupPkt.EPNum].bits.transfer_termina
      +                          ted = 1;
  7799  0122  0854               	movf	84,w	;volatile
  7800  0123  390F               	andlw	15
  7801  0124  3EC1               	addlw	(low (_ep_data_out| (0+256)))& (0+255)
  7802  0125  0086               	movwf	6
  7803  0126  3001               	movlw	1	; select bank3/4
  7804  0127  0087               	movwf	7
  7805  0128  1481               	bsf	1,1
  7806                           
  7807                           ;mcc_generated_files/usb/usb_device.c: 2870:                 }
  7808  0129  2931               	goto	i1l3587
  7809  012A                     i1l3585:
  7810                           
  7811                           ;mcc_generated_files/usb/usb_device.c: 2872:                 {;mcc_generated_files/usb/u
      +                          sb_device.c: 2873:                     ep_data_in[SetupPkt.EPNum].bits.transfer_terminat
      +                          ed = 1;
  7812  012A  0854               	movf	84,w	;volatile
  7813  012B  390F               	andlw	15
  7814  012C  3EC4               	addlw	(low (_ep_data_in| (0+256)))& (0+255)
  7815  012D  0086               	movwf	6
  7816  012E  3001               	movlw	1	; select bank3/4
  7817  012F  0087               	movwf	7
  7818  0130  1481               	bsf	1,1
  7819  0131                     i1l3587:
  7820                           
  7821                           ;mcc_generated_files/usb/usb_device.c: 2878:             p->STAT.Val |= 0x04;
  7822  0131  086B               	movf	USBStdFeatureReqHandler@p,w
  7823  0132  0086               	movwf	6
  7824  0133  086C               	movf	USBStdFeatureReqHandler@p+1,w
  7825  0134  0087               	movwf	7
  7826  0135  1501               	bsf	1,2
  7827  0136                     i1l3589:
  7828                           
  7829                           ;mcc_generated_files/usb/usb_device.c: 2879:             p->STAT.Val |= 0x80;
  7830  0136  086B               	movf	USBStdFeatureReqHandler@p,w
  7831  0137  0086               	movwf	6
  7832  0138  086C               	movf	USBStdFeatureReqHandler@p+1,w
  7833  0139  0087               	movwf	7
  7834  013A  1781               	bsf	1,7
  7835                           
  7836                           ;mcc_generated_files/usb/usb_device.c: 2880:         }
  7837  013B  29C6               	goto	i1l539
  7838  013C                     i1l3591:
  7839                           
  7840                           ;mcc_generated_files/usb/usb_device.c: 2882:         {;mcc_generated_files/usb/usb_devic
      +                          e.c: 2886:                 p = (BDT_ENTRY*)(((uint16_t)p) ^ 0x0004);
  7841  013C  3004               	movlw	4
  7842  013D  066B               	xorwf	USBStdFeatureReqHandler@p,w
  7843  013E  00EB               	movwf	USBStdFeatureReqHandler@p
  7844  013F  3000               	movlw	0
  7845  0140  066C               	xorwf	USBStdFeatureReqHandler@p+1,w
  7846  0141  00EC               	movwf	USBStdFeatureReqHandler@p+1
  7847  0142                     i1l3593:
  7848                           
  7849                           ;mcc_generated_files/usb/usb_device.c: 2888:                 if(p->STAT.UOWN == 1)
  7850  0142  086B               	movf	USBStdFeatureReqHandler@p,w
  7851  0143  0086               	movwf	6
  7852  0144  086C               	movf	USBStdFeatureReqHandler@p+1,w
  7853  0145  0087               	movwf	7
  7854  0146  1F81               	btfss	1,7
  7855  0147  2949               	goto	u235_21
  7856  0148  294A               	goto	u235_20
  7857  0149                     u235_21:
  7858  0149  2967               	goto	i1l3601
  7859  014A                     u235_20:
  7860  014A                     i1l3595:
  7861                           
  7862                           ;mcc_generated_files/usb/usb_device.c: 2889:                 {;mcc_generated_files/usb/u
      +                          sb_device.c: 2892:                     p->STAT.Val &= (~0x80);
  7863  014A  307F               	movlw	127
  7864  014B  00E6               	movwf	??_USBStdFeatureReqHandler
  7865  014C  086B               	movf	USBStdFeatureReqHandler@p,w
  7866  014D  0086               	movwf	6
  7867  014E  086C               	movf	USBStdFeatureReqHandler@p+1,w
  7868  014F  0087               	movwf	7
  7869  0150  0866               	movf	??_USBStdFeatureReqHandler,w
  7870  0151  0581               	andwf	1,f
  7871  0152                     i1l3597:
  7872                           
  7873                           ;mcc_generated_files/usb/usb_device.c: 2893:                     p->STAT.Val |= 0x40;
  7874  0152  086B               	movf	USBStdFeatureReqHandler@p,w
  7875  0153  0086               	movwf	6
  7876  0154  086C               	movf	USBStdFeatureReqHandler@p+1,w
  7877  0155  0087               	movwf	7
  7878  0156  1701               	bsf	1,6
  7879  0157                     i1l3599:
  7880                           
  7881                           ;mcc_generated_files/usb/usb_device.c: 2894:                     USER_USB_CALLBACK_EVENT
      +                          _HANDLER((USB_EVENT)EVENT_TRANSFER_TERMINATED,p,sizeof(p));
  7882  0157  3005               	movlw	5
  7883  0158  00E0               	movwf	USER_USB_CALLBACK_EVENT_HANDLER@event
  7884  0159  3000               	movlw	0
  7885  015A  00E1               	movwf	USER_USB_CALLBACK_EVENT_HANDLER@event+1
  7886  015B  086C               	movf	USBStdFeatureReqHandler@p+1,w
  7887  015C  00E3               	movwf	USER_USB_CALLBACK_EVENT_HANDLER@pdata+1
  7888  015D  086B               	movf	USBStdFeatureReqHandler@p,w
  7889  015E  00E2               	movwf	USER_USB_CALLBACK_EVENT_HANDLER@pdata
  7890  015F  3002               	movlw	2
  7891  0160  00E4               	movwf	USER_USB_CALLBACK_EVENT_HANDLER@size
  7892  0161  3000               	movlw	0
  7893  0162  00E5               	movwf	USER_USB_CALLBACK_EVENT_HANDLER@size+1
  7894  0163  3187  27CB  3180   	fcall	_USER_USB_CALLBACK_EVENT_HANDLER
  7895                           
  7896                           ;mcc_generated_files/usb/usb_device.c: 2895:                 }
  7897  0166  296C               	goto	i1l3603
  7898  0167                     i1l3601:
  7899                           
  7900                           ;mcc_generated_files/usb/usb_device.c: 2897:                 {;mcc_generated_files/usb/u
      +                          sb_device.c: 2899:      p->STAT.Val |= 0x40;
  7901  0167  086B               	movf	USBStdFeatureReqHandler@p,w
  7902  0168  0086               	movwf	6
  7903  0169  086C               	movf	USBStdFeatureReqHandler@p+1,w
  7904  016A  0087               	movwf	7
  7905  016B  1701               	bsf	1,6
  7906  016C                     i1l3603:
  7907                           
  7908                           ;mcc_generated_files/usb/usb_device.c: 2904:                 p = (BDT_ENTRY*)(((uint16_t
      +                          )p) ^ 0x0004);
  7909  016C  3004               	movlw	4
  7910  016D  0020               	movlb	0	; select bank0
  7911  016E  066B               	xorwf	USBStdFeatureReqHandler@p,w
  7912  016F  00EB               	movwf	USBStdFeatureReqHandler@p
  7913  0170  3000               	movlw	0
  7914  0171  066C               	xorwf	USBStdFeatureReqHandler@p+1,w
  7915  0172  00EC               	movwf	USBStdFeatureReqHandler@p+1
  7916  0173                     i1l3605:
  7917                           
  7918                           ;mcc_generated_files/usb/usb_device.c: 2910:                 if((current_ep_data.bits.tr
      +                          ansfer_terminated != 0) || (p->STAT.UOWN == 1))
  7919  0173  18EA               	btfsc	USBStdFeatureReqHandler@current_ep_data,1
  7920  0174  2976               	goto	u236_21
  7921  0175  2977               	goto	u236_20
  7922  0176                     u236_21:
  7923  0176  297F               	goto	i1l535
  7924  0177                     u236_20:
  7925  0177                     i1l3607:
  7926  0177  086B               	movf	USBStdFeatureReqHandler@p,w
  7927  0178  0086               	movwf	6
  7928  0179  086C               	movf	USBStdFeatureReqHandler@p+1,w
  7929  017A  0087               	movwf	7
  7930  017B  1F81               	btfss	1,7
  7931  017C  297E               	goto	u237_21
  7932  017D  297F               	goto	u237_20
  7933  017E                     u237_21:
  7934  017E  29AA               	goto	i1l3615
  7935  017F                     u237_20:
  7936  017F                     i1l535:
  7937                           
  7938                           ;mcc_generated_files/usb/usb_device.c: 2911:                 {;mcc_generated_files/usb/u
      +                          sb_device.c: 2912:                     if(SetupPkt.EPDir == 0)
  7939  017F  1BD4               	btfsc	84,7	;volatile
  7940  0180  2982               	goto	u238_21
  7941  0181  2983               	goto	u238_20
  7942  0182                     u238_21:
  7943  0182  298B               	goto	i1l3611
  7944  0183                     u238_20:
  7945  0183                     i1l3609:
  7946                           
  7947                           ;mcc_generated_files/usb/usb_device.c: 2913:                     {;mcc_generated_files/u
      +                          sb/usb_device.c: 2914:                         ep_data_out[SetupPkt.EPNum].bits.transfer
      +                          _terminated = 0;
  7948  0183  0854               	movf	84,w	;volatile
  7949  0184  390F               	andlw	15
  7950  0185  3EC1               	addlw	(low (_ep_data_out| (0+256)))& (0+255)
  7951  0186  0086               	movwf	6
  7952  0187  3001               	movlw	1	; select bank3/4
  7953  0188  0087               	movwf	7
  7954  0189  1081               	bcf	1,1
  7955                           
  7956                           ;mcc_generated_files/usb/usb_device.c: 2915:                     }
  7957  018A  2992               	goto	i1l537
  7958  018B                     i1l3611:
  7959                           
  7960                           ;mcc_generated_files/usb/usb_device.c: 2917:                     {;mcc_generated_files/u
      +                          sb/usb_device.c: 2918:                         ep_data_in[SetupPkt.EPNum].bits.transfer_
      +                          terminated = 0;
  7961  018B  0854               	movf	84,w	;volatile
  7962  018C  390F               	andlw	15
  7963  018D  3EC4               	addlw	(low (_ep_data_in| (0+256)))& (0+255)
  7964  018E  0086               	movwf	6
  7965  018F  3001               	movlw	1	; select bank3/4
  7966  0190  0087               	movwf	7
  7967  0191  1081               	bcf	1,1
  7968  0192                     i1l537:	
  7969                           ;mcc_generated_files/usb/usb_device.c: 2919:                     }
  7970                           
  7971                           
  7972                           ;mcc_generated_files/usb/usb_device.c: 2921:                     p->STAT.Val &= ~(0x80 |
      +                           0x40 | 0x04);
  7973  0192  303B               	movlw	59
  7974  0193  00E6               	movwf	??_USBStdFeatureReqHandler
  7975  0194  086B               	movf	USBStdFeatureReqHandler@p,w
  7976  0195  0086               	movwf	6
  7977  0196  086C               	movf	USBStdFeatureReqHandler@p+1,w
  7978  0197  0087               	movwf	7
  7979  0198  0866               	movf	??_USBStdFeatureReqHandler,w
  7980  0199  0581               	andwf	1,f
  7981  019A                     i1l3613:
  7982                           
  7983                           ;mcc_generated_files/usb/usb_device.c: 2924:                     USER_USB_CALLBACK_EVENT
      +                          _HANDLER((USB_EVENT)EVENT_TRANSFER_TERMINATED,p,sizeof(p));
  7984  019A  3005               	movlw	5
  7985  019B  00E0               	movwf	USER_USB_CALLBACK_EVENT_HANDLER@event
  7986  019C  3000               	movlw	0
  7987  019D  00E1               	movwf	USER_USB_CALLBACK_EVENT_HANDLER@event+1
  7988  019E  086C               	movf	USBStdFeatureReqHandler@p+1,w
  7989  019F  00E3               	movwf	USER_USB_CALLBACK_EVENT_HANDLER@pdata+1
  7990  01A0  086B               	movf	USBStdFeatureReqHandler@p,w
  7991  01A1  00E2               	movwf	USER_USB_CALLBACK_EVENT_HANDLER@pdata
  7992  01A2  3002               	movlw	2
  7993  01A3  00E4               	movwf	USER_USB_CALLBACK_EVENT_HANDLER@size
  7994  01A4  3000               	movlw	0
  7995  01A5  00E5               	movwf	USER_USB_CALLBACK_EVENT_HANDLER@size+1
  7996  01A6  3187  27CB  3180   	fcall	_USER_USB_CALLBACK_EVENT_HANDLER
  7997                           
  7998                           ;mcc_generated_files/usb/usb_device.c: 2925:                 }
  7999  01A9  29B2               	goto	i1l3617
  8000  01AA                     i1l3615:
  8001                           
  8002                           ;mcc_generated_files/usb/usb_device.c: 2927:                 {;mcc_generated_files/usb/u
      +                          sb_device.c: 2929:                     p->STAT.Val &= ~(0x80 | 0x40 | 0x04);
  8003  01AA  303B               	movlw	59
  8004  01AB  00E6               	movwf	??_USBStdFeatureReqHandler
  8005  01AC  086B               	movf	USBStdFeatureReqHandler@p,w
  8006  01AD  0086               	movwf	6
  8007  01AE  086C               	movf	USBStdFeatureReqHandler@p+1,w
  8008  01AF  0087               	movwf	7
  8009  01B0  0866               	movf	??_USBStdFeatureReqHandler,w
  8010  01B1  0581               	andwf	1,f
  8011  01B2                     i1l3617:
  8012                           
  8013                           ;mcc_generated_files/usb/usb_device.c: 2977:                 pUEP = (unsigned char*)(&UE
      +                          P0+SetupPkt.EPNum);
  8014  01B2  0020               	movlb	0	; select bank0
  8015  01B3  0854               	movf	84,w	;volatile
  8016  01B4  390F               	andlw	15
  8017  01B5  3E98               	addlw	152
  8018  01B6  00E6               	movwf	??_USBStdFeatureReqHandler
  8019  01B7  01E7               	clrf	??_USBStdFeatureReqHandler+1
  8020  01B8  300E               	movlw	14
  8021  01B9  3DE7               	addwfc	??_USBStdFeatureReqHandler+1,f
  8022  01BA  0866               	movf	??_USBStdFeatureReqHandler,w
  8023  01BB  00E8               	movwf	USBStdFeatureReqHandler@pUEP
  8024  01BC  0867               	movf	??_USBStdFeatureReqHandler+1,w
  8025  01BD  00E9               	movwf	USBStdFeatureReqHandler@pUEP+1
  8026  01BE                     i1l3619:
  8027                           
  8028                           ;mcc_generated_files/usb/usb_device.c: 2981:             *pUEP &= ~0x0001;
  8029  01BE  30FE               	movlw	254
  8030  01BF  00E6               	movwf	??_USBStdFeatureReqHandler
  8031  01C0  0868               	movf	USBStdFeatureReqHandler@pUEP,w
  8032  01C1  0086               	movwf	6
  8033  01C2  0869               	movf	USBStdFeatureReqHandler@pUEP+1,w
  8034  01C3  0087               	movwf	7
  8035  01C4  0866               	movf	??_USBStdFeatureReqHandler,w
  8036  01C5  0581               	andwf	1,f
  8037  01C6                     i1l539:
  8038  01C6  0008               	return
  8039  01C7                     __end_of_USBStdFeatureReqHandler:
  8040                           
  8041                           	psect	text30
  8042  07CB                     __ptext30:	
  8043 ;; *************** function _USER_USB_CALLBACK_EVENT_HANDLER *****************
  8044 ;; Defined at:
  8045 ;;		line 49 in file "mcc_generated_files/usb/usb_device_events.c"
  8046 ;; Parameters:    Size  Location     Type
  8047 ;;  event           2    0[BANK0 ] enum E46
  8048 ;;  pdata           2    2[BANK0 ] PTR void 
  8049 ;;		 -> RAM(4096), USTATcopy(1), USBActiveConfiguration(1), NULL(0), 
  8050 ;;		 -> BDT(48), 
  8051 ;;  size            2    4[BANK0 ] unsigned short 
  8052 ;; Auto vars:     Size  Location     Type
  8053 ;;		None
  8054 ;; Return value:  Size  Location     Type
  8055 ;;                  1    wreg      _Bool 
  8056 ;; Registers used:
  8057 ;;		wreg, fsr0l, fsr0h, fsr1l, fsr1h, status,2, status,0, pclath, cstack
  8058 ;; Tracked objects:
  8059 ;;		On entry : 0/0
  8060 ;;		On exit  : 0/0
  8061 ;;		Unchanged: 0/0
  8062 ;; Data sizes:     COMMON   BANK0   BANK1   BANK2   BANK3   BANK4   BANK5   BANK6   BANK7   BANK8   BANK9  BANK10  BANK1
      +1  BANK12
  8063 ;;      Params:         0       6       0       0       0       0       0       0       0       0       0       0       
      +0       0
  8064 ;;      Locals:         0       0       0       0       0       0       0       0       0       0       0       0       
      +0       0
  8065 ;;      Temps:          0       0       0       0       0       0       0       0       0       0       0       0       
      +0       0
  8066 ;;      Totals:         0       6       0       0       0       0       0       0       0       0       0       0       
      +0       0
  8067 ;;Total ram usage:        6 bytes
  8068 ;; Hardware stack levels used:    1
  8069 ;; Hardware stack levels required when called:    3
  8070 ;; This function calls:
  8071 ;;		_CDCInitEP
  8072 ;;		_USBCheckCDCRequest
  8073 ;; This function is called by:
  8074 ;;		_USBDeviceTasks
  8075 ;;		_USBStdSetCfgHandler
  8076 ;;		_USBSuspend
  8077 ;;		_USBWakeFromSuspend
  8078 ;;		_USBCtrlTrfSetupHandler
  8079 ;;		_USBCheckStdRequest
  8080 ;;		_USBStdFeatureReqHandler
  8081 ;; This function uses a non-reentrant model
  8082 ;;
  8083                           
  8084                           
  8085                           ;psect for function _USER_USB_CALLBACK_EVENT_HANDLER
  8086  07CB                     _USER_USB_CALLBACK_EVENT_HANDLER:
  8087  07CB                     i1l3257:	
  8088                           ;incstack = 0
  8089                           ; Regs used in _USER_USB_CALLBACK_EVENT_HANDLER: [wreg-fsr1h+status,2+status,0+pclath+cs
      +                          tack]
  8090                           
  8091                           
  8092                           ;mcc_generated_files/usb/usb_device_events.c: 49: _Bool USER_USB_CALLBACK_EVENT_HANDLER(
      +                          USB_EVENT event, void *pdata, uint16_t size);mcc_generated_files/usb/usb_device_events.c
      +                          : 50: {;mcc_generated_files/usb/usb_device_events.c: 51:     switch( (int) event )
  8093  07CB  2FD4               	goto	i1l3265
  8094  07CC                     i1l3259:
  8095                           
  8096                           ;mcc_generated_files/usb/usb_device_events.c: 76:             CDCInitEP();
  8097  07CC  318B  231C  3187   	fcall	_CDCInitEP
  8098                           
  8099                           ;mcc_generated_files/usb/usb_device_events.c: 77:             break;
  8100  07CF  2FFC               	goto	i1l822
  8101  07D0                     i1l3261:
  8102                           
  8103                           ;mcc_generated_files/usb/usb_device_events.c: 85:             USBCheckCDCRequest();
  8104  07D0  318E  261D  3187   	fcall	_USBCheckCDCRequest
  8105                           
  8106                           ;mcc_generated_files/usb/usb_device_events.c: 86:             break;
  8107  07D3  2FFC               	goto	i1l822
  8108  07D4                     i1l3265:
  8109                           
  8110                           ; Switch on 2 bytes has been partitioned into a top level switch of size 1, and 2 sub-sw
      +                          itches
  8111                           ; Switch size 1, requested type "simple"
  8112                           ; Number of cases is 2, Range of values is 0 to 127
  8113                           ; switch strategies available:
  8114                           ; Name         Instructions Cycles
  8115                           ; simple_byte            7     4 (average)
  8116                           ; direct_byte          262     6 (fixed)
  8117                           ; jumptable            260     6 (fixed)
  8118                           ;	Chosen strategy is simple_byte
  8119  07D4  0020               	movlb	0	; select bank0
  8120  07D5  0861               	movf	USER_USB_CALLBACK_EVENT_HANDLER@event+1,w
  8121  07D6  3A00               	xorlw	0	; case 0
  8122  07D7  1903               	skipnz
  8123  07D8  2FDD               	goto	i1l5379
  8124  07D9  3A7F               	xorlw	127	; case 127
  8125  07DA  1903               	skipnz
  8126  07DB  2FF7               	goto	i1l5381
  8127  07DC  2FFC               	goto	i1l822
  8128  07DD                     i1l5379:
  8129                           
  8130                           ; Switch size 1, requested type "simple"
  8131                           ; Number of cases is 8, Range of values is 1 to 117
  8132                           ; switch strategies available:
  8133                           ; Name         Instructions Cycles
  8134                           ; simple_byte           25    13 (average)
  8135                           ; direct_byte          243     9 (fixed)
  8136                           ; jumptable            263     9 (fixed)
  8137                           ;	Chosen strategy is simple_byte
  8138  07DD  0860               	movf	USER_USB_CALLBACK_EVENT_HANDLER@event,w
  8139  07DE  3A01               	xorlw	1	; case 1
  8140  07DF  1903               	skipnz
  8141  07E0  2FCC               	goto	i1l3259
  8142  07E1  3A03               	xorlw	3	; case 2
  8143  07E2  1903               	skipnz
  8144  07E3  2FFC               	goto	i1l822
  8145  07E4  3A01               	xorlw	1	; case 3
  8146  07E5  1903               	skipnz
  8147  07E6  2FD0               	goto	i1l3261
  8148  07E7  3A06               	xorlw	6	; case 5
  8149  07E8  1903               	skipnz
  8150  07E9  2FFC               	goto	i1l822
  8151  07EA  3A77               	xorlw	119	; case 114
  8152  07EB  1903               	skipnz
  8153  07EC  2FFC               	goto	i1l822
  8154  07ED  3A01               	xorlw	1	; case 115
  8155  07EE  1903               	skipnz
  8156  07EF  2FFC               	goto	i1l822
  8157  07F0  3A07               	xorlw	7	; case 116
  8158  07F1  1903               	skipnz
  8159  07F2  2FFC               	goto	i1l822
  8160  07F3  3A01               	xorlw	1	; case 117
  8161  07F4  1903               	skipnz
  8162  07F5  2FFC               	goto	i1l822
  8163  07F6  2FFC               	goto	i1l822
  8164  07F7                     i1l5381:
  8165                           
  8166                           ; Switch size 1, requested type "simple"
  8167                           ; Number of cases is 1, Range of values is 255 to 255
  8168                           ; switch strategies available:
  8169                           ; Name         Instructions Cycles
  8170                           ; simple_byte            4     3 (average)
  8171                           ; direct_byte            7     5 (fixed)
  8172                           ; jumptable            263     9 (fixed)
  8173                           ;	Chosen strategy is simple_byte
  8174  07F7  0860               	movf	USER_USB_CALLBACK_EVENT_HANDLER@event,w
  8175  07F8  3AFF               	xorlw	255	; case 255
  8176  07F9  1903               	skipnz
  8177  07FA  2FFC               	goto	i1l822
  8178  07FB  2FFC               	goto	i1l822
  8179  07FC                     i1l822:
  8180  07FC  0008               	return
  8181  07FD                     __end_of_USER_USB_CALLBACK_EVENT_HANDLER:
  8182                           
  8183                           	psect	text31
  8184  0E1D                     __ptext31:	
  8185 ;; *************** function _USBCheckCDCRequest *****************
  8186 ;; Defined at:
  8187 ;;		line 147 in file "mcc_generated_files/usb/usb_device_cdc.c"
  8188 ;; Parameters:    Size  Location     Type
  8189 ;;		None
  8190 ;; Auto vars:     Size  Location     Type
  8191 ;;		None
  8192 ;; Return value:  Size  Location     Type
  8193 ;;                  1    wreg      void 
  8194 ;; Registers used:
  8195 ;;		wreg, fsr0l, fsr0h, status,2, status,0
  8196 ;; Tracked objects:
  8197 ;;		On entry : 0/0
  8198 ;;		On exit  : 0/0
  8199 ;;		Unchanged: 0/0
  8200 ;; Data sizes:     COMMON   BANK0   BANK1   BANK2   BANK3   BANK4   BANK5   BANK6   BANK7   BANK8   BANK9  BANK10  BANK1
      +1  BANK12
  8201 ;;      Params:         0       0       0       0       0       0       0       0       0       0       0       0       
      +0       0
  8202 ;;      Locals:         0       0       0       0       0       0       0       0       0       0       0       0       
      +0       0
  8203 ;;      Temps:          2       0       0       0       0       0       0       0       0       0       0       0       
      +0       0
  8204 ;;      Totals:         2       0       0       0       0       0       0       0       0       0       0       0       
      +0       0
  8205 ;;Total ram usage:        2 bytes
  8206 ;; Hardware stack levels used:    1
  8207 ;; This function calls:
  8208 ;;		Nothing
  8209 ;; This function is called by:
  8210 ;;		_USER_USB_CALLBACK_EVENT_HANDLER
  8211 ;; This function uses a non-reentrant model
  8212 ;;
  8213                           
  8214                           
  8215                           ;psect for function _USBCheckCDCRequest
  8216  0E1D                     _USBCheckCDCRequest:
  8217  0E1D                     i1l3189:	
  8218                           ;incstack = 0
  8219                           ; Regs used in _USBCheckCDCRequest: [wreg-fsr0h+status,2+status,0]
  8220                           
  8221                           
  8222                           ;mcc_generated_files/usb/usb_device_cdc.c: 152:     if(SetupPkt.Recipient != (0x01)) ret
      +                          urn;
  8223  0E1D  0020               	movlb	0	; select bank0
  8224  0E1E  0850               	movf	80,w	;volatile
  8225  0E1F  391F               	andlw	31
  8226  0E20  3A01               	xorlw	1
  8227  0E21  1903               	skipnz
  8228  0E22  2E24               	goto	u189_21
  8229  0E23  2E25               	goto	u189_20
  8230  0E24                     u189_21:
  8231  0E24  2E26               	goto	i1l3193
  8232  0E25                     u189_20:
  8233  0E25  2E8B               	goto	i1l715
  8234  0E26                     i1l3193:
  8235                           
  8236                           ;mcc_generated_files/usb/usb_device_cdc.c: 157:     if(SetupPkt.RequestType != (0x20>>5)
      +                          ) return;
  8237  0E26  0E50               	swapf	80,w	;volatile
  8238  0E27  0C89               	rrf	9,f
  8239  0E28  3903               	andlw	3
  8240  0E29  3A01               	xorlw	1
  8241  0E2A  1903               	skipnz
  8242  0E2B  2E2D               	goto	u190_21
  8243  0E2C  2E2E               	goto	u190_20
  8244  0E2D                     u190_21:
  8245  0E2D  2E2F               	goto	i1l3197
  8246  0E2E                     u190_20:
  8247  0E2E  2E8B               	goto	i1l715
  8248  0E2F                     i1l3197:
  8249                           
  8250                           ;mcc_generated_files/usb/usb_device_cdc.c: 163:     if((SetupPkt.bIntfID != 0x0)&&
  8251  0E2F  0854               	movf	84,w	;volatile
  8252  0E30  1903               	btfsc	3,2
  8253  0E31  2E33               	goto	u191_21
  8254  0E32  2E34               	goto	u191_20
  8255  0E33                     u191_21:
  8256  0E33  2E72               	goto	i1l3233
  8257  0E34                     u191_20:
  8258  0E34                     i1l3199:
  8259  0E34  0354               	decf	84,w	;volatile
  8260  0E35  1903               	btfsc	3,2
  8261  0E36  2E38               	goto	u192_21
  8262  0E37  2E39               	goto	u192_20
  8263  0E38                     u192_21:
  8264  0E38  2E72               	goto	i1l3233
  8265  0E39                     u192_20:
  8266  0E39  2E8B               	goto	i1l715
  8267  0E3A                     i1l3203:
  8268                           
  8269                           ;mcc_generated_files/usb/usb_device_cdc.c: 171:             inPipes[0].pSrc.bRam = (uint
      +                          8_t*)&dummy_encapsulated_cmd_response;
  8270  0E3A  304E               	movlw	low _dummy_encapsulated_cmd_response
  8271  0E3B  0021               	movlb	1	; select bank1
  8272  0E3C  00A6               	movwf	_inPipes^(0+128)	;volatile
  8273  0E3D  3002               	movlw	high _dummy_encapsulated_cmd_response
  8274  0E3E  00A7               	movwf	(_inPipes+1)^(0+128)	;volatile
  8275  0E3F                     i1l3205:
  8276                           
  8277                           ;mcc_generated_files/usb/usb_device_cdc.c: 172:             inPipes[0].wCount.Val = 0x08
      +                          ;
  8278  0E3F  3000               	movlw	0
  8279  0E40  00AA               	movwf	((_inPipes+1)^(0+128)+3)	;volatile
  8280  0E41  3008               	movlw	8
  8281  0E42  00A9               	movwf	(_inPipes^(0+128)+3)	;volatile
  8282  0E43                     i1l3207:
  8283                           
  8284                           ;mcc_generated_files/usb/usb_device_cdc.c: 173:             inPipes[0].info.bits.ctrl_tr
      +                          f_mem = 0x01;
  8285  0E43  1428               	bsf	(_inPipes^(0+128)+2),0	;volatile
  8286  0E44                     i1l3209:
  8287                           
  8288                           ;mcc_generated_files/usb/usb_device_cdc.c: 174:             inPipes[0].info.bits.busy = 
      +                          1;
  8289  0E44  17A8               	bsf	(_inPipes^(0+128)+2),7	;volatile
  8290                           
  8291                           ;mcc_generated_files/usb/usb_device_cdc.c: 175:             break;
  8292  0E45  2E8B               	goto	i1l715
  8293  0E46                     i1l3211:
  8294                           
  8295                           ;mcc_generated_files/usb/usb_device_cdc.c: 178:             inPipes[0].pSrc.bRam = (uint
      +                          8_t*)&dummy_encapsulated_cmd_response;
  8296  0E46  304E               	movlw	low _dummy_encapsulated_cmd_response
  8297  0E47  0021               	movlb	1	; select bank1
  8298  0E48  00A6               	movwf	_inPipes^(0+128)	;volatile
  8299  0E49  3002               	movlw	high _dummy_encapsulated_cmd_response
  8300  0E4A  00A7               	movwf	(_inPipes+1)^(0+128)	;volatile
  8301  0E4B                     i1l3213:
  8302                           
  8303                           ;mcc_generated_files/usb/usb_device_cdc.c: 179:             inPipes[0].info.bits.busy = 
      +                          1;
  8304  0E4B  17A8               	bsf	(_inPipes^(0+128)+2),7	;volatile
  8305                           
  8306                           ;mcc_generated_files/usb/usb_device_cdc.c: 180:             break;
  8307  0E4C  2E8B               	goto	i1l715
  8308  0E4D                     i1l3215:
  8309                           
  8310                           ;mcc_generated_files/usb/usb_device_cdc.c: 185:             outPipes[0].wCount.Val = Set
      +                          upPkt.wLength;
  8311  0E4D  0857               	movf	87,w	;volatile
  8312  0E4E  0023               	movlb	3	; select bank3
  8313  0E4F  00B4               	movwf	((_outPipes+1)^(0+384)+3)	;volatile
  8314  0E50  0020               	movlb	0	; select bank0
  8315  0E51  0856               	movf	86,w	;volatile
  8316  0E52  0023               	movlb	3	; select bank3
  8317  0E53  00B3               	movwf	(_outPipes^(0+384)+3)	;volatile
  8318                           
  8319                           ;mcc_generated_files/usb/usb_device_cdc.c: 186:             outPipes[0].pDst.bRam = (uin
      +                          t8_t*)&line_coding._byte[0];
  8320  0E54  30E4               	movlw	(low (_line_coding| (0+256)))& (0+255)
  8321  0E55  00F0               	movwf	??_USBCheckCDCRequest
  8322  0E56  0870               	movf	??_USBCheckCDCRequest,w
  8323  0E57  00B0               	movwf	_outPipes^(0+384)	;volatile
  8324  0E58                     i1l3217:
  8325                           
  8326                           ;mcc_generated_files/usb/usb_device_cdc.c: 187:             outPipes[0].pFunc = ((void*)
      +                          0);
  8327  0E58  01B5               	clrf	(low ((_outPipes| (0+256)+5)))^(0+128)	;volatile
  8328  0E59  01B6               	clrf	((low ((_outPipes| (0+256)+5))+1))^(0+128)	;volatile
  8329  0E5A                     i1l3219:
  8330                           
  8331                           ;mcc_generated_files/usb/usb_device_cdc.c: 188:             outPipes[0].info.bits.busy =
      +                           1;
  8332  0E5A  17B2               	bsf	(_outPipes^(0+384)+2),7	;volatile
  8333                           
  8334                           ;mcc_generated_files/usb/usb_device_cdc.c: 189:             break;
  8335  0E5B  2E8B               	goto	i1l715
  8336  0E5C                     i1l3221:
  8337                           
  8338                           ;mcc_generated_files/usb/usb_device_cdc.c: 192:             { inPipes[0].pSrc.bRam = (ui
      +                          nt8_t*)&line_coding; inPipes[0].wCount.Val = 0x07; inPipes[0].info.Val = 0x40 | 0x80 | 0
      +                          x01; };
  8339  0E5C  30E4               	movlw	low _line_coding
  8340  0E5D  0021               	movlb	1	; select bank1
  8341  0E5E  00A6               	movwf	_inPipes^(0+128)	;volatile
  8342  0E5F  3001               	movlw	high _line_coding
  8343  0E60  00A7               	movwf	(_inPipes+1)^(0+128)	;volatile
  8344  0E61                     i1l3223:
  8345  0E61  3000               	movlw	0
  8346  0E62  00AA               	movwf	((_inPipes+1)^(0+128)+3)	;volatile
  8347  0E63  3007               	movlw	7
  8348  0E64  00A9               	movwf	(_inPipes^(0+128)+3)	;volatile
  8349  0E65                     i1l3225:
  8350  0E65  30C1               	movlw	193
  8351  0E66  00F0               	movwf	??_USBCheckCDCRequest
  8352  0E67  0870               	movf	??_USBCheckCDCRequest,w
  8353  0E68  00A8               	movwf	(_inPipes^(0+128)+2)	;volatile
  8354                           
  8355                           ;mcc_generated_files/usb/usb_device_cdc.c: 196:             break;
  8356  0E69  2E8B               	goto	i1l715
  8357  0E6A                     i1l3227:
  8358                           
  8359                           ;mcc_generated_files/usb/usb_device_cdc.c: 199:             control_signal_bitmap._byte 
      +                          = (uint8_t)SetupPkt.wValue;
  8360  0E6A  0852               	movf	82,w	;volatile
  8361  0E6B  00F0               	movwf	??_USBCheckCDCRequest
  8362  0E6C  0870               	movf	??_USBCheckCDCRequest,w
  8363  0E6D  0023               	movlb	3	; select bank3
  8364  0E6E  00D5               	movwf	_control_signal_bitmap^(0+384)
  8365  0E6F                     i1l3229:
  8366                           
  8367                           ;mcc_generated_files/usb/usb_device_cdc.c: 231:             inPipes[0].info.bits.busy = 
      +                          1;
  8368  0E6F  0021               	movlb	1	; select bank1
  8369  0E70  17A8               	bsf	(_inPipes^(0+128)+2),7	;volatile
  8370                           
  8371                           ;mcc_generated_files/usb/usb_device_cdc.c: 232:             break;
  8372  0E71  2E8B               	goto	i1l715
  8373  0E72                     i1l3233:
  8374  0E72  0851               	movf	81,w	;volatile
  8375  0E73  00F0               	movwf	??_USBCheckCDCRequest
  8376  0E74  01F1               	clrf	??_USBCheckCDCRequest+1
  8377                           
  8378                           ; Switch on 2 bytes has been partitioned into a top level switch of size 1, and 1 sub-sw
      +                          itches
  8379                           ; Switch size 1, requested type "simple"
  8380                           ; Number of cases is 1, Range of values is 0 to 0
  8381                           ; switch strategies available:
  8382                           ; Name         Instructions Cycles
  8383                           ; simple_byte            4     3 (average)
  8384                           ; direct_byte            8     6 (fixed)
  8385                           ; jumptable            260     6 (fixed)
  8386                           ;	Chosen strategy is simple_byte
  8387  0E75  0871               	movf	??_USBCheckCDCRequest+1,w
  8388  0E76  3A00               	xorlw	0	; case 0
  8389  0E77  1903               	skipnz
  8390  0E78  2E7A               	goto	i1l5383
  8391  0E79  2E8B               	goto	i1l715
  8392  0E7A                     i1l5383:
  8393                           
  8394                           ; Switch size 1, requested type "simple"
  8395                           ; Number of cases is 5, Range of values is 0 to 34
  8396                           ; switch strategies available:
  8397                           ; Name         Instructions Cycles
  8398                           ; simple_byte           16     9 (average)
  8399                           ; direct_byte           76     6 (fixed)
  8400                           ; jumptable            260     6 (fixed)
  8401                           ;	Chosen strategy is simple_byte
  8402  0E7A  0870               	movf	??_USBCheckCDCRequest,w
  8403  0E7B  3A00               	xorlw	0	; case 0
  8404  0E7C  1903               	skipnz
  8405  0E7D  2E3A               	goto	i1l3203
  8406  0E7E  3A01               	xorlw	1	; case 1
  8407  0E7F  1903               	skipnz
  8408  0E80  2E46               	goto	i1l3211
  8409  0E81  3A21               	xorlw	33	; case 32
  8410  0E82  1903               	skipnz
  8411  0E83  2E4D               	goto	i1l3215
  8412  0E84  3A01               	xorlw	1	; case 33
  8413  0E85  1903               	skipnz
  8414  0E86  2E5C               	goto	i1l3221
  8415  0E87  3A03               	xorlw	3	; case 34
  8416  0E88  1903               	skipnz
  8417  0E89  2E6A               	goto	i1l3227
  8418  0E8A  2E8B               	goto	i1l715
  8419  0E8B                     i1l715:
  8420  0E8B  0008               	return
  8421  0E8C                     __end_of_USBCheckCDCRequest:
  8422                           
  8423                           	psect	text32
  8424  0B1C                     __ptext32:	
  8425 ;; *************** function _CDCInitEP *****************
  8426 ;; Defined at:
  8427 ;;		line 294 in file "mcc_generated_files/usb/usb_device_cdc.c"
  8428 ;; Parameters:    Size  Location     Type
  8429 ;;		None
  8430 ;; Auto vars:     Size  Location     Type
  8431 ;;		None
  8432 ;; Return value:  Size  Location     Type
  8433 ;;                  1    wreg      void 
  8434 ;; Registers used:
  8435 ;;		wreg, fsr1l, fsr1h, status,2, status,0, pclath, cstack
  8436 ;; Tracked objects:
  8437 ;;		On entry : 0/0
  8438 ;;		On exit  : 0/0
  8439 ;;		Unchanged: 0/0
  8440 ;; Data sizes:     COMMON   BANK0   BANK1   BANK2   BANK3   BANK4   BANK5   BANK6   BANK7   BANK8   BANK9  BANK10  BANK1
      +1  BANK12
  8441 ;;      Params:         0       0       0       0       0       0       0       0       0       0       0       0       
      +0       0
  8442 ;;      Locals:         0       0       0       0       0       0       0       0       0       0       0       0       
      +0       0
  8443 ;;      Temps:          1       0       0       0       0       0       0       0       0       0       0       0       
      +0       0
  8444 ;;      Totals:         1       0       0       0       0       0       0       0       0       0       0       0       
      +0       0
  8445 ;;Total ram usage:        1 bytes
  8446 ;; Hardware stack levels used:    1
  8447 ;; Hardware stack levels required when called:    2
  8448 ;; This function calls:
  8449 ;;		_USBEnableEndpoint
  8450 ;;		_USBTransferOnePacket
  8451 ;; This function is called by:
  8452 ;;		_USER_USB_CALLBACK_EVENT_HANDLER
  8453 ;; This function uses a non-reentrant model
  8454 ;;
  8455                           
  8456                           
  8457                           ;psect for function _CDCInitEP
  8458  0B1C                     _CDCInitEP:
  8459  0B1C                     i1l3239:	
  8460                           ;incstack = 0
  8461                           ; Regs used in _CDCInitEP: [wreg+fsr1l+fsr1h+status,2+status,0+pclath+cstack]
  8462                           
  8463                           
  8464                           ;mcc_generated_files/usb/usb_device_cdc.c: 297:     line_coding.dwDTERate = 19200;
  8465  0B1C  3000               	movlw	0
  8466  0B1D  0023               	movlb	3	; select bank3
  8467  0B1E  00E7               	movwf	(_line_coding+3)^(0+384)
  8468  0B1F  3000               	movlw	0
  8469  0B20  00E6               	movwf	(_line_coding+2)^(0+384)
  8470  0B21  304B               	movlw	75
  8471  0B22  00E5               	movwf	(_line_coding+1)^(0+384)
  8472  0B23  3000               	movlw	0
  8473  0B24  00E4               	movwf	_line_coding^(0+384)
  8474  0B25                     i1l3241:
  8475                           
  8476                           ;mcc_generated_files/usb/usb_device_cdc.c: 298:     line_coding.bCharFormat = 0x00;
  8477  0B25  01E8               	clrf	(_line_coding^(0+384)+4)
  8478  0B26                     i1l3243:
  8479                           
  8480                           ;mcc_generated_files/usb/usb_device_cdc.c: 299:     line_coding.bParityType = 0x00;
  8481  0B26  01E9               	clrf	(_line_coding^(0+384)+5)
  8482                           
  8483                           ;mcc_generated_files/usb/usb_device_cdc.c: 300:     line_coding.bDataBits = 0x08;
  8484  0B27  3008               	movlw	8
  8485  0B28  00FD               	movwf	??_CDCInitEP
  8486  0B29  087D               	movf	??_CDCInitEP,w
  8487  0B2A  00EA               	movwf	(_line_coding^(0+384)+6)
  8488  0B2B                     i1l3245:
  8489                           
  8490                           ;mcc_generated_files/usb/usb_device_cdc.c: 302:     cdc_rx_len = 0;
  8491  0B2B  01D8               	clrf	_cdc_rx_len^(0+384)
  8492  0B2C                     i1l3247:
  8493                           
  8494                           ;mcc_generated_files/usb/usb_device_cdc.c: 315:     USBEnableEndpoint(1,0x02|0x10|0x08);
  8495  0B2C  301A               	movlw	26
  8496  0B2D  00FD               	movwf	??_CDCInitEP
  8497  0B2E  087D               	movf	??_CDCInitEP,w
  8498  0B2F  00F7               	movwf	USBEnableEndpoint@options
  8499  0B30  3001               	movlw	1
  8500  0B31  3189  21F7  318B   	fcall	_USBEnableEndpoint
  8501  0B34                     i1l3249:
  8502                           
  8503                           ;mcc_generated_files/usb/usb_device_cdc.c: 316:     USBEnableEndpoint(2,0x02|0x04|0x10|0
      +                          x08);
  8504  0B34  301E               	movlw	30
  8505  0B35  00FD               	movwf	??_CDCInitEP
  8506  0B36  087D               	movf	??_CDCInitEP,w
  8507  0B37  00F7               	movwf	USBEnableEndpoint@options
  8508  0B38  3002               	movlw	2
  8509  0B39  3189  21F7  318B   	fcall	_USBEnableEndpoint
  8510  0B3C                     i1l3251:
  8511                           
  8512                           ;mcc_generated_files/usb/usb_device_cdc.c: 318:     CDCDataOutHandle = USBTransferOnePac
      +                          ket(2,0,(uint8_t*)&cdc_data_rx,sizeof(cdc_data_rx));
  8513  0B3C  01F0               	clrf	USBTransferOnePacket@dir
  8514  0B3D  30C0               	movlw	192
  8515  0B3E  00F1               	movwf	USBTransferOnePacket@data
  8516  0B3F  3020               	movlw	32
  8517  0B40  00F2               	movwf	USBTransferOnePacket@data+1
  8518  0B41  3040               	movlw	64
  8519  0B42  00FD               	movwf	??_CDCInitEP
  8520  0B43  087D               	movf	??_CDCInitEP,w
  8521  0B44  00F3               	movwf	USBTransferOnePacket@len
  8522  0B45  3002               	movlw	2
  8523  0B46  3187  2744  318B   	fcall	_USBTransferOnePacket
  8524  0B49  0871               	movf	?_USBTransferOnePacket+1,w
  8525  0B4A  0023               	movlb	3	; select bank3
  8526  0B4B  00CA               	movwf	(_CDCDataOutHandle+1)^(0+384)
  8527  0B4C  0870               	movf	?_USBTransferOnePacket,w
  8528  0B4D  00C9               	movwf	_CDCDataOutHandle^(0+384)
  8529  0B4E                     i1l3253:
  8530                           
  8531                           ;mcc_generated_files/usb/usb_device_cdc.c: 319:     CDCDataInHandle = ((void*)0);
  8532  0B4E  01C7               	clrf	_CDCDataInHandle^(0+384)
  8533  0B4F  01C8               	clrf	(_CDCDataInHandle+1)^(0+384)
  8534  0B50                     i1l3255:
  8535                           
  8536                           ;mcc_generated_files/usb/usb_device_cdc.c: 346:     cdc_trf_state = 0;
  8537  0B50  0021               	movlb	1	; select bank1
  8538  0B51  01AD               	clrf	_cdc_trf_state^(0+128)
  8539  0B52                     i1l728:
  8540  0B52  0008               	return
  8541  0B53                     __end_of_CDCInitEP:
  8542                           
  8543                           	psect	text33
  8544  0744                     __ptext33:	
  8545 ;; *************** function _USBTransferOnePacket *****************
  8546 ;; Defined at:
  8547 ;;		line 999 in file "mcc_generated_files/usb/usb_device.c"
  8548 ;; Parameters:    Size  Location     Type
  8549 ;;  ep              1    wreg     unsigned char 
  8550 ;;  dir             1    0[COMMON] unsigned char 
  8551 ;;  data            2    1[COMMON] PTR unsigned char 
  8552 ;;		 -> cdc_data_tx(64), cdc_data_rx(64), NULL(0), 
  8553 ;;  len             1    3[COMMON] unsigned char 
  8554 ;; Auto vars:     Size  Location     Type
  8555 ;;  ep              1    8[COMMON] unsigned char 
  8556 ;;  handle          2    9[COMMON] PTR volatile struct __BD
  8557 ;;		 -> RAM(4096), NULL(0), BDT(48), 
  8558 ;; Return value:  Size  Location     Type
  8559 ;;                  2    0[COMMON] PTR void 
  8560 ;; Registers used:
  8561 ;;		wreg, fsr1l, fsr1h, status,2, status,0
  8562 ;; Tracked objects:
  8563 ;;		On entry : 0/0
  8564 ;;		On exit  : 0/0
  8565 ;;		Unchanged: 0/0
  8566 ;; Data sizes:     COMMON   BANK0   BANK1   BANK2   BANK3   BANK4   BANK5   BANK6   BANK7   BANK8   BANK9  BANK10  BANK1
      +1  BANK12
  8567 ;;      Params:         4       0       0       0       0       0       0       0       0       0       0       0       
      +0       0
  8568 ;;      Locals:         3       0       0       0       0       0       0       0       0       0       0       0       
      +0       0
  8569 ;;      Temps:          4       0       0       0       0       0       0       0       0       0       0       0       
      +0       0
  8570 ;;      Totals:        11       0       0       0       0       0       0       0       0       0       0       0       
      +0       0
  8571 ;;Total ram usage:       11 bytes
  8572 ;; Hardware stack levels used:    1
  8573 ;; This function calls:
  8574 ;;		Nothing
  8575 ;; This function is called by:
  8576 ;;		_CDCInitEP
  8577 ;;		_USBCDCEventHandler
  8578 ;;		_getsUSBUSART
  8579 ;;		_CDCTxService
  8580 ;; This function uses a non-reentrant model
  8581 ;;
  8582                           
  8583                           
  8584                           ;psect for function _USBTransferOnePacket
  8585  0744                     _USBTransferOnePacket:
  8586                           
  8587                           ;incstack = 0
  8588                           ; Regs used in _USBTransferOnePacket: [wreg+fsr1l+fsr1h+status,2+status,0]
  8589                           ;USBTransferOnePacket@ep stored from wreg
  8590  0744  00F8               	movwf	USBTransferOnePacket@ep
  8591  0745                     i1l3161:
  8592                           
  8593                           ;mcc_generated_files/usb/usb_device.c: 999: void* USBTransferOnePacket(uint8_t ep,uint8_
      +                          t dir,uint8_t* data,uint8_t len);mcc_generated_files/usb/usb_device.c: 1000: {;mcc_gener
      +                          ated_files/usb/usb_device.c: 1001:     volatile BDT_ENTRY* handle;;mcc_generated_files/u
      +                          sb/usb_device.c: 1004:     if(dir != 0)
  8594  0745  0870               	movf	USBTransferOnePacket@dir,w
  8595  0746  1903               	btfsc	3,2
  8596  0747  2F49               	goto	u186_21
  8597  0748  2F4A               	goto	u186_20
  8598  0749                     u186_21:
  8599  0749  2F53               	goto	i1l3165
  8600  074A                     u186_20:
  8601  074A                     i1l3163:
  8602                           
  8603                           ;mcc_generated_files/usb/usb_device.c: 1005:     {;mcc_generated_files/usb/usb_device.c:
      +                           1007:         handle = pBDTEntryIn[ep];
  8604  074A  3578               	lslf	USBTransferOnePacket@ep,w
  8605  074B  3EA0               	addlw	(low (_pBDTEntryIn| 0))& (0+255)
  8606  074C  0086               	movwf	6
  8607  074D  0187               	clrf	7
  8608  074E  3F40               	moviw [0]fsr1
  8609  074F  00F9               	movwf	USBTransferOnePacket@handle
  8610  0750  3F41               	moviw [1]fsr1
  8611  0751  00FA               	movwf	USBTransferOnePacket@handle+1
  8612                           
  8613                           ;mcc_generated_files/usb/usb_device.c: 1008:     }
  8614  0752  2F5C               	goto	i1l3167
  8615  0753                     i1l3165:
  8616                           
  8617                           ;mcc_generated_files/usb/usb_device.c: 1010:     {;mcc_generated_files/usb/usb_device.c:
      +                           1012:         handle = pBDTEntryOut[ep];
  8618  0753  3578               	lslf	USBTransferOnePacket@ep,w
  8619  0754  3EB7               	addlw	(low (_pBDTEntryOut| (0+256)))& (0+255)
  8620  0755  0086               	movwf	6
  8621  0756  3001               	movlw	1	; select bank3/4
  8622  0757  0087               	movwf	7
  8623  0758  3F40               	moviw [0]fsr1
  8624  0759  00F9               	movwf	USBTransferOnePacket@handle
  8625  075A  3F41               	moviw [1]fsr1
  8626  075B  00FA               	movwf	USBTransferOnePacket@handle+1
  8627  075C                     i1l3167:
  8628                           
  8629                           ;mcc_generated_files/usb/usb_device.c: 1017:     if(handle == 0)
  8630  075C  0879               	movf	USBTransferOnePacket@handle,w
  8631  075D  047A               	iorwf	USBTransferOnePacket@handle+1,w
  8632  075E  1D03               	btfss	3,2
  8633  075F  2F61               	goto	u187_21
  8634  0760  2F62               	goto	u187_20
  8635  0761                     u187_21:
  8636  0761  2F65               	goto	i1l3173
  8637  0762                     u187_20:
  8638  0762                     i1l3169:
  8639                           
  8640                           ;mcc_generated_files/usb/usb_device.c: 1018:     {;mcc_generated_files/usb/usb_device.c:
      +                           1019:         return 0;
  8641  0762  01F0               	clrf	?_USBTransferOnePacket
  8642  0763  01F1               	clrf	?_USBTransferOnePacket+1
  8643  0764  2FCA               	goto	i1l330
  8644  0765                     i1l3173:
  8645                           
  8646                           ;mcc_generated_files/usb/usb_device.c: 1033:     handle->ADR = (((uint16_t)(data)) & 0x7
      +                          FFF);
  8647  0765  30FF               	movlw	255
  8648  0766  0571               	andwf	USBTransferOnePacket@data,w
  8649  0767  00F4               	movwf	??_USBTransferOnePacket
  8650  0768  307F               	movlw	127
  8651  0769  0572               	andwf	USBTransferOnePacket@data+1,w
  8652  076A  00F5               	movwf	??_USBTransferOnePacket+1
  8653  076B  0879               	movf	USBTransferOnePacket@handle,w
  8654  076C  0086               	movwf	6
  8655  076D  087A               	movf	USBTransferOnePacket@handle+1,w
  8656  076E  0087               	movwf	7
  8657  076F  3142               	addfsr 1,2
  8658  0770  0874               	movf	??_USBTransferOnePacket,w
  8659  0771  3FC0               	movwi [0]fsr1
  8660  0772  0875               	movf	??_USBTransferOnePacket+1,w
  8661  0773  3FC1               	movwi [1]fsr1
  8662  0774                     i1l3175:
  8663                           
  8664                           ;mcc_generated_files/usb/usb_device.c: 1034:     handle->CNT = len;
  8665  0774  0879               	movf	USBTransferOnePacket@handle,w
  8666  0775  3E01               	addlw	1
  8667  0776  00F4               	movwf	??_USBTransferOnePacket
  8668  0777  3000               	movlw	0
  8669  0778  3D7A               	addwfc	USBTransferOnePacket@handle+1,w
  8670  0779  00F5               	movwf	??_USBTransferOnePacket+1
  8671  077A  0874               	movf	??_USBTransferOnePacket,w
  8672  077B  0086               	movwf	6
  8673  077C  0875               	movf	??_USBTransferOnePacket+1,w
  8674  077D  0087               	movwf	7
  8675  077E  0873               	movf	USBTransferOnePacket@len,w
  8676  077F  0081               	movwf	1
  8677  0780                     i1l3177:
  8678                           
  8679                           ;mcc_generated_files/usb/usb_device.c: 1035:     handle->STAT.Val &= 0x40;
  8680  0780  3040               	movlw	64
  8681  0781  00F4               	movwf	??_USBTransferOnePacket
  8682  0782  0879               	movf	USBTransferOnePacket@handle,w
  8683  0783  0086               	movwf	6
  8684  0784  087A               	movf	USBTransferOnePacket@handle+1,w
  8685  0785  0087               	movwf	7
  8686  0786  0874               	movf	??_USBTransferOnePacket,w
  8687  0787  0581               	andwf	1,f
  8688                           
  8689                           ;mcc_generated_files/usb/usb_device.c: 1036:     handle->STAT.Val |= (0x08 & 0x08);
  8690  0788  0879               	movf	USBTransferOnePacket@handle,w
  8691  0789  0086               	movwf	6
  8692  078A  087A               	movf	USBTransferOnePacket@handle+1,w
  8693  078B  0087               	movwf	7
  8694  078C  1581               	bsf	1,3
  8695                           
  8696                           ;mcc_generated_files/usb/usb_device.c: 1037:     handle->STAT.Val |= 0x80;
  8697  078D  0879               	movf	USBTransferOnePacket@handle,w
  8698  078E  0086               	movwf	6
  8699  078F  087A               	movf	USBTransferOnePacket@handle+1,w
  8700  0790  0087               	movwf	7
  8701  0791  1781               	bsf	1,7
  8702  0792                     i1l3179:
  8703                           
  8704                           ;mcc_generated_files/usb/usb_device.c: 1040:     if(dir != 0)
  8705  0792  0870               	movf	USBTransferOnePacket@dir,w
  8706  0793  1903               	btfsc	3,2
  8707  0794  2F96               	goto	u188_21
  8708  0795  2F97               	goto	u188_20
  8709  0796                     u188_21:
  8710  0796  2FAE               	goto	i1l3183
  8711  0797                     u188_20:
  8712  0797                     i1l3181:
  8713                           
  8714                           ;mcc_generated_files/usb/usb_device.c: 1041:     {;mcc_generated_files/usb/usb_device.c:
      +                           1043:         pBDTEntryIn[ep] = (BDT_ENTRY*)(((uint16_t)pBDTEntryIn[ep]) ^ 0x0004);
  8715  0797  3578               	lslf	USBTransferOnePacket@ep,w
  8716  0798  3EA0               	addlw	(low (_pBDTEntryIn| 0))& (0+255)
  8717  0799  0086               	movwf	6
  8718  079A  0187               	clrf	7
  8719  079B  3F40               	moviw [0]fsr1
  8720  079C  00F4               	movwf	??_USBTransferOnePacket
  8721  079D  3F41               	moviw [1]fsr1
  8722  079E  00F5               	movwf	??_USBTransferOnePacket+1
  8723  079F  3004               	movlw	4
  8724  07A0  0674               	xorwf	??_USBTransferOnePacket,w
  8725  07A1  00F6               	movwf	??_USBTransferOnePacket+2
  8726  07A2  3000               	movlw	0
  8727  07A3  0675               	xorwf	??_USBTransferOnePacket+1,w
  8728  07A4  00F7               	movwf	??_USBTransferOnePacket+3
  8729  07A5  3578               	lslf	USBTransferOnePacket@ep,w
  8730  07A6  3EA0               	addlw	(low (_pBDTEntryIn| 0))& (0+255)
  8731  07A7  0086               	movwf	6
  8732  07A8  0187               	clrf	7
  8733  07A9  0876               	movf	??_USBTransferOnePacket+2,w
  8734  07AA  3FC0               	movwi [0]fsr1
  8735  07AB  0877               	movf	??_USBTransferOnePacket+3,w
  8736  07AC  3FC1               	movwi [1]fsr1
  8737                           
  8738                           ;mcc_generated_files/usb/usb_device.c: 1044:     }
  8739  07AD  2FC6               	goto	i1l3185
  8740  07AE                     i1l3183:
  8741                           
  8742                           ;mcc_generated_files/usb/usb_device.c: 1046:     {;mcc_generated_files/usb/usb_device.c:
      +                           1048:         pBDTEntryOut[ep] = (BDT_ENTRY*)(((uint16_t)pBDTEntryOut[ep]) ^ 0x0004);
  8743  07AE  3578               	lslf	USBTransferOnePacket@ep,w
  8744  07AF  3EB7               	addlw	(low (_pBDTEntryOut| (0+256)))& (0+255)
  8745  07B0  0086               	movwf	6
  8746  07B1  3001               	movlw	1	; select bank3/4
  8747  07B2  0087               	movwf	7
  8748  07B3  3F40               	moviw [0]fsr1
  8749  07B4  00F4               	movwf	??_USBTransferOnePacket
  8750  07B5  3F41               	moviw [1]fsr1
  8751  07B6  00F5               	movwf	??_USBTransferOnePacket+1
  8752  07B7  3004               	movlw	4
  8753  07B8  0674               	xorwf	??_USBTransferOnePacket,w
  8754  07B9  00F6               	movwf	??_USBTransferOnePacket+2
  8755  07BA  3000               	movlw	0
  8756  07BB  0675               	xorwf	??_USBTransferOnePacket+1,w
  8757  07BC  00F7               	movwf	??_USBTransferOnePacket+3
  8758  07BD  3578               	lslf	USBTransferOnePacket@ep,w
  8759  07BE  3EB7               	addlw	(low (_pBDTEntryOut| (0+256)))& (0+255)
  8760  07BF  0086               	movwf	6
  8761  07C0  3001               	movlw	1	; select bank3/4
  8762  07C1  0087               	movwf	7
  8763  07C2  0876               	movf	??_USBTransferOnePacket+2,w
  8764  07C3  3FC0               	movwi [0]fsr1
  8765  07C4  0877               	movf	??_USBTransferOnePacket+3,w
  8766  07C5  3FC1               	movwi [1]fsr1
  8767  07C6                     i1l3185:
  8768                           
  8769                           ;mcc_generated_files/usb/usb_device.c: 1050:     return (void*)handle;
  8770  07C6  087A               	movf	USBTransferOnePacket@handle+1,w
  8771  07C7  00F1               	movwf	?_USBTransferOnePacket+1
  8772  07C8  0879               	movf	USBTransferOnePacket@handle,w
  8773  07C9  00F0               	movwf	?_USBTransferOnePacket
  8774  07CA                     i1l330:
  8775  07CA  0008               	return
  8776  07CB                     __end_of_USBTransferOnePacket:
  8777                           
  8778                           	psect	text34
  8779  09F7                     __ptext34:	
  8780 ;; *************** function _USBEnableEndpoint *****************
  8781 ;; Defined at:
  8782 ;;		line 882 in file "mcc_generated_files/usb/usb_device.c"
  8783 ;; Parameters:    Size  Location     Type
  8784 ;;  ep              1    wreg     unsigned char 
  8785 ;;  options         1    7[COMMON] unsigned char 
  8786 ;; Auto vars:     Size  Location     Type
  8787 ;;  ep              1   12[COMMON] unsigned char 
  8788 ;;  p               2   10[COMMON] PTR unsigned char 
  8789 ;;		 -> UEP0(1), 
  8790 ;; Return value:  Size  Location     Type
  8791 ;;                  1    wreg      void 
  8792 ;; Registers used:
  8793 ;;		wreg, fsr1l, fsr1h, status,2, status,0, pclath, cstack
  8794 ;; Tracked objects:
  8795 ;;		On entry : 0/0
  8796 ;;		On exit  : 0/0
  8797 ;;		Unchanged: 0/0
  8798 ;; Data sizes:     COMMON   BANK0   BANK1   BANK2   BANK3   BANK4   BANK5   BANK6   BANK7   BANK8   BANK9  BANK10  BANK1
      +1  BANK12
  8799 ;;      Params:         1       0       0       0       0       0       0       0       0       0       0       0       
      +0       0
  8800 ;;      Locals:         3       0       0       0       0       0       0       0       0       0       0       0       
      +0       0
  8801 ;;      Temps:          2       0       0       0       0       0       0       0       0       0       0       0       
      +0       0
  8802 ;;      Totals:         6       0       0       0       0       0       0       0       0       0       0       0       
      +0       0
  8803 ;;Total ram usage:        6 bytes
  8804 ;; Hardware stack levels used:    1
  8805 ;; Hardware stack levels required when called:    1
  8806 ;; This function calls:
  8807 ;;		_USBConfigureEndpoint
  8808 ;; This function is called by:
  8809 ;;		_CDCInitEP
  8810 ;; This function uses a non-reentrant model
  8811 ;;
  8812                           
  8813                           
  8814                           ;psect for function _USBEnableEndpoint
  8815  09F7                     _USBEnableEndpoint:
  8816                           
  8817                           ;incstack = 0
  8818                           ; Regs used in _USBEnableEndpoint: [wreg+fsr1l+fsr1h+status,2+status,0+pclath+cstack]
  8819                           ;USBEnableEndpoint@ep stored from wreg
  8820  09F7  00FC               	movwf	USBEnableEndpoint@ep
  8821  09F8                     i1l3149:
  8822                           
  8823                           ;mcc_generated_files/usb/usb_device.c: 882: void USBEnableEndpoint(uint8_t ep, uint8_t o
      +                          ptions);mcc_generated_files/usb/usb_device.c: 883: {;mcc_generated_files/usb/usb_device.
      +                          c: 884:     unsigned char* p;;mcc_generated_files/usb/usb_device.c: 888:     if(options 
      +                          & 0x04)
  8824  09F8  1D77               	btfss	USBEnableEndpoint@options,2
  8825  09F9  29FB               	goto	u184_21
  8826  09FA  29FC               	goto	u184_20
  8827  09FB                     u184_21:
  8828  09FB  2A01               	goto	i1l3153
  8829  09FC                     u184_20:
  8830  09FC                     i1l3151:
  8831                           
  8832                           ;mcc_generated_files/usb/usb_device.c: 889:     {;mcc_generated_files/usb/usb_device.c: 
      +                          890:         USBConfigureEndpoint(ep, 0);
  8833  09FC  01F0               	clrf	USBConfigureEndpoint@direction
  8834  09FD  087C               	movf	USBEnableEndpoint@ep,w
  8835  09FE  318B  238D  3189   	fcall	_USBConfigureEndpoint
  8836  0A01                     i1l3153:
  8837                           
  8838                           ;mcc_generated_files/usb/usb_device.c: 892:     if(options & 0x02)
  8839  0A01  1CF7               	btfss	USBEnableEndpoint@options,1
  8840  0A02  2A04               	goto	u185_21
  8841  0A03  2A05               	goto	u185_20
  8842  0A04                     u185_21:
  8843  0A04  2A0B               	goto	i1l3157
  8844  0A05                     u185_20:
  8845  0A05                     i1l3155:
  8846                           
  8847                           ;mcc_generated_files/usb/usb_device.c: 893:     {;mcc_generated_files/usb/usb_device.c: 
      +                          894:         USBConfigureEndpoint(ep, 1);
  8848  0A05  01F0               	clrf	USBConfigureEndpoint@direction
  8849  0A06  0AF0               	incf	USBConfigureEndpoint@direction,f
  8850  0A07  087C               	movf	USBEnableEndpoint@ep,w
  8851  0A08  318B  238D  3189   	fcall	_USBConfigureEndpoint
  8852  0A0B                     i1l3157:
  8853                           
  8854                           ;mcc_generated_files/usb/usb_device.c: 903:         p = (unsigned char*)(&UEP0+ep);
  8855  0A0B  087C               	movf	USBEnableEndpoint@ep,w
  8856  0A0C  3E98               	addlw	152
  8857  0A0D  00F8               	movwf	??_USBEnableEndpoint
  8858  0A0E  01F9               	clrf	??_USBEnableEndpoint+1
  8859  0A0F  300E               	movlw	14
  8860  0A10  3DF9               	addwfc	??_USBEnableEndpoint+1,f
  8861  0A11  0878               	movf	??_USBEnableEndpoint,w
  8862  0A12  00FA               	movwf	USBEnableEndpoint@p
  8863  0A13  0879               	movf	??_USBEnableEndpoint+1,w
  8864  0A14  00FB               	movwf	USBEnableEndpoint@p+1
  8865  0A15                     i1l3159:
  8866                           
  8867                           ;mcc_generated_files/usb/usb_device.c: 905:     *p = options;
  8868  0A15  087A               	movf	USBEnableEndpoint@p,w
  8869  0A16  0086               	movwf	6
  8870  0A17  087B               	movf	USBEnableEndpoint@p+1,w
  8871  0A18  0087               	movwf	7
  8872  0A19  0877               	movf	USBEnableEndpoint@options,w
  8873  0A1A  0081               	movwf	1
  8874  0A1B                     i1l324:
  8875  0A1B  0008               	return
  8876  0A1C                     __end_of_USBEnableEndpoint:
  8877                           
  8878                           	psect	text35
  8879  0B8D                     __ptext35:	
  8880 ;; *************** function _USBConfigureEndpoint *****************
  8881 ;; Defined at:
  8882 ;;		line 1547 in file "mcc_generated_files/usb/usb_device.c"
  8883 ;; Parameters:    Size  Location     Type
  8884 ;;  EPNum           1    wreg     unsigned char 
  8885 ;;  direction       1    0[COMMON] unsigned char 
  8886 ;; Auto vars:     Size  Location     Type
  8887 ;;  EPNum           1    5[COMMON] unsigned char 
  8888 ;;  handle          1    6[COMMON] PTR volatile struct __BD
  8889 ;;		 -> BDT(48), 
  8890 ;; Return value:  Size  Location     Type
  8891 ;;                  1    wreg      void 
  8892 ;; Registers used:
  8893 ;;		wreg, fsr1l, fsr1h, status,2, status,0
  8894 ;; Tracked objects:
  8895 ;;		On entry : 0/0
  8896 ;;		On exit  : 0/0
  8897 ;;		Unchanged: 0/0
  8898 ;; Data sizes:     COMMON   BANK0   BANK1   BANK2   BANK3   BANK4   BANK5   BANK6   BANK7   BANK8   BANK9  BANK10  BANK1
      +1  BANK12
  8899 ;;      Params:         1       0       0       0       0       0       0       0       0       0       0       0       
      +0       0
  8900 ;;      Locals:         2       0       0       0       0       0       0       0       0       0       0       0       
      +0       0
  8901 ;;      Temps:          4       0       0       0       0       0       0       0       0       0       0       0       
      +0       0
  8902 ;;      Totals:         7       0       0       0       0       0       0       0       0       0       0       0       
      +0       0
  8903 ;;Total ram usage:        7 bytes
  8904 ;; Hardware stack levels used:    1
  8905 ;; This function calls:
  8906 ;;		Nothing
  8907 ;; This function is called by:
  8908 ;;		_USBEnableEndpoint
  8909 ;; This function uses a non-reentrant model
  8910 ;;
  8911                           
  8912                           
  8913                           ;psect for function _USBConfigureEndpoint
  8914  0B8D                     _USBConfigureEndpoint:
  8915                           
  8916                           ;incstack = 0
  8917                           ; Regs used in _USBConfigureEndpoint: [wreg+fsr1l+fsr1h+status,2+status,0]
  8918                           ;USBConfigureEndpoint@EPNum stored from wreg
  8919  0B8D  00F5               	movwf	USBConfigureEndpoint@EPNum
  8920  0B8E                     i1l3133:
  8921                           
  8922                           ;mcc_generated_files/usb/usb_device.c: 1547: static void USBConfigureEndpoint(uint8_t EP
      +                          Num, uint8_t direction);mcc_generated_files/usb/usb_device.c: 1548: {;mcc_generated_file
      +                          s/usb/usb_device.c: 1549:     volatile BDT_ENTRY* handle;;mcc_generated_files/usb/usb_de
      +                          vice.c: 1553:     handle = (volatile BDT_ENTRY*)&BDT[0];
  8923  0B8E  3020               	movlw	32
  8924  0B8F  00F1               	movwf	??_USBConfigureEndpoint
  8925  0B90  0871               	movf	??_USBConfigureEndpoint,w
  8926  0B91  00F6               	movwf	USBConfigureEndpoint@handle
  8927  0B92                     i1l3135:
  8928                           
  8929                           ;mcc_generated_files/usb/usb_device.c: 1554:     handle += (4*EPNum+2*direction+0u);
  8930  0B92  0870               	movf	USBConfigureEndpoint@direction,w
  8931  0B93  00F1               	movwf	??_USBConfigureEndpoint
  8932  0B94  3001               	movlw	1
  8933  0B95                     u180_25:
  8934  0B95  35F1               	lslf	??_USBConfigureEndpoint,f
  8935  0B96  0B89               	decfsz	9,f
  8936  0B97  2B95               	goto	u180_25
  8937  0B98  0875               	movf	USBConfigureEndpoint@EPNum,w
  8938  0B99  00F2               	movwf	??_USBConfigureEndpoint+1
  8939  0B9A  3001               	movlw	1
  8940  0B9B                     u181_25:
  8941  0B9B  35F2               	lslf	??_USBConfigureEndpoint+1,f
  8942  0B9C  3EFF               	addlw	-1
  8943  0B9D  1D03               	skipz
  8944  0B9E  2B9B               	goto	u181_25
  8945  0B9F  3572               	lslf	??_USBConfigureEndpoint+1,w
  8946  0BA0  0771               	addwf	??_USBConfigureEndpoint,w
  8947  0BA1  00F3               	movwf	??_USBConfigureEndpoint+2
  8948  0BA2  3001               	movlw	1
  8949  0BA3                     u182_25:
  8950  0BA3  35F3               	lslf	??_USBConfigureEndpoint+2,f
  8951  0BA4  3EFF               	addlw	-1
  8952  0BA5  1D03               	skipz
  8953  0BA6  2BA3               	goto	u182_25
  8954  0BA7  3573               	lslf	??_USBConfigureEndpoint+2,w
  8955  0BA8  00F4               	movwf	??_USBConfigureEndpoint+3
  8956  0BA9  0874               	movf	??_USBConfigureEndpoint+3,w
  8957  0BAA  07F6               	addwf	USBConfigureEndpoint@handle,f
  8958  0BAB                     i1l3137:
  8959                           
  8960                           ;mcc_generated_files/usb/usb_device.c: 1556:     handle->STAT.UOWN = 0;
  8961  0BAB  0876               	movf	USBConfigureEndpoint@handle,w
  8962  0BAC  0086               	movwf	6
  8963  0BAD  0187               	clrf	7
  8964  0BAE  1381               	bcf	1,7
  8965  0BAF                     i1l3139:
  8966                           
  8967                           ;mcc_generated_files/usb/usb_device.c: 1561:     if(direction == 0)
  8968  0BAF  0870               	movf	USBConfigureEndpoint@direction,w
  8969  0BB0  1D03               	btfss	3,2
  8970  0BB1  2BB3               	goto	u183_21
  8971  0BB2  2BB4               	goto	u183_20
  8972  0BB3                     u183_21:
  8973  0BB3  2BBE               	goto	i1l3143
  8974  0BB4                     u183_20:
  8975  0BB4                     i1l3141:
  8976                           
  8977                           ;mcc_generated_files/usb/usb_device.c: 1562:     {;mcc_generated_files/usb/usb_device.c:
      +                           1563:         pBDTEntryOut[EPNum] = handle;
  8978  0BB4  3575               	lslf	USBConfigureEndpoint@EPNum,w
  8979  0BB5  3EB7               	addlw	(low (_pBDTEntryOut| (0+256)))& (0+255)
  8980  0BB6  0086               	movwf	6
  8981  0BB7  3001               	movlw	1	; select bank3/4
  8982  0BB8  0087               	movwf	7
  8983  0BB9  0876               	movf	USBConfigureEndpoint@handle,w
  8984  0BBA  3FC0               	movwi [0]fsr1
  8985  0BBB  3000               	movlw	0
  8986  0BBC  3FC1               	movwi [1]fsr1
  8987                           
  8988                           ;mcc_generated_files/usb/usb_device.c: 1564:     }
  8989  0BBD  2BC6               	goto	i1l3145
  8990  0BBE                     i1l3143:
  8991                           
  8992                           ;mcc_generated_files/usb/usb_device.c: 1566:     {;mcc_generated_files/usb/usb_device.c:
      +                           1567:         pBDTEntryIn[EPNum] = handle;
  8993  0BBE  3575               	lslf	USBConfigureEndpoint@EPNum,w
  8994  0BBF  3EA0               	addlw	(low (_pBDTEntryIn| 0))& (0+255)
  8995  0BC0  0086               	movwf	6
  8996  0BC1  0187               	clrf	7
  8997  0BC2  0876               	movf	USBConfigureEndpoint@handle,w
  8998  0BC3  3FC0               	movwi [0]fsr1
  8999  0BC4  3000               	movlw	0
  9000  0BC5  3FC1               	movwi [1]fsr1
  9001  0BC6                     i1l3145:
  9002                           
  9003                           ;mcc_generated_files/usb/usb_device.c: 1571:         handle->STAT.DTS = 0;
  9004  0BC6  0876               	movf	USBConfigureEndpoint@handle,w
  9005  0BC7  0086               	movwf	6
  9006  0BC8  0187               	clrf	7
  9007  0BC9  1301               	bcf	1,6
  9008  0BCA                     i1l3147:
  9009                           
  9010                           ;mcc_generated_files/usb/usb_device.c: 1572:         (handle+1)->STAT.DTS = 1;
  9011  0BCA  0876               	movf	USBConfigureEndpoint@handle,w
  9012  0BCB  3E04               	addlw	4
  9013  0BCC  0086               	movwf	6
  9014  0BCD  0187               	clrf	7
  9015  0BCE  1701               	bsf	1,6
  9016  0BCF                     i1l371:
  9017  0BCF  0008               	return
  9018  0BD0                     __end_of_USBConfigureEndpoint:
  9019                           
  9020                           	psect	text36
  9021  0B53                     __ptext36:	
  9022 ;; *************** function _USBCtrlTrfOutHandler *****************
  9023 ;; Defined at:
  9024 ;;		line 2542 in file "mcc_generated_files/usb/usb_device.c"
  9025 ;; Parameters:    Size  Location     Type
  9026 ;;		None
  9027 ;; Auto vars:     Size  Location     Type
  9028 ;;		None
  9029 ;; Return value:  Size  Location     Type
  9030 ;;                  1    wreg      void 
  9031 ;; Registers used:
  9032 ;;		wreg, fsr1l, fsr1h, status,2, status,0, pclath, cstack
  9033 ;; Tracked objects:
  9034 ;;		On entry : 0/0
  9035 ;;		On exit  : 0/0
  9036 ;;		Unchanged: 0/0
  9037 ;; Data sizes:     COMMON   BANK0   BANK1   BANK2   BANK3   BANK4   BANK5   BANK6   BANK7   BANK8   BANK9  BANK10  BANK1
      +1  BANK12
  9038 ;;      Params:         0       0       0       0       0       0       0       0       0       0       0       0       
      +0       0
  9039 ;;      Locals:         0       0       0       0       0       0       0       0       0       0       0       0       
      +0       0
  9040 ;;      Temps:          2       0       0       0       0       0       0       0       0       0       0       0       
      +0       0
  9041 ;;      Totals:         2       0       0       0       0       0       0       0       0       0       0       0       
      +0       0
  9042 ;;Total ram usage:        2 bytes
  9043 ;; Hardware stack levels used:    1
  9044 ;; Hardware stack levels required when called:    2
  9045 ;; This function calls:
  9046 ;;		_USBCtrlTrfRxService
  9047 ;; This function is called by:
  9048 ;;		_USBCtrlEPService
  9049 ;; This function uses a non-reentrant model
  9050 ;;
  9051                           
  9052                           
  9053                           ;psect for function _USBCtrlTrfOutHandler
  9054  0B53                     _USBCtrlTrfOutHandler:
  9055  0B53                     i1l3841:	
  9056                           ;incstack = 0
  9057                           ; Regs used in _USBCtrlTrfOutHandler: [wreg+fsr1l+fsr1h+status,2+status,0+pclath+cstack]
  9058                           
  9059                           
  9060                           ;mcc_generated_files/usb/usb_device.c: 2544:     if(controlTransferState == 2)
  9061  0B53  3002               	movlw	2
  9062  0B54  0021               	movlb	1	; select bank1
  9063  0B55  0630               	xorwf	_controlTransferState^(0+128),w	;volatile
  9064  0B56  1D03               	btfss	3,2
  9065  0B57  2B59               	goto	u256_21
  9066  0B58  2B5A               	goto	u256_20
  9067  0B59                     u256_21:
  9068  0B59  2B5E               	goto	i1l3845
  9069  0B5A                     u256_20:
  9070  0B5A                     i1l3843:
  9071                           
  9072                           ;mcc_generated_files/usb/usb_device.c: 2545:     {;mcc_generated_files/usb/usb_device.c:
      +                           2546:         USBCtrlTrfRxService();
  9073  0B5A  3183  23AA  318B   	fcall	_USBCtrlTrfRxService
  9074                           
  9075                           ;mcc_generated_files/usb/usb_device.c: 2547:     }
  9076  0B5D  2B8C               	goto	i1l481
  9077  0B5E                     i1l3845:
  9078                           
  9079                           ;mcc_generated_files/usb/usb_device.c: 2549:     {;mcc_generated_files/usb/usb_device.c:
      +                           2552:         controlTransferState = 0;
  9080  0B5E  01B0               	clrf	_controlTransferState^(0+128)	;volatile
  9081  0B5F                     i1l3847:
  9082                           
  9083                           ;mcc_generated_files/usb/usb_device.c: 2559:         if(BothEP0OutUOWNsSet == 0)
  9084  0B5F  0023               	movlb	3	; select bank3
  9085  0B60  0860               	movf	_BothEP0OutUOWNsSet^(0+384),w	;volatile
  9086  0B61  1D03               	btfss	3,2
  9087  0B62  2B64               	goto	u257_21
  9088  0B63  2B65               	goto	u257_20
  9089  0B64                     u257_21:
  9090  0B64  2B8B               	goto	i1l3857
  9091  0B65                     u257_20:
  9092  0B65                     i1l3849:
  9093                           
  9094                           ;mcc_generated_files/usb/usb_device.c: 2560:         {;mcc_generated_files/usb/usb_devic
      +                          e.c: 2561:             pBDTEntryEP0OutNext->CNT = 8;
  9095  0B65  0021               	movlb	1	; select bank1
  9096  0B66  082B               	movf	_pBDTEntryEP0OutNext^(0+128),w
  9097  0B67  3E01               	addlw	1
  9098  0B68  00F6               	movwf	??_USBCtrlTrfOutHandler
  9099  0B69  3000               	movlw	0
  9100  0B6A  3D2C               	addwfc	(_pBDTEntryEP0OutNext+1)^(0+128),w
  9101  0B6B  00F7               	movwf	??_USBCtrlTrfOutHandler+1
  9102  0B6C  0876               	movf	??_USBCtrlTrfOutHandler,w
  9103  0B6D  0086               	movwf	6
  9104  0B6E  0877               	movf	??_USBCtrlTrfOutHandler+1,w
  9105  0B6F  0087               	movwf	7
  9106  0B70  3008               	movlw	8
  9107  0B71  0081               	movwf	1
  9108  0B72                     i1l3851:
  9109                           
  9110                           ;mcc_generated_files/usb/usb_device.c: 2562:             pBDTEntryEP0OutNext->ADR = (((u
      +                          int16_t)(&SetupPkt)) & 0x7FFF);
  9111  0B72  3050               	movlw	80
  9112  0B73  00F6               	movwf	??_USBCtrlTrfOutHandler
  9113  0B74  3000               	movlw	0
  9114  0B75  00F7               	movwf	??_USBCtrlTrfOutHandler+1
  9115  0B76  082B               	movf	_pBDTEntryEP0OutNext^(0+128),w
  9116  0B77  0086               	movwf	6
  9117  0B78  082C               	movf	(_pBDTEntryEP0OutNext+1)^(0+128),w
  9118  0B79  0087               	movwf	7
  9119  0B7A  3142               	addfsr 1,2
  9120  0B7B  0876               	movf	??_USBCtrlTrfOutHandler,w
  9121  0B7C  3FC0               	movwi [0]fsr1
  9122  0B7D  0877               	movf	??_USBCtrlTrfOutHandler+1,w
  9123  0B7E  3FC1               	movwi [1]fsr1
  9124  0B7F                     i1l3853:
  9125                           
  9126                           ;mcc_generated_files/usb/usb_device.c: 2563:             pBDTEntryEP0OutNext->STAT.Val =
      +                           0x00|(0x08 & 0x08)|0x04;
  9127  0B7F  082B               	movf	_pBDTEntryEP0OutNext^(0+128),w
  9128  0B80  0086               	movwf	6
  9129  0B81  082C               	movf	(_pBDTEntryEP0OutNext+1)^(0+128),w
  9130  0B82  0087               	movwf	7
  9131  0B83  300C               	movlw	12
  9132  0B84  0081               	movwf	1
  9133  0B85                     i1l3855:
  9134                           
  9135                           ;mcc_generated_files/usb/usb_device.c: 2564:             pBDTEntryEP0OutNext->STAT.Val |
      +                          = 0x80;
  9136  0B85  082B               	movf	_pBDTEntryEP0OutNext^(0+128),w
  9137  0B86  0086               	movwf	6
  9138  0B87  082C               	movf	(_pBDTEntryEP0OutNext+1)^(0+128),w
  9139  0B88  0087               	movwf	7
  9140  0B89  1781               	bsf	1,7
  9141                           
  9142                           ;mcc_generated_files/usb/usb_device.c: 2565:         }
  9143  0B8A  2B8C               	goto	i1l481
  9144  0B8B                     i1l3857:
  9145                           
  9146                           ;mcc_generated_files/usb/usb_device.c: 2567:         {;mcc_generated_files/usb/usb_devic
      +                          e.c: 2568:                 BothEP0OutUOWNsSet = 0;
  9147  0B8B  01E0               	clrf	_BothEP0OutUOWNsSet^(0+384)	;volatile
  9148  0B8C                     i1l481:
  9149  0B8C  0008               	return
  9150  0B8D                     __end_of_USBCtrlTrfOutHandler:
  9151                           
  9152                           	psect	text37
  9153  03AA                     __ptext37:	
  9154 ;; *************** function _USBCtrlTrfRxService *****************
  9155 ;; Defined at:
  9156 ;;		line 1856 in file "mcc_generated_files/usb/usb_device.c"
  9157 ;; Parameters:    Size  Location     Type
  9158 ;;		None
  9159 ;; Auto vars:     Size  Location     Type
  9160 ;;  byteToRead      1    5[COMMON] unsigned char 
  9161 ;;  i               1    4[COMMON] unsigned char 
  9162 ;; Return value:  Size  Location     Type
  9163 ;;                  1    wreg      void 
  9164 ;; Registers used:
  9165 ;;		wreg, fsr1l, fsr1h, status,2, status,0, pclath, cstack
  9166 ;; Tracked objects:
  9167 ;;		On entry : 0/0
  9168 ;;		On exit  : 0/0
  9169 ;;		Unchanged: 0/0
  9170 ;; Data sizes:     COMMON   BANK0   BANK1   BANK2   BANK3   BANK4   BANK5   BANK6   BANK7   BANK8   BANK9  BANK10  BANK1
      +1  BANK12
  9171 ;;      Params:         0       0       0       0       0       0       0       0       0       0       0       0       
      +0       0
  9172 ;;      Locals:         2       0       0       0       0       0       0       0       0       0       0       0       
      +0       0
  9173 ;;      Temps:          2       0       0       0       0       0       0       0       0       0       0       0       
      +0       0
  9174 ;;      Totals:         4       0       0       0       0       0       0       0       0       0       0       0       
      +0       0
  9175 ;;Total ram usage:        4 bytes
  9176 ;; Hardware stack levels used:    1
  9177 ;; Hardware stack levels required when called:    1
  9178 ;; This function calls:
  9179 ;;		_USBCtrlEPAllowStatusStage
  9180 ;; This function is called by:
  9181 ;;		_USBCtrlTrfOutHandler
  9182 ;; This function uses a non-reentrant model
  9183 ;;
  9184                           
  9185                           
  9186                           ;psect for function _USBCtrlTrfRxService
  9187  03AA                     _USBCtrlTrfRxService:
  9188  03AA                     i1l3693:	
  9189                           ;incstack = 0
  9190                           ; Regs used in _USBCtrlTrfRxService: [wreg+fsr1l+fsr1h+status,2+status,0+pclath+cstack]
  9191                           
  9192                           
  9193                           ;mcc_generated_files/usb/usb_device.c: 1858:     uint8_t byteToRead;;mcc_generated_files
      +                          /usb/usb_device.c: 1859:     uint8_t i;;mcc_generated_files/usb/usb_device.c: 1863:     
      +                          byteToRead = pBDTEntryEP0OutCurrent->CNT;
  9194  03AA  0021               	movlb	1	; select bank1
  9195  03AB  0832               	movf	_pBDTEntryEP0OutCurrent^(0+128),w
  9196  03AC  0086               	movwf	6
  9197  03AD  0187               	clrf	7
  9198  03AE  3F41               	moviw [1]fsr1
  9199  03AF  00F5               	movwf	USBCtrlTrfRxService@byteToRead
  9200  03B0                     i1l3695:
  9201                           
  9202                           ;mcc_generated_files/usb/usb_device.c: 1869:     if(byteToRead > outPipes[0].wCount.Val)
  9203  03B0  0875               	movf	USBCtrlTrfRxService@byteToRead,w
  9204  03B1  00F2               	movwf	??_USBCtrlTrfRxService
  9205  03B2  01F3               	clrf	??_USBCtrlTrfRxService+1
  9206  03B3  0873               	movf	??_USBCtrlTrfRxService+1,w
  9207  03B4  0023               	movlb	3	; select bank3
  9208  03B5  0234               	subwf	((_outPipes+1)^(0+384)+3),w	;volatile
  9209  03B6  1D03               	skipz
  9210  03B7  2BBA               	goto	u248_25
  9211  03B8  0872               	movf	??_USBCtrlTrfRxService,w
  9212  03B9  0233               	subwf	(_outPipes^(0+384)+3),w	;volatile
  9213  03BA                     u248_25:
  9214  03BA  1803               	skipnc
  9215  03BB  2BBD               	goto	u248_21
  9216  03BC  2BBE               	goto	u248_20
  9217  03BD                     u248_21:
  9218  03BD  2BC2               	goto	i1l402
  9219  03BE                     u248_20:
  9220  03BE                     i1l3697:
  9221                           
  9222                           ;mcc_generated_files/usb/usb_device.c: 1870:     {;mcc_generated_files/usb/usb_device.c:
      +                           1871:         byteToRead = outPipes[0].wCount.Val;
  9223  03BE  0833               	movf	(_outPipes^(0+384)+3),w	;volatile
  9224  03BF  00F2               	movwf	??_USBCtrlTrfRxService
  9225  03C0  0872               	movf	??_USBCtrlTrfRxService,w
  9226  03C1  00F5               	movwf	USBCtrlTrfRxService@byteToRead
  9227  03C2                     i1l402:	
  9228                           ;mcc_generated_files/usb/usb_device.c: 1872:     }
  9229                           
  9230                           
  9231                           ;mcc_generated_files/usb/usb_device.c: 1874:     outPipes[0].wCount.Val -= byteToRead;
  9232  03C2  0875               	movf	USBCtrlTrfRxService@byteToRead,w
  9233  03C3  00F2               	movwf	??_USBCtrlTrfRxService
  9234  03C4  01F3               	clrf	??_USBCtrlTrfRxService+1
  9235  03C5  0872               	movf	??_USBCtrlTrfRxService,w
  9236  03C6  02B3               	subwf	(_outPipes^(0+384)+3),f	;volatile
  9237  03C7  0873               	movf	??_USBCtrlTrfRxService+1,w
  9238  03C8  3BB4               	subwfb	((_outPipes+1)^(0+384)+3),f	;volatile
  9239  03C9                     i1l3699:
  9240                           
  9241                           ;mcc_generated_files/usb/usb_device.c: 1878:     for(i=0;i<byteToRead;i++)
  9242  03C9  01F4               	clrf	USBCtrlTrfRxService@i
  9243  03CA  2BDF               	goto	i1l3707
  9244  03CB                     i1l3701:
  9245                           
  9246                           ;mcc_generated_files/usb/usb_device.c: 1879:     {;mcc_generated_files/usb/usb_device.c:
      +                           1880:         *outPipes[0].pDst.bRam++ = CtrlTrfData[i];
  9247  03CB  0874               	movf	USBCtrlTrfRxService@i,w
  9248  03CC  3E58               	addlw	88
  9249  03CD  0086               	movwf	6
  9250  03CE  0187               	clrf	7
  9251  03CF  0801               	movf	1,w
  9252  03D0  00F2               	movwf	??_USBCtrlTrfRxService
  9253  03D1  0830               	movf	_outPipes^(0+384),w	;volatile
  9254  03D2  0086               	movwf	6
  9255  03D3  3001               	movlw	1	; select bank2/3
  9256  03D4  0087               	movwf	7
  9257  03D5  0872               	movf	??_USBCtrlTrfRxService,w
  9258  03D6  0081               	movwf	1
  9259  03D7                     i1l3703:
  9260  03D7  3001               	movlw	1
  9261  03D8  00F2               	movwf	??_USBCtrlTrfRxService
  9262  03D9  0872               	movf	??_USBCtrlTrfRxService,w
  9263  03DA  07B0               	addwf	_outPipes^(0+384),f	;volatile
  9264  03DB                     i1l3705:
  9265                           
  9266                           ;mcc_generated_files/usb/usb_device.c: 1881:     }
  9267  03DB  3001               	movlw	1
  9268  03DC  00F2               	movwf	??_USBCtrlTrfRxService
  9269  03DD  0872               	movf	??_USBCtrlTrfRxService,w
  9270  03DE  07F4               	addwf	USBCtrlTrfRxService@i,f
  9271  03DF                     i1l3707:
  9272  03DF  0875               	movf	USBCtrlTrfRxService@byteToRead,w
  9273  03E0  0274               	subwf	USBCtrlTrfRxService@i,w
  9274  03E1  1C03               	skipc
  9275  03E2  2BE4               	goto	u249_21
  9276  03E3  2BE5               	goto	u249_20
  9277  03E4                     u249_21:
  9278  03E4  2BCB               	goto	i1l3701
  9279  03E5                     u249_20:
  9280  03E5                     i1l3709:
  9281                           
  9282                           ;mcc_generated_files/usb/usb_device.c: 1885:     if(outPipes[0].wCount.Val > 0)
  9283  03E5  0833               	movf	(_outPipes^(0+384)+3),w	;volatile
  9284  03E6  0434               	iorwf	((_outPipes+1)^(0+384)+3),w	;volatile
  9285  03E7  1903               	btfsc	3,2
  9286  03E8  2BEA               	goto	u250_21
  9287  03E9  2BEB               	goto	u250_20
  9288  03EA                     u250_21:
  9289  03EA  2C24               	goto	i1l3721
  9290  03EB                     u250_20:
  9291  03EB                     i1l3711:
  9292                           
  9293                           ;mcc_generated_files/usb/usb_device.c: 1886:     {;mcc_generated_files/usb/usb_device.c:
      +                           1887:         pBDTEntryEP0OutNext->CNT = 8;
  9294  03EB  0021               	movlb	1	; select bank1
  9295  03EC  082B               	movf	_pBDTEntryEP0OutNext^(0+128),w
  9296  03ED  3E01               	addlw	1
  9297  03EE  00F2               	movwf	??_USBCtrlTrfRxService
  9298  03EF  3000               	movlw	0
  9299  03F0  3D2C               	addwfc	(_pBDTEntryEP0OutNext+1)^(0+128),w
  9300  03F1  00F3               	movwf	??_USBCtrlTrfRxService+1
  9301  03F2  0872               	movf	??_USBCtrlTrfRxService,w
  9302  03F3  0086               	movwf	6
  9303  03F4  0873               	movf	??_USBCtrlTrfRxService+1,w
  9304  03F5  0087               	movwf	7
  9305  03F6  3008               	movlw	8
  9306  03F7  0081               	movwf	1
  9307  03F8                     i1l3713:
  9308                           
  9309                           ;mcc_generated_files/usb/usb_device.c: 1888:         pBDTEntryEP0OutNext->ADR = (((uint1
      +                          6_t)(&CtrlTrfData)) & 0x7FFF);
  9310  03F8  3058               	movlw	88
  9311  03F9  00F2               	movwf	??_USBCtrlTrfRxService
  9312  03FA  3000               	movlw	0
  9313  03FB  00F3               	movwf	??_USBCtrlTrfRxService+1
  9314  03FC  082B               	movf	_pBDTEntryEP0OutNext^(0+128),w
  9315  03FD  0086               	movwf	6
  9316  03FE  082C               	movf	(_pBDTEntryEP0OutNext+1)^(0+128),w
  9317  03FF  0087               	movwf	7
  9318  0400  3142               	addfsr 1,2
  9319  0401  0872               	movf	??_USBCtrlTrfRxService,w
  9320  0402  3FC0               	movwi [0]fsr1
  9321  0403  0873               	movf	??_USBCtrlTrfRxService+1,w
  9322  0404  3FC1               	movwi [1]fsr1
  9323  0405                     i1l3715:
  9324                           
  9325                           ;mcc_generated_files/usb/usb_device.c: 1889:         if(pBDTEntryEP0OutCurrent->STAT.DTS
      +                           == 0)
  9326  0405  0832               	movf	_pBDTEntryEP0OutCurrent^(0+128),w
  9327  0406  0086               	movwf	6
  9328  0407  0187               	clrf	7
  9329  0408  1B01               	btfsc	1,6
  9330  0409  2C0B               	goto	u251_21
  9331  040A  2C0C               	goto	u251_20
  9332  040B                     u251_21:
  9333  040B  2C18               	goto	i1l3719
  9334  040C                     u251_20:
  9335  040C                     i1l3717:
  9336                           
  9337                           ;mcc_generated_files/usb/usb_device.c: 1890:         {;mcc_generated_files/usb/usb_devic
      +                          e.c: 1891:             pBDTEntryEP0OutNext->STAT.Val = 0x40|(0x08 & 0x08);
  9338  040C  082B               	movf	_pBDTEntryEP0OutNext^(0+128),w
  9339  040D  0086               	movwf	6
  9340  040E  082C               	movf	(_pBDTEntryEP0OutNext+1)^(0+128),w
  9341  040F  0087               	movwf	7
  9342  0410  3048               	movlw	72
  9343  0411  0081               	movwf	1
  9344                           
  9345                           ;mcc_generated_files/usb/usb_device.c: 1892:             pBDTEntryEP0OutNext->STAT.Val |
      +                          = 0x80;
  9346  0412  082B               	movf	_pBDTEntryEP0OutNext^(0+128),w
  9347  0413  0086               	movwf	6
  9348  0414  082C               	movf	(_pBDTEntryEP0OutNext+1)^(0+128),w
  9349  0415  0087               	movwf	7
  9350  0416  1781               	bsf	1,7
  9351                           
  9352                           ;mcc_generated_files/usb/usb_device.c: 1893:         }
  9353  0417  2C56               	goto	i1l412
  9354  0418                     i1l3719:
  9355                           
  9356                           ;mcc_generated_files/usb/usb_device.c: 1895:         {;mcc_generated_files/usb/usb_devic
      +                          e.c: 1896:             pBDTEntryEP0OutNext->STAT.Val = 0x00|(0x08 & 0x08);
  9357  0418  082B               	movf	_pBDTEntryEP0OutNext^(0+128),w
  9358  0419  0086               	movwf	6
  9359  041A  082C               	movf	(_pBDTEntryEP0OutNext+1)^(0+128),w
  9360  041B  0087               	movwf	7
  9361  041C  3008               	movlw	8
  9362  041D  0081               	movwf	1
  9363                           
  9364                           ;mcc_generated_files/usb/usb_device.c: 1897:             pBDTEntryEP0OutNext->STAT.Val |
      +                          = 0x80;
  9365  041E  082B               	movf	_pBDTEntryEP0OutNext^(0+128),w
  9366  041F  0086               	movwf	6
  9367  0420  082C               	movf	(_pBDTEntryEP0OutNext+1)^(0+128),w
  9368  0421  0087               	movwf	7
  9369  0422  1781               	bsf	1,7
  9370  0423  2C56               	goto	i1l412
  9371  0424                     i1l3721:
  9372                           
  9373                           ;mcc_generated_files/usb/usb_device.c: 1901:     {;mcc_generated_files/usb/usb_device.c:
      +                           1905:         pBDTEntryEP0OutNext->CNT = 8;
  9374  0424  0021               	movlb	1	; select bank1
  9375  0425  082B               	movf	_pBDTEntryEP0OutNext^(0+128),w
  9376  0426  3E01               	addlw	1
  9377  0427  00F2               	movwf	??_USBCtrlTrfRxService
  9378  0428  3000               	movlw	0
  9379  0429  3D2C               	addwfc	(_pBDTEntryEP0OutNext+1)^(0+128),w
  9380  042A  00F3               	movwf	??_USBCtrlTrfRxService+1
  9381  042B  0872               	movf	??_USBCtrlTrfRxService,w
  9382  042C  0086               	movwf	6
  9383  042D  0873               	movf	??_USBCtrlTrfRxService+1,w
  9384  042E  0087               	movwf	7
  9385  042F  3008               	movlw	8
  9386  0430  0081               	movwf	1
  9387  0431                     i1l3723:
  9388                           
  9389                           ;mcc_generated_files/usb/usb_device.c: 1906:         pBDTEntryEP0OutNext->ADR = (((uint1
      +                          6_t)(&SetupPkt)) & 0x7FFF);
  9390  0431  3050               	movlw	80
  9391  0432  00F2               	movwf	??_USBCtrlTrfRxService
  9392  0433  3000               	movlw	0
  9393  0434  00F3               	movwf	??_USBCtrlTrfRxService+1
  9394  0435  082B               	movf	_pBDTEntryEP0OutNext^(0+128),w
  9395  0436  0086               	movwf	6
  9396  0437  082C               	movf	(_pBDTEntryEP0OutNext+1)^(0+128),w
  9397  0438  0087               	movwf	7
  9398  0439  3142               	addfsr 1,2
  9399  043A  0872               	movf	??_USBCtrlTrfRxService,w
  9400  043B  3FC0               	movwi [0]fsr1
  9401  043C  0873               	movf	??_USBCtrlTrfRxService+1,w
  9402  043D  3FC1               	movwi [1]fsr1
  9403  043E                     i1l3725:
  9404                           
  9405                           ;mcc_generated_files/usb/usb_device.c: 1910:         pBDTEntryEP0OutNext->STAT.Val = 0x0
      +                          4;
  9406  043E  082B               	movf	_pBDTEntryEP0OutNext^(0+128),w
  9407  043F  0086               	movwf	6
  9408  0440  082C               	movf	(_pBDTEntryEP0OutNext+1)^(0+128),w
  9409  0441  0087               	movwf	7
  9410  0442  3004               	movlw	4
  9411  0443  0081               	movwf	1
  9412  0444                     i1l3727:
  9413                           
  9414                           ;mcc_generated_files/usb/usb_device.c: 1911:         pBDTEntryEP0OutNext->STAT.Val |= 0x
      +                          80;
  9415  0444  082B               	movf	_pBDTEntryEP0OutNext^(0+128),w
  9416  0445  0086               	movwf	6
  9417  0446  082C               	movf	(_pBDTEntryEP0OutNext+1)^(0+128),w
  9418  0447  0087               	movwf	7
  9419  0448  1781               	bsf	1,7
  9420  0449                     i1l3729:
  9421                           
  9422                           ;mcc_generated_files/usb/usb_device.c: 1919:         {
  9423  0449  0023               	movlb	3	; select bank3
  9424  044A  0835               	movf	(low ((_outPipes| (0+256)+5)))^(0+128),w	;volatile
  9425  044B  0836               	movf	((low ((_outPipes| (0+256)+5))+1))^(0+128),w	;volatile
  9426  044C                     i1l410:
  9427  044C  13B2               	bcf	(_outPipes^(0+384)+2),7	;volatile
  9428  044D                     i1l3731:
  9429                           
  9430                           ;mcc_generated_files/usb/usb_device.c: 1945:         if(USBDeferStatusStagePacket == 0)
  9431  044D  0021               	movlb	1	; select bank1
  9432  044E  082E               	movf	_USBDeferStatusStagePacket^(0+128),w	;volatile
  9433  044F  1D03               	btfss	3,2
  9434  0450  2C52               	goto	u252_21
  9435  0451  2C53               	goto	u252_20
  9436  0452                     u252_21:
  9437  0452  2C56               	goto	i1l412
  9438  0453                     u252_20:
  9439  0453                     i1l3733:
  9440                           
  9441                           ;mcc_generated_files/usb/usb_device.c: 1946:         {;mcc_generated_files/usb/usb_devic
      +                          e.c: 1947:             USBCtrlEPAllowStatusStage();
  9442  0453  318E  268C  3183   	fcall	_USBCtrlEPAllowStatusStage
  9443  0456                     i1l412:
  9444  0456  0008               	return
  9445  0457                     __end_of_USBCtrlTrfRxService:
  9446                           
  9447                           	psect	text38
  9448  0E8C                     __ptext38:	
  9449 ;; *************** function _USBCtrlEPAllowStatusStage *****************
  9450 ;; Defined at:
  9451 ;;		line 1420 in file "mcc_generated_files/usb/usb_device.c"
  9452 ;; Parameters:    Size  Location     Type
  9453 ;;		None
  9454 ;; Auto vars:     Size  Location     Type
  9455 ;;		None
  9456 ;; Return value:  Size  Location     Type
  9457 ;;                  1    wreg      void 
  9458 ;; Registers used:
  9459 ;;		wreg, fsr1l, fsr1h, status,2, status,0
  9460 ;; Tracked objects:
  9461 ;;		On entry : 0/0
  9462 ;;		On exit  : 0/0
  9463 ;;		Unchanged: 0/0
  9464 ;; Data sizes:     COMMON   BANK0   BANK1   BANK2   BANK3   BANK4   BANK5   BANK6   BANK7   BANK8   BANK9  BANK10  BANK1
      +1  BANK12
  9465 ;;      Params:         0       0       0       0       0       0       0       0       0       0       0       0       
      +0       0
  9466 ;;      Locals:         0       0       0       0       0       0       0       0       0       0       0       0       
      +0       0
  9467 ;;      Temps:          2       0       0       0       0       0       0       0       0       0       0       0       
      +0       0
  9468 ;;      Totals:         2       0       0       0       0       0       0       0       0       0       0       0       
      +0       0
  9469 ;;Total ram usage:        2 bytes
  9470 ;; Hardware stack levels used:    1
  9471 ;; This function calls:
  9472 ;;		Nothing
  9473 ;; This function is called by:
  9474 ;;		_USBDeviceTasks
  9475 ;;		_USBCtrlEPServiceComplete
  9476 ;;		_USBCtrlTrfRxService
  9477 ;; This function uses a non-reentrant model
  9478 ;;
  9479                           
  9480                           
  9481                           ;psect for function _USBCtrlEPAllowStatusStage
  9482  0E8C                     _USBCtrlEPAllowStatusStage:
  9483  0E8C                     i1l3357:	
  9484                           ;incstack = 0
  9485                           ; Regs used in _USBCtrlEPAllowStatusStage: [wreg+fsr1l+fsr1h+status,2+status,0]
  9486                           
  9487                           
  9488                           ;mcc_generated_files/usb/usb_device.c: 1427:     if(USBStatusStageEnabledFlag1 == 0)
  9489  0E8C  0023               	movlb	3	; select bank3
  9490  0E8D  085E               	movf	_USBStatusStageEnabledFlag1^(0+384),w	;volatile
  9491  0E8E  1D03               	btfss	3,2
  9492  0E8F  2E91               	goto	u204_21
  9493  0E90  2E92               	goto	u204_20
  9494  0E91                     u204_21:
  9495  0E91  2F04               	goto	i1l360
  9496  0E92                     u204_20:
  9497  0E92                     i1l3359:
  9498                           
  9499                           ;mcc_generated_files/usb/usb_device.c: 1428:     {;mcc_generated_files/usb/usb_device.c:
      +                           1429:         USBStatusStageEnabledFlag1 = 1;
  9500  0E92  3001               	movlw	1
  9501  0E93  00F0               	movwf	??_USBCtrlEPAllowStatusStage
  9502  0E94  0870               	movf	??_USBCtrlEPAllowStatusStage,w
  9503  0E95  00DE               	movwf	_USBStatusStageEnabledFlag1^(0+384)	;volatile
  9504  0E96                     i1l3361:
  9505                           
  9506                           ;mcc_generated_files/usb/usb_device.c: 1430:         if(USBStatusStageEnabledFlag2 == 0)
  9507  0E96  085D               	movf	_USBStatusStageEnabledFlag2^(0+384),w	;volatile
  9508  0E97  1D03               	btfss	3,2
  9509  0E98  2E9A               	goto	u205_21
  9510  0E99  2E9B               	goto	u205_20
  9511  0E9A                     u205_21:
  9512  0E9A  2F04               	goto	i1l360
  9513  0E9B                     u205_20:
  9514  0E9B                     i1l3363:
  9515                           
  9516                           ;mcc_generated_files/usb/usb_device.c: 1431:         {;mcc_generated_files/usb/usb_devic
      +                          e.c: 1432:             USBStatusStageEnabledFlag2 = 1;
  9517  0E9B  3001               	movlw	1
  9518  0E9C  00F0               	movwf	??_USBCtrlEPAllowStatusStage
  9519  0E9D  0870               	movf	??_USBCtrlEPAllowStatusStage,w
  9520  0E9E  00DD               	movwf	_USBStatusStageEnabledFlag2^(0+384)	;volatile
  9521  0E9F                     i1l3365:
  9522                           
  9523                           ;mcc_generated_files/usb/usb_device.c: 1436:             if(controlTransferState == 2)
  9524  0E9F  3002               	movlw	2
  9525  0EA0  0021               	movlb	1	; select bank1
  9526  0EA1  0630               	xorwf	_controlTransferState^(0+128),w	;volatile
  9527  0EA2  1D03               	btfss	3,2
  9528  0EA3  2EA5               	goto	u206_21
  9529  0EA4  2EA6               	goto	u206_20
  9530  0EA5                     u206_21:
  9531  0EA5  2EB8               	goto	i1l3373
  9532  0EA6                     u206_20:
  9533  0EA6                     i1l3367:
  9534                           
  9535                           ;mcc_generated_files/usb/usb_device.c: 1437:             {;mcc_generated_files/usb/usb_d
      +                          evice.c: 1438:                 pBDTEntryIn[0]->CNT = 0;
  9536  0EA6  0820               	movf	_pBDTEntryIn^(0+128),w
  9537  0EA7  0086               	movwf	6
  9538  0EA8  0821               	movf	(_pBDTEntryIn+1)^(0+128),w
  9539  0EA9  0087               	movwf	7
  9540  0EAA  3141               	addfsr 1,1
  9541  0EAB  0181               	clrf	1
  9542  0EAC                     i1l3369:
  9543                           
  9544                           ;mcc_generated_files/usb/usb_device.c: 1439:                 pBDTEntryIn[0]->STAT.Val = 
      +                          0x40|(0x08 & 0x08);
  9545  0EAC  0820               	movf	_pBDTEntryIn^(0+128),w
  9546  0EAD  0086               	movwf	6
  9547  0EAE  0821               	movf	(_pBDTEntryIn+1)^(0+128),w
  9548  0EAF  0087               	movwf	7
  9549  0EB0  3048               	movlw	72
  9550  0EB1  0081               	movwf	1
  9551  0EB2                     i1l3371:
  9552                           
  9553                           ;mcc_generated_files/usb/usb_device.c: 1440:                 pBDTEntryIn[0]->STAT.Val |=
      +                           0x80;
  9554  0EB2  0820               	movf	_pBDTEntryIn^(0+128),w
  9555  0EB3  0086               	movwf	6
  9556  0EB4  0821               	movf	(_pBDTEntryIn+1)^(0+128),w
  9557  0EB5  0087               	movwf	7
  9558  0EB6  1781               	bsf	1,7
  9559                           
  9560                           ;mcc_generated_files/usb/usb_device.c: 1441:             }
  9561  0EB7  2F04               	goto	i1l360
  9562  0EB8                     i1l3373:
  9563  0EB8  0330               	decf	_controlTransferState^(0+128),w	;volatile
  9564  0EB9  1D03               	btfss	3,2
  9565  0EBA  2EBC               	goto	u207_21
  9566  0EBB  2EBD               	goto	u207_20
  9567  0EBC                     u207_21:
  9568  0EBC  2F04               	goto	i1l356
  9569  0EBD                     u207_20:
  9570  0EBD                     i1l3375:
  9571                           
  9572                           ;mcc_generated_files/usb/usb_device.c: 1443:             {;mcc_generated_files/usb/usb_d
      +                          evice.c: 1444:                 BothEP0OutUOWNsSet = 0;
  9573  0EBD  0023               	movlb	3	; select bank3
  9574  0EBE  01E0               	clrf	_BothEP0OutUOWNsSet^(0+384)	;volatile
  9575  0EBF                     i1l3377:
  9576                           
  9577                           ;mcc_generated_files/usb/usb_device.c: 1449:                     pBDTEntryEP0OutCurrent-
      +                          >CNT = 8;
  9578  0EBF  3008               	movlw	8
  9579  0EC0  00F0               	movwf	??_USBCtrlEPAllowStatusStage
  9580  0EC1  0021               	movlb	1	; select bank1
  9581  0EC2  0A32               	incf	_pBDTEntryEP0OutCurrent^(0+128),w
  9582  0EC3  0086               	movwf	6
  9583  0EC4  0187               	clrf	7
  9584  0EC5  0870               	movf	??_USBCtrlEPAllowStatusStage,w
  9585  0EC6  0081               	movwf	1
  9586  0EC7                     i1l3379:
  9587                           
  9588                           ;mcc_generated_files/usb/usb_device.c: 1450:                     pBDTEntryEP0OutCurrent-
      +                          >ADR = (((uint16_t)(&SetupPkt)) & 0x7FFF);
  9589  0EC7  3050               	movlw	80
  9590  0EC8  00F0               	movwf	??_USBCtrlEPAllowStatusStage
  9591  0EC9  3000               	movlw	0
  9592  0ECA  00F1               	movwf	??_USBCtrlEPAllowStatusStage+1
  9593  0ECB  0832               	movf	_pBDTEntryEP0OutCurrent^(0+128),w
  9594  0ECC  3E02               	addlw	2
  9595  0ECD  0086               	movwf	6
  9596  0ECE  0187               	clrf	7
  9597  0ECF  0870               	movf	??_USBCtrlEPAllowStatusStage,w
  9598  0ED0  3FC0               	movwi [0]fsr1
  9599  0ED1  0871               	movf	??_USBCtrlEPAllowStatusStage+1,w
  9600  0ED2  3FC1               	movwi [1]fsr1
  9601  0ED3                     i1l3381:
  9602                           
  9603                           ;mcc_generated_files/usb/usb_device.c: 1451:                     pBDTEntryEP0OutCurrent-
      +                          >STAT.Val = 0x04;
  9604  0ED3  3004               	movlw	4
  9605  0ED4  00F0               	movwf	??_USBCtrlEPAllowStatusStage
  9606  0ED5  0832               	movf	_pBDTEntryEP0OutCurrent^(0+128),w
  9607  0ED6  0086               	movwf	6
  9608  0ED7  0187               	clrf	7
  9609  0ED8  0870               	movf	??_USBCtrlEPAllowStatusStage,w
  9610  0ED9  0081               	movwf	1
  9611  0EDA                     i1l3383:
  9612                           
  9613                           ;mcc_generated_files/usb/usb_device.c: 1452:                     pBDTEntryEP0OutCurrent-
      +                          >STAT.Val |= 0x80;
  9614  0EDA  0832               	movf	_pBDTEntryEP0OutCurrent^(0+128),w
  9615  0EDB  0086               	movwf	6
  9616  0EDC  0187               	clrf	7
  9617  0EDD  1781               	bsf	1,7
  9618  0EDE                     i1l3385:
  9619                           
  9620                           ;mcc_generated_files/usb/usb_device.c: 1453:                     BothEP0OutUOWNsSet = 1;
  9621  0EDE  3001               	movlw	1
  9622  0EDF  00F0               	movwf	??_USBCtrlEPAllowStatusStage
  9623  0EE0  0870               	movf	??_USBCtrlEPAllowStatusStage,w
  9624  0EE1  0023               	movlb	3	; select bank3
  9625  0EE2  00E0               	movwf	_BothEP0OutUOWNsSet^(0+384)	;volatile
  9626  0EE3                     i1l3387:
  9627                           
  9628                           ;mcc_generated_files/usb/usb_device.c: 1457:                 pBDTEntryEP0OutNext->CNT = 
      +                          8;
  9629  0EE3  0021               	movlb	1	; select bank1
  9630  0EE4  082B               	movf	_pBDTEntryEP0OutNext^(0+128),w
  9631  0EE5  3E01               	addlw	1
  9632  0EE6  00F0               	movwf	??_USBCtrlEPAllowStatusStage
  9633  0EE7  3000               	movlw	0
  9634  0EE8  3D2C               	addwfc	(_pBDTEntryEP0OutNext+1)^(0+128),w
  9635  0EE9  00F1               	movwf	??_USBCtrlEPAllowStatusStage+1
  9636  0EEA  0870               	movf	??_USBCtrlEPAllowStatusStage,w
  9637  0EEB  0086               	movwf	6
  9638  0EEC  0871               	movf	??_USBCtrlEPAllowStatusStage+1,w
  9639  0EED  0087               	movwf	7
  9640  0EEE  3008               	movlw	8
  9641  0EEF  0081               	movwf	1
  9642  0EF0                     i1l3389:
  9643                           
  9644                           ;mcc_generated_files/usb/usb_device.c: 1458:                 pBDTEntryEP0OutNext->ADR = 
      +                          (((uint16_t)(&SetupPkt)) & 0x7FFF);
  9645  0EF0  3050               	movlw	80
  9646  0EF1  00F0               	movwf	??_USBCtrlEPAllowStatusStage
  9647  0EF2  3000               	movlw	0
  9648  0EF3  00F1               	movwf	??_USBCtrlEPAllowStatusStage+1
  9649  0EF4  082B               	movf	_pBDTEntryEP0OutNext^(0+128),w
  9650  0EF5  0086               	movwf	6
  9651  0EF6  082C               	movf	(_pBDTEntryEP0OutNext+1)^(0+128),w
  9652  0EF7  0087               	movwf	7
  9653  0EF8  3142               	addfsr 1,2
  9654  0EF9  0870               	movf	??_USBCtrlEPAllowStatusStage,w
  9655  0EFA  3FC0               	movwi [0]fsr1
  9656  0EFB  0871               	movf	??_USBCtrlEPAllowStatusStage+1,w
  9657  0EFC  3FC1               	movwi [1]fsr1
  9658  0EFD                     i1l3391:
  9659                           
  9660                           ;mcc_generated_files/usb/usb_device.c: 1459:                 pBDTEntryEP0OutNext->STAT.V
      +                          al = 0x80;
  9661  0EFD  082B               	movf	_pBDTEntryEP0OutNext^(0+128),w
  9662  0EFE  0086               	movwf	6
  9663  0EFF  082C               	movf	(_pBDTEntryEP0OutNext+1)^(0+128),w
  9664  0F00  0087               	movwf	7
  9665  0F01  3080               	movlw	128
  9666  0F02  0081               	movwf	1
  9667  0F03  2F04               	goto	i1l360
  9668  0F04                     i1l356:	
  9669                           ;mcc_generated_files/usb/usb_device.c: 1461:         }
  9670                           
  9671  0F04                     i1l360:
  9672  0F04  0008               	return
  9673  0F05                     __end_of_USBCtrlEPAllowStatusStage:
  9674                           
  9675                           	psect	text39
  9676  0F05                     __ptext39:	
  9677 ;; *************** function _USBCtrlTrfInHandler *****************
  9678 ;; Defined at:
  9679 ;;		line 2596 in file "mcc_generated_files/usb/usb_device.c"
  9680 ;; Parameters:    Size  Location     Type
  9681 ;;		None
  9682 ;; Auto vars:     Size  Location     Type
  9683 ;;  lastDTS         1    5[COMMON] unsigned char 
  9684 ;; Return value:  Size  Location     Type
  9685 ;;                  1    wreg      void 
  9686 ;; Registers used:
  9687 ;;		wreg, fsr0l, fsr0h, fsr1l, fsr1h, status,2, status,0, pclath, cstack
  9688 ;; Tracked objects:
  9689 ;;		On entry : 0/0
  9690 ;;		On exit  : 0/0
  9691 ;;		Unchanged: 0/0
  9692 ;; Data sizes:     COMMON   BANK0   BANK1   BANK2   BANK3   BANK4   BANK5   BANK6   BANK7   BANK8   BANK9  BANK10  BANK1
      +1  BANK12
  9693 ;;      Params:         0       0       0       0       0       0       0       0       0       0       0       0       
      +0       0
  9694 ;;      Locals:         1       0       0       0       0       0       0       0       0       0       0       0       
      +0       0
  9695 ;;      Temps:          2       0       0       0       0       0       0       0       0       0       0       0       
      +0       0
  9696 ;;      Totals:         3       0       0       0       0       0       0       0       0       0       0       0       
      +0       0
  9697 ;;Total ram usage:        3 bytes
  9698 ;; Hardware stack levels used:    1
  9699 ;; Hardware stack levels required when called:    1
  9700 ;; This function calls:
  9701 ;;		_USBCtrlTrfTxService
  9702 ;; This function is called by:
  9703 ;;		_USBCtrlEPService
  9704 ;; This function uses a non-reentrant model
  9705 ;;
  9706                           
  9707                           
  9708                           ;psect for function _USBCtrlTrfInHandler
  9709  0F05                     _USBCtrlTrfInHandler:
  9710  0F05                     i1l3859:	
  9711                           ;incstack = 0
  9712                           ; Regs used in _USBCtrlTrfInHandler: [wreg-fsr1h+status,2+status,0+pclath+cstack]
  9713                           
  9714                           
  9715                           ;mcc_generated_files/usb/usb_device.c: 2598:     uint8_t lastDTS;;mcc_generated_files/us
      +                          b/usb_device.c: 2600:     lastDTS = pBDTEntryIn[0]->STAT.DTS;
  9716  0F05  0021               	movlb	1	; select bank1
  9717  0F06  0820               	movf	_pBDTEntryIn^(0+128),w
  9718  0F07  0086               	movwf	6
  9719  0F08  0821               	movf	(_pBDTEntryIn+1)^(0+128),w
  9720  0F09  0087               	movwf	7
  9721  0F0A  3000               	movlw	0
  9722  0F0B  1B01               	btfsc	1,6
  9723  0F0C  3001               	movlw	1
  9724  0F0D  00F5               	movwf	USBCtrlTrfInHandler@lastDTS
  9725  0F0E                     i1l3861:
  9726                           
  9727                           ;mcc_generated_files/usb/usb_device.c: 2603:     pBDTEntryIn[0] = (volatile BDT_ENTRY*)(
      +                          ((uint16_t)pBDTEntryIn[0]) ^ 0x0004);
  9728  0F0E  3004               	movlw	4
  9729  0F0F  0620               	xorwf	_pBDTEntryIn^(0+128),w
  9730  0F10  00A0               	movwf	_pBDTEntryIn^(0+128)
  9731  0F11  3000               	movlw	0
  9732  0F12  0621               	xorwf	(_pBDTEntryIn+1)^(0+128),w
  9733  0F13  00A1               	movwf	(_pBDTEntryIn+1)^(0+128)
  9734  0F14                     i1l3863:
  9735                           
  9736                           ;mcc_generated_files/usb/usb_device.c: 2608:     if(USBDeviceState == ADR_PENDING_STATE)
  9737  0F14  3008               	movlw	8
  9738  0F15  0633               	xorwf	_USBDeviceState^(0+128),w	;volatile
  9739  0F16  1D03               	btfss	3,2
  9740  0F17  2F19               	goto	u258_21
  9741  0F18  2F1A               	goto	u258_20
  9742  0F19                     u258_21:
  9743  0F19  2F2F               	goto	i1l3873
  9744  0F1A                     u258_20:
  9745  0F1A                     i1l3865:
  9746                           
  9747                           ;mcc_generated_files/usb/usb_device.c: 2609:     {;mcc_generated_files/usb/usb_device.c:
      +                           2610:         UADDR = (SetupPkt.bDevADR & 0x7F);
  9748  0F1A  0020               	movlb	0	; select bank0
  9749  0F1B  0852               	movf	82,w	;volatile
  9750  0F1C  397F               	andlw	127
  9751  0F1D  003D               	movlb	29	; select bank29
  9752  0F1E  0096               	movwf	22	;volatile
  9753  0F1F                     i1l3867:
  9754                           
  9755                           ;mcc_generated_files/usb/usb_device.c: 2611:         if(UADDR != 0u)
  9756  0F1F  0816               	movf	22,w	;volatile
  9757  0F20  1903               	btfsc	3,2
  9758  0F21  2F23               	goto	u259_21
  9759  0F22  2F24               	goto	u259_20
  9760  0F23                     u259_21:
  9761  0F23  2F2A               	goto	i1l3871
  9762  0F24                     u259_20:
  9763  0F24                     i1l3869:
  9764                           
  9765                           ;mcc_generated_files/usb/usb_device.c: 2612:         {;mcc_generated_files/usb/usb_devic
      +                          e.c: 2613:             USBDeviceState=ADDRESS_STATE;
  9766  0F24  3010               	movlw	16
  9767  0F25  00F3               	movwf	??_USBCtrlTrfInHandler
  9768  0F26  0873               	movf	??_USBCtrlTrfInHandler,w
  9769  0F27  0021               	movlb	1	; select bank1
  9770  0F28  00B3               	movwf	_USBDeviceState^(0+128)	;volatile
  9771                           
  9772                           ;mcc_generated_files/usb/usb_device.c: 2614:         }
  9773  0F29  2F2F               	goto	i1l3873
  9774  0F2A                     i1l3871:
  9775                           
  9776                           ;mcc_generated_files/usb/usb_device.c: 2616:         {;mcc_generated_files/usb/usb_devic
      +                          e.c: 2617:             USBDeviceState=DEFAULT_STATE;
  9777  0F2A  3004               	movlw	4
  9778  0F2B  00F3               	movwf	??_USBCtrlTrfInHandler
  9779  0F2C  0873               	movf	??_USBCtrlTrfInHandler,w
  9780  0F2D  0021               	movlb	1	; select bank1
  9781  0F2E  00B3               	movwf	_USBDeviceState^(0+128)	;volatile
  9782  0F2F                     i1l3873:
  9783                           
  9784                           ;mcc_generated_files/usb/usb_device.c: 2622:     if(controlTransferState == 1)
  9785  0F2F  0330               	decf	_controlTransferState^(0+128),w	;volatile
  9786  0F30  1D03               	btfss	3,2
  9787  0F31  2F33               	goto	u260_21
  9788  0F32  2F34               	goto	u260_20
  9789  0F33                     u260_21:
  9790  0F33  2F74               	goto	i1l487
  9791  0F34                     u260_20:
  9792  0F34                     i1l3875:
  9793                           
  9794                           ;mcc_generated_files/usb/usb_device.c: 2623:     {;mcc_generated_files/usb/usb_device.c:
      +                           2624:         pBDTEntryIn[0]->ADR = (((uint16_t)(CtrlTrfData)) & 0x7FFF);
  9795  0F34  3058               	movlw	88
  9796  0F35  00F3               	movwf	??_USBCtrlTrfInHandler
  9797  0F36  3000               	movlw	0
  9798  0F37  00F4               	movwf	??_USBCtrlTrfInHandler+1
  9799  0F38  0820               	movf	_pBDTEntryIn^(0+128),w
  9800  0F39  0086               	movwf	6
  9801  0F3A  0821               	movf	(_pBDTEntryIn+1)^(0+128),w
  9802  0F3B  0087               	movwf	7
  9803  0F3C  3142               	addfsr 1,2
  9804  0F3D  0873               	movf	??_USBCtrlTrfInHandler,w
  9805  0F3E  3FC0               	movwi [0]fsr1
  9806  0F3F  0874               	movf	??_USBCtrlTrfInHandler+1,w
  9807  0F40  3FC1               	movwi [1]fsr1
  9808  0F41                     i1l3877:
  9809                           
  9810                           ;mcc_generated_files/usb/usb_device.c: 2625:         USBCtrlTrfTxService();
  9811  0F41  318F  277F  318F   	fcall	_USBCtrlTrfTxService
  9812  0F44                     i1l3879:
  9813                           
  9814                           ;mcc_generated_files/usb/usb_device.c: 2631:         if(shortPacketStatus == 2)
  9815  0F44  3002               	movlw	2
  9816  0F45  0021               	movlb	1	; select bank1
  9817  0F46  0631               	xorwf	_shortPacketStatus^(0+128),w	;volatile
  9818  0F47  1D03               	btfss	3,2
  9819  0F48  2F4A               	goto	u261_21
  9820  0F49  2F4B               	goto	u261_20
  9821  0F4A                     u261_21:
  9822  0F4A  2F57               	goto	i1l3883
  9823  0F4B                     u261_20:
  9824  0F4B                     i1l3881:
  9825                           
  9826                           ;mcc_generated_files/usb/usb_device.c: 2632:         {;mcc_generated_files/usb/usb_devic
      +                          e.c: 2635:             pBDTEntryIn[0]->STAT.Val = 0x04;
  9827  0F4B  0820               	movf	_pBDTEntryIn^(0+128),w
  9828  0F4C  0086               	movwf	6
  9829  0F4D  0821               	movf	(_pBDTEntryIn+1)^(0+128),w
  9830  0F4E  0087               	movwf	7
  9831  0F4F  3004               	movlw	4
  9832  0F50  0081               	movwf	1
  9833                           
  9834                           ;mcc_generated_files/usb/usb_device.c: 2636:             pBDTEntryIn[0]->STAT.Val |= 0x8
      +                          0;
  9835  0F51  0820               	movf	_pBDTEntryIn^(0+128),w
  9836  0F52  0086               	movwf	6
  9837  0F53  0821               	movf	(_pBDTEntryIn+1)^(0+128),w
  9838  0F54  0087               	movwf	7
  9839  0F55  1781               	bsf	1,7
  9840                           
  9841                           ;mcc_generated_files/usb/usb_device.c: 2637:         }
  9842  0F56  2F7E               	goto	i1l495
  9843  0F57                     i1l3883:
  9844                           
  9845                           ;mcc_generated_files/usb/usb_device.c: 2639:         {;mcc_generated_files/usb/usb_devic
      +                          e.c: 2640:             if(lastDTS == 0)
  9846  0F57  0875               	movf	USBCtrlTrfInHandler@lastDTS,w
  9847  0F58  1D03               	btfss	3,2
  9848  0F59  2F5B               	goto	u262_21
  9849  0F5A  2F5C               	goto	u262_20
  9850  0F5B                     u262_21:
  9851  0F5B  2F68               	goto	i1l3887
  9852  0F5C                     u262_20:
  9853  0F5C                     i1l3885:
  9854                           
  9855                           ;mcc_generated_files/usb/usb_device.c: 2641:             {;mcc_generated_files/usb/usb_d
      +                          evice.c: 2642:                 pBDTEntryIn[0]->STAT.Val = 0x40|(0x08 & 0x08);
  9856  0F5C  0820               	movf	_pBDTEntryIn^(0+128),w
  9857  0F5D  0086               	movwf	6
  9858  0F5E  0821               	movf	(_pBDTEntryIn+1)^(0+128),w
  9859  0F5F  0087               	movwf	7
  9860  0F60  3048               	movlw	72
  9861  0F61  0081               	movwf	1
  9862                           
  9863                           ;mcc_generated_files/usb/usb_device.c: 2643:                 pBDTEntryIn[0]->STAT.Val |=
      +                           0x80;
  9864  0F62  0820               	movf	_pBDTEntryIn^(0+128),w
  9865  0F63  0086               	movwf	6
  9866  0F64  0821               	movf	(_pBDTEntryIn+1)^(0+128),w
  9867  0F65  0087               	movwf	7
  9868  0F66  1781               	bsf	1,7
  9869                           
  9870                           ;mcc_generated_files/usb/usb_device.c: 2644:             }
  9871  0F67  2F7E               	goto	i1l495
  9872  0F68                     i1l3887:
  9873                           
  9874                           ;mcc_generated_files/usb/usb_device.c: 2646:             {;mcc_generated_files/usb/usb_d
      +                          evice.c: 2647:                 pBDTEntryIn[0]->STAT.Val = 0x00|(0x08 & 0x08);
  9875  0F68  0820               	movf	_pBDTEntryIn^(0+128),w
  9876  0F69  0086               	movwf	6
  9877  0F6A  0821               	movf	(_pBDTEntryIn+1)^(0+128),w
  9878  0F6B  0087               	movwf	7
  9879  0F6C  3008               	movlw	8
  9880  0F6D  0081               	movwf	1
  9881                           
  9882                           ;mcc_generated_files/usb/usb_device.c: 2648:                 pBDTEntryIn[0]->STAT.Val |=
      +                           0x80;
  9883  0F6E  0820               	movf	_pBDTEntryIn^(0+128),w
  9884  0F6F  0086               	movwf	6
  9885  0F70  0821               	movf	(_pBDTEntryIn+1)^(0+128),w
  9886  0F71  0087               	movwf	7
  9887  0F72  1781               	bsf	1,7
  9888  0F73  2F7E               	goto	i1l495
  9889  0F74                     i1l487:	
  9890                           ;mcc_generated_files/usb/usb_device.c: 2652:  else
  9891                           
  9892                           
  9893                           ;mcc_generated_files/usb/usb_device.c: 2653:  {;mcc_generated_files/usb/usb_device.c: 26
      +                          57:         if(outPipes[0].info.bits.busy == 1)
  9894  0F74  0023               	movlb	3	; select bank3
  9895  0F75  1FB2               	btfss	(_outPipes^(0+384)+2),7	;volatile
  9896  0F76  2F78               	goto	u263_21
  9897  0F77  2F79               	goto	u263_20
  9898  0F78                     u263_21:
  9899  0F78  2F7C               	goto	i1l3891
  9900  0F79                     u263_20:
  9901  0F79                     i1l3889:
  9902                           
  9903                           ;mcc_generated_files/usb/usb_device.c: 2660:             {;mcc_generated_files/usb/usb_d
      +                          evice.c: 2661:                 outPipes[0].pFunc();
  9904  0F79  0835               	movf	(low ((_outPipes| (0+256)+5)))^(0+128),w	;volatile
  9905  0F7A  0836               	movf	((low ((_outPipes| (0+256)+5))+1))^(0+128),w	;volatile
  9906  0F7B                     i1l494:	
  9907                           ;mcc_generated_files/usb/usb_device.c: 2662:             }
  9908                           
  9909                           
  9910                           ;mcc_generated_files/usb/usb_device.c: 2663:             outPipes[0].info.bits.busy = 0;
  9911  0F7B  13B2               	bcf	(_outPipes^(0+384)+2),7	;volatile
  9912  0F7C                     i1l3891:
  9913                           
  9914                           ;mcc_generated_files/usb/usb_device.c: 2666:         controlTransferState = 0;
  9915  0F7C  0021               	movlb	1	; select bank1
  9916  0F7D  01B0               	clrf	_controlTransferState^(0+128)	;volatile
  9917  0F7E                     i1l495:
  9918  0F7E  0008               	return
  9919  0F7F                     __end_of_USBCtrlTrfInHandler:
  9920                           
  9921                           	psect	text40
  9922  0F7F                     __ptext40:	
  9923 ;; *************** function _USBCtrlTrfTxService *****************
  9924 ;; Defined at:
  9925 ;;		line 1775 in file "mcc_generated_files/usb/usb_device.c"
  9926 ;; Parameters:    Size  Location     Type
  9927 ;;		None
  9928 ;; Auto vars:     Size  Location     Type
  9929 ;;  byteToSend      1    2[COMMON] unsigned char 
  9930 ;; Return value:  Size  Location     Type
  9931 ;;                  1    wreg      void 
  9932 ;; Registers used:
  9933 ;;		wreg, fsr0l, fsr0h, fsr1l, fsr1h, status,2, status,0, pclath
  9934 ;; Tracked objects:
  9935 ;;		On entry : 0/0
  9936 ;;		On exit  : 0/0
  9937 ;;		Unchanged: 0/0
  9938 ;; Data sizes:     COMMON   BANK0   BANK1   BANK2   BANK3   BANK4   BANK5   BANK6   BANK7   BANK8   BANK9  BANK10  BANK1
      +1  BANK12
  9939 ;;      Params:         0       0       0       0       0       0       0       0       0       0       0       0       
      +0       0
  9940 ;;      Locals:         1       0       0       0       0       0       0       0       0       0       0       0       
      +0       0
  9941 ;;      Temps:          2       0       0       0       0       0       0       0       0       0       0       0       
      +0       0
  9942 ;;      Totals:         3       0       0       0       0       0       0       0       0       0       0       0       
      +0       0
  9943 ;;Total ram usage:        3 bytes
  9944 ;; Hardware stack levels used:    1
  9945 ;; This function calls:
  9946 ;;		Nothing
  9947 ;; This function is called by:
  9948 ;;		_USBCtrlEPAllowDataStage
  9949 ;;		_USBCtrlTrfInHandler
  9950 ;; This function uses a non-reentrant model
  9951 ;;
  9952                           
  9953                           
  9954                           ;psect for function _USBCtrlTrfTxService
  9955  0F7F                     _USBCtrlTrfTxService:
  9956  0F7F                     i1l3275:	
  9957                           ;incstack = 0
  9958                           ; Regs used in _USBCtrlTrfTxService: [wreg-fsr1h+status,2+status,0+pclath]
  9959                           
  9960                           
  9961                           ;mcc_generated_files/usb/usb_device.c: 1777:     uint8_t byteToSend;;mcc_generated_files
      +                          /usb/usb_device.c: 1781:     byteToSend = 8;
  9962  0F7F  3008               	movlw	8
  9963  0F80  00F0               	movwf	??_USBCtrlTrfTxService
  9964  0F81  0870               	movf	??_USBCtrlTrfTxService,w
  9965  0F82  00F2               	movwf	USBCtrlTrfTxService@byteToSend
  9966                           
  9967                           ;mcc_generated_files/usb/usb_device.c: 1782:     if(inPipes[0].wCount.Val < (uint8_t)8)
  9968  0F83  3000               	movlw	0
  9969  0F84  0021               	movlb	1	; select bank1
  9970  0F85  022A               	subwf	((_inPipes+1)^(0+128)+3),w	;volatile
  9971  0F86  3008               	movlw	8
  9972  0F87  1903               	skipnz
  9973  0F88  0229               	subwf	(_inPipes^(0+128)+3),w	;volatile
  9974  0F89  1803               	skipnc
  9975  0F8A  2F8C               	goto	u193_21
  9976  0F8B  2F8D               	goto	u193_20
  9977  0F8C                     u193_21:
  9978  0F8C  2FA4               	goto	i1l387
  9979  0F8D                     u193_20:
  9980  0F8D                     i1l3277:
  9981                           
  9982                           ;mcc_generated_files/usb/usb_device.c: 1783:     {;mcc_generated_files/usb/usb_device.c:
      +                           1784:         byteToSend = inPipes[0].wCount.Val;
  9983  0F8D  0829               	movf	(_inPipes^(0+128)+3),w	;volatile
  9984  0F8E  00F0               	movwf	??_USBCtrlTrfTxService
  9985  0F8F  0870               	movf	??_USBCtrlTrfTxService,w
  9986  0F90  00F2               	movwf	USBCtrlTrfTxService@byteToSend
  9987  0F91                     i1l3279:
  9988                           
  9989                           ;mcc_generated_files/usb/usb_device.c: 1791:         if(shortPacketStatus == 0)
  9990  0F91  0831               	movf	_shortPacketStatus^(0+128),w	;volatile
  9991  0F92  1D03               	btfss	3,2
  9992  0F93  2F95               	goto	u194_21
  9993  0F94  2F96               	goto	u194_20
  9994  0F95                     u194_21:
  9995  0F95  2F9B               	goto	i1l3283
  9996  0F96                     u194_20:
  9997  0F96                     i1l3281:
  9998                           
  9999                           ;mcc_generated_files/usb/usb_device.c: 1792:         {;mcc_generated_files/usb/usb_devic
      +                          e.c: 1793:             shortPacketStatus = 1;
 10000  0F96  3001               	movlw	1
 10001  0F97  00F0               	movwf	??_USBCtrlTrfTxService
 10002  0F98  0870               	movf	??_USBCtrlTrfTxService,w
 10003  0F99  00B1               	movwf	_shortPacketStatus^(0+128)	;volatile
 10004                           
 10005                           ;mcc_generated_files/usb/usb_device.c: 1794:         }
 10006  0F9A  2FA4               	goto	i1l387
 10007  0F9B                     i1l3283:
 10008  0F9B  0331               	decf	_shortPacketStatus^(0+128),w	;volatile
 10009  0F9C  1D03               	btfss	3,2
 10010  0F9D  2F9F               	goto	u195_21
 10011  0F9E  2FA0               	goto	u195_20
 10012  0F9F                     u195_21:
 10013  0F9F  2FA4               	goto	i1l387
 10014  0FA0                     u195_20:
 10015  0FA0                     i1l3285:
 10016                           
 10017                           ;mcc_generated_files/usb/usb_device.c: 1796:         {;mcc_generated_files/usb/usb_devic
      +                          e.c: 1797:             shortPacketStatus = 2;
 10018  0FA0  3002               	movlw	2
 10019  0FA1  00F0               	movwf	??_USBCtrlTrfTxService
 10020  0FA2  0870               	movf	??_USBCtrlTrfTxService,w
 10021  0FA3  00B1               	movwf	_shortPacketStatus^(0+128)	;volatile
 10022  0FA4                     i1l387:	
 10023                           ;mcc_generated_files/usb/usb_device.c: 1799:     }
 10024                           
 10025                           
 10026                           ;mcc_generated_files/usb/usb_device.c: 1803:     inPipes[0].wCount.Val -= byteToSend;
 10027  0FA4  0872               	movf	USBCtrlTrfTxService@byteToSend,w
 10028  0FA5  00F0               	movwf	??_USBCtrlTrfTxService
 10029  0FA6  01F1               	clrf	??_USBCtrlTrfTxService+1
 10030  0FA7  0870               	movf	??_USBCtrlTrfTxService,w
 10031  0FA8  02A9               	subwf	(_inPipes^(0+128)+3),f	;volatile
 10032  0FA9  0871               	movf	??_USBCtrlTrfTxService+1,w
 10033  0FAA  3BAA               	subwfb	((_inPipes+1)^(0+128)+3),f	;volatile
 10034  0FAB                     i1l3287:
 10035                           
 10036                           ;mcc_generated_files/usb/usb_device.c: 1808:     pBDTEntryIn[0]->CNT = byteToSend;
 10037  0FAB  0820               	movf	_pBDTEntryIn^(0+128),w
 10038  0FAC  3E01               	addlw	1
 10039  0FAD  00F0               	movwf	??_USBCtrlTrfTxService
 10040  0FAE  3000               	movlw	0
 10041  0FAF  3D21               	addwfc	(_pBDTEntryIn+1)^(0+128),w
 10042  0FB0  00F1               	movwf	??_USBCtrlTrfTxService+1
 10043  0FB1  0870               	movf	??_USBCtrlTrfTxService,w
 10044  0FB2  0086               	movwf	6
 10045  0FB3  0871               	movf	??_USBCtrlTrfTxService+1,w
 10046  0FB4  0087               	movwf	7
 10047  0FB5  0872               	movf	USBCtrlTrfTxService@byteToSend,w
 10048  0FB6  0081               	movwf	1
 10049  0FB7                     i1l3289:
 10050                           
 10051                           ;mcc_generated_files/usb/usb_device.c: 1812:     pDst = (volatile uint8_t*)CtrlTrfData;
 10052  0FB7  3058               	movlw	88
 10053  0FB8  00F0               	movwf	??_USBCtrlTrfTxService
 10054  0FB9  0870               	movf	??_USBCtrlTrfTxService,w
 10055  0FBA  0023               	movlb	3	; select bank3
 10056  0FBB  00E3               	movwf	_pDst^(0+384)
 10057  0FBC                     i1l3291:
 10058                           
 10059                           ;mcc_generated_files/usb/usb_device.c: 1813:     if(inPipes[0].info.bits.ctrl_trf_mem ==
      +                           0x00)
 10060  0FBC  0021               	movlb	1	; select bank1
 10061  0FBD  1828               	btfsc	(_inPipes^(0+128)+2),0	;volatile
 10062  0FBE  2FC0               	goto	u196_21
 10063  0FBF  2FC1               	goto	u196_20
 10064  0FC0                     u196_21:
 10065  0FC0  2FFA               	goto	i1l3313
 10066  0FC1                     u196_20:
 10067  0FC1  2FDB               	goto	i1l3303
 10068  0FC2                     i1l3295:
 10069                           
 10070                           ;mcc_generated_files/usb/usb_device.c: 1816:         {;mcc_generated_files/usb/usb_devic
      +                          e.c: 1817:             *pDst++ = *inPipes[0].pSrc.bRom++;
 10071  0FC2  0021               	movlb	1	; select bank1
 10072  0FC3  0826               	movf	_inPipes^(0+128),w	;volatile
 10073  0FC4  0084               	movwf	4
 10074  0FC5  0827               	movf	(_inPipes+1)^(0+128),w	;volatile
 10075  0FC6  0085               	movwf	5
 10076  0FC7  0800               	movf	0,w	;code access
 10077  0FC8  00F0               	movwf	??_USBCtrlTrfTxService
 10078  0FC9  0023               	movlb	3	; select bank3
 10079  0FCA  0863               	movf	_pDst^(0+384),w
 10080  0FCB  0086               	movwf	6
 10081  0FCC  0187               	clrf	7
 10082  0FCD  0870               	movf	??_USBCtrlTrfTxService,w
 10083  0FCE  0081               	movwf	1
 10084  0FCF                     i1l3297:
 10085  0FCF  3001               	movlw	1
 10086  0FD0  0021               	movlb	1	; select bank1
 10087  0FD1  07A6               	addwf	_inPipes^(0+128),f	;volatile
 10088  0FD2  3000               	movlw	0
 10089  0FD3  3DA7               	addwfc	(_inPipes+1)^(0+128),f	;volatile
 10090  0FD4                     i1l3299:
 10091  0FD4  3001               	movlw	1
 10092  0FD5  00F0               	movwf	??_USBCtrlTrfTxService
 10093  0FD6  0870               	movf	??_USBCtrlTrfTxService,w
 10094  0FD7  0023               	movlb	3	; select bank3
 10095  0FD8  07E3               	addwf	_pDst^(0+384),f
 10096  0FD9                     i1l3301:
 10097                           
 10098                           ;mcc_generated_files/usb/usb_device.c: 1818:             byteToSend--;
 10099  0FD9  3001               	movlw	1
 10100  0FDA  02F2               	subwf	USBCtrlTrfTxService@byteToSend,f
 10101  0FDB                     i1l3303:
 10102                           
 10103                           ;mcc_generated_files/usb/usb_device.c: 1815:         while(byteToSend)
 10104  0FDB  0872               	movf	USBCtrlTrfTxService@byteToSend,w
 10105  0FDC  1D03               	btfss	3,2
 10106  0FDD  2FDF               	goto	u197_21
 10107  0FDE  2FE0               	goto	u197_20
 10108  0FDF                     u197_21:
 10109  0FDF  2FC2               	goto	i1l3295
 10110  0FE0                     u197_20:
 10111  0FE0  2FFF               	goto	i1l399
 10112  0FE1                     i1l3305:
 10113                           
 10114                           ;mcc_generated_files/usb/usb_device.c: 1824:         {;mcc_generated_files/usb/usb_devic
      +                          e.c: 1825:             *pDst++ = *inPipes[0].pSrc.bRam++;
 10115  0FE1  0021               	movlb	1	; select bank1
 10116  0FE2  0826               	movf	_inPipes^(0+128),w	;volatile
 10117  0FE3  0084               	movwf	4
 10118  0FE4  0827               	movf	(_inPipes+1)^(0+128),w	;volatile
 10119  0FE5  0085               	movwf	5
 10120  0FE6  0800               	movf	0,w	;code access
 10121  0FE7  00F0               	movwf	??_USBCtrlTrfTxService
 10122  0FE8  0023               	movlb	3	; select bank3
 10123  0FE9  0863               	movf	_pDst^(0+384),w
 10124  0FEA  0086               	movwf	6
 10125  0FEB  0187               	clrf	7
 10126  0FEC  0870               	movf	??_USBCtrlTrfTxService,w
 10127  0FED  0081               	movwf	1
 10128  0FEE                     i1l3307:
 10129  0FEE  3001               	movlw	1
 10130  0FEF  0021               	movlb	1	; select bank1
 10131  0FF0  07A6               	addwf	_inPipes^(0+128),f	;volatile
 10132  0FF1  3000               	movlw	0
 10133  0FF2  3DA7               	addwfc	(_inPipes+1)^(0+128),f	;volatile
 10134  0FF3                     i1l3309:
 10135  0FF3  3001               	movlw	1
 10136  0FF4  00F0               	movwf	??_USBCtrlTrfTxService
 10137  0FF5  0870               	movf	??_USBCtrlTrfTxService,w
 10138  0FF6  0023               	movlb	3	; select bank3
 10139  0FF7  07E3               	addwf	_pDst^(0+384),f
 10140  0FF8                     i1l3311:
 10141                           
 10142                           ;mcc_generated_files/usb/usb_device.c: 1826:             byteToSend--;
 10143  0FF8  3001               	movlw	1
 10144  0FF9  02F2               	subwf	USBCtrlTrfTxService@byteToSend,f
 10145  0FFA                     i1l3313:
 10146                           
 10147                           ;mcc_generated_files/usb/usb_device.c: 1823:         while(byteToSend)
 10148  0FFA  0872               	movf	USBCtrlTrfTxService@byteToSend,w
 10149  0FFB  1D03               	btfss	3,2
 10150  0FFC  2FFE               	goto	u198_21
 10151  0FFD  2FFF               	goto	u198_20
 10152  0FFE                     u198_21:
 10153  0FFE  2FE1               	goto	i1l3305
 10154  0FFF                     u198_20:
 10155  0FFF                     i1l399:
 10156  0FFF  0008               	return
 10157  1000                     __end_of_USBCtrlTrfTxService:
 10158                           
 10159                           	psect	text41
 10160  0945                     __ptext41:	
 10161 ;; *************** function _TMR0_ISR *****************
 10162 ;; Defined at:
 10163 ;;		line 108 in file "mcc_generated_files/tmr0.c"
 10164 ;; Parameters:    Size  Location     Type
 10165 ;;		None
 10166 ;; Auto vars:     Size  Location     Type
 10167 ;;		None
 10168 ;; Return value:  Size  Location     Type
 10169 ;;                  1    wreg      void 
 10170 ;; Registers used:
 10171 ;;		wreg, status,2, status,0, pclath, cstack
 10172 ;; Tracked objects:
 10173 ;;		On entry : 0/0
 10174 ;;		On exit  : 0/0
 10175 ;;		Unchanged: 0/0
 10176 ;; Data sizes:     COMMON   BANK0   BANK1   BANK2   BANK3   BANK4   BANK5   BANK6   BANK7   BANK8   BANK9  BANK10  BANK1
      +1  BANK12
 10177 ;;      Params:         0       0       0       0       0       0       0       0       0       0       0       0       
      +0       0
 10178 ;;      Locals:         0       0       0       0       0       0       0       0       0       0       0       0       
      +0       0
 10179 ;;      Temps:          0       0       0       0       0       0       0       0       0       0       0       0       
      +0       0
 10180 ;;      Totals:         0       0       0       0       0       0       0       0       0       0       0       0       
      +0       0
 10181 ;;Total ram usage:        0 bytes
 10182 ;; Hardware stack levels used:    1
 10183 ;; Hardware stack levels required when called:    1
 10184 ;; This function calls:
 10185 ;;		Absolute function
 10186 ;;		_TMR0_DefaultInterruptHandler
 10187 ;; This function is called by:
 10188 ;;		_INTERRUPT_InterruptManager
 10189 ;; This function uses a non-reentrant model
 10190 ;;
 10191                           
 10192                           
 10193                           ;psect for function _TMR0_ISR
 10194  0945                     _TMR0_ISR:
 10195  0945                     i1l4285:	
 10196                           ;incstack = 0
 10197                           ; Regs used in _TMR0_ISR: [wreg+status,2+status,0+pclath+cstack]
 10198                           
 10199                           
 10200                           ;mcc_generated_files/tmr0.c: 112:     INTCONbits.TMR0IF = 0;
 10201  0945  110B               	bcf	11,2	;volatile
 10202  0946                     i1l4287:
 10203                           
 10204                           ;mcc_generated_files/tmr0.c: 114:     TMR0 = timer0ReloadVal;
 10205  0946  0023               	movlb	3	; select bank3
 10206  0947  0859               	movf	_timer0ReloadVal^(0+384),w	;volatile
 10207  0948  0020               	movlb	0	; select bank0
 10208  0949  0095               	movwf	21	;volatile
 10209  094A                     i1l4289:
 10210                           
 10211                           ;mcc_generated_files/tmr0.c: 116:     if(TMR0_InterruptHandler)
 10212  094A  0023               	movlb	3	; select bank3
 10213  094B  084F               	movf	_TMR0_InterruptHandler^(0+384),w
 10214  094C  0450               	iorwf	(_TMR0_InterruptHandler+1)^(0+384),w
 10215  094D  1903               	btfsc	3,2
 10216  094E  2950               	goto	u309_21
 10217  094F  2951               	goto	u309_20
 10218  0950                     u309_21:
 10219  0950  2956               	goto	i1l638
 10220  0951                     u309_20:
 10221  0951                     i1l4291:
 10222                           
 10223                           ;mcc_generated_files/tmr0.c: 117:     {;mcc_generated_files/tmr0.c: 118:         TMR0_In
      +                          terruptHandler();
 10224  0951  0850               	movf	(_TMR0_InterruptHandler+1)^(0+384),w
 10225  0952  008A               	movwf	10
 10226  0953  084F               	movf	_TMR0_InterruptHandler^(0+384),w
 10227  0954  000A               	callw
 10228  0955  3189               	pagesel	$
 10229  0956                     i1l638:
 10230  0956  0008               	return
 10231  0957                     __end_of_TMR0_ISR:
 10232                           
 10233                           	psect	text42
 10234  07FD                     __ptext42:	
 10235 ;; *************** function _TMR0_DefaultInterruptHandler *****************
 10236 ;; Defined at:
 10237 ;;		line 129 in file "mcc_generated_files/tmr0.c"
 10238 ;; Parameters:    Size  Location     Type
 10239 ;;		None
 10240 ;; Auto vars:     Size  Location     Type
 10241 ;;		None
 10242 ;; Return value:  Size  Location     Type
 10243 ;;                  1    wreg      void 
 10244 ;; Registers used:
 10245 ;;		None
 10246 ;; Tracked objects:
 10247 ;;		On entry : 0/0
 10248 ;;		On exit  : 0/0
 10249 ;;		Unchanged: 0/0
 10250 ;; Data sizes:     COMMON   BANK0   BANK1   BANK2   BANK3   BANK4   BANK5   BANK6   BANK7   BANK8   BANK9  BANK10  BANK1
      +1  BANK12
 10251 ;;      Params:         0       0       0       0       0       0       0       0       0       0       0       0       
      +0       0
 10252 ;;      Locals:         0       0       0       0       0       0       0       0       0       0       0       0       
      +0       0
 10253 ;;      Temps:          0       0       0       0       0       0       0       0       0       0       0       0       
      +0       0
 10254 ;;      Totals:         0       0       0       0       0       0       0       0       0       0       0       0       
      +0       0
 10255 ;;Total ram usage:        0 bytes
 10256 ;; Hardware stack levels used:    1
 10257 ;; This function calls:
 10258 ;;		Nothing
 10259 ;; This function is called by:
 10260 ;;		_TMR0_Initialize
 10261 ;;		_TMR0_ISR
 10262 ;; This function uses a non-reentrant model
 10263 ;;
 10264                           
 10265                           
 10266                           ;psect for function _TMR0_DefaultInterruptHandler
 10267  07FD                     _TMR0_DefaultInterruptHandler:
 10268  07FD                     i1l644:	
 10269                           ;incstack = 0
 10270                           ; Regs used in _TMR0_DefaultInterruptHandler: []
 10271                           
 10272  07FD  0008               	return
 10273  07FE                     __end_of_TMR0_DefaultInterruptHandler:
 10274                           
 10275                           	psect	text43
 10276  090B                     __ptext43:	
 10277 ;; *************** function _PIN_MANAGER_IOC *****************
 10278 ;; Defined at:
 10279 ;;		line 113 in file "mcc_generated_files/pin_manager.c"
 10280 ;; Parameters:    Size  Location     Type
 10281 ;;		None
 10282 ;; Auto vars:     Size  Location     Type
 10283 ;;		None
 10284 ;; Return value:  Size  Location     Type
 10285 ;;                  1    wreg      void 
 10286 ;; Registers used:
 10287 ;;		wreg, status,2, status,0, pclath, cstack
 10288 ;; Tracked objects:
 10289 ;;		On entry : 0/0
 10290 ;;		On exit  : 0/0
 10291 ;;		Unchanged: 0/0
 10292 ;; Data sizes:     COMMON   BANK0   BANK1   BANK2   BANK3   BANK4   BANK5   BANK6   BANK7   BANK8   BANK9  BANK10  BANK1
      +1  BANK12
 10293 ;;      Params:         0       0       0       0       0       0       0       0       0       0       0       0       
      +0       0
 10294 ;;      Locals:         0       0       0       0       0       0       0       0       0       0       0       0       
      +0       0
 10295 ;;      Temps:          0       0       0       0       0       0       0       0       0       0       0       0       
      +0       0
 10296 ;;      Totals:         0       0       0       0       0       0       0       0       0       0       0       0       
      +0       0
 10297 ;;Total ram usage:        0 bytes
 10298 ;; Hardware stack levels used:    1
 10299 ;; Hardware stack levels required when called:    2
 10300 ;; This function calls:
 10301 ;;		_IOCAF5_ISR
 10302 ;; This function is called by:
 10303 ;;		_INTERRUPT_InterruptManager
 10304 ;; This function uses a non-reentrant model
 10305 ;;
 10306                           
 10307                           
 10308                           ;psect for function _PIN_MANAGER_IOC
 10309  090B                     _PIN_MANAGER_IOC:
 10310  090B                     i1l4281:	
 10311                           ;incstack = 0
 10312                           ; Regs used in _PIN_MANAGER_IOC: [wreg+status,2+status,0+pclath+cstack]
 10313                           
 10314                           
 10315                           ;mcc_generated_files/pin_manager.c: 116:     if(IOCAFbits.IOCAF5 == 1)
 10316  090B  0027               	movlb	7	; select bank7
 10317  090C  1E93               	btfss	19,5	;volatile
 10318  090D  290F               	goto	u308_21
 10319  090E  2910               	goto	u308_20
 10320  090F                     u308_21:
 10321  090F  2913               	goto	i1l598
 10322  0910                     u308_20:
 10323  0910                     i1l4283:
 10324                           
 10325                           ;mcc_generated_files/pin_manager.c: 117:     {;mcc_generated_files/pin_manager.c: 118:  
      +                                 IOCAF5_ISR();
 10326  0910  3189  2136  3189   	fcall	_IOCAF5_ISR
 10327  0913                     i1l598:
 10328  0913  0008               	return
 10329  0914                     __end_of_PIN_MANAGER_IOC:
 10330                           
 10331                           	psect	text44
 10332  0936                     __ptext44:	
 10333 ;; *************** function _IOCAF5_ISR *****************
 10334 ;; Defined at:
 10335 ;;		line 125 in file "mcc_generated_files/pin_manager.c"
 10336 ;; Parameters:    Size  Location     Type
 10337 ;;		None
 10338 ;; Auto vars:     Size  Location     Type
 10339 ;;		None
 10340 ;; Return value:  Size  Location     Type
 10341 ;;                  1    wreg      void 
 10342 ;; Registers used:
 10343 ;;		wreg, status,2, status,0, pclath, cstack
 10344 ;; Tracked objects:
 10345 ;;		On entry : 0/0
 10346 ;;		On exit  : 0/0
 10347 ;;		Unchanged: 0/0
 10348 ;; Data sizes:     COMMON   BANK0   BANK1   BANK2   BANK3   BANK4   BANK5   BANK6   BANK7   BANK8   BANK9  BANK10  BANK1
      +1  BANK12
 10349 ;;      Params:         0       0       0       0       0       0       0       0       0       0       0       0       
      +0       0
 10350 ;;      Locals:         0       0       0       0       0       0       0       0       0       0       0       0       
      +0       0
 10351 ;;      Temps:          0       0       0       0       0       0       0       0       0       0       0       0       
      +0       0
 10352 ;;      Totals:         0       0       0       0       0       0       0       0       0       0       0       0       
      +0       0
 10353 ;;Total ram usage:        0 bytes
 10354 ;; Hardware stack levels used:    1
 10355 ;; Hardware stack levels required when called:    1
 10356 ;; This function calls:
 10357 ;;		Absolute function
 10358 ;;		_IOCAF5_DefaultInterruptHandler
 10359 ;; This function is called by:
 10360 ;;		_PIN_MANAGER_IOC
 10361 ;; This function uses a non-reentrant model
 10362 ;;
 10363                           
 10364                           
 10365                           ;psect for function _IOCAF5_ISR
 10366  0936                     _IOCAF5_ISR:
 10367  0936                     i1l4077:	
 10368                           ;incstack = 0
 10369                           ; Regs used in _IOCAF5_ISR: [wreg+status,2+status,0+pclath+cstack]
 10370                           
 10371                           
 10372                           ;mcc_generated_files/pin_manager.c: 130:     if(IOCAF5_InterruptHandler)
 10373  0936  0023               	movlb	3	; select bank3
 10374  0937  0851               	movf	_IOCAF5_InterruptHandler^(0+384),w
 10375  0938  0452               	iorwf	(_IOCAF5_InterruptHandler+1)^(0+384),w
 10376  0939  1903               	btfsc	3,2
 10377  093A  293C               	goto	u281_21
 10378  093B  293D               	goto	u281_20
 10379  093C                     u281_21:
 10380  093C  2942               	goto	i1l4081
 10381  093D                     u281_20:
 10382  093D                     i1l4079:
 10383                           
 10384                           ;mcc_generated_files/pin_manager.c: 131:     {;mcc_generated_files/pin_manager.c: 132:  
      +                                 IOCAF5_InterruptHandler();
 10385  093D  0852               	movf	(_IOCAF5_InterruptHandler+1)^(0+384),w
 10386  093E  008A               	movwf	10
 10387  093F  0851               	movf	_IOCAF5_InterruptHandler^(0+384),w
 10388  0940  000A               	callw
 10389  0941  3189               	pagesel	$
 10390  0942                     i1l4081:
 10391                           
 10392                           ;mcc_generated_files/pin_manager.c: 134:     IOCAFbits.IOCAF5 = 0;
 10393  0942  0027               	movlb	7	; select bank7
 10394  0943  1293               	bcf	19,5	;volatile
 10395  0944                     i1l602:
 10396  0944  0008               	return
 10397  0945                     __end_of_IOCAF5_ISR:
 10398                           
 10399                           	psect	text45
 10400  07FE                     __ptext45:	
 10401 ;; *************** function _IOCAF5_DefaultInterruptHandler *****************
 10402 ;; Defined at:
 10403 ;;		line 147 in file "mcc_generated_files/pin_manager.c"
 10404 ;; Parameters:    Size  Location     Type
 10405 ;;		None
 10406 ;; Auto vars:     Size  Location     Type
 10407 ;;		None
 10408 ;; Return value:  Size  Location     Type
 10409 ;;                  1    wreg      void 
 10410 ;; Registers used:
 10411 ;;		None
 10412 ;; Tracked objects:
 10413 ;;		On entry : 0/0
 10414 ;;		On exit  : 0/0
 10415 ;;		Unchanged: 0/0
 10416 ;; Data sizes:     COMMON   BANK0   BANK1   BANK2   BANK3   BANK4   BANK5   BANK6   BANK7   BANK8   BANK9  BANK10  BANK1
      +1  BANK12
 10417 ;;      Params:         0       0       0       0       0       0       0       0       0       0       0       0       
      +0       0
 10418 ;;      Locals:         0       0       0       0       0       0       0       0       0       0       0       0       
      +0       0
 10419 ;;      Temps:          0       0       0       0       0       0       0       0       0       0       0       0       
      +0       0
 10420 ;;      Totals:         0       0       0       0       0       0       0       0       0       0       0       0       
      +0       0
 10421 ;;Total ram usage:        0 bytes
 10422 ;; Hardware stack levels used:    1
 10423 ;; This function calls:
 10424 ;;		Nothing
 10425 ;; This function is called by:
 10426 ;;		_PIN_MANAGER_Initialize
 10427 ;;		_IOCAF5_ISR
 10428 ;; This function uses a non-reentrant model
 10429 ;;
 10430                           
 10431                           
 10432                           ;psect for function _IOCAF5_DefaultInterruptHandler
 10433  07FE                     _IOCAF5_DefaultInterruptHandler:
 10434  07FE                     i1l608:	
 10435                           ;incstack = 0
 10436                           ; Regs used in _IOCAF5_DefaultInterruptHandler: []
 10437                           
 10438  07FE  0008               	return
 10439  07FF                     __end_of_IOCAF5_DefaultInterruptHandler:
 10440  007E                     btemp	set	126	;btemp
 10441  007E                     int$flags	set	126
 10442  007E                     wtemp0	set	126
 10443                           
 10444                           	psect	config
 10445                           
 10446                           ;Config register CONFIG1 @ 0x8007
 10447                           ;	Oscillator Selection Bits
 10448                           ;	FOSC = INTOSC, INTOSC oscillator: I/O function on CLKIN pin
 10449                           ;	Watchdog Timer Enable
 10450                           ;	WDTE = OFF, WDT disabled
 10451                           ;	Power-up Timer Enable
 10452                           ;	PWRTE = OFF, PWRT disabled
 10453                           ;	MCLR Pin Function Select
 10454                           ;	MCLRE = ON, MCLR/VPP pin function is MCLR
 10455                           ;	Flash Program Memory Code Protection
 10456                           ;	CP = OFF, Program memory code protection is disabled
 10457                           ;	Brown-out Reset Enable
 10458                           ;	BOREN = ON, Brown-out Reset enabled
 10459                           ;	Clock Out Enable
 10460                           ;	CLKOUTEN = OFF, CLKOUT function is disabled. I/O or oscillator function on the CLKOUT 
      +                          pin
 10461                           ;	Internal/External Switchover Mode
 10462                           ;	IESO = ON, Internal/External Switchover Mode is enabled
 10463                           ;	Fail-Safe Clock Monitor Enable
 10464                           ;	FCMEN = ON, Fail-Safe Clock Monitor is enabled
 10465  8007                     	org	32775
 10466  8007  3FE4               	dw	16356
 10467                           
 10468                           ;Config register CONFIG2 @ 0x8008
 10469                           ;	Flash Memory Self-Write Protection
 10470                           ;	WRT = OFF, Write protection off
 10471                           ;	CPU System Clock Selection Bit
 10472                           ;	CPUDIV = CLKDIV6, CPU system clock divided by 6
 10473                           ;	USB Low SPeed Clock Selection bit
 10474                           ;	USBLSCLK = 48MHz, System clock expects 48 MHz, FS/LS USB CLKENs divide-by is set to 8.
 10475                           ;	PLL Multipler Selection Bit
 10476                           ;	PLLMULT = 3x, 3x Output Frequency Selected
 10477                           ;	PLL Enable Bit
 10478                           ;	PLLEN = ENABLED, 3x or 4x PLL Enabled
 10479                           ;	Stack Overflow/Underflow Reset Enable
 10480                           ;	STVREN = ON, Stack Overflow or Underflow will cause a Reset
 10481                           ;	Brown-out Reset Voltage Selection
 10482                           ;	BORV = LO, Brown-out Reset Voltage (Vbor), low trip point selected.
 10483                           ;	Low-Power Brown Out Reset
 10484                           ;	LPBOR = OFF, Low-Power BOR is disabled
 10485                           ;	Low-Voltage Programming Enable
 10486                           ;	LVP = ON, Low-voltage programming enabled
 10487  8008                     	org	32776
 10488  8008  3FFF               	dw	16383

Data Sizes:
    Strings     0
    Constant    181
    Data        0
    BSS         266
    Persistent  32
    Stack       0

Auto Spaces:
    Space          Size  Autos    Used
    COMMON           14     14      14
    BANK0            16     16      16
    BANK1            48     21      43
    BANK2             0      0       0
    BANK3            64      2      64
    BANK4            80      4      58
    BANK5            80      0      64
    BANK6            80      0      64
    BANK7            80      0       0
    BANK8            80      0       0
    BANK9            80      0       0
    BANK10           80      0       0
    BANK11           80      0       0
    BANK12           48      0       0

Pointer List with Targets:

    USER_USB_CALLBACK_EVENT_HANDLER@pdata	PTR void  size(2) Largest target is 4096
		 -> RAM(DATA[4096]), USTATcopy(BANK1[1]), USBActiveConfiguration(BANK1[1]), NULL(NULL[0]), 
		 -> BDT(BANK0[48]), 

    ADC_InterruptHandler	PTR FTN()void  size(2) Largest target is 1
		 -> Absolute function(), 

    memset@dest	PTR void  size(2) Largest target is 48
		 -> USBAlternateInterface(BANK3[2]), BDT(BANK0[48]), 

    memset@s	PTR unsigned char  size(2) Largest target is 48
		 -> USBAlternateInterface(BANK3[2]), BDT(BANK0[48]), 

    memcpy@d1	PTR void  size(1) Largest target is 8
		 -> SetupPkt(BANK0[8]), 

    memcpy@d	PTR unsigned char  size(1) Largest target is 8
		 -> SetupPkt(BANK0[8]), 

    memcpy@s1	PTR const void  size(2) Largest target is 4096
		 -> CtrlTrfData(BANK0[8]), RAM(DATA[4096]), SetupPkt(BANK0[8]), 

    memcpy@s	PTR const unsigned char  size(2) Largest target is 4096
		 -> CtrlTrfData(BANK0[8]), RAM(DATA[4096]), SetupPkt(BANK0[8]), 

    CDCDataInHandle	PTR void  size(2) Largest target is 4096
		 -> RAM(DATA[4096]), NULL(NULL[0]), BDT(BANK0[48]), 

    CDCDataOutHandle	PTR void  size(2) Largest target is 4096
		 -> RAM(DATA[4096]), NULL(NULL[0]), BDT(BANK0[48]), 

    pCDCDst.wRom	PTR const unsigned short  size(2) Largest target is 0

    pCDCDst.bRom	PTR const unsigned char  size(2) Largest target is 0

    pCDCDst.wRam	PTR unsigned short  size(2) Largest target is 0

    pCDCDst.bRam	PTR unsigned char  size(2) Largest target is 0

    S2149_POINTER$wRom	PTR const unsigned short  size(2) Largest target is 0

    pCDCSrc.wRom	PTR const unsigned short  size(2) Largest target is 0

    S2149_POINTER$bRom	PTR const unsigned char  size(2) Largest target is 0

    pCDCSrc.bRom	PTR const unsigned char  size(2) Largest target is 0

    S2149_POINTER$wRam	PTR unsigned short  size(2) Largest target is 0

    pCDCSrc.wRam	PTR unsigned short  size(2) Largest target is 0

    S2149_POINTER$bRam	PTR unsigned char  size(2) Largest target is 0

    pCDCSrc.bRam	PTR unsigned char  size(2) Largest target is 0

    TMR0_InterruptHandler	PTR FTN()void  size(2) Largest target is 1
		 -> TMR0_DefaultInterruptHandler(), Absolute function(), 

    IOCAF5_InterruptHandler	PTR FTN()void  size(2) Largest target is 1
		 -> Absolute function(), IOCAF5_DefaultInterruptHandler(), 

    USBStdFeatureReqHandler@pUEP	PTR unsigned char  size(2) Largest target is 1
		 -> UEP0(SFR29[1]), 

    USBStdFeatureReqHandler@p	PTR struct __BDT size(2) Largest target is 4096
		 -> RAM(DATA[4096]), NULL(NULL[0]), BDT(BANK0[48]), 

    sp__memcpy	PTR void  size(1) Largest target is 8
		 -> SetupPkt(BANK0[8]), 

    USBStdGetStatusHandler@p	PTR struct __BDT size(2) Largest target is 4096
		 -> RAM(DATA[4096]), NULL(NULL[0]), BDT(BANK0[48]), 

    USB_SD_Ptr	const PTR const unsigned char [4] size(2) Largest target is 52
		 -> sd003(CODE[8]), sd002(CODE[22]), sd001(CODE[52]), sd000(CODE[4]), 

    USB_CD_Ptr	const PTR const unsigned char [1] size(2) Largest target is 67
		 -> configDescriptor1(CODE[67]), 

    sp__memset	PTR void  size(2) Largest target is 48
		 -> USBAlternateInterface(BANK3[2]), BDT(BANK0[48]), 

    USBStdSetCfgHandler@p	PTR unsigned char  size(2) Largest target is 1
		 -> UEP1(SFR29[1]), 

    pDst	PTR volatile unsigned char  size(1) Largest target is 8
		 -> CtrlTrfData(BANK0[8]), NULL(NULL[0]), 

    USBConfigureEndpoint@handle	PTR volatile struct __BDT size(1) Largest target is 48
		 -> BDT(BANK0[48]), 

    pBDTEntryEP0OutCurrent	PTR volatile struct __BDT size(1) Largest target is 48
		 -> NULL(NULL[0]), BDT(BANK0[48]), 

    pBDTEntryEP0OutNext	PTR volatile struct __BDT size(2) Largest target is 4096
		 -> RAM(DATA[4096]), NULL(NULL[0]), BDT(BANK0[48]), 

    USBTransferOnePacket@data	PTR unsigned char  size(2) Largest target is 64
		 -> cdc_data_tx(BIGRAM[64]), cdc_data_rx(BIGRAM[64]), NULL(NULL[0]), 

    sp__USBTransferOnePacket	PTR void  size(2) Largest target is 4096
		 -> RAM(DATA[4096]), NULL(NULL[0]), BDT(BANK0[48]), 

    USBTransferOnePacket@handle	PTR volatile struct __BDT size(2) Largest target is 4096
		 -> RAM(DATA[4096]), NULL(NULL[0]), BDT(BANK0[48]), 

    USBEnableEndpoint@p	PTR unsigned char  size(2) Largest target is 1
		 -> UEP0(SFR29[1]), 

    pBDTEntryOut	PTR volatile struct __BDT[3] size(2) Largest target is 4096
		 -> RAM(DATA[4096]), NULL(NULL[0]), BDT(BANK0[48]), 

    pBDTEntryIn	PTR volatile struct __BDT[3] size(2) Largest target is 4096
		 -> RAM(DATA[4096]), NULL(NULL[0]), BDT(BANK0[48]), 

    S342$pFunc	PTR FTN()void  size(2) Largest target is 0
		 -> NULL(NULL[0]), 

    outPipes.pFunc	PTR FTN()void  size(2) Largest target is 0
		 -> NULL(NULL[0]), 

    S332$wRam	PTR unsigned short  size(1) Largest target is 0

    outPipes.pDst.wRam	PTR unsigned short  size(1) Largest target is 0

    S332$bRam	PTR unsigned char  size(1) Largest target is 0

    outPipes.pDst.bRam	PTR unsigned char  size(1) Largest target is 0

    S308$wRom	PTR const unsigned short  size(1) Largest target is 0

    inPipes.pSrc.wRom	PTR const unsigned short  size(1) Largest target is 0

    S308$wRam	PTR unsigned short  size(1) Largest target is 0

    inPipes.pSrc.wRam	PTR unsigned short  size(1) Largest target is 0

    S308$bRom	PTR const unsigned char  size(1) Largest target is 0

    inPipes.pSrc.bRom	PTR const unsigned char  size(1) Largest target is 0

    S308$bRam	PTR unsigned char  size(1) Largest target is 0

    inPipes.pSrc.bRam	PTR unsigned char  size(1) Largest target is 0

    USBDeviceInit@p	PTR unsigned char  size(2) Largest target is 1
		 -> UEP1(SFR29[1]), 

    eeprom_readMem@byte	PTR unsigned char  size(1) Largest target is 1
		 -> byte(BANK3[1]), 

    eeprom_readByte@data	PTR unsigned char  size(1) Largest target is 1
		 -> byte(BANK3[1]), 

    eeprom_writePage@data	PTR unsigned char  size(1) Largest target is 32
		 -> data(BANK4[32]), 

    _readBit@data	PTR unsigned char  size(1) Largest target is 1
		 -> _readByte@ret(BANK1[1]), _writeByte@ack(BANK1[1]), 


Critical Paths under _main in COMMON

    None.

Critical Paths under _INTERRUPT_InterruptManager in COMMON

    _USBCtrlEPServiceComplete->_USBCtrlEPAllowDataStage
    _USBCtrlEPAllowDataStage->_USBCtrlTrfTxService
    _USBStdSetCfgHandler->_memset
    _USER_USB_CALLBACK_EVENT_HANDLER->_CDCInitEP
    _CDCInitEP->_USBEnableEndpoint
    _USBEnableEndpoint->_USBConfigureEndpoint
    _USBCtrlTrfOutHandler->_USBCtrlTrfRxService
    _USBCtrlTrfRxService->_USBCtrlEPAllowStatusStage
    _USBCtrlTrfInHandler->_USBCtrlTrfTxService

Critical Paths under _main in BANK0

    None.

Critical Paths under _INTERRUPT_InterruptManager in BANK0

    _USBWakeFromSuspend->_USER_USB_CALLBACK_EVENT_HANDLER
    _USBSuspend->_USER_USB_CALLBACK_EVENT_HANDLER
    _USBCtrlEPService->_USBCtrlTrfSetupHandler
    _USBCtrlTrfSetupHandler->_USBCheckStdRequest
    _USBCheckStdRequest->_USBStdFeatureReqHandler
    _USBStdSetCfgHandler->_USER_USB_CALLBACK_EVENT_HANDLER
    _USBStdFeatureReqHandler->_USER_USB_CALLBACK_EVENT_HANDLER

Critical Paths under _main in BANK1

    _main->_eeprom_writeByte
    _eeprom_writePage->_ACK_Poll
    _eeprom_writeByte->_ACK_Poll
    _ACK_Poll->__writeByte
    _eeprom_readMem->__readByte
    _eeprom_readMem->__writeByte
    _eeprom_readByte->__readByte
    _eeprom_readByte->__writeByte
    __writeByte->__readBit
    __readByte->__readBit

Critical Paths under _INTERRUPT_InterruptManager in BANK1

    _INTERRUPT_InterruptManager->_USBDeviceTasks
    _USBDeviceTasks->_USBCtrlEPService

Critical Paths under _main in BANK2

    None.

Critical Paths under _INTERRUPT_InterruptManager in BANK2

    None.

Critical Paths under _main in BANK3

    None.

Critical Paths under _INTERRUPT_InterruptManager in BANK3

    None.

Critical Paths under _main in BANK4

    _main->_eeprom_writePage

Critical Paths under _INTERRUPT_InterruptManager in BANK4

    None.

Critical Paths under _main in BANK5

    None.

Critical Paths under _INTERRUPT_InterruptManager in BANK5

    None.

Critical Paths under _main in BANK6

    None.

Critical Paths under _INTERRUPT_InterruptManager in BANK6

    None.

Critical Paths under _main in BANK7

    None.

Critical Paths under _INTERRUPT_InterruptManager in BANK7

    None.

Critical Paths under _main in BANK8

    None.

Critical Paths under _INTERRUPT_InterruptManager in BANK8

    None.

Critical Paths under _main in BANK9

    None.

Critical Paths under _INTERRUPT_InterruptManager in BANK9

    None.

Critical Paths under _main in BANK10

    None.

Critical Paths under _INTERRUPT_InterruptManager in BANK10

    None.

Critical Paths under _main in BANK11

    None.

Critical Paths under _INTERRUPT_InterruptManager in BANK11

    None.

Critical Paths under _main in BANK12

    None.

Critical Paths under _INTERRUPT_InterruptManager in BANK12

    None.

Call Graph Tables:

 ---------------------------------------------------------------------------------
 (Depth) Function   	        Calls       Base Space   Used Autos Params    Refs
 ---------------------------------------------------------------------------------
 (0) _main                                                 3     3      0    4627
                                             20 BANK1      1     1      0
                                              0 BANK3      2     2      0
                    _eeprom_readByte
                     _eeprom_readMem
                   _eeprom_writeByte
                   _eeprom_writePage
 ---------------------------------------------------------------------------------
 (1) _eeprom_writePage                                     9     6      3    1267
                                             14 BANK1      5     2      3
                                              0 BANK4      4     4      0
                           _ACK_Poll
                          __i2cstart
                           __i2cstop
                         __writeByte
 ---------------------------------------------------------------------------------
 (1) _eeprom_writeByte                                     6     3      3    1168
                                             14 BANK1      6     3      3
                           _ACK_Poll
                          __i2cstart
                           __i2cstop
                         __writeByte
 ---------------------------------------------------------------------------------
 (2) _ACK_Poll                                             2     2      0     418
                                             12 BANK1      2     2      0
                          __i2cstart
                           __i2cstop
                         __writeByte
 ---------------------------------------------------------------------------------
 (1) _eeprom_readMem                                       4     4      0     931
                                             12 BANK1      4     4      0
                          __i2cstart
                           __i2cstop
                          __readByte
                         __writeByte
 ---------------------------------------------------------------------------------
 (1) _eeprom_readByte                                      6     3      3    1131
                                             12 BANK1      6     3      3
                          __i2cstart
                           __i2cstop
                          __readByte
                         __writeByte
 ---------------------------------------------------------------------------------
 (2) __writeByte                                           6     6      0     381
                                              7 BANK1      5     5      0
                           __readBit
                          __writeBit
 ---------------------------------------------------------------------------------
 (2) __readByte                                            5     5      0     381
                                              7 BANK1      5     5      0
                           __readBit
                          __writeBit
 ---------------------------------------------------------------------------------
 (3) __writeBit                                            1     1      0      31
                                              5 BANK1      1     1      0
 ---------------------------------------------------------------------------------
 (3) __readBit                                             2     2      0     140
                                              5 BANK1      2     2      0
 ---------------------------------------------------------------------------------
 (2) __i2cstop                                             0     0      0       0
 ---------------------------------------------------------------------------------
 (2) __i2cstart                                            0     0      0       0
 ---------------------------------------------------------------------------------
 Estimated maximum stack depth 3
 ---------------------------------------------------------------------------------
 (Depth) Function   	        Calls       Base Space   Used Autos Params    Refs
 ---------------------------------------------------------------------------------
 (5) _INTERRUPT_InterruptManager                           0     0      0   39247
                    _PIN_MANAGER_IOC
                           _TMR0_ISR
                     _USBDeviceTasks
 ---------------------------------------------------------------------------------
 (6) _USBDeviceTasks                                       3     3      0   39247
                                              2 BANK1      3     3      0
          _USBCtrlEPAllowStatusStage
                   _USBCtrlEPService
                      _USBDeviceInit
      _USBIncrement1msInternalTimers
                    _USBStallHandler
                         _USBSuspend
                 _USBWakeFromSuspend
    _USER_USB_CALLBACK_EVENT_HANDLER
 ---------------------------------------------------------------------------------
 (7) _USBWakeFromSuspend                                   1     1      0    5136
                                              6 BANK0      1     1      0
    _USER_USB_CALLBACK_EVENT_HANDLER
 ---------------------------------------------------------------------------------
 (7) _USBSuspend                                           1     1      0    5136
                                              6 BANK0      1     1      0
    _USER_USB_CALLBACK_EVENT_HANDLER
 ---------------------------------------------------------------------------------
 (7) _USBStallHandler                                      1     1      0       0
                                              0 COMMON     1     1      0
 ---------------------------------------------------------------------------------
 (7) _USBIncrement1msInternalTimers                        1     1      0       0
                                              0 COMMON     1     1      0
 ---------------------------------------------------------------------------------
 (7) _USBDeviceInit                                        5     5      0     272
                                              0 COMMON     5     5      0
 ---------------------------------------------------------------------------------
 (7) _USBCtrlEPService                                     2     2      0   23499
                                              0 BANK1      2     2      0
                _USBCtrlTrfInHandler
               _USBCtrlTrfOutHandler
             _USBCtrlTrfSetupHandler
                             _memcpy
 ---------------------------------------------------------------------------------
 (8) _memcpy                                              10     6      4     363
                                              0 COMMON    10     6      4
 ---------------------------------------------------------------------------------
 (8) _USBCtrlTrfSetupHandler                               1     1      0   22907
                                             15 BANK0      1     1      0
                 _USBCheckStdRequest
           _USBCtrlEPServiceComplete
    _USER_USB_CALLBACK_EVENT_HANDLER
 ---------------------------------------------------------------------------------
 (9) _USBCtrlEPServiceComplete                             2     2      0      92
                                              5 COMMON     2     2      0
            _USBCtrlEPAllowDataStage
          _USBCtrlEPAllowStatusStage
 ---------------------------------------------------------------------------------
 (10) _USBCtrlEPAllowDataStage                             2     2      0      92
                                              3 COMMON     2     2      0
                _USBCtrlTrfTxService
 ---------------------------------------------------------------------------------
 (9) _USBCheckStdRequest                                   2     2      0   17679
                                             13 BANK0      2     2      0
            _USBStdFeatureReqHandler
                _USBStdGetDscHandler
             _USBStdGetStatusHandler
                _USBStdSetCfgHandler
    _USER_USB_CALLBACK_EVENT_HANDLER
 ---------------------------------------------------------------------------------
 (10) _USBStdSetCfgHandler                                 5     5      0    6890
                                              6 BANK0      5     5      0
    _USER_USB_CALLBACK_EVENT_HANDLER
                             _memset
 ---------------------------------------------------------------------------------
 (11) _memset                                             14     8      6    1519
                                              0 COMMON    14     8      6
 ---------------------------------------------------------------------------------
 (10) _USBStdGetStatusHandler                              4     4      0      46
                                              0 COMMON     4     4      0
 ---------------------------------------------------------------------------------
 (10) _USBStdGetDscHandler                                 3     3      0       0
                                              0 COMMON     3     3      0
 ---------------------------------------------------------------------------------
 (10) _USBStdFeatureReqHandler                             7     7      0    5607
                                              6 BANK0      7     7      0
    _USER_USB_CALLBACK_EVENT_HANDLER
 ---------------------------------------------------------------------------------
 (7) _USER_USB_CALLBACK_EVENT_HANDLER                      6     0      6    5136
                                              0 BANK0      6     0      6
                          _CDCInitEP
                 _USBCheckCDCRequest
 ---------------------------------------------------------------------------------
 (8) _USBCheckCDCRequest                                   2     2      0       0
                                              0 COMMON     2     2      0
 ---------------------------------------------------------------------------------
 (8) _CDCInitEP                                            1     1      0    2444
                                             13 COMMON     1     1      0
                  _USBEnableEndpoint
               _USBTransferOnePacket
 ---------------------------------------------------------------------------------
 (9) _USBTransferOnePacket                                11     7      4    1711
                                              0 COMMON    11     7      4
 ---------------------------------------------------------------------------------
 (9) _USBEnableEndpoint                                    6     5      1     733
                                              7 COMMON     6     5      1
               _USBConfigureEndpoint
 ---------------------------------------------------------------------------------
 (10) _USBConfigureEndpoint                                7     6      1     400
                                              0 COMMON     7     6      1
 ---------------------------------------------------------------------------------
 (8) _USBCtrlTrfOutHandler                                 2     2      0     114
                                              6 COMMON     2     2      0
                _USBCtrlTrfRxService
 ---------------------------------------------------------------------------------
 (9) _USBCtrlTrfRxService                                  4     4      0     114
                                              2 COMMON     4     4      0
          _USBCtrlEPAllowStatusStage
 ---------------------------------------------------------------------------------
 (10) _USBCtrlEPAllowStatusStage                           2     2      0       0
                                              0 COMMON     2     2      0
 ---------------------------------------------------------------------------------
 (8) _USBCtrlTrfInHandler                                  3     3      0     115
                                              3 COMMON     3     3      0
                _USBCtrlTrfTxService
 ---------------------------------------------------------------------------------
 (11) _USBCtrlTrfTxService                                 3     3      0      92
                                              0 COMMON     3     3      0
 ---------------------------------------------------------------------------------
 (6) _TMR0_ISR                                             0     0      0       0
                   Absolute function *
       _TMR0_DefaultInterruptHandler *
 ---------------------------------------------------------------------------------
 (7) _TMR0_DefaultInterruptHandler                         0     0      0       0
 ---------------------------------------------------------------------------------
 (6) _PIN_MANAGER_IOC                                      0     0      0       0
                         _IOCAF5_ISR
 ---------------------------------------------------------------------------------
 (7) _IOCAF5_ISR                                           0     0      0       0
                   Absolute function *
     _IOCAF5_DefaultInterruptHandler *
 ---------------------------------------------------------------------------------
 (8) _IOCAF5_DefaultInterruptHandler                       0     0      0       0
 ---------------------------------------------------------------------------------
 (7) Absolute function(Fake)                               0     0      0       0
 ---------------------------------------------------------------------------------
 Estimated maximum stack depth 11
 ---------------------------------------------------------------------------------

 Call Graph Graphs:

 _main (ROOT)
   _eeprom_readByte
     __i2cstart
     __i2cstop
     __readByte
       __readBit
       __writeBit
     __writeByte
       __readBit
       __writeBit
   _eeprom_readMem
     __i2cstart
     __i2cstop
     __readByte
       __readBit
       __writeBit
     __writeByte
       __readBit
       __writeBit
   _eeprom_writeByte
     _ACK_Poll
       __i2cstart
       __i2cstop
       __writeByte
         __readBit
         __writeBit
     __i2cstart
     __i2cstop
     __writeByte
       __readBit
       __writeBit
   _eeprom_writePage
     _ACK_Poll
       __i2cstart
       __i2cstop
       __writeByte
         __readBit
         __writeBit
     __i2cstart
     __i2cstop
     __writeByte
       __readBit
       __writeBit

 _INTERRUPT_InterruptManager (ROOT)
   _PIN_MANAGER_IOC
     _IOCAF5_ISR
       Absolute function(Fake) *
       _IOCAF5_DefaultInterruptHandler *
   _TMR0_ISR
     Absolute function(Fake) *
     _TMR0_DefaultInterruptHandler *
   _USBDeviceTasks
     _USBCtrlEPAllowStatusStage
     _USBCtrlEPService
       _USBCtrlTrfInHandler
         _USBCtrlTrfTxService
       _USBCtrlTrfOutHandler
         _USBCtrlTrfRxService
           _USBCtrlEPAllowStatusStage
       _USBCtrlTrfSetupHandler
         _USBCheckStdRequest
           _USBStdFeatureReqHandler
             _USER_USB_CALLBACK_EVENT_HANDLER
               _CDCInitEP
                 _USBEnableEndpoint
                   _USBConfigureEndpoint
                 _USBTransferOnePacket
               _USBCheckCDCRequest
           _USBStdGetDscHandler
           _USBStdGetStatusHandler
           _USBStdSetCfgHandler
             _USER_USB_CALLBACK_EVENT_HANDLER
               _CDCInitEP
                 _USBEnableEndpoint
                   _USBConfigureEndpoint
                 _USBTransferOnePacket
               _USBCheckCDCRequest
             _memset
           _USER_USB_CALLBACK_EVENT_HANDLER
             _CDCInitEP
               _USBEnableEndpoint
                 _USBConfigureEndpoint
               _USBTransferOnePacket
             _USBCheckCDCRequest
         _USBCtrlEPServiceComplete
           _USBCtrlEPAllowDataStage
             _USBCtrlTrfTxService
           _USBCtrlEPAllowStatusStage
         _USER_USB_CALLBACK_EVENT_HANDLER
           _CDCInitEP
             _USBEnableEndpoint
               _USBConfigureEndpoint
             _USBTransferOnePacket
           _USBCheckCDCRequest
       _memcpy
     _USBDeviceInit
     _USBIncrement1msInternalTimers
     _USBStallHandler
     _USBSuspend
       _USER_USB_CALLBACK_EVENT_HANDLER
         _CDCInitEP
           _USBEnableEndpoint
             _USBConfigureEndpoint
           _USBTransferOnePacket
         _USBCheckCDCRequest
     _USBWakeFromSuspend
       _USER_USB_CALLBACK_EVENT_HANDLER
         _CDCInitEP
           _USBEnableEndpoint
             _USBConfigureEndpoint
           _USBTransferOnePacket
         _USBCheckCDCRequest
     _USER_USB_CALLBACK_EVENT_HANDLER
       _CDCInitEP
         _USBEnableEndpoint
           _USBConfigureEndpoint
         _USBTransferOnePacket
       _USBCheckCDCRequest

 Address spaces:
Name               Size   Autos  Total    Cost      Usage
BIGRAM             3F0      0       0       0        0.0%
NULL                 0      0       0       0        0.0%
CODE                 0      0       0       0        0.0%
BITCOMMON            E      0       0       1        0.0%
BITSFR0              0      0       0       1        0.0%
SFR0                 0      0       0       1        0.0%
COMMON               E      E       E       2      100.0%
BITSFR1              0      0       0       2        0.0%
SFR1                 0      0       0       2        0.0%
BITSFR2              0      0       0       3        0.0%
SFR2                 0      0       0       3        0.0%
STACK                0      0       0       3        0.0%
BITBANK0            10      0       0       4        0.0%
BITSFR3              0      0       0       4        0.0%
SFR3                 0      0       0       4        0.0%
BANK0               10     10      10       5      100.0%
BITSFR4              0      0       0       5        0.0%
SFR4                 0      0       0       5        0.0%
BITBANK1            50      0       0       6        0.0%
BITSFR5              0      0       0       6        0.0%
SFR5                 0      0       0       6        0.0%
BANK1               30     15      2B       7       89.6%
BITSFR6              0      0       0       7        0.0%
SFR6                 0      0       0       7        0.0%
BITBANK2            50      0       0       8        0.0%
BITSFR7              0      0       0       8        0.0%
SFR7                 0      0       0       8        0.0%
BITSFR8              0      0       0       9        0.0%
SFR8                 0      0       0       9        0.0%
BANK2                0      0       0       9        0.0%
BITBANK3            50      0       0      10        0.0%
BITSFR9              0      0       0      10        0.0%
SFR9                 0      0       0      10        0.0%
BANK3               40      2      40      11      100.0%
BITSFR10             0      0       0      11        0.0%
SFR10                0      0       0      11        0.0%
BITBANK4            50      0       0      12        0.0%
BITSFR11             0      0       0      12        0.0%
SFR11                0      0       0      12        0.0%
BANK4               50      4      3A      13       72.5%
BITSFR12             0      0       0      13        0.0%
SFR12                0      0       0      13        0.0%
BITBANK5            50      0       0      14        0.0%
BITSFR13             0      0       0      14        0.0%
SFR13                0      0       0      14        0.0%
BANK5               50      0      40      15       80.0%
BITSFR14             0      0       0      15        0.0%
SFR14                0      0       0      15        0.0%
BITBANK6            50      0       0      16        0.0%
BITSFR15             0      0       0      16        0.0%
SFR15                0      0       0      16        0.0%
BANK6               50      0      40      17       80.0%
BITSFR16             0      0       0      17        0.0%
SFR16                0      0       0      17        0.0%
BITBANK7            50      0       0      18        0.0%
BITSFR17             0      0       0      18        0.0%
SFR17                0      0       0      18        0.0%
BANK7               50      0       0      19        0.0%
BITSFR18             0      0       0      19        0.0%
SFR18                0      0       0      19        0.0%
BITSFR19             0      0       0      20        0.0%
SFR19                0      0       0      20        0.0%
ABS                  0      0     143      20        0.0%
BITBANK8            50      0       0      21        0.0%
BITSFR20             0      0       0      21        0.0%
SFR20                0      0       0      21        0.0%
BANK8               50      0       0      22        0.0%
BITSFR21             0      0       0      22        0.0%
SFR21                0      0       0      22        0.0%
BITBANK9            50      0       0      23        0.0%
BITSFR22             0      0       0      23        0.0%
SFR22                0      0       0      23        0.0%
BANK9               50      0       0      24        0.0%
BITSFR23             0      0       0      24        0.0%
SFR23                0      0       0      24        0.0%
BITBANK10           50      0       0      25        0.0%
BITSFR24             0      0       0      25        0.0%
SFR24                0      0       0      25        0.0%
BANK10              50      0       0      26        0.0%
BITSFR25             0      0       0      26        0.0%
SFR25                0      0       0      26        0.0%
BITBANK11           50      0       0      27        0.0%
BITSFR26             0      0       0      27        0.0%
SFR26                0      0       0      27        0.0%
BANK11              50      0       0      28        0.0%
BITSFR27             0      0       0      28        0.0%
SFR27                0      0       0      28        0.0%
BITBANK12           30      0       0      29        0.0%
BITSFR28             0      0       0      29        0.0%
SFR28                0      0       0      29        0.0%
BANK12              30      0       0      30        0.0%
BITSFR29             0      0       0      30        0.0%
SFR29                0      0       0      30        0.0%
BITSFR30             0      0       0      31        0.0%
SFR30                0      0       0      31        0.0%
DATA                 0      0     143      31        0.0%
BITSFR31             0      0       0      32        0.0%
SFR31                0      0       0      32        0.0%


Microchip Technology PIC Macro Assembler V2.31 build 20201012212115 
Symbol Table                                                                                   Sat Apr 03 17:26:07 2021

                              _USB_SD_Ptr 109F                                        l31 091E  
                                      l17 0C14                                        l34 0929  
                                      l43 0998                                        l37 0964  
                                      l53 0A69                                        l61 0A41  
                                      l38 0966                                        l70 0B1B  
                                      l39 0969                                        l48 0A91  
                                      l65 0CA9                                        l58 097D  
                                      l75 0C13                             _USBDeviceInit 0457  
                      __size_of_CDCInitEP 0037                           _timer0ReloadVal 01D9  
    USER_USB_CALLBACK_EVENT_HANDLER@event 0060      USER_USB_CALLBACK_EVENT_HANDLER@pdata 0062  
             __end_of_USBStdGetDscHandler 06BC                                       _BDT 0020  
                                     _UIE 0E92                                       _UIR 0E90  
                              _USBSuspend 09B5                      USBStdSetCfgHandler@i 006A  
                    USBStdSetCfgHandler@p 0067                                       wreg 0009  
                          _USBDeviceTasks 01C7                            _USBDeviceState 00B3  
                   ??_USBCtrlTrfRxService 0072                  USBEnableEndpoint@options 0077  
                                    l5001 097A                USBConfigureEndpoint@handle 0076  
                                    l5101 0BDD                                      l5111 0BEB  
                                    l5103 0BE1                                      l5113 0BF7  
                                    l5105 0BE8                                      l5041 0C7F  
                                    l5033 0C6F                                      l5025 0C5B  
                                    l5115 0BFB                                      l5051 0C94  
                                    l5035 0C72                                      l5027 0C5B  
                                    l5117 0C04                                      l5061 0A25  
                                    l5053 0CA3                                      l5037 0C76  
                                    l5029 0C61                                      l5119 0C10  
                                    l5071 0A3B                                      l5063 0A28  
                                    l5055 0CA6                                      l5047 0C82  
                                    l5039 0C7A                                      l5231 0C23  
                                    l5223 0C14                                      l5081 0AF7  
                                    l5073 0A3E                                      l5065 0A2C  
                                    l5057 0A1C                                      l5049 0C8F  
                                    l5233 0C28                                      l5091 0B0C  
                                    l5083 0AFB                                      l5075 0AEB  
                                    l5067 0A31                                      l5059 0A21  
                                    l5235 0C31                                      l5093 0B18  
                                    l5085 0B00                                      l5077 0AF0  
                                    l5069 0A36                                      l5229 0C17  
                                    l5087 0B05                                      l5079 0AF4  
                                    l5095 0BD2                                      l5089 0B08  
                                    l5097 0BD5                                      l5099 0BD9  
                                    l4921 0914                                      l4923 091F  
                                    l4941 0A8B                                      l4933 0A70  
                                    l4925 0A6C                                      l4871 0984  
                                    l4863 0959                                      l4943 0A8F  
                                    l4935 0A75                                      l4927 0A6E  
                                    l4873 098C                                      l4865 095C  
                                    l4937 0A7A                                      l4875 0991  
                                    l4867 0961                                      l4939 0A7E  
                                    l4877 0996                                      l4869 0980  
                                    l4981 0A4C                                      l4973 0A44  
                                    l4983 0A50                                      l4985 0A55  
                                    l4993 096A                                      l4987 0A62  
                                    l4979 0A47                                      l4995 096A  
                                    l4989 0A67                                      l4997 096D  
                                    l4999 0975                                      _LATA 010C  
                                    _LATB 010D                                      _LATC 010E  
                                    u4010 0C31                                      u4011 0C30  
                                    u3700 097A                                      u3701 0979  
                                    u3650 0961                                      u3651 0960  
                                    u3660 0991                                      u3661 0990  
                                    u3750 0C6E                                      u3751 0C6D  
                                    u3680 0A8B                                      u3760 0CA3  
                                    u3681 0A8A                                      u3761 0CA2  
                                    u3690 0A62                                      u3770 0C04  
                                    u3691 0A61                                      u3771 0C03  
                                    u3685 0A87                                      u3765 0C9F  
                                    u3695 0A5E                     ??_USBCtrlTrfTxService 0070  
                                    _UCFG 0E91                                      _UEP0 0E98  
                                    _UEP1 0E99                                      _UEIE 0E97  
               __size_of_eeprom_writePage 004F                 __size_of_eeprom_writeByte 0026  
                                    _UEIR 0E93                                      _UCON 0E8E  
                                    _TMR0 0015                                      _WPUA 020C  
                                    _WPUB 020D                        eeprom_readMem@byte 00C3  
                         _CDCDataInHandle 01C7    USBStdFeatureReqHandler@current_ep_data 006A  
                                    _pDst 01E3                                      _data 022E  
                                    _main 0C14                                      _byte 01ED  
                          __writeBit@data 00BB                                      fsr0h 0005  
                                    fsr1h 0007                                      indf0 0000  
                                    fsr0l 0004                                      indf1 0001  
                             _BaudRateGen 022A                                      fsr1l 0006  
                                    btemp 007E                                      start 0032  
                        __end_of_ACK_Poll 097E                __end_of_USBCheckStdRequest 0744  
                  ??_USBCtrlTrfOutHandler 0076                 ??_USBStdFeatureReqHandler 0066  
                ??_USBStdGetStatusHandler 0070                            __writeByte@ack 00C1  
                          ?_USBDeviceInit 0070            ??_TMR0_DefaultInterruptHandler 0070  
                     __size_of_IOCAF5_ISR 000F                               _writeBuffer 0320  
                                   ?_main 0070         __size_of_USBCtrlEPServiceComplete 00A3  
                  __end_of_USBDeviceTasks 02E0                 ?_USBCtrlEPServiceComplete 0070  
                                   i1l300 01F4                                     i1l301 02DF  
                                   i1l310 0278                                     i1l311 02DD  
                                   i1l312 027F                                     i1l410 044C  
                                   i1l402 03C2                                     i1l330 07CA  
                                   i1l306 023F                                     i1l412 0456  
                                   i1l324 0A1B                                     i1l421 0630  
                                   i1l501 06C6                                     i1l510 06FC  
                                   i1l360 0F04                                     i1l602 0944  
                                   i1l442 0E0E                                     i1l371 0BCF  
                                   i1l435 06BB                                     i1l443 0DC5  
                                   i1l356 0F04                                     i1l444 0DC8  
                                   i1l366 0DB5                                     i1l374 0550  
                                   i1l294 0500                                     i1l454 0ABC  
                                   i1l535 017F                                     i1l439 0DBA  
                                   i1l471 0D55                                     i1l463 09F6  
                                   i1l608 07FE                                     i1l384 05A3  
                                   i1l544 09B4                                     i1l481 0B8C  
                                   i1l537 0192                                     i1l449 0E1C  
                                   i1l289 0498                                     i1l457 09D4  
                                   i1l474 0CFF                                     i1l387 0FA4  
                                   i1l715 0E8B                                     i1l539 01C6  
                                   i1l644 07FD                                     i1l661 0012  
                                   i1l638 0956                                     i1l494 0F7B  
                                   i1l822 07FC                                     i1l399 0FFF  
                                   i1l495 0F7E                                     i1l487 0F74  
                                   i1l663 001E                                     i1l728 0B52  
                                   i1l664 0030                                     i1l499 0743  
                                   i1l669 0030                                     i1l598 0913  
                                   _UADDR 0E96                                     _TRISA 008C  
                                   _TRISB 008D                                     _TRISC 008E  
                                   _USTAT 0E8F        __size_of_USBCtrlEPAllowStatusStage 0079  
         __end_of_USBCtrlEPAllowDataStage 0DB6                          __end_of_TMR0_ISR 0957  
                                   _sd000 10AF                                     _sd001 1043  
                                   _sd002 1077                                     _sd003 10A7  
          ?_USBIncrement1msInternalTimers 0070                   __end_of_PIN_MANAGER_IOC 0914  
                                   main@i 01EE                       eeprom_readByte@data 00C4  
                                   pclath 000A                         __end_of_CDCInitEP 0B53  
                                   status 0003                                     wtemp0 007E  
            __size_of_USBStdSetCfgHandler 008D                           __initialization 0034  
                            __end_of_main 0C5B                     _control_signal_bitmap 01D5  
             ?_INTERRUPT_InterruptManager 0070                 __size_of_USBCtrlEPService 0056  
                         __writeByte@data 00BE                                    ??_main 00CA  
                         ?_USBDeviceTasks 0070                          __end_of__i2cstop 092A  
                             ?_USBSuspend 0070                              _cdc_mem_type 01D6  
                                  _ADCON0 009D                                    _ADCON1 009E  
                                  _ADCON2 009F                          _CDCDataOutHandle 01C9  
                        ??_eeprom_readMem 00C2                                    _ACTCON 039B  
                                  _ADRESH 009C                                    _ADRESL 009B  
                                  _APFCON 011D                                    _ANSELA 018C  
                                  _ANSELB 018D                                    _ANSELC 018E  
                                  _BORCON 0116                                    i1l4001 04F2  
                                  i1l3211 0E46                                    i1l3203 0E3A  
                                  i1l4003 04F4                                    i1l4011 09D7  
                                  i1l3301 0FD9                                    i1l3141 0BB4  
                                  i1l3133 0B8E                                    i1l3221 0E5C  
                                  i1l3213 0E4B                                    i1l3205 0E3F  
                                  i1l4005 04FD                                    i1l4021 09F4  
                                  i1l4013 09E6                                    i1l3311 0FF8  
                                  i1l3303 0FDB                                    i1l3143 0BBE  
                                  i1l3135 0B92                                    i1l3151 09FC  
                                  i1l3223 0E61                                    i1l3215 0E4D  
                                  i1l3207 0E43                                    i1l1383 0AEA  
                                  i1l4007 04FE                                    i1l4031 09C4  
                                  i1l4023 09B5                                    i1l4015 09E8  
                                  i1l3305 0FE1                                    i1l3313 0FFA  
                                  i1l3145 0BC6                                    i1l3137 0BAB  
                                  i1l3153 0A01                                    i1l3161 0745  
                                  i1l3241 0B25                                    i1l3225 0E65  
                                  i1l3217 0E58                                    i1l3209 0E44  
                                  i1l3233 0E72                                    i1l3401 0D79  
                                  i1l4041 09B0                                    i1l4033 09C5  
                                  i1l4025 09B7                                    i1l4017 09EA  
                                  i1l4009 09D5                                    i1l3307 0FEE  
                                  i1l3147 0BCA                                    i1l3139 0BAF  
                                  i1l3155 0A05                                    i1l3163 074A  
                                  i1l3251 0B3C                                    i1l3243 0B26  
                                  i1l3227 0E6A                                    i1l3219 0E5A  
                                  i1l1387 03A9                                    i1l3411 0D9C  
                                  i1l3403 0D7F                                    i1l5011 0D20  
                                  i1l5003 0D00                                    i1l4035 0999  
                                  i1l4051 0AB6                                    i1l4043 0A92  
                                  i1l4027 09BD                                    i1l4019 09F0  
                                  i1l3309 0FF3                                    i1l3157 0A0B  
                                  i1l3149 09F8                                    i1l3181 0797  
                                  i1l3173 0765                                    i1l3165 0753  
                                  i1l3253 0B4E                                    i1l3245 0B2B  
                                  i1l3229 0E6F                                    i1l3261 07D0  
                                  i1l3413 0DAA                                    i1l3405 0D85  
                                  i1l5013 0D26                                    i1l5021 0D49  
                                  i1l5005 0D06                                    i1l4037 09A2  
                                  i1l4045 0A97                                    i1l4053 0AB8  
                                  i1l4029 09BE                                    i1l3159 0A15  
                                  i1l3183 07AE                                    i1l3175 0774  
                                  i1l3167 075C                                    i1l3255 0B50  
                                  i1l3247 0B2C                                    i1l3239 0B1C  
                                  i1l3511 0DC2                                    i1l3415 0DB0  
                                  i1l3407 0D92                                    i1l5023 0D52  
                                  i1l5015 0D31                                    i1l5007 0D0D  
                                  i1l4039 09A7                                    i1l4047 0AA1  
                                  i1l4081 0942                                    i1l3281 0F96  
                                  i1l3361 0E96                                    i1l3185 07C6  
                                  i1l3177 0780                                    i1l3169 0762  
                                  i1l3249 0B34                                    i1l3193 0E26  
                                  i1l3265 07D4                                    i1l3257 07CB  
                                  i1l3601 0167                                    i1l3521 0DF5  
                                  i1l3513 0DCF                                    i1l3505 0DB6  
                                  i1l3409 0D99                                    i1l5017 0D41  
                                  i1l5009 0D1A                                    i1l4049 0AAB  
                                  i1l5201 0284                                    i1l5121 01C7  
                                  i1l3291 0FBC                                    i1l3283 0F9B  
                                  i1l3275 0F7F                                    i1l3371 0EB2  
                                  i1l3363 0E9B                                    i1l3179 0792  
                                  i1l3259 07CC                                    i1l3611 018B  
                                  i1l3603 016C                                    i1l3531 0E18  
                                  i1l3515 0DDB                                    i1l5019 0D45  
                                  i1l5211 02AB                                    i1l5203 0289  
                                  i1l5131 01D5                                    i1l5123 01CD  
                                  i1l4077 0936                                    i1l3285 0FA0  
                                  i1l3277 0F8D                                    i1l3381 0ED3  
                                  i1l3373 0EB8                                    i1l3365 0E9F  
                                  i1l3357 0E8C                                    i1l3701 03CB  
                                  i1l3197 0E2F                                    i1l3189 0E1D  
                                  i1l3613 019A                                    i1l3605 0173  
                                  i1l3541 007C                                    i1l3517 0DE5  
                                  i1l3509 0DBC                                    i1l3525 0DFA  
                                  i1l5221 02D7                                    i1l5213 02BA  
                                  i1l5205 0291                                    i1l5141 01EC  
                                  i1l5125 01D2                                    i1l5133 01DA  
                                  i1l4079 093D                                    i1l3295 0FC2  
                                  i1l3287 0FAB                                    i1l3279 0F91  
                                  i1l3391 0EFD                                    i1l3383 0EDA  
                                  i1l3375 0EBD                                    i1l3367 0EA6  
                                  i1l3359 0E92                                    i1l3711 03EB  
                                  i1l3703 03D7                                    i1l3199 0E34  
                                  i1l3615 01AA                                    i1l3607 0177  
                                  i1l3551 0093                                    i1l3543 007E  
                                  i1l3471 0638                                    i1l3527 0E13  
                                  i1l3519 0DED                                    i1l5215 02BF  
                                  i1l5207 0296                                    i1l5151 0201  
                                  i1l5143 01F1                                    i1l5135 01DF  
                                  i1l5127 01D3                                    i1l4281 090B  
                                  i1l3297 0FCF                                    i1l3289 0FB7  
                                  i1l3385 0EDE                                    i1l3377 0EBF  
                                  i1l3369 0EAC                                    i1l3713 03F8  
                                  i1l3721 0424                                    i1l3705 03DB  
                                  i1l3617 01B2                                    i1l3609 0183  
                                  i1l3561 00B7                                    i1l3553 009A  
                                  i1l3545 0085                                    i1l3537 006F  
                                  i1l3481 065D                                    i1l3473 063E  
                                  i1l3529 0E17                                    i1l3393 0D56  
                                  i1l3641 050D                                    i1l5217 02C3  
                                  i1l5209 029B                                    i1l5161 0215  
                                  i1l5153 0205                                    i1l5145 01F8  
                                  i1l5137 01E3                                    i1l5129 01D4  
                                  i1l5241 000E                                    i1l4283 0910  
                                  i1l4291 0951                                    i1l3299 0FD4  
                                  i1l3387 0EE3                                    i1l3379 0EC7  
                                  i1l3731 044D                                    i1l3723 0431  
                                  i1l3715 0405                                    i1l3707 03DF  
                                  i1l3619 01BE                                    i1l3571 00F6  
                                  i1l3563 00CD                                    i1l3555 00A1  
                                  i1l3547 008B                                    i1l3539 0075  
                                  i1l3491 0695                                    i1l3483 066C  
                                  i1l3475 0643                                    i1l3395 0D59  
                                  i1l3643 0512                                    i1l3651 051F  
                                  i1l3811 0ADA                                    i1l3803 0ABE  
                                  i1l5219 02D2                                    i1l5171 0237  
                                  i1l5163 021A                                    i1l5147 01FC  
                                  i1l5155 020A                                    i1l5139 01E9  
                                  i1l5251 002C                                    i1l5243 0016  
                                  i1l4285 0945                                    i1l3389 0EF0  
                                  i1l3733 0453                                    i1l3725 043E  
                                  i1l3717 040C                                    i1l3709 03E5  
                                  i1l3581 011E                                    i1l3573 00FA  
                                  i1l3565 00E1                                    i1l3557 00AA  
                                  i1l3549 008D                                    i1l3493 06A1  
                                  i1l3485 067C                                    i1l3477 0648  
                                  i1l3469 0631                                    i1l3397 0D60  
                                  i1l3661 054A                                    i1l3653 052C  
                                  i1l3645 0518                                    i1l3637 0501  
                                  i1l3805 0AC7                                    i1l3813 0ADE  
                                  i1l5181 0250                                    i1l5173 023D  
                                  i1l5165 021E                                    i1l5157 020E  
                                  i1l5149 01FF                                    i1l5245 001A  
                                  i1l5237 0006                                    i1l4287 0946  
                                  i1l3727 0444                                    i1l3719 0418  
                                  i1l3583 0122                                    i1l3591 013C  
                                  i1l3575 0106                                    i1l3567 00E5  
                                  i1l3559 00B1                                    i1l3495 06A4  
                                  i1l3487 067F                                    i1l3479 064D  
                                  i1l3399 0D6C                                    i1l3671 0565  
                                  i1l3663 0555                                    i1l3655 0539  
                                  i1l3647 051B                                    i1l3639 0508  
                                  i1l3807 0ACF                                    i1l5191 026E  
                                  i1l5183 0253                                    i1l5175 0244  
                                  i1l5167 022E                                    i1l5159 0212  
                                  i1l5247 0022                                    i1l5239 000A  
                                  u204_20 0E92                                    u220_20 0E13  
                                  i1l4289 094A                                    u204_21 0E91  
                                  i1l3729 0449                                    i1l3841 0B53  
                                  i1l3593 0142                                    i1l3585 012A  
                                  i1l3577 0110                                    i1l3569 00F0  
                                  i1l3489 0685                                    u220_21 0E12  
                                  i1l4801 0390                                    i1l3681 0581  
                                  i1l3673 0566                                    i1l3665 055A  
                                  i1l3657 053F                                    i1l3649 051D  
                                  i1l3809 0AD3                                    i1l5193 0275  
                                  i1l5185 0258                                    i1l5169 0234  
                                  i1l5177 0247                                    i1l5249 0027  
                                  i1l3851 0B72                                    i1l3843 0B5A  
                                  i1l3595 014A                                    i1l3587 0131  
                                  i1l3579 0116                                    i1l3499 06A7  
                                  i1l4803 0395                                    i1l4811 05A4  
                                  i1l3683 058E                                    i1l3675 056C  
                                  i1l3667 0560                                    i1l3659 0544  
                                  i1l3923 0457                                    i1l5195 027D  
                                  i1l5187 025C                                    i1l5179 024C  
                                  i1l3861 0F0E                                    i1l3693 03AA  
                                  i1l3853 0B7F                                    i1l3845 0B5E  
                                  i1l5381 07F7                                    i1l3597 0152  
                                  i1l3589 0136                                    i1l4805 039B  
                                  i1l4821 05B1                                    i1l4813 05AB  
                                  i1l5373 0720                                    i1l4901 06ED  
                                  i1l3685 0594                                    i1l3669 0563  
                                  i1l3677 0570                                    i1l3941 0475  
                                  i1l3933 0462                                    i1l3925 0459  
                                  i1l5189 026C                                    i1l3871 0F2A  
                                  i1l3863 0F14                                    i1l3695 03B0  
                                  i1l3855 0B85                                    i1l3847 0B5F  
                                  i1l5383 0E7A                                    i1l3599 0157  
                                  i1l5375 0E03                                    i1l4807 039F  
                                  i1l4831 05CF                                    i1l4823 05B5  
                                  i1l4911 0709                                    i1l4903 06F3  
                                  i1l3687 0599                                    i1l3679 0575  
                                  i1l3951 048E                                    i1l3943 047C  
                                  i1l3935 0467                                    i1l3927 045D  
                                  u205_20 0E9B                                    u221_20 0075  
                                  u213_20 0638                                    i1l3881 0F4B  
                                  i1l3865 0F1A                                    i1l3873 0F2F  
                                  u205_21 0E9A                                    i1l3697 03BE  
                                  i1l3849 0B65                                    i1l3857 0B8B  
                                  u221_21 0074                                    i1l5377 06B0  
                                  u213_21 0637                                    i1l4809 03A3  
                                  i1l4841 05E1                                    i1l4825 05B9  
                                  i1l4905 06F4                                    i1l3689 059B  
                                  i1l3961 049D                                    i1l3953 0492  
                                  i1l3937 046B                                    i1l3891 0F7C  
                                  i1l3883 0F57                                    i1l3875 0F34  
                                  i1l3867 0F1F                                    i1l3859 0F05  
                                  i1l3699 03C9                                    i1l5379 07DD  
                                  i1l4771 02E4                                    i1l4851 0602  
                                  i1l4843 05E7                                    i1l4827 05BF  
                                  i1l4819 05AC                                    i1l4907 06FA  
                                  i1l4915 0718                                    i1l3971 04AC  
                                  i1l3963 04A1                                    i1l3955 049A  
                                  i1l3939 046F                                    i1l3885 0F5C  
                                  i1l3877 0F41                                    i1l3869 0F24  
                                  i1l4861 062A                                    i1l4853 0608  
                                  i1l4845 05F5                                    i1l4837 05D1  
                                  i1l4829 05CD                                    i1l4909 06FE  
                                  i1l3973 04B5                                    i1l3965 04A3  
                                  i1l3957 049B                                    i1l3949 047D  
                                  i1l3887 0F68                                    i1l3879 0F44  
                                  i1l4791 0371                                    i1l4783 030D  
                                  i1l4775 02EB                                    i1l4855 060E  
                                  i1l4847 05F7                                    i1l4839 05DD  
                                  i1l4951 0CBE                                    i1l3991 04E3  
                                  i1l3983 04B9                                    i1l3975 04B6  
                                  i1l3967 04A5                                    i1l3959 049C  
                                  u206_20 0EA6                                    u230_20 00E5  
                                  u222_20 007C                                    u214_20 064D  
                                  i1l3889 0F79                                    u206_21 0EA5  
                                  u230_21 00E4                                    u222_21 007B  
                                  u214_21 064C                                    i1l4785 0349  
                                  i1l4777 02F1                                    i1l4769 02E0  
                                  i1l4857 0613                                    i1l4849 05FC  
                                  i1l4961 0CE4                                    i1l4953 0CC5  
                                  i1l3993 04E6                                    i1l3985 04D4  
                                  i1l3977 04B7                                    i1l3969 04A7  
                                  i1l4795 037B                                    i1l4779 0303  
                                  i1l4859 061A                                    i1l4891 06DC  
                                  i1l4883 06C8                                    i1l4971 0CFC  
                                  i1l4963 0CE6                                    i1l4955 0CD0  
                                  i1l4947 0CAA                                    i1l3995 04EB  
                                  i1l3987 04D8                                    i1l3979 04B8  
                                  i1l4797 0388                                    i1l4789 0353  
                                  i1l4893 06DD                                    i1l4885 06CF  
                                  i1l4965 0CE8                                    i1l4957 0CD7  
                                  i1l4949 0CB3                                    i1l3997 04ED  
                                  i1l3989 04DE                                    i1l4799 038C  
                                  i1l4895 06E3                                    i1l4887 06D3  
                                  i1l4879 06BC                                    i1l4967 0CEA  
                                  i1l4959 0CE2                                    i1l3999 04F1  
                                  u207_20 0EBD                                    u231_20 00FA  
                                  u223_20 0085                                    u215_20 0685  
                                  u207_21 0EBC                                    u231_21 00F9  
                                  u223_21 0084                                    u215_21 0684  
                                  i1l4897 06E5                                    i1l4889 06D7  
                                  i1l4969 0CED                                    i1l4899 06E9  
                                  u232_20 0116                                    u224_20 0093  
                                  u216_20 0DC2                                    u208_20 0D60  
                                  u400_20 02DD                                    u232_21 0115  
                                  u224_21 0092                                    u216_21 0DC1  
                                  u208_21 0D5F                                    u400_21 02DC  
                                  u233_20 011E                                    u225_20 009A  
                                  u217_20 0DCF                                    u209_20 0D92  
                                  u241_20 0508                                    u233_21 011D  
                                  u225_21 0099                                    u217_21 0DCE  
                                  u209_21 0D91                                    u241_21 0507  
                                  u209_25 0D8E                                    u250_20 03EB  
                                  u234_20 0122                                    u226_20 00A1  
                                  u218_20 0DED                                    u242_20 050D  
                                  u402_20 000A                                    u250_21 03EA  
                                  u234_21 0121                                    u226_21 00A0  
                                  u218_21 0DEC                                    u242_21 050C  
                                  u402_21 0009                                    u251_20 040C  
                                  u235_20 014A                                    u227_20 00AA  
                                  u219_20 0DF5                                    u243_20 0518  
                                  u403_20 000E                                    u251_21 040B  
                                  u235_21 0149                                    u227_21 00A9  
                                  u219_21 0DF4                                    u243_21 0517  
                                  u403_21 000D                                    u308_20 0910  
                                  u260_20 0F34                                    u252_20 0453  
                                  u236_20 0177                                    u228_20 00B1  
                                  u244_20 0555                                    u404_20 0016  
                                  u308_21 090F                                    u260_21 0F33  
                                  u252_21 0452                                    u236_21 0176  
                                  u228_21 00B0                                    u244_21 0554  
                                  u404_21 0015                                    u180_25 0B95  
                                  u309_20 0951                                    u261_20 0F4B  
                                  u237_20 017F                                    u229_20 00B7  
                                  u245_20 0560                                    u405_20 001A  
                                  u309_21 0950                                    u261_21 0F4A  
                                  u237_21 017E                                    u229_21 00B6  
                                  u245_21 055F                                    u405_21 0019  
                                  u181_25 0B9B                                    u262_20 0F5C  
                                  u190_20 0E2E                                    u238_20 0183  
                                  u246_20 056C                                    u270_20 04DE  
                                  u406_20 0022                                    u262_21 0F5B  
                                  u190_21 0E2D                                    u238_21 0182  
                                  u246_21 056B                                    u270_21 04DD  
                                  u406_21 0021                                    u182_25 0BA3  
                                  u263_20 0F79                                    u183_20 0BB4  
                                  u191_20 0E34                                    u247_20 05A2  
                                  u255_20 0AEA                                    u271_20 09F4  
                                  u407_20 0027                                    u263_21 0F78  
                                  u183_21 0BB3                                    u191_21 0E33  
                                  u247_21 05A1                                    u255_21 0AE9  
                                  u271_21 09F3                                    u407_21 0026  
                                  u248_20 03BE                                    u256_20 0B5A  
                                  u184_20 09FC                                    u192_20 0E39  
                                  u360_20 037A                                    u272_20 09A7  
                                  u408_20 002C                                    u248_21 03BD  
                                  u256_21 0B59                                    u184_21 09FB  
                                  u192_21 0E38                                    u360_21 0379  
                                  u272_21 09A6                                    u408_21 002B  
                                  u248_25 03BA                                    u281_20 093D  
                                  u193_20 0F8D                                    u249_20 03E5  
                                  u257_20 0B65                                    u185_20 0A05  
                                  u361_20 03A9                                    u273_20 09B0  
                                  u281_21 093C                                    u193_21 0F8C  
                                  u249_21 03E4                                    u257_21 0B64  
                                  u185_21 0A04                                    u361_21 03A8  
                                  u273_21 09AF                                    u194_20 0F96  
                                  u258_20 0F1A                                    u186_20 074A  
                                  u362_20 05BF                                    u266_20 0475  
                                  u274_20 0A97                                    u194_21 0F95  
                                  u258_21 0F19                                    u186_21 0749  
                                  u362_21 05BE                                    u266_21 0474  
                                  u274_21 0A96                                    u195_20 0FA0  
                                  u259_20 0F24                                    u187_20 0762  
                                  u363_20 05E7                                    u371_20 0D0D  
                                  u275_20 0AA1                                    u195_21 0F9F  
                                  u259_21 0F23                                    u187_21 0761  
                                  u363_21 05E6                                    u371_21 0D0C  
                                  u275_21 0AA0                                    u267_25 0480  
                                  u196_20 0FC1                                    u188_20 0797  
                                  u364_20 0613                                    u268_20 0498  
                                  u276_20 0AAB                                    u380_20 01DF  
                                  u196_21 0FC0                                    u188_21 0796  
                                  u364_21 0612                                    u268_21 0497  
                                  u276_21 0AAA                                    u380_21 01DE  
                                  u372_25 0D11                                    u197_20 0FE0  
                                  u189_20 0E25                                    u357_20 02EA  
                                  u373_20 0D31                                    u269_20 04AC  
                                  u381_20 01E3                                    u197_21 0FDF  
                                  u189_21 0E24                                    u357_21 02E9  
                                  u373_21 0D30                                    u269_21 04AB  
                                  u381_21 01E2                                    u198_20 0FFF  
                                  u358_20 030C                                    u374_20 0D52  
                                  u390_20 0244                                    u382_20 01F1  
                                  u198_21 0FFE                                    u358_21 030B  
                                  u374_21 0D51                                    u390_21 0243  
                                  u382_21 01F0                                    u359_20 0352  
                                  u367_20 06C5                                    u391_20 024C  
                                  u383_20 01F8                                    u359_21 0351  
                                  u367_21 06C4                                    u391_21 024B  
                                  u383_21 01F7                                    u392_20 0250  
                                  u384_20 01FC                                    u392_21 024F  
                                  u384_21 01FB                                    u393_20 0258  
                                  u385_20 020E                                    u393_21 0257  
                                  u385_21 020D                                    u394_20 025C  
                                  u386_20 0212                                    u378_20 01CD  
                                  _OSCCON 0099                                    u394_21 025B  
                                  u386_21 0211                                    u378_21 01CC  
                                  u395_20 0275                                    u387_20 021A  
                                  u379_20 01D2                                    u395_21 0274  
                                  u387_21 0219                                    u379_21 01D1  
                                  u396_20 027D                                    u388_20 021E  
                                  u396_21 027C                                    u388_21 021D  
                                  u397_20 0284                                    u389_20 023D  
                                  u397_21 0283                                    u389_21 023C  
                                  u398_20 029B                                    u398_21 029A  
                                  u399_20 02BF                                    u399_21 02BE  
                                  _PLLRDY 04D6                                    _WDTCON 0097  
                        __end_of__readBit 0999                  __size_of_eeprom_readByte 0031  
                       _shortPacketStatus 00B1                           USBDeviceTasks@i 00BA  
             USBStdFeatureReqHandler@pUEP 0068                  USBTransferOnePacket@data 0071  
              USBCtrlTrfInHandler@lastDTS 0075                           ??_USBDeviceInit 0070  
                       _USBEnableEndpoint 09F7           __size_of_USBStdGetStatusHandler 0067  
                      __size_of__i2cstart 000B                                    _memcpy 0ABD  
                                  _memset 02E0                        ?_USBEnableEndpoint 0077  
           __size_of_USBTransferOnePacket 0087                                 ?_ACK_Poll 0070  
                     ??_USBEnableEndpoint 0078                          ?_PIN_MANAGER_IOC 0070  
                             _CtrlTrfData 0058                              ??_IOCAF5_ISR 0070  
                        _eeprom_writePage 0C5B                          _eeprom_writeByte 0A1C  
                    _controlTransferState 00B0                   __end_of__initialization 006B  
                         ACK_Poll@ackstat 00C3                           eeprom_readMem@i 00C4  
                __size_of_USBStallHandler 002B                       __size_of_USBSuspend 0020  
                          __pcstackCOMMON 0070                 __end_of_USBEnableEndpoint 0A1C  
                           __end_of_sd000 10B3                             __end_of_sd001 1077  
                           __end_of_sd002 108D                             __end_of_sd003 10AF  
                               ?_TMR0_ISR 0070                        __size_of__readByte 0028  
        __size_of_USBCtrlEPAllowDataStage 0060             __size_of_USBConfigureEndpoint 0043  
             __end_of_USBCtrlTrfInHandler 0F7F                        __end_of_IOCAF5_ISR 0945  
                          _OPTION_REGbits 0095                                _cdc_notice 0220  
                              _cdc_rx_len 01D8                          __writeByte@i_123 00BF  
                              _cdc_tx_len 01D7                                ??_ACK_Poll 00C2  
                       eeprom_writePage@i 0258                  ??_USBCtrlTrfSetupHandler 006F  
                 _USBTicksSinceSuspendEnd 01DA                        __size_of__writeBit 0013  
                  _USBStdGetStatusHandler 0DB6                                __pbssBANK1 00A0  
                              __pbssBANK3 01B0                                __pbssBANK4 0220  
                              __pbssBANK5 02A0                                __pbssBANK6 0320  
                       __end_of__i2cstart 091F                   eeprom_writePage@address 00C4  
        ??_IOCAF5_DefaultInterruptHandler 0070           ?_IOCAF5_DefaultInterruptHandler 0070  
             __size_of_USBWakeFromSuspend 0022                               _pBDTEntryIn 00A0  
                 _IOCAF5_InterruptHandler 01D1          __end_of_USBCtrlEPServiceComplete 05A4  
                               ?__i2cstop 0070               __size_of_USBCheckCDCRequest 006F  
                              __pmaintext 0C14                      USBCtrlTrfRxService@i 0074  
                              ??_TMR0_ISR 0070                eeprom_writePage@addresslsb 0257  
                              __pintentry 0004                         ??_eeprom_readByte 00C5  
                                 ?_memcpy 0070                                   ?_memset 0070  
                              _device_dsc 108D                          _USBCtrlEPService 0D00  
                              _ep_data_in 01C4               __end_of_USBCtrlTrfRxService 0457  
                      _USBCheckStdRequest 06BC                         _configDescriptor1 1000  
                               ?__readBit 0070                   eeprom_writeByte@address 00C4  
             __end_of_USBCtrlTrfTxService 1000                       _USBStdSetCfgHandler 05A4  
                                 _OSCTUNE 0098                       ?_USBCheckStdRequest 0070  
            __size_of_USBStdGetDscHandler 008B                                   _UIEbits 0E92  
                       __end_of__readByte 0A6A                                   _UIRbits 0E90  
                              __writeByte 0A6A                             _cdc_trf_state 00AD  
                                 _pCDCDst 01CB                                   _pCDCSrc 01CD  
                    _ADC_InterruptHandler 01D3                                ??__i2cstop 00BB  
         ??_USBIncrement1msInternalTimers 0070                      ?_USBStdSetCfgHandler 0070  
                               _CDCInitEP 0B1C                __size_of_USBEnableEndpoint 0025  
                              _readBuffer 02A0                      ??_USBCheckStdRequest 006D  
           __size_of_USBCtrlTrfOutHandler 003A                          ??_USBDeviceTasks 00B8  
                       __end_of__writeBit 096A                         ??_USBStallHandler 0070  
                    eeprom_writePage@data 00C6                           __size_of_memcpy 002E  
                         __size_of_memset 00CA                 __end_of_configDescriptor1 1043  
                                 __ptext1 0C5B                                   __ptext2 0A1C  
                                 __ptext3 096A                                   __ptext4 0BD0  
                                 __ptext5 0AEB                                   __ptext6 0A6A  
                                 __ptext7 0A42                                   __ptext8 0957  
                                 __ptext9 097E                                   _inPipes 00A6  
                    eeprom_writeByte@data 00C6               _USBDeferOUTDataStagePackets 01DB  
                            ??_USBSuspend 0066                                ??__readBit 00BB  
                               _IOCAFbits 0393                                 _IOCANbits 0392  
                               _IOCAPbits 0391                        __end_of_USB_CD_Ptr 10B5  
         __size_of_USBCtrlTrfSetupHandler 0056                                   clrloop0 092B  
                    end_of_initialization 006B                        __end_of_USB_SD_Ptr 10A7  
                                 memcpy@d 0079                                   memcpy@n 0072  
                                 memcpy@s 0075                       _pBDTEntryEP0OutNext 00AB  
                                 memset@c 0072                                   memset@k 007A  
                                 memset@n 0074                                   memset@s 007C  
                         _USB1msTickCount 01BD           _dummy_encapsulated_cmd_response 024E  
                ?_USBStdFeatureReqHandler 0070                     ??_USBStdSetCfgHandler 0066  
                              ?_CDCInitEP 0070                             __readBit@data 00BC  
                      __end_of_USBSuspend 09D5                   _USBCtrlEPAllowDataStage 0D56  
                _USBCtrlEPServiceComplete 0501                  __end_of_eeprom_writePage 0CAA  
                __end_of_eeprom_writeByte 0A42                _USBStatusStageEnabledFlag1 01DE  
              _USBStatusStageEnabledFlag2 01DD                        USBEnableEndpoint@p 007A  
                               _PORTBbits 000D                             __readByte@ack 00BE  
                           __readByte@ret 00C1                                 _TRISBbits 008D  
                      _BothEP0OutUOWNsSet 01E0                 USBStdSetCfgHandler@i_1640 0069  
               USBConfigureEndpoint@EPNum 0075                         __size_of_ACK_Poll 0014  
              ?_USBCtrlEPAllowStatusStage 0070       USER_USB_CALLBACK_EVENT_HANDLER@size 0064  
                               _USTATcopy 00B4                               ?__writeByte 0070  
            __end_of_USBTransferOnePacket 07CB                        USBDeviceInit@i_904 0073  
                  _USBCtrlTrfSetupHandler 0CAA                     __end_of_USBDeviceInit 0501  
   __end_of_USBIncrement1msInternalTimers 09B5    __size_of_USBIncrement1msInternalTimers 001C  
           _USBIncrement1msInternalTimers 0999                         __size_of_TMR0_ISR 0012  
                          __end_of_memcpy 0AEB                            __end_of_memset 03AA  
                       _USBBusIsSuspended 01E1                       start_initialization 0034  
                 ?_USBStdGetStatusHandler 0070             USBCtrlTrfRxService@byteToRead 0075  
                             _cdc_data_rx 20C0                               _cdc_data_tx 2080  
            __end_of_USBConfigureEndpoint 0BD0           __end_of_USBStdFeatureReqHandler 01C7  
       __end_of_USBCtrlEPAllowStatusStage 0F05                  __end_of_USBCtrlEPService 0D56  
                         _eeprom_readByte 0AEB                 ??_USBCtrlEPAllowDataStage 0073  
                __size_of_PIN_MANAGER_IOC 0009                                 __i2cstart 0914  
                             ??_CDCInitEP 007D                            USBDeviceInit@i 0074  
                          USBDeviceInit@p 0071                   __size_of_eeprom_readMem 0044  
                  _pBDTEntryEP0OutCurrent 00B2                   USBTransferOnePacket@dir 0070  
                 USBTransferOnePacket@len 0073                         __size_of__i2cstop 000B  
                     _USBStdGetDscHandler 0631                                  ??_memcpy 0074  
                                ??_memset 0076                                memset@dest 0070  
                     __size_of__writeByte 0028    __end_of_IOCAF5_DefaultInterruptHandler 07FF  
 __size_of_IOCAF5_DefaultInterruptHandler 0001            _IOCAF5_DefaultInterruptHandler 07FE  
                             __readByte@i 00BF                    _USBActiveConfiguration 00B5  
          __end_of_USBStdGetStatusHandler 0E1D                                 ___latbits 0002  
                           __pcstackBANK0 0060                             __pcstackBANK1 00B6  
                           __pcstackBANK3 01EE              __size_of_USBCtrlTrfInHandler 007A  
                           __pcstackBANK4 0256                         __size_of__readBit 001B  
                    ?_USBStdGetDscHandler 0070                __end_of_USBWakeFromSuspend 09F7  
                         _USBStallHandler 0A92                              _pBDTEntryOut 01B7  
                               __readByte 0A42                __end_of_USBCheckCDCRequest 0E8C  
                   _TMR0_InterruptHandler 01CF                                ?__i2cstart 0070  
               eeprom_readByte@addresslsb 00C7                 eeprom_readByte@addressmsb 00C6  
              eeprom_writeByte@addresslsb 00C9                eeprom_writeByte@addressmsb 00C8  
            ??_INTERRUPT_InterruptManager 007E                                 __writeBit 0957  
                    _USBTransferOnePacket 0744                                  _ACK_Poll 096A  
            __end_of_USBCtrlTrfOutHandler 0B8D                     ??_USBStdGetDscHandler 0070  
                             _ep_data_out 01C1                   __end_of_eeprom_readByte 0B1C  
            __size_of_USBCtrlTrfRxService 00AD             USBConfigureEndpoint@direction 0070  
            __size_of_USBCtrlTrfTxService 0081                                  _LATBbits 010D  
                              ?__readByte 0070                ??_USBCtrlEPServiceComplete 0075  
                               clear_ram0 092A                                  _PIE2bits 0092  
     __size_of_INTERRUPT_InterruptManager 002E                                  _PIR2bits 0012  
                                _UEP0bits 0E98                _USBDeferINDataStagePackets 01DC  
                                _TMR0_ISR 0945               __size_of_USBCheckStdRequest 0088  
                                _UCONbits 0E8E                         ??_PIN_MANAGER_IOC 0070  
                    _USBConfigureEndpoint 0B8D                         ?_eeprom_writePage 00C4  
                       ?_eeprom_writeByte 00C4          __size_of_USBStdFeatureReqHandler 0158  
                              _ADCON0bits 009D                     ?_USBTransferOnePacket 0070  
                              ?__writeBit 0070                        ??_eeprom_writePage 00C7  
                      ??_eeprom_writeByte 00C7                              _RemoteWakeup 01E2  
                 __end_of_USBStallHandler 0ABD               ??_USBCtrlEPAllowStatusStage 0070  
                            ??__writeByte 00BD               __end_of_USBStdSetCfgHandler 0631  
                      __end_of_device_dsc 109F                               ??__i2cstart 00BB  
                 ?_USBCtrlTrfSetupHandler 0070                            _eeprom_readMem 0BD0  
                 USBStdGetStatusHandler@p 0072                                  __i2cstop 091F  
                               memcpy@tmp 0077                    USBTransferOnePacket@ep 0078  
                                _SetupPkt 0050                     ?_USBConfigureEndpoint 0070  
                      __end_of__writeByte 0A92                               _line_coding 01E4  
                                __readBit 097E                   __size_of_USBDeviceTasks 0119  
                                __ptext10 091F                                  __ptext11 0914  
                                __ptext20 0ABD                                  __ptext21 0CAA  
                                __ptext13 01C7                                  __ptext30 07CB  
                                __ptext22 0501                                  __ptext14 09D5  
                                __ptext31 0E1D                                  __ptext23 0D56  
                                __ptext15 09B5                                  __ptext40 0F7F  
                                __ptext32 0B1C                                  __ptext24 06BC  
                                __ptext16 0A92                                  __ptext41 0945  
                                __ptext33 0744                                  __ptext25 05A4  
                                __ptext17 0999                                  __ptext42 07FD  
                                __ptext34 09F7                                  __ptext26 02E0  
                                __ptext18 0457                                  __ptext43 090B  
                                __ptext35 0B8D                                  __ptext27 0DB6  
                                __ptext19 0D00                                  __ptext44 0936  
                                __ptext36 0B53                                  __ptext28 0631  
                                __ptext45 07FE                                  __ptext37 03AA  
                                __ptext29 006F                                  __ptext38 0E8C  
                                __ptext39 0F05                          ?_eeprom_readByte 00C2  
                              _IOCAF5_ISR 0936                    __end_of_eeprom_readMem 0C14  
          __end_of_USBCtrlTrfSetupHandler 0D00                             __size_of_main 0047  
                       ?_USBCtrlEPService 0070                               ??__readByte 00BD  
    __end_of_TMR0_DefaultInterruptHandler 07FE     __size_of_TMR0_DefaultInterruptHandler 0001  
            _TMR0_DefaultInterruptHandler 07FD                        ??_USBCtrlEPService 00B6  
                     _USBCtrlTrfInHandler 0F05                                  _outPipes 01B0  
                    _USBCtrlTrfOutHandler 0B53                                  int$flags 007E  
               _USBCtrlEPAllowStatusStage 0E8C        __end_of_INTERRUPT_InterruptManager 0032  
              _INTERRUPT_InterruptManager 0004                    ??_USBTransferOnePacket 0074  
                  eeprom_readByte@address 00C2                               ??__writeBit 00BB  
               _USBDeferStatusStagePacket 00AE                                _INTCONbits 000B  
                    ?_USBCtrlTrfInHandler 0070                                  memcpy@d1 0078  
                                memcpy@s1 0070             USBCtrlTrfTxService@byteToSend 0072  
                        ?_USBStallHandler 0070                  USBStdFeatureReqHandler@p 006B  
                                intlevel1 0000                    __size_of_USBDeviceInit 00AA  
 __end_of_USER_USB_CALLBACK_EVENT_HANDLER 07FD  __size_of_USER_USB_CALLBACK_EVENT_HANDLER 0032  
        ?_USER_USB_CALLBACK_EVENT_HANDLER 0060         ??_USER_USB_CALLBACK_EVENT_HANDLER 007E  
         _USER_USB_CALLBACK_EVENT_HANDLER 07CB                           ?_eeprom_readMem 0070  
           ?_TMR0_DefaultInterruptHandler 0070                    ??_USBConfigureEndpoint 0071  
                   ?_USBCtrlTrfOutHandler 0070                       _USBCtrlTrfRxService 03AA  
                      _USBWakeFromSuspend 09D5                   _USBStdFeatureReqHandler 006F  
                      _USBCheckCDCRequest 0E1D                       _USBCtrlTrfTxService 0F7F  
                           __pstringtext1 109F                             __pstringtext2 10B3  
                           __pstringtext3 1000                             __pstringtext4 1043  
                           __pstringtext5 1077                             __pstringtext6 108D  
                           __pstringtext7 10A7                             __pstringtext8 10AF  
                              _OPTION_REG 0095                       ?_USBWakeFromSuspend 0070  
                   ??_USBCtrlTrfInHandler 0073                     _USBAlternateInterface 01EB  
                     ?_USBCheckCDCRequest 0070                       USBEnableEndpoint@ep 007C  
                         _endpoint_number 00AF                      ?_USBCtrlTrfRxService 0070  
                             ?_IOCAF5_ISR 0070                  ?_USBCtrlEPAllowDataStage 0070  
                    ?_USBCtrlTrfTxService 0070              _USBStatusStageTimeoutCounter 01DF  
                         _PIN_MANAGER_IOC 090B                      ??_USBWakeFromSuspend 0066  
              USBTransferOnePacket@handle 0079                      ??_USBCheckCDCRequest 0070  
                              _USB_CD_Ptr 10B3  
